 luafar3

 Timestamp is 523f17e7 (Sun Sep 22 19:16:39 2013)

 Preferred load address is 0000000180000000

 Start         Length     Name                   Class
 0001:00000000 000006c8H .idata$5                CODE
 0001:000006c8 00000008H .CRT$XCA                CODE
 0001:000006d0 00000008H .CRT$XCZ                CODE
 0001:000006d8 00000008H .CRT$XIA                CODE
 0001:000006e0 00000020H .CRT$XIC                CODE
 0001:00000700 00000008H .CRT$XIZ                CODE
 0001:00000708 00000008H .CRT$XPA                CODE
 0001:00000710 00000018H .CRT$XPX                CODE
 0001:00000728 00000008H .CRT$XPXA               CODE
 0001:00000730 00000008H .CRT$XPZ                CODE
 0001:00000738 00000008H .CRT$XTA                CODE
 0001:00000740 00000008H .CRT$XTZ                CODE
 0001:00000750 00015f70H .rdata                  CODE
 0001:000166c0 0000007cH .rdata$debug            CODE
 0001:00016740 00000008H .rtc$IAA                CODE
 0001:00016748 00000008H .rtc$IZZ                CODE
 0001:00016750 00000008H .rtc$TAA                CODE
 0001:00016758 00000008H .rtc$TZZ                CODE
 0001:00016760 000378fbH .text                   CODE
 0001:0004e060 0000046bH .text$x                 CODE
 0001:0004e4d0 00002f98H .xdata                  CODE
 0001:00051468 00000078H .idata$2                CODE
 0001:000514e0 00000014H .idata$3                CODE
 0001:000514f8 000006c8H .idata$4                CODE
 0001:00051bc0 00000ebaH .idata$6                CODE
 0001:00052a80 00000458H .edata                  CODE
 0002:00000000 0000a33cH .data                   DATA
 0002:0000a340 00002520H .bss                    DATA
 0003:00000000 00003210H .pdata                  DATA
 0004:00000000 00000058H .rsrc$01                DATA
 0004:00000060 00000358H .rsrc$02                DATA

  Address         Publics by Value              Rva+Base               Lib:Object

 0000:00000000       ___safe_se_handler_count   0000000000000000     <absolute>
 0000:00000000       ___safe_se_handler_table   0000000000000000     <absolute>
 0000:00000000       __ImageBase                0000000180000000     <linker-defined>
 0001:00000000       __imp_RegEnumKeyExW        0000000180001000     advapi32:ADVAPI32.dll
 0001:00000008       __imp_RegSetValueExW       0000000180001008     advapi32:ADVAPI32.dll
 0001:00000010       __imp_RegQueryValueExW     0000000180001010     advapi32:ADVAPI32.dll
 0001:00000018       __imp_RegOpenKeyExW        0000000180001018     advapi32:ADVAPI32.dll
 0001:00000020       __imp_RegDeleteKeyW        0000000180001020     advapi32:ADVAPI32.dll
 0001:00000028       __imp_RegCreateKeyExW      0000000180001028     advapi32:ADVAPI32.dll
 0001:00000030       __imp_RegCloseKey          0000000180001030     advapi32:ADVAPI32.dll
 0001:00000038       __imp_RegEnumValueW        0000000180001038     advapi32:ADVAPI32.dll
 0001:00000040       \177ADVAPI32_NULL_THUNK_DATA 0000000180001040     advapi32:ADVAPI32.dll
 0001:00000048       __imp_GetConsoleScreenBufferInfo 0000000180001048     kernel32:KERNEL32.dll
 0001:00000050       __imp_FreeLibrary          0000000180001050     kernel32:KERNEL32.dll
 0001:00000058       __imp_LoadLibraryW         0000000180001058     kernel32:KERNEL32.dll
 0001:00000060       __imp_GetModuleFileNameW   0000000180001060     kernel32:KERNEL32.dll
 0001:00000068       __imp_GlobalMemoryStatusEx 0000000180001068     kernel32:KERNEL32.dll
 0001:00000070       __imp_GetLastError         0000000180001070     kernel32:KERNEL32.dll
 0001:00000078       __imp_FormatMessageW       0000000180001078     kernel32:KERNEL32.dll
 0001:00000080       __imp_GetLogicalDriveStringsW 0000000180001080     kernel32:KERNEL32.dll
 0001:00000088       __imp_GetDriveTypeW        0000000180001088     kernel32:KERNEL32.dll
 0001:00000090       __imp_SetFileAttributesW   0000000180001090     kernel32:KERNEL32.dll
 0001:00000098       __imp_SearchPathW          0000000180001098     kernel32:KERNEL32.dll
 0001:000000a0       __imp_GetACP               00000001800010a0     kernel32:KERNEL32.dll
 0001:000000a8       __imp_GetOEMCP             00000001800010a8     kernel32:KERNEL32.dll
 0001:000000b0       __imp_GetCPInfoExW         00000001800010b0     kernel32:KERNEL32.dll
 0001:000000b8       __imp_MultiByteToWideChar  00000001800010b8     kernel32:KERNEL32.dll
 0001:000000c0       __imp_WideCharToMultiByte  00000001800010c0     kernel32:KERNEL32.dll
 0001:000000c8       __imp_GetFileAttributesW   00000001800010c8     kernel32:KERNEL32.dll
 0001:000000d0       __imp_FindClose            00000001800010d0     kernel32:KERNEL32.dll
 0001:000000d8       __imp_SystemTimeToFileTime 00000001800010d8     kernel32:KERNEL32.dll
 0001:000000e0       __imp_FileTimeToLocalFileTime 00000001800010e0     kernel32:KERNEL32.dll
 0001:000000e8       __imp_FileTimeToSystemTime 00000001800010e8     kernel32:KERNEL32.dll
 0001:000000f0       __imp_SetEnvironmentVariableW 00000001800010f0     kernel32:KERNEL32.dll
 0001:000000f8       __imp_CreateDirectoryW     00000001800010f8     kernel32:KERNEL32.dll
 0001:00000100       __imp_RemoveDirectoryW     0000000180001100     kernel32:KERNEL32.dll
 0001:00000108       __imp_DeleteFileW          0000000180001108     kernel32:KERNEL32.dll
 0001:00000110       __imp_FindFirstFileW       0000000180001110     kernel32:KERNEL32.dll
 0001:00000118       __imp_CopyFileW            0000000180001118     kernel32:KERNEL32.dll
 0001:00000120       __imp_MoveFileExW          0000000180001120     kernel32:KERNEL32.dll
 0001:00000128       __imp_CompareStringW       0000000180001128     kernel32:KERNEL32.dll
 0001:00000130       __imp_PeekConsoleInputW    0000000180001130     kernel32:KERNEL32.dll
 0001:00000138       __imp_ReadConsoleInputW    0000000180001138     kernel32:KERNEL32.dll
 0001:00000140       __imp_SetEndOfFile         0000000180001140     kernel32:KERNEL32.dll
 0001:00000148       __imp_HeapSize             0000000180001148     kernel32:KERNEL32.dll
 0001:00000150       __imp_GetEnvironmentVariableW 0000000180001150     kernel32:KERNEL32.dll
 0001:00000158       __imp_GetModuleHandleA     0000000180001158     kernel32:KERNEL32.dll
 0001:00000160       __imp_GetSystemTimeAsFileTime 0000000180001160     kernel32:KERNEL32.dll
 0001:00000168       __imp_GetStdHandle         0000000180001168     kernel32:KERNEL32.dll
 0001:00000170       __imp_Sleep                0000000180001170     kernel32:KERNEL32.dll
 0001:00000178       __imp_CreateThread         0000000180001178     kernel32:KERNEL32.dll
 0001:00000180       __imp_SwitchToThread       0000000180001180     kernel32:KERNEL32.dll
 0001:00000188       __imp_EnumSystemCodePagesW 0000000180001188     kernel32:KERNEL32.dll
 0001:00000190       __imp_GetProcAddress       0000000180001190     kernel32:KERNEL32.dll
 0001:00000198       __imp_WriteConsoleW        0000000180001198     kernel32:KERNEL32.dll
 0001:000001a0       __imp_RaiseException       00000001800011a0     kernel32:KERNEL32.dll
 0001:000001a8       __imp_LCMapStringW         00000001800011a8     kernel32:KERNEL32.dll
 0001:000001b0       __imp_GetStringTypeW       00000001800011b0     kernel32:KERNEL32.dll
 0001:000001b8       __imp_CreateFileW          00000001800011b8     kernel32:KERNEL32.dll
 0001:000001c0       __imp_SetStdHandle         00000001800011c0     kernel32:KERNEL32.dll
 0001:000001c8       __imp_HeapReAlloc          00000001800011c8     kernel32:KERNEL32.dll
 0001:000001d0       __imp_OutputDebugStringW   00000001800011d0     kernel32:KERNEL32.dll
 0001:000001d8       __imp_LoadLibraryExW       00000001800011d8     kernel32:KERNEL32.dll
 0001:000001e0       __imp_GetModuleHandleW     00000001800011e0     kernel32:KERNEL32.dll
 0001:000001e8       __imp_TlsFree              00000001800011e8     kernel32:KERNEL32.dll
 0001:000001f0       __imp_TlsSetValue          00000001800011f0     kernel32:KERNEL32.dll
 0001:000001f8       __imp_TlsGetValue          00000001800011f8     kernel32:KERNEL32.dll
 0001:00000200       __imp_TlsAlloc             0000000180001200     kernel32:KERNEL32.dll
 0001:00000208       __imp_TerminateProcess     0000000180001208     kernel32:KERNEL32.dll
 0001:00000210       __imp_SetUnhandledExceptionFilter 0000000180001210     kernel32:KERNEL32.dll
 0001:00000218       __imp_UnhandledExceptionFilter 0000000180001218     kernel32:KERNEL32.dll
 0001:00000220       __imp_RtlVirtualUnwind     0000000180001220     kernel32:KERNEL32.dll
 0001:00000228       __imp_RtlLookupFunctionEntry 0000000180001228     kernel32:KERNEL32.dll
 0001:00000230       __imp_RtlCaptureContext    0000000180001230     kernel32:KERNEL32.dll
 0001:00000238       __imp_QueryPerformanceCounter 0000000180001238     kernel32:KERNEL32.dll
 0001:00000240       __imp_GetModuleFileNameA   0000000180001240     kernel32:KERNEL32.dll
 0001:00000248       __imp_FreeEnvironmentStringsW 0000000180001248     kernel32:KERNEL32.dll
 0001:00000250       __imp_GetEnvironmentStringsW 0000000180001250     kernel32:KERNEL32.dll
 0001:00000258       __imp_GetFileAttributesExW 0000000180001258     kernel32:KERNEL32.dll
 0001:00000260       __imp_GetCurrentProcessId  0000000180001260     kernel32:KERNEL32.dll
 0001:00000268       __imp_CreatePipe           0000000180001268     kernel32:KERNEL32.dll
 0001:00000270       __imp_GetExitCodeProcess   0000000180001270     kernel32:KERNEL32.dll
 0001:00000278       __imp_WaitForSingleObject  0000000180001278     kernel32:KERNEL32.dll
 0001:00000280       __imp_SetFilePointerEx     0000000180001280     kernel32:KERNEL32.dll
 0001:00000288       __imp_GetConsoleCP         0000000180001288     kernel32:KERNEL32.dll
 0001:00000290       __imp_FlushFileBuffers     0000000180001290     kernel32:KERNEL32.dll
 0001:00000298       __imp_GetCPInfo            0000000180001298     kernel32:KERNEL32.dll
 0001:000002a0       __imp_IsValidCodePage      00000001800012a0     kernel32:KERNEL32.dll
 0001:000002a8       __imp_SetFilePointer       00000001800012a8     kernel32:KERNEL32.dll
 0001:000002b0       __imp_GetStartupInfoW      00000001800012b0     kernel32:KERNEL32.dll
 0001:000002b8       __imp_GetFileType          00000001800012b8     kernel32:KERNEL32.dll
 0001:000002c0       __imp_ReadConsoleW         00000001800012c0     kernel32:KERNEL32.dll
 0001:000002c8       __imp_GetConsoleMode       00000001800012c8     kernel32:KERNEL32.dll
 0001:000002d0       __imp_InitializeCriticalSectionAndSpinCount 00000001800012d0     kernel32:KERNEL32.dll
 0001:000002d8       __imp_DeleteCriticalSection 00000001800012d8     kernel32:KERNEL32.dll
 0001:000002e0       __imp_SetLastError         00000001800012e0     kernel32:KERNEL32.dll
 0001:000002e8       __imp_RtlUnwindEx          00000001800012e8     kernel32:KERNEL32.dll
 0001:000002f0       __imp_WriteFile            00000001800012f0     kernel32:KERNEL32.dll
 0001:000002f8       __imp_AreFileApisANSI      00000001800012f8     kernel32:KERNEL32.dll
 0001:00000300       __imp_GetModuleHandleExW   0000000180001300     kernel32:KERNEL32.dll
 0001:00000308       __imp_ExitProcess          0000000180001308     kernel32:KERNEL32.dll
 0001:00000310       __imp_GetProcessHeap       0000000180001310     kernel32:KERNEL32.dll
 0001:00000318       __imp_IsProcessorFeaturePresent 0000000180001318     kernel32:KERNEL32.dll
 0001:00000320       __imp_DecodePointer        0000000180001320     kernel32:KERNEL32.dll
 0001:00000328       __imp_EncodePointer        0000000180001328     kernel32:KERNEL32.dll
 0001:00000330       __imp_IsDebuggerPresent    0000000180001330     kernel32:KERNEL32.dll
 0001:00000338       __imp_GetCurrentThreadId   0000000180001338     kernel32:KERNEL32.dll
 0001:00000340       __imp_GetCommandLineA      0000000180001340     kernel32:KERNEL32.dll
 0001:00000348       __imp_CreateProcessW       0000000180001348     kernel32:KERNEL32.dll
 0001:00000350       __imp_GetTempPathA         0000000180001350     kernel32:KERNEL32.dll
 0001:00000358       __imp_GetCurrentProcess    0000000180001358     kernel32:KERNEL32.dll
 0001:00000360       __imp_DuplicateHandle      0000000180001360     kernel32:KERNEL32.dll
 0001:00000368       __imp_CloseHandle          0000000180001368     kernel32:KERNEL32.dll
 0001:00000370       __imp_ReadFile             0000000180001370     kernel32:KERNEL32.dll
 0001:00000378       __imp_LeaveCriticalSection 0000000180001378     kernel32:KERNEL32.dll
 0001:00000380       __imp_EnterCriticalSection 0000000180001380     kernel32:KERNEL32.dll
 0001:00000388       __imp_HeapAlloc            0000000180001388     kernel32:KERNEL32.dll
 0001:00000390       __imp_HeapFree             0000000180001390     kernel32:KERNEL32.dll
 0001:00000398       \177KERNEL32_NULL_THUNK_DATA 0000000180001398     kernel32:KERNEL32.dll
 0001:000003a0       __imp_RpcStringFreeA       00000001800013a0     rpcrt4:RPCRT4.dll
 0001:000003a8       __imp_UuidCreate           00000001800013a8     rpcrt4:RPCRT4.dll
 0001:000003b0       __imp_UuidToStringA        00000001800013b0     rpcrt4:RPCRT4.dll
 0001:000003b8       __imp_UuidFromStringA      00000001800013b8     rpcrt4:RPCRT4.dll
 0001:000003c0       \177RPCRT4_NULL_THUNK_DATA 00000001800013c0     rpcrt4:RPCRT4.dll
 0001:000003c8       __imp_ShellExecuteW        00000001800013c8     shell32:SHELL32.dll
 0001:000003d0       __imp_SHGetFolderPathW     00000001800013d0     shell32:SHELL32.dll
 0001:000003d8       \177SHELL32_NULL_THUNK_DATA 00000001800013d8     shell32:SHELL32.dll
 0001:000003e0       __imp_wsprintfW            00000001800013e0     user32:USER32.dll
 0001:000003e8       \177USER32_NULL_THUNK_DATA 00000001800013e8     user32:USER32.dll
 0001:000003f0       __imp_luaL_prepbuffer      00000001800013f0     lua5.1:lua5.1.dll
 0001:000003f8       __imp_lua_tocfunction      00000001800013f8     lua5.1:lua5.1.dll
 0001:00000400       __imp_luaL_checkoption     0000000180001400     lua5.1:lua5.1.dll
 0001:00000408       __imp_lua_iscfunction      0000000180001408     lua5.1:lua5.1.dll
 0001:00000410       __imp_luaL_gsub            0000000180001410     lua5.1:lua5.1.dll
 0001:00000418       __imp_luaL_findtable       0000000180001418     lua5.1:lua5.1.dll
 0001:00000420       __imp_lua_isuserdata       0000000180001420     lua5.1:lua5.1.dll
 0001:00000428       __imp_luaL_checkstack      0000000180001428     lua5.1:lua5.1.dll
 0001:00000430       __imp_lua_dump             0000000180001430     lua5.1:lua5.1.dll
 0001:00000438       __imp_lua_typename         0000000180001438     lua5.1:lua5.1.dll
 0001:00000440       __imp_luaL_newstate        0000000180001440     lua5.1:lua5.1.dll
 0001:00000448       __imp_luaL_checkany        0000000180001448     lua5.1:lua5.1.dll
 0001:00000450       __imp_lua_next             0000000180001450     lua5.1:lua5.1.dll
 0001:00000458       __imp_lua_setfenv          0000000180001458     lua5.1:lua5.1.dll
 0001:00000460       __imp_lua_rawset           0000000180001460     lua5.1:lua5.1.dll
 0001:00000468       __imp_lua_settable         0000000180001468     lua5.1:lua5.1.dll
 0001:00000470       __imp_lua_getfenv          0000000180001470     lua5.1:lua5.1.dll
 0001:00000478       __imp_lua_rawget           0000000180001478     lua5.1:lua5.1.dll
 0001:00000480       __imp_lua_close            0000000180001480     lua5.1:lua5.1.dll
 0001:00000488       __imp_luaopen_debug        0000000180001488     lua5.1:lua5.1.dll
 0001:00000490       __imp_luaopen_math         0000000180001490     lua5.1:lua5.1.dll
 0001:00000498       __imp_luaopen_string       0000000180001498     lua5.1:lua5.1.dll
 0001:000004a0       __imp_luaopen_os           00000001800014a0     lua5.1:lua5.1.dll
 0001:000004a8       __imp_luaopen_table        00000001800014a8     lua5.1:lua5.1.dll
 0001:000004b0       __imp_luaopen_base         00000001800014b0     lua5.1:lua5.1.dll
 0001:000004b8       __imp_lua_getinfo          00000001800014b8     lua5.1:lua5.1.dll
 0001:000004c0       __imp_lua_getstack         00000001800014c0     lua5.1:lua5.1.dll
 0001:000004c8       __imp_luaL_addvalue        00000001800014c8     lua5.1:lua5.1.dll
 0001:000004d0       __imp_luaL_error           00000001800014d0     lua5.1:lua5.1.dll
 0001:000004d8       __imp_luaL_checkudata      00000001800014d8     lua5.1:lua5.1.dll
 0001:000004e0       __imp_luaL_optinteger      00000001800014e0     lua5.1:lua5.1.dll
 0001:000004e8       __imp_luaL_optlstring      00000001800014e8     lua5.1:lua5.1.dll
 0001:000004f0       __imp_luaL_checklstring    00000001800014f0     lua5.1:lua5.1.dll
 0001:000004f8       __imp_lua_checkstack       00000001800014f8     lua5.1:lua5.1.dll
 0001:00000500       __imp_lua_replace          0000000180001500     lua5.1:lua5.1.dll
 0001:00000508       __imp_luaL_pushresult      0000000180001508     lua5.1:lua5.1.dll
 0001:00000510       __imp_luaL_addlstring      0000000180001510     lua5.1:lua5.1.dll
 0001:00000518       __imp_luaL_buffinit        0000000180001518     lua5.1:lua5.1.dll
 0001:00000520       __imp_luaL_optnumber       0000000180001520     lua5.1:lua5.1.dll
 0001:00000528       __imp_lua_error            0000000180001528     lua5.1:lua5.1.dll
 0001:00000530       __imp_lua_load             0000000180001530     lua5.1:lua5.1.dll
 0001:00000538       __imp_lua_pushfstring      0000000180001538     lua5.1:lua5.1.dll
 0001:00000540       __imp_luaL_loadstring      0000000180001540     lua5.1:lua5.1.dll
 0001:00000548       __imp_luaL_unref           0000000180001548     lua5.1:lua5.1.dll
 0001:00000550       __imp_luaL_ref             0000000180001550     lua5.1:lua5.1.dll
 0001:00000558       __imp_lua_gc               0000000180001558     lua5.1:lua5.1.dll
 0001:00000560       __imp_lua_pcall            0000000180001560     lua5.1:lua5.1.dll
 0001:00000568       __imp_lua_call             0000000180001568     lua5.1:lua5.1.dll
 0001:00000570       __imp_lua_rawseti          0000000180001570     lua5.1:lua5.1.dll
 0001:00000578       __imp_lua_setfield         0000000180001578     lua5.1:lua5.1.dll
 0001:00000580       __imp_lua_createtable      0000000180001580     lua5.1:lua5.1.dll
 0001:00000588       __imp_lua_rawgeti          0000000180001588     lua5.1:lua5.1.dll
 0001:00000590       __imp_lua_gettable         0000000180001590     lua5.1:lua5.1.dll
 0001:00000598       __imp_lua_pushlightuserdata 0000000180001598     lua5.1:lua5.1.dll
 0001:000005a0       __imp_lua_pushcclosure     00000001800015a0     lua5.1:lua5.1.dll
 0001:000005a8       __imp_lua_pushlstring      00000001800015a8     lua5.1:lua5.1.dll
 0001:000005b0       __imp_lua_pushinteger      00000001800015b0     lua5.1:lua5.1.dll
 0001:000005b8       __imp_lua_objlen           00000001800015b8     lua5.1:lua5.1.dll
 0001:000005c0       __imp_lua_toboolean        00000001800015c0     lua5.1:lua5.1.dll
 0001:000005c8       __imp_lua_tointeger        00000001800015c8     lua5.1:lua5.1.dll
 0001:000005d0       __imp_lua_isstring         00000001800015d0     lua5.1:lua5.1.dll
 0001:000005d8       __imp_lua_isnumber         00000001800015d8     lua5.1:lua5.1.dll
 0001:000005e0       __imp_lua_insert           00000001800015e0     lua5.1:lua5.1.dll
 0001:000005e8       __imp_lua_remove           00000001800015e8     lua5.1:lua5.1.dll
 0001:000005f0       __imp_lua_pushvalue        00000001800015f0     lua5.1:lua5.1.dll
 0001:000005f8       __imp_luaL_newmetatable    00000001800015f8     lua5.1:lua5.1.dll
 0001:00000600       __imp_luaL_checkinteger    0000000180001600     lua5.1:lua5.1.dll
 0001:00000608       __imp_luaL_argerror        0000000180001608     lua5.1:lua5.1.dll
 0001:00000610       __imp_luaL_register        0000000180001610     lua5.1:lua5.1.dll
 0001:00000618       __imp_lua_setmetatable     0000000180001618     lua5.1:lua5.1.dll
 0001:00000620       __imp_lua_getmetatable     0000000180001620     lua5.1:lua5.1.dll
 0001:00000628       __imp_lua_newuserdata      0000000180001628     lua5.1:lua5.1.dll
 0001:00000630       __imp_lua_getfield         0000000180001630     lua5.1:lua5.1.dll
 0001:00000638       __imp_lua_pushboolean      0000000180001638     lua5.1:lua5.1.dll
 0001:00000640       __imp_lua_pushstring       0000000180001640     lua5.1:lua5.1.dll
 0001:00000648       __imp_lua_pushnumber       0000000180001648     lua5.1:lua5.1.dll
 0001:00000650       __imp_lua_pushnil          0000000180001650     lua5.1:lua5.1.dll
 0001:00000658       __imp_lua_touserdata       0000000180001658     lua5.1:lua5.1.dll
 0001:00000660       __imp_lua_tolstring        0000000180001660     lua5.1:lua5.1.dll
 0001:00000668       __imp_lua_tonumber         0000000180001668     lua5.1:lua5.1.dll
 0001:00000670       __imp_lua_rawequal         0000000180001670     lua5.1:lua5.1.dll
 0001:00000678       __imp_lua_type             0000000180001678     lua5.1:lua5.1.dll
 0001:00000680       __imp_lua_settop           0000000180001680     lua5.1:lua5.1.dll
 0001:00000688       __imp_lua_gettop           0000000180001688     lua5.1:lua5.1.dll
 0001:00000690       __imp_luaL_checknumber     0000000180001690     lua5.1:lua5.1.dll
 0001:00000698       __imp_luaL_typerror        0000000180001698     lua5.1:lua5.1.dll
 0001:000006a0       __imp_lua_setallocf        00000001800016a0     lua5.1:lua5.1.dll
 0001:000006a8       __imp_lua_concat           00000001800016a8     lua5.1:lua5.1.dll
 0001:000006b0       __imp_lua_getallocf        00000001800016b0     lua5.1:lua5.1.dll
 0001:000006b8       __imp_luaL_checktype       00000001800016b8     lua5.1:lua5.1.dll
 0001:000006c0       \177lua5.1_NULL_THUNK_DATA 00000001800016c0     lua5.1:lua5.1.dll
 0001:000006c8       __xc_a                     00000001800016c8     LIBCMT:crt0init.obj
 0001:000006d0       __xc_z                     00000001800016d0     LIBCMT:crt0init.obj
 0001:000006d8       __xi_a                     00000001800016d8     LIBCMT:crt0init.obj
 0001:00000700       __xi_z                     0000000180001700     LIBCMT:crt0init.obj
 0001:00000708       __xp_a                     0000000180001708     LIBCMT:crt0init.obj
 0001:00000730       __xp_z                     0000000180001730     LIBCMT:crt0init.obj
 0001:00000738       __xt_a                     0000000180001738     LIBCMT:crt0init.obj
 0001:00000740       __xt_z                     0000000180001740     LIBCMT:crt0init.obj
 0001:00000790       metatable_name             0000000180001790     bit64.obj
 0001:00000970       ??_C@_04JAOJMBA@bnot?$AA@  0000000180001970     bit64.obj
 0001:00000978       ??_C@_04BKGNPECA@band?$AA@ 0000000180001978     bit64.obj
 0001:00000980       ??_C@_03BBBGIIAC@bor?$AA@  0000000180001980     bit64.obj
 0001:00000984       ??_C@_04CKCGDDNF@bxor?$AA@ 0000000180001984     bit64.obj
 0001:0000098c       ??_C@_06ELFGPGBK@lshift?$AA@ 000000018000198c     bit64.obj
 0001:00000994       ??_C@_06HMLHBBIJ@rshift?$AA@ 0000000180001994     bit64.obj
 0001:000009a0       ??_C@_07JILILBLL@arshift?$AA@ 00000001800019a0     bit64.obj
 0001:000009a8       ??_C@_03CLCAEGCJ@new?$AA@  00000001800019a8     bit64.obj
 0001:000009ac       ??_C@_03BDGOHNNK@add?$AA@  00000001800019ac     bit64.obj
 0001:000009b0       ??_C@_03KCMAIMAP@sub?$AA@  00000001800019b0     bit64.obj
 0001:000009b4       ??_C@_03IMIFIBCN@mul?$AA@  00000001800019b4     bit64.obj
 0001:000009b8       ??_C@_03FEJMGOGI@div?$AA@  00000001800019b8     bit64.obj
 0001:000009bc       ??_C@_03FFONCNID@mod?$AA@  00000001800019bc     bit64.obj
 0001:000009c0       ??_C@_02HIIGGHJB@eq?$AA@   00000001800019c0     bit64.obj
 0001:000009c4       ??_C@_02KCAKIFL@lt?$AA@    00000001800019c4     bit64.obj
 0001:000009c8       ??_C@_02FJPJILEL@le?$AA@   00000001800019c8     bit64.obj
 0001:000009cc       ??_C@_04GPMDFGEJ@type?$AA@ 00000001800019cc     bit64.obj
 0001:000009d4       ??_C@_05MEHDOBFN@__add?$AA@ 00000001800019d4     bit64.obj
 0001:000009dc       ??_C@_05HFNNBAII@__sub?$AA@ 00000001800019dc     bit64.obj
 0001:000009e4       ??_C@_05FLJIBNKK@__mul?$AA@ 00000001800019e4     bit64.obj
 0001:000009ec       ??_C@_05IDIBPCOP@__div?$AA@ 00000001800019ec     bit64.obj
 0001:000009f4       ??_C@_05ICPALBAE@__mod?$AA@ 00000001800019f4     bit64.obj
 0001:000009fc       ??_C@_05MHFNBPAK@__unm?$AA@ 00000001800019fc     bit64.obj
 0001:00000a04       ??_C@_04GIMIAOHA@__eq?$AA@ 0000000180001a04     bit64.obj
 0001:00000a0c       ??_C@_04BKGOMBLK@__lt?$AA@ 0000000180001a0c     bit64.obj
 0001:00000a14       ??_C@_04EJLHOCKK@__le?$AA@ 0000000180001a14     bit64.obj
 0001:00000a20       ??_C@_0L@HDFPAPPH@__tostring?$AA@ 0000000180001a20     bit64.obj
 0001:00000a30       ??_C@_09GPALILFO@bad?5int64?$AA@ 0000000180001a30     bit64.obj
 0001:00000a3c       ??_C@_05LLAMLEHD@?$CFI64d?$AA@ 0000000180001a3c     bit64.obj
 0001:00000a44       ??_C@_05OALCLICP@bit64?$AA@ 0000000180001a44     bit64.obj
 0001:00000a50       __real@433fffffffffffff    0000000180001a50     bit64.obj
 0001:00000a60       __xmm@80000000000000008000000000000000 0000000180001a60     bit64.obj
 0001:00000fb8       COLLECTOR_FD               0000000180001fb8     exported.obj
 0001:00000fd0       COLLECTOR_OPI              0000000180001fd0     exported.obj
 0001:00000fe8       COLLECTOR_PI               0000000180001fe8     exported.obj
 0001:00001000       KEY_OBJECT                 0000000180002000     exported.obj
 0001:00001288       ??_C@_05GFCDIDHO@debug?$AA@ 0000000180002288     exported.obj
 0001:00001290       ??_C@_09GPFEECNC@traceback?$AA@ 0000000180002290     exported.obj
 0001:0000129c       ??_C@_06NKNNMLDJ@export?$AA@ 000000018000229c     exported.obj
 0001:000012a8       ??_C@_07PCNKBAGB@OnError?$AA@ 00000001800022a8     exported.obj
 0001:000012b0       ??_C@_0N@NJMIGDDL@CreationTime?$AA@ 00000001800022b0     exported.obj
 0001:000012c0       ??_C@_0P@MFHPCDDH@LastAccessTime?$AA@ 00000001800022c0     exported.obj
 0001:000012d0       ??_C@_0O@FCFNCAHK@LastWriteTime?$AA@ 00000001800022d0     exported.obj
 0001:000012e0       ??_C@_0L@FCILKIIG@ChangeTime?$AA@ 00000001800022e0     exported.obj
 0001:000012f0       ??_C@_08BHIEONMC@FileSize?$AA@ 00000001800022f0     exported.obj
 0001:00001300       ??_C@_0P@JBACEJLL@AllocationSize?$AA@ 0000000180002300     exported.obj
 0001:00001310       ??_C@_05BOOEKJH@Flags?$AA@ 0000000180002310     exported.obj
 0001:00001318       ??_C@_0O@DLGJHFNH@NumberOfLinks?$AA@ 0000000180002318     exported.obj
 0001:00001328       ??_C@_05MHNOECFO@CRC32?$AA@ 0000000180002328     exported.obj
 0001:00001330       ??_C@_08FDCJCDOL@FileName?$AA@ 0000000180002330     exported.obj
 0001:00001340       ??_C@_0BC@COCBGKAE@AlternateFileName?$AA@ 0000000180002340     exported.obj
 0001:00001358       ??_C@_0M@OHKMKKDH@Description?$AA@ 0000000180002358     exported.obj
 0001:00001364       ??_C@_05HDCNEILF@Owner?$AA@ 0000000180002364     exported.obj
 0001:0000136c       ??_C@_11LOCGONAA@?$AA?$AA@ 000000018000236c     exported.obj
 0001:00001370       ??_C@_08JNHPECBG@UserData?$AA@ 0000000180002370     exported.obj
 0001:00001380       ??_C@_0M@DFMHDHBL@GetFindData?$AA@ 0000000180002380     exported.obj
 0001:00001390       ??_C@_08CJLOJPNI@selected?$AA@ 0000000180002390     exported.obj
 0001:000013a0       ??_C@_08FFPEEIHA@GetFiles?$AA@ 00000001800023a0     exported.obj
 0001:000013b0       ??_C@_0BC@IECOKJFL@GetFiles?4DestPath?$AA@ 00000001800023b0     exported.obj
 0001:000013c4       ??_C@_03JEOKDCFP@far?$AA@  00000001800023c4     exported.obj
 0001:000013c8       ??_C@_0BE@HCPAIELH@ReloadDefaultScript?$AA@ 00000001800023c8     exported.obj
 0001:000013e0       ??_C@_0L@OCPPMCCK@StructSize?$AA@ 00000001800023e0     exported.obj
 0001:000013ec       ??_C@_06LBMCOACO@Buffer?$AA@ 00000001800023ec     exported.obj
 0001:000013f4       ??_C@_06EPIAKPGD@OpMode?$AA@ 00000001800023f4     exported.obj
 0001:00001400       ??_C@_07GDADDFBD@Analyse?$AA@ 0000000180002400     exported.obj
 0001:00001408       ??_C@_0BB@CKIGBGLB@GetOpenPanelInfo?$AA@ 0000000180002408     exported.obj
 0001:0000141c       ??_C@_05ELNJBDOO@reuse?$AA@ 000000018000241c     exported.obj
 0001:00001430       ??_C@_1EO@OOOCECGK@?$AAG?$AAe?$AAt?$AAO?$AAp?$AAe?$AAn?$AAP?$AAa?$AAn?$AAe?$AAl?$AAI?$AAn?$AAf?$AAo?$AA?5?$AAs?$AAh?$AAo?$AAu?$AAl?$AAd?$AA?5?$AAr?$AAe?$AAt?$AAu?$AAr?$AAn?$AA?5?$AAa@ 0000000180002430     exported.obj
 0001:00001480       ??_C@_08KDMNIFGM@FreeSize?$AA@ 0000000180002480     exported.obj
 0001:00001490       ??_C@_08PAJOMFPO@HostFile?$AA@ 0000000180002490     exported.obj
 0001:0000149c       ??_C@_06IBPEEEAJ@CurDir?$AA@ 000000018000249c     exported.obj
 0001:000014a4       ??_C@_06PEPCFMNJ@Format?$AA@ 00000001800024a4     exported.obj
 0001:000014b0       ??_C@_0L@CMHIOLLB@PanelTitle?$AA@ 00000001800024b0     exported.obj
 0001:000014c0       ??_C@_09PMEOAIAA@InfoLines?$AA@ 00000001800024c0     exported.obj
 0001:000014d0       ??_C@_0BA@BLCGOCOG@InfoLinesNumber?$AA@ 00000001800024d0     exported.obj
 0001:000014e0       ??_C@_04OJAHODMC@Text?$AA@ 00000001800024e0     exported.obj
 0001:000014e8       ??_C@_04DICKPMGH@Data?$AA@ 00000001800024e8     exported.obj
 0001:000014f0       ??_C@_0L@FPEHOFAI@DescrFiles?$AA@ 00000001800024f0     exported.obj
 0001:00001500       ??_C@_0BA@BBOGKOKF@PanelModesArray?$AA@ 0000000180002500     exported.obj
 0001:00001510       ??_C@_0BB@LFNABPEF@PanelModesNumber?$AA@ 0000000180002510     exported.obj
 0001:00001528       ??_C@_0M@KDJPJFOF@ColumnTypes?$AA@ 0000000180002528     exported.obj
 0001:00001538       ??_C@_0N@ILFJPGHI@ColumnWidths?$AA@ 0000000180002538     exported.obj
 0001:00001548       ??_C@_0BC@KELOOKNK@StatusColumnTypes?$AA@ 0000000180002548     exported.obj
 0001:00001560       ??_C@_0BD@DNDIPKDK@StatusColumnWidths?$AA@ 0000000180002560     exported.obj
 0001:00001578       ??_C@_0N@EHCEJHEE@ColumnTitles?$AA@ 0000000180002578     exported.obj
 0001:00001588       ??_C@_0P@BEEDPJDK@StartPanelMode?$AA@ 0000000180002588     exported.obj
 0001:00001598       ??_C@_0O@NIFKFGBJ@StartSortMode?$AA@ 0000000180002598     exported.obj
 0001:000015a8       ??_C@_0P@KMACBLNK@StartSortOrder?$AA@ 00000001800025a8     exported.obj
 0001:000015b8       ??_C@_06ONGFDHIA@KeyBar?$AA@ 00000001800025b8     exported.obj
 0001:000015c0       ??_C@_0P@PKDBPEJI@VirtualKeyCode?$AA@ 00000001800025c0     exported.obj
 0001:000015d0       ??_C@_0BA@MFFHAKP@ControlKeyState?$AA@ 00000001800025d0     exported.obj
 0001:000015e0       ??_C@_08DGDJEKCP@LongText?$AA@ 00000001800025e0     exported.obj
 0001:000015f0       ??_C@_0N@IHDKLODA@ShortcutData?$AA@ 00000001800025f0     exported.obj
 0001:00001600       ??_C@_05HIFJDKLD@array?$AA@ 0000000180002600     exported.obj
 0001:00001608       ??_C@_01EFFIKLCJ@n?$AA@    0000000180002608     exported.obj
 0001:0000160a       ??_C@_00CNPNBAHC@?$AA@     000000018000260a     exported.obj
 0001:0000160c       ??_C@_04DNCDCIAE@Open?$AA@ 000000018000260c     exported.obj
 0001:00001614       ??_C@_04OPJIDECA@hDlg?$AA@ 0000000180002614     exported.obj
 0001:0000161c       ??_C@_06BNNOMDLO@Handle?$AA@ 000000018000261c     exported.obj
 0001:00001628       ??_C@_0L@JMPDJFBN@ClosePanel?$AA@ 0000000180002628     exported.obj
 0001:00001638       ??_C@_07MBOMJGGF@Compare?$AA@ 0000000180002638     exported.obj
 0001:00001640       ??_C@_09NANCCILE@Configure?$AA@ 0000000180002640     exported.obj
 0001:00001650       ??_C@_0M@MMKKMEFA@DeleteFiles?$AA@ 0000000180002650     exported.obj
 0001:00001660       ??_C@_0O@GLLEDHJA@MakeDirectory?$AA@ 0000000180002660     exported.obj
 0001:00001670       ??_C@_0BD@PJNONGDB@MakeDirectory?4Name?$AA@ 0000000180002670     exported.obj
 0001:00001688       ??_C@_0BC@COPMJGBI@ProcessPanelEvent?$AA@ 0000000180002688     exported.obj
 0001:000016a0       ??_C@_0BA@DPJAKFGC@ProcessHostFile?$AA@ 00000001800026a0     exported.obj
 0001:000016b0       ??_C@_0BC@HOBKGBBM@ProcessPanelInput?$AA@ 00000001800026b0     exported.obj
 0001:000016c8       ??_C@_08OBOOFGOD@PutFiles?$AA@ 00000001800026c8     exported.obj
 0001:000016d8       ??_C@_0N@KCFEBPAO@SetDirectory?$AA@ 00000001800026d8     exported.obj
 0001:000016e8       ??_C@_0M@PNOHHCCH@SetFindList?$AA@ 00000001800026e8     exported.obj
 0001:000016f8       ??_C@_07EACELFAO@ExitFAR?$AA@ 00000001800026f8     exported.obj
 0001:00001700       ??_C@_0O@OBCKADMD@GetPluginInfo?$AA@ 0000000180002700     exported.obj
 0001:00001710       ??_C@_0O@GDMHGAFH@CommandPrefix?$AA@ 0000000180002710     exported.obj
 0001:00001720       ??_C@_0O@PHBKMNMJ@DiskMenuGuids?$AA@ 0000000180002720     exported.obj
 0001:00001730       ??_C@_0BA@NLBDFPEO@DiskMenuStrings?$AA@ 0000000180002730     exported.obj
 0001:00001740       ??_C@_0BA@FOMPNLJF@PluginMenuGuids?$AA@ 0000000180002740     exported.obj
 0001:00001750       ??_C@_0BC@DJMJFBJC@PluginMenuStrings?$AA@ 0000000180002750     exported.obj
 0001:00001768       ??_C@_0BC@ILBHAHCH@PluginConfigGuids?$AA@ 0000000180002768     exported.obj
 0001:00001780       ??_C@_0BE@GAFPNGIP@PluginConfigStrings?$AA@ 0000000180002780     exported.obj
 0001:00001798       ??_C@_0BD@DECJPBBK@ProcessEditorInput?$AA@ 0000000180002798     exported.obj
 0001:000017b0       ??_C@_0BD@GEMPAGBO@ProcessEditorEvent?$AA@ 00000001800027b0     exported.obj
 0001:000017c4       ??_C@_04KOACHJEN@Type?$AA@ 00000001800027c4     exported.obj
 0001:000017d0       ??_C@_0N@EKPHGDMI@StringNumber?$AA@ 00000001800027d0     exported.obj
 0001:000017e0       ??_C@_07MOCFLHCN@FileEOL?$AA@ 00000001800027e0     exported.obj
 0001:000017e8       ??_C@_08DOHJINHB@CodePage?$AA@ 00000001800027e8     exported.obj
 0001:000017f8       ??_C@_0BD@GGKMLEJG@ProcessViewerEvent?$AA@ 00000001800027f8     exported.obj
 0001:00001810       ??_C@_0BD@FNHBEIC@ProcessDialogEvent?$AA@ 0000000180002810     exported.obj
 0001:00001824       ??_C@_06CPBJDKAC@Param2?$AA@ 0000000180002824     exported.obj
 0001:0000182c       ??_C@_06EDEGJMB@Param1?$AA@ 000000018000282c     exported.obj
 0001:00001834       ??_C@_03MLMOILGK@Msg?$AA@  0000000180002834     exported.obj
 0001:00001838       ??_C@_0BE@LHJGGGHN@ProcessSynchroEvent?$AA@ 0000000180002838     exported.obj
 0001:00001850       ??_C@_0O@EIDNINIK@GetCustomData?$AA@ 0000000180002850     exported.obj
 0001:00001860       ??_C@_0N@DDJEHLKE@?$DM_globalinfo?$AA@ 0000000180002860     exported.obj
 0001:00001870       ??_C@_07KNEGBPNO@package?$AA@ 0000000180002870     exported.obj
 0001:00001878       ??_C@_07GCEAJMEA@preload?$AA@ 0000000180002878     exported.obj
 0001:00001880       ??_C@_1CA@IBKDMBNJ@?$AA_?$AAg?$AAl?$AAo?$AAb?$AAa?$AAl?$AAi?$AAn?$AAf?$AAo?$AA?4?$AAl?$AAu?$AAa?$AA?$AA@ 0000000180002880     exported.obj
 0001:000018a0       ??_C@_0O@GJMOPLGM@GetGlobalInfo?$AA@ 00000001800028a0     exported.obj
 0001:000018b0       ??_C@_0O@CALOEOI@MinFarVersion?$AA@ 00000001800028b0     exported.obj
 0001:000018c0       ??_C@_07NGFJPNPN@Version?$AA@ 00000001800028c0     exported.obj
 0001:000018c8       ??_C@_04MJHIICBJ@Guid?$AA@ 00000001800028c8     exported.obj
 0001:000018d0       ??_C@_05PABKJLOM@Title?$AA@ 00000001800028d0     exported.obj
 0001:000018d8       ??_C@_06HHECMMLE@Author?$AA@ 00000001800028d8     exported.obj
 0001:000018e0       ??_C@_0BE@DONMOPMJ@ProcessConsoleInput?$AA@ 00000001800028e0     exported.obj
 0001:000018f8       __real@43e0000000000000    00000001800028f8     exported.obj
 0001:00001900       __real@bff0000000000000    0000000180002900     exported.obj
 0001:00001da0       Vals                       0000000180002da0     flags.obj
 0001:000035d8       ??_C@_0BI@IDKIJMME@FARMANAGERVERSION_MAJOR?$AA@ 00000001800045d8     flags.obj
 0001:000035f0       ??_C@_0BI@DMLKEAFC@FARMANAGERVERSION_MINOR?$AA@ 00000001800045f0     flags.obj
 0001:00003608       ??_C@_0BL@NMALNAFP@FARMANAGERVERSION_REVISION?$AA@ 0000000180004608     flags.obj
 0001:00003628       ??_C@_0BI@OLPFLLDD@FARMANAGERVERSION_BUILD?$AA@ 0000000180004628     flags.obj
 0001:00003640       ??_C@_0BI@MOOFLFPC@FARMANAGERVERSION_STAGE?$AA@ 0000000180004640     flags.obj
 0001:00003658       ??_C@_0BD@BKCIMEKM@FARMACRO_KEY_EVENT?$AA@ 0000000180004658     flags.obj
 0001:00003670       ??_C@_0L@MIDBGFJO@CP_UNICODE?$AA@ 0000000180004670     flags.obj
 0001:00003680       ??_C@_0O@MNMCMEJH@CP_REVERSEBOM?$AA@ 0000000180004680     flags.obj
 0001:00003690       ??_C@_0L@JDNPCEDH@CP_DEFAULT?$AA@ 0000000180004690     flags.obj
 0001:000036a0       ??_C@_0M@OMCMFJHA@CP_REDETECT?$AA@ 00000001800046a0     flags.obj
 0001:000036b0       ??_C@_09MNAPNKKC@INDEXMASK?$AA@ 00000001800046b0     flags.obj
 0001:000036c0       ??_C@_09BLFIDJLF@COLORMASK?$AA@ 00000001800046c0     flags.obj
 0001:000036d0       ??_C@_09ENNBLPJC@ALPHAMASK?$AA@ 00000001800046d0     flags.obj
 0001:000036e0       ??_C@_0L@EHFOPLFD@PANEL_NONE?$AA@ 00000001800046e0     flags.obj
 0001:000036f0       ??_C@_0N@LPMKALBG@PANEL_ACTIVE?$AA@ 00000001800046f0     flags.obj
 0001:00003700       ??_C@_0O@HPKEABPN@PANEL_PASSIVE?$AA@ 0000000180004700     flags.obj
 0001:00003710       ??_C@_0L@GOEBPENN@PANEL_STOP?$AA@ 0000000180004710     flags.obj
 0001:00003720       ??_C@_0N@HLIFAAPJ@EEREDRAW_ALL?$AA@ 0000000180004720     flags.obj
 0001:00003730       ??_C@_0P@NHNDIKJ@CURRENT_EDITOR?$AA@ 0000000180004730     flags.obj
 0001:00003740       ??_C@_0BN@PPNDCHHA@EDITOR_COLOR_NORMAL_PRIORITY?$AA@ 0000000180004740     flags.obj
 0001:00003760       ??_C@_07MGGAEAFF@DI_TEXT?$AA@ 0000000180004760     flags.obj
 0001:00003768       ??_C@_08HODBDEHE@DI_VTEXT?$AA@ 0000000180004768     flags.obj
 0001:00003778       ??_C@_0N@IGKKGFMF@DI_SINGLEBOX?$AA@ 0000000180004778     flags.obj
 0001:00003788       ??_C@_0N@EDCLIEAE@DI_DOUBLEBOX?$AA@ 0000000180004788     flags.obj
 0001:00003798       ??_C@_07DOLIFAEF@DI_EDIT?$AA@ 0000000180004798     flags.obj
 0001:000037a0       ??_C@_0L@EOMEIIFM@DI_PSWEDIT?$AA@ 00000001800047a0     flags.obj
 0001:000037b0       ??_C@_0L@MGOIMBKF@DI_FIXEDIT?$AA@ 00000001800047b0     flags.obj
 0001:000037c0       ??_C@_09GGAEMAPJ@DI_BUTTON?$AA@ 00000001800047c0     flags.obj
 0001:000037d0       ??_C@_0M@MHFHGPHJ@DI_CHECKBOX?$AA@ 00000001800047d0     flags.obj
 0001:000037e0       ??_C@_0P@GIPCGMBE@DI_RADIOBUTTON?$AA@ 00000001800047e0     flags.obj
 0001:000037f0       ??_C@_0M@MAKBFNGC@DI_COMBOBOX?$AA@ 00000001800047f0     flags.obj
 0001:00003800       ??_C@_0L@ONDMPPPO@DI_LISTBOX?$AA@ 0000000180004800     flags.obj
 0001:00003810       ??_C@_0P@GDJDPEIK@DI_USERCONTROL?$AA@ 0000000180004810     flags.obj
 0001:00003820       ??_C@_08KAEGOLOB@DM_FIRST?$AA@ 0000000180004820     flags.obj
 0001:00003830       ??_C@_08MJMBFJHA@DM_CLOSE?$AA@ 0000000180004830     flags.obj
 0001:00003840       ??_C@_09KLJOCKAA@DM_ENABLE?$AA@ 0000000180004840     flags.obj
 0001:00003850       ??_C@_0BA@KAMJGFDG@DM_ENABLEREDRAW?$AA@ 0000000180004850     flags.obj
 0001:00003860       ??_C@_0O@FKGMMKLP@DM_GETDLGDATA?$AA@ 0000000180004860     flags.obj
 0001:00003870       ??_C@_0O@HEGKCPOI@DM_GETDLGITEM?$AA@ 0000000180004870     flags.obj
 0001:00003880       ??_C@_0O@BEHCGMCL@DM_GETDLGRECT?$AA@ 0000000180004880     flags.obj
 0001:00003890       ??_C@_0L@ELBDNLFO@DM_GETTEXT?$AA@ 0000000180004890     flags.obj
 0001:0000389c       ??_C@_06IKGPEGEJ@DM_KEY?$AA@ 000000018000489c     flags.obj
 0001:000038a8       ??_C@_0O@DIPLLJEH@DM_MOVEDIALOG?$AA@ 00000001800048a8     flags.obj
 0001:000038b8       ??_C@_0O@EEEDHNPG@DM_SETDLGDATA?$AA@ 00000001800048b8     flags.obj
 0001:000038c8       ??_C@_0O@GKEFJIKB@DM_SETDLGITEM?$AA@ 00000001800048c8     flags.obj
 0001:000038d8       ??_C@_0M@GOFGHDFK@DM_SETFOCUS?$AA@ 00000001800048d8     flags.obj
 0001:000038e8       ??_C@_09ILPFEDOM@DM_REDRAW?$AA@ 00000001800048e8     flags.obj
 0001:000038f8       ??_C@_0L@LDOCOEIP@DM_SETTEXT?$AA@ 00000001800048f8     flags.obj
 0001:00003908       ??_C@_0BE@LABEAIPD@DM_SETMAXTEXTLENGTH?$AA@ 0000000180004908     flags.obj
 0001:00003920       ??_C@_0O@BIFKIPIP@DM_SHOWDIALOG?$AA@ 0000000180004920     flags.obj
 0001:00003930       ??_C@_0M@JPHKGACH@DM_GETFOCUS?$AA@ 0000000180004930     flags.obj
 0001:00003940       ??_C@_0BA@NLMONBKJ@DM_GETCURSORPOS?$AA@ 0000000180004940     flags.obj
 0001:00003950       ??_C@_0BA@KPHABNOF@DM_SETCURSORPOS?$AA@ 0000000180004950     flags.obj
 0001:00003960       ??_C@_0O@LGEKFPKK@DM_SETTEXTPTR?$AA@ 0000000180004960     flags.obj
 0001:00003970       ??_C@_0M@NCOJHJKI@DM_SHOWITEM?$AA@ 0000000180004970     flags.obj
 0001:00003980       ??_C@_0O@GKKCFHIM@DM_ADDHISTORY?$AA@ 0000000180004980     flags.obj
 0001:00003990       ??_C@_0M@MCEMDFMD@DM_GETCHECK?$AA@ 0000000180004990     flags.obj
 0001:000039a0       ??_C@_0M@DDGACGLO@DM_SETCHECK?$AA@ 00000001800049a0     flags.obj
 0001:000039b0       ??_C@_0N@MEGOPFGK@DM_SET3STATE?$AA@ 00000001800049b0     flags.obj
 0001:000039c0       ??_C@_0M@GEPBDDNC@DM_LISTSORT?$AA@ 00000001800049c0     flags.obj
 0001:000039d0       ??_C@_0P@NFJNHAKH@DM_LISTGETITEM?$AA@ 00000001800049d0     flags.obj
 0001:000039e0       ??_C@_0BB@EEIMACNO@DM_LISTGETCURPOS?$AA@ 00000001800049e0     flags.obj
 0001:000039f8       ??_C@_0BB@GKMJCDEM@DM_LISTSETCURPOS?$AA@ 00000001800049f8     flags.obj
 0001:00003a10       ??_C@_0O@NOPCAHGJ@DM_LISTDELETE?$AA@ 0000000180004a10     flags.obj
 0001:00003a20       ??_C@_0L@BMEAECNG@DM_LISTADD?$AA@ 0000000180004a20     flags.obj
 0001:00003a30       ??_C@_0O@HBHDMHP@DM_LISTADDSTR?$AA@ 0000000180004a30     flags.obj
 0001:00003a40       ??_C@_0O@PDFCNPKN@DM_LISTUPDATE?$AA@ 0000000180004a40     flags.obj
 0001:00003a50       ??_C@_0O@GAAGMJJL@DM_LISTINSERT?$AA@ 0000000180004a50     flags.obj
 0001:00003a60       ??_C@_0BC@MIFCLOBD@DM_LISTFINDSTRING?$AA@ 0000000180004a60     flags.obj
 0001:00003a78       ??_C@_0M@EEAEBLKC@DM_LISTINFO?$AA@ 0000000180004a78     flags.obj
 0001:00003a88       ??_C@_0P@PLJLJFPA@DM_LISTGETDATA?$AA@ 0000000180004a88     flags.obj
 0001:00003a98       ??_C@_0P@DGKKKCB@DM_LISTSETDATA?$AA@ 0000000180004a98     flags.obj
 0001:00003aa8       ??_C@_0BB@CELMNLLN@DM_LISTSETTITLES?$AA@ 0000000180004aa8     flags.obj
 0001:00003ac0       ??_C@_0BB@KPJPKCP@DM_LISTGETTITLES?$AA@ 0000000180004ac0     flags.obj
 0001:00003ad8       ??_C@_0BA@ICDJCFLE@DM_RESIZEDIALOG?$AA@ 0000000180004ad8     flags.obj
 0001:00003ae8       ??_C@_0BD@CNGGHGJF@DM_SETITEMPOSITION?$AA@ 0000000180004ae8     flags.obj
 0001:00003b00       ??_C@_0BF@JMINBGBA@DM_GETDROPDOWNOPENED?$AA@ 0000000180004b00     flags.obj
 0001:00003b18       ??_C@_0BF@LJIGJNAO@DM_SETDROPDOWNOPENED?$AA@ 0000000180004b18     flags.obj
 0001:00003b30       ??_C@_0O@NPDKADMJ@DM_SETHISTORY?$AA@ 0000000180004b30     flags.obj
 0001:00003b40       ??_C@_0BD@BPHAAEIM@DM_GETITEMPOSITION?$AA@ 0000000180004b40     flags.obj
 0001:00003b58       ??_C@_0BH@CFMLLNNM@DM_SETMOUSEEVENTNOTIFY?$AA@ 0000000180004b58     flags.obj
 0001:00003b70       ??_C@_0BF@IAGIACOD@DM_EDITUNCHANGEDFLAG?$AA@ 0000000180004b70     flags.obj
 0001:00003b88       ??_C@_0P@OJKNHIPN@DM_GETITEMDATA?$AA@ 0000000180004b88     flags.obj
 0001:00003b98       ??_C@_0P@OGLDKOHO@DM_SETITEMDATA?$AA@ 0000000180004b98     flags.obj
 0001:00003ba8       ??_C@_0L@KNFAKFKE@DM_LISTSET?$AA@ 0000000180004ba8     flags.obj
 0001:00003bb8       ??_C@_0BB@EPMFHAFO@DM_GETCURSORSIZE?$AA@ 0000000180004bb8     flags.obj
 0001:00003bd0       ??_C@_0BB@DANLMDCJ@DM_SETCURSORSIZE?$AA@ 0000000180004bd0     flags.obj
 0001:00003be8       ??_C@_0BD@LAOOKGHD@DM_LISTGETDATASIZE?$AA@ 0000000180004be8     flags.obj
 0001:00003c00       ??_C@_0BA@BHGANJAP@DM_GETSELECTION?$AA@ 0000000180004c00     flags.obj
 0001:00003c10       ??_C@_0BA@GDNOBFED@DM_SETSELECTION?$AA@ 0000000180004c10     flags.obj
 0001:00003c20       ??_C@_0BD@FIHDGIGO@DM_GETEDITPOSITION?$AA@ 0000000180004c20     flags.obj
 0001:00003c38       ??_C@_0BD@GKGFBKHH@DM_SETEDITPOSITION?$AA@ 0000000180004c38     flags.obj
 0001:00003c50       ??_C@_0BE@MCECGHBC@DM_SETCOMBOBOXEVENT?$AA@ 0000000180004c50     flags.obj
 0001:00003c68       ??_C@_0BE@KGBLNJKA@DM_GETCOMBOBOXEVENT?$AA@ 0000000180004c68     flags.obj
 0001:00003c80       ??_C@_0BD@CJEPBACF@DM_GETCONSTTEXTPTR?$AA@ 0000000180004c80     flags.obj
 0001:00003c98       ??_C@_0BD@HOOHICEG@DM_GETDLGITEMSHORT?$AA@ 0000000180004c98     flags.obj
 0001:00003cb0       ??_C@_0BD@EMPBPAFP@DM_SETDLGITEMSHORT?$AA@ 0000000180004cb0     flags.obj
 0001:00003cc8       ??_C@_0BB@GAPFMPKE@DM_GETDIALOGINFO?$AA@ 0000000180004cc8     flags.obj
 0001:00003ce0       ??_C@_08COMJOMAC@DN_FIRST?$AA@ 0000000180004ce0     flags.obj
 0001:00003cf0       ??_C@_0M@NNNAPNMA@DN_BTNCLICK?$AA@ 0000000180004cf0     flags.obj
 0001:00003d00       ??_C@_0BC@MJFJAANN@DN_CTLCOLORDIALOG?$AA@ 0000000180004d00     flags.obj
 0001:00003d18       ??_C@_0BD@HFGBIBBL@DN_CTLCOLORDLGITEM?$AA@ 0000000180004d18     flags.obj
 0001:00003d30       ??_C@_0BD@JMFJPHPD@DN_CTLCOLORDLGLIST?$AA@ 0000000180004d30     flags.obj
 0001:00003d48       ??_C@_0O@NKBDPILK@DN_DRAWDIALOG?$AA@ 0000000180004d48     flags.obj
 0001:00003d58       ??_C@_0P@KGKEDPBI@DN_DRAWDLGITEM?$AA@ 0000000180004d58     flags.obj
 0001:00003d68       ??_C@_0O@JMKNGFLE@DN_EDITCHANGE?$AA@ 0000000180004d68     flags.obj
 0001:00003d78       ??_C@_0N@OCGKCPJF@DN_ENTERIDLE?$AA@ 0000000180004d78     flags.obj
 0001:00003d88       ??_C@_0M@JHFIBKOO@DN_GOTFOCUS?$AA@ 0000000180004d88     flags.obj
 0001:00003d98       ??_C@_07NJJEMKPA@DN_HELP?$AA@ 0000000180004d98     flags.obj
 0001:00003da0       ??_C@_09EDGJFAK@DN_HOTKEY?$AA@ 0000000180004da0     flags.obj
 0001:00003db0       ??_C@_0O@BJECHBCA@DN_INITDIALOG?$AA@ 0000000180004db0     flags.obj
 0001:00003dc0       ??_C@_0N@CHLLLNBO@DN_KILLFOCUS?$AA@ 0000000180004dc0     flags.obj
 0001:00003dd0       ??_C@_0O@CLPABIGO@DN_LISTCHANGE?$AA@ 0000000180004dd0     flags.obj
 0001:00003de0       ??_C@_0L@MLMFBHN@DN_DRAGGED?$AA@ 0000000180004de0     flags.obj
 0001:00003df0       ??_C@_0BB@BOOOCAEG@DN_RESIZECONSOLE?$AA@ 0000000180004df0     flags.obj
 0001:00003e08       ??_C@_0BC@FHPPFLKG@DN_DRAWDIALOGDONE?$AA@ 0000000180004e08     flags.obj
 0001:00003e20       ??_C@_0O@EONPBNNP@DN_LISTHOTKEY?$AA@ 0000000180004e20     flags.obj
 0001:00003e30       ??_C@_08MDDLDGPO@DN_INPUT?$AA@ 0000000180004e30     flags.obj
 0001:00003e40       ??_C@_0BA@FGOGLDBC@DN_CONTROLINPUT?$AA@ 0000000180004e40     flags.obj
 0001:00003e50       ??_C@_08EHEOFOJD@DN_CLOSE?$AA@ 0000000180004e50     flags.obj
 0001:00003e60       ??_C@_0M@POIFBPFN@DN_GETVALUE?$AA@ 0000000180004e60     flags.obj
 0001:00003e70       ??_C@_07DIJJNCBA@DM_USER?$AA@ 0000000180004e70     flags.obj
 0001:00003e78       ??_C@_0BB@HLBBGMAN@BSTATE_UNCHECKED?$AA@ 0000000180004e78     flags.obj
 0001:00003e90       ??_C@_0P@FALAMPGP@BSTATE_CHECKED?$AA@ 0000000180004e90     flags.obj
 0001:00003ea0       ??_C@_0O@KBIFGGHO@BSTATE_3STATE?$AA@ 0000000180004ea0     flags.obj
 0001:00003eb0       ??_C@_0O@ILJOJGLD@BSTATE_TOGGLE?$AA@ 0000000180004eb0     flags.obj
 0001:00003ec0       ??_C@_08PPADCPCM@CBET_KEY?$AA@ 0000000180004ec0     flags.obj
 0001:00003ed0       ??_C@_0L@KHCLMGFJ@CBET_MOUSE?$AA@ 0000000180004ed0     flags.obj
 0001:00003ee0       ??_C@_0BA@KNHGEBNE@PTYPE_FILEPANEL?$AA@ 0000000180004ee0     flags.obj
 0001:00003ef0       ??_C@_0BA@LPPHNHIG@PTYPE_TREEPANEL?$AA@ 0000000180004ef0     flags.obj
 0001:00003f00       ??_C@_0BB@JBINOKAI@PTYPE_QVIEWPANEL?$AA@ 0000000180004f00     flags.obj
 0001:00003f18       ??_C@_0BA@NKMDEBG@PTYPE_INFOPANEL?$AA@ 0000000180004f18     flags.obj
 0001:00003f28       ??_C@_0L@OPHJOKKE@SM_DEFAULT?$AA@ 0000000180004f28     flags.obj
 0001:00003f38       ??_C@_0M@JGBFGGEA@SM_UNSORTED?$AA@ 0000000180004f38     flags.obj
 0001:00003f48       ??_C@_07KIFHAGIL@SM_NAME?$AA@ 0000000180004f48     flags.obj
 0001:00003f50       ??_C@_06GJJJNNFE@SM_EXT?$AA@ 0000000180004f50     flags.obj
 0001:00003f58       ??_C@_08FICJBKFN@SM_MTIME?$AA@ 0000000180004f58     flags.obj
 0001:00003f68       ??_C@_08GCCDHLCN@SM_CTIME?$AA@ 0000000180004f68     flags.obj
 0001:00003f78       ??_C@_08CPOLNKCG@SM_ATIME?$AA@ 0000000180004f78     flags.obj
 0001:00003f88       ??_C@_07OMPKMIKC@SM_SIZE?$AA@ 0000000180004f88     flags.obj
 0001:00003f90       ??_C@_08BCBPOLMA@SM_DESCR?$AA@ 0000000180004f90     flags.obj
 0001:00003fa0       ??_C@_08MEAGCMBB@SM_OWNER?$AA@ 0000000180004fa0     flags.obj
 0001:00003fb0       ??_C@_0BC@NKDBNAHD@SM_COMPRESSEDSIZE?$AA@ 0000000180004fb0     flags.obj
 0001:00003fc8       ??_C@_0M@PKNLKFI@SM_NUMLINKS?$AA@ 0000000180004fc8     flags.obj
 0001:00003fd8       ??_C@_0O@CCKEKPHL@SM_NUMSTREAMS?$AA@ 0000000180004fd8     flags.obj
 0001:00003fe8       ??_C@_0P@PKGMDPMD@SM_STREAMSSIZE?$AA@ 0000000180004fe8     flags.obj
 0001:00003ff8       ??_C@_0M@OAFEBGNH@SM_FULLNAME?$AA@ 0000000180004ff8     flags.obj
 0001:00004008       ??_C@_09KFKGJDHC@SM_CHTIME?$AA@ 0000000180005008     flags.obj
 0001:00004018       ??_C@_0P@FEMAMJLE@EEC_OPEN_ERROR?$AA@ 0000000180005018     flags.obj
 0001:00004028       ??_C@_0N@GLMELIKF@EEC_MODIFIED?$AA@ 0000000180005028     flags.obj
 0001:00004038       ??_C@_0BB@HALKEFOL@EEC_NOT_MODIFIED?$AA@ 0000000180005038     flags.obj
 0001:00004050       ??_C@_0BI@CNPFKHKO@EEC_LOADING_INTERRUPTED?$AA@ 0000000180005050     flags.obj
 0001:00004068       ??_C@_0BK@PHBCABMB@ACTL_GETFARMANAGERVERSION?$AA@ 0000000180005068     flags.obj
 0001:00004088       ??_C@_0N@DPABJDML@ACTL_WAITKEY?$AA@ 0000000180005088     flags.obj
 0001:00004098       ??_C@_0O@CEHHJAFD@ACTL_GETCOLOR?$AA@ 0000000180005098     flags.obj
 0001:000040a8       ??_C@_0BD@OKPAACIK@ACTL_GETARRAYCOLOR?$AA@ 00000001800050a8     flags.obj
 0001:000040c0       ??_C@_0BD@DIFEEKNN@ACTL_GETWINDOWINFO?$AA@ 00000001800050c0     flags.obj
 0001:000040d8       ??_C@_0BE@PJBIPKOD@ACTL_GETWINDOWCOUNT?$AA@ 00000001800050d8     flags.obj
 0001:000040f0       ??_C@_0BG@MNKPOEEN@ACTL_SETCURRENTWINDOW?$AA@ 00000001800050f0     flags.obj
 0001:00004108       ??_C@_0M@IHHFGPPA@ACTL_COMMIT?$AA@ 0000000180005108     flags.obj
 0001:00004118       ??_C@_0BA@CLHFKJJP@ACTL_GETFARHWND?$AA@ 0000000180005118     flags.obj
 0001:00004128       ??_C@_0BD@JFOOLBPN@ACTL_SETARRAYCOLOR?$AA@ 0000000180005128     flags.obj
 0001:00004140       ??_C@_0P@JECKFIA@ACTL_REDRAWALL?$AA@ 0000000180005140     flags.obj
 0001:00004150       ??_C@_0N@DHPLJLHO@ACTL_SYNCHRO?$AA@ 0000000180005150     flags.obj
 0001:00004160       ??_C@_0BG@IJPADENB@ACTL_SETPROGRESSSTATE?$AA@ 0000000180005160     flags.obj
 0001:00004178       ??_C@_0BG@ICJFAPHK@ACTL_SETPROGRESSVALUE?$AA@ 0000000180005178     flags.obj
 0001:00004190       ??_C@_09HNDBKLDC@ACTL_QUIT?$AA@ 0000000180005190     flags.obj
 0001:000041a0       ??_C@_0BA@LJCPDIKK@ACTL_GETFARRECT?$AA@ 00000001800051a0     flags.obj
 0001:000041b0       ??_C@_0BC@FELBEIDG@ACTL_GETCURSORPOS?$AA@ 00000001800051b0     flags.obj
 0001:000041c8       ??_C@_0BC@CAAPIEHK@ACTL_SETCURSORPOS?$AA@ 00000001800051c8     flags.obj
 0001:000041e0       ??_C@_0BE@NPJGMDBM@ACTL_PROGRESSNOTIFY?$AA@ 00000001800051e0     flags.obj
 0001:000041f8       ??_C@_0BD@IPKOEBIA@ACTL_GETWINDOWTYPE?$AA@ 00000001800051f8     flags.obj
 0001:00004210       ??_C@_09CEDFMINA@MSSC_POST?$AA@ 0000000180005210     flags.obj
 0001:00004220       ??_C@_0L@MOADGAEB@MSSC_CHECK?$AA@ 0000000180005220     flags.obj
 0001:00004230       ??_C@_0BA@MMOAIEKP@MACROAREA_OTHER?$AA@ 0000000180005230     flags.obj
 0001:00004240       ??_C@_0BA@DEBOOAEB@MACROAREA_SHELL?$AA@ 0000000180005240     flags.obj
 0001:00004250       ??_C@_0BB@JIMPEHCD@MACROAREA_VIEWER?$AA@ 0000000180005250     flags.obj
 0001:00004268       ??_C@_0BB@KILFBFJH@MACROAREA_EDITOR?$AA@ 0000000180005268     flags.obj
 0001:00004280       ??_C@_0BB@CADENPFI@MACROAREA_DIALOG?$AA@ 0000000180005280     flags.obj
 0001:00004298       ??_C@_0BB@MLMLHIGE@MACROAREA_SEARCH?$AA@ 0000000180005298     flags.obj
 0001:000042b0       ??_C@_0BA@KKMKOLIK@MACROAREA_DISKS?$AA@ 00000001800052b0     flags.obj
 0001:000042c0       ??_C@_0BD@IGOOIJP@MACROAREA_MAINMENU?$AA@ 00000001800052c0     flags.obj
 0001:000042d8       ??_C@_0P@LFLMAHBF@MACROAREA_MENU?$AA@ 00000001800052d8     flags.obj
 0001:000042e8       ??_C@_0P@DKPKIEO@MACROAREA_HELP?$AA@ 00000001800052e8     flags.obj
 0001:000042f8       ??_C@_0BE@MDJPICHC@MACROAREA_INFOPANEL?$AA@ 00000001800052f8     flags.obj
 0001:00004310       ??_C@_0BF@NLJMHMPP@MACROAREA_QVIEWPANEL?$AA@ 0000000180005310     flags.obj
 0001:00004328       ??_C@_0BE@HBMEGBOC@MACROAREA_TREEPANEL?$AA@ 0000000180005328     flags.obj
 0001:00004340       ??_C@_0BF@FCHKCGLL@MACROAREA_FINDFOLDER?$AA@ 0000000180005340     flags.obj
 0001:00004358       ??_C@_0BD@JCFMJGDE@MACROAREA_USERMENU?$AA@ 0000000180005358     flags.obj
 0001:00004370       ??_C@_0BO@OMLEPJPM@MACROAREA_SHELLAUTOCOMPLETION?$AA@ 0000000180005370     flags.obj
 0001:00004390       ??_C@_0BP@OIHAIGBK@MACROAREA_DIALOGAUTOCOMPLETION?$AA@ 0000000180005390     flags.obj
 0001:000043b0       ??_C@_0BB@JPEEDDOG@MACROAREA_COMMON?$AA@ 00000001800053b0     flags.obj
 0001:000043c8       ??_C@_0BD@DIKEKAIJ@MACROSTATE_NOMACRO?$AA@ 00000001800053c8     flags.obj
 0001:000043e0       ??_C@_0BF@PCDEFEGP@MACROSTATE_EXECUTING?$AA@ 00000001800053e0     flags.obj
 0001:000043f8       ??_C@_0BM@EJOFDENO@MACROSTATE_EXECUTING_COMMON?$AA@ 00000001800053f8     flags.obj
 0001:00004418       ??_C@_0BF@BGODKPBB@MACROSTATE_RECORDING?$AA@ 0000000180005418     flags.obj
 0001:00004430       ??_C@_0BM@OICPADFE@MACROSTATE_RECORDING_COMMON?$AA@ 0000000180005430     flags.obj
 0001:00004450       ??_C@_0N@CGFFMLBC@MPEC_SUCCESS?$AA@ 0000000180005450     flags.obj
 0001:00004460       ??_C@_0L@FJDDLDNN@MPEC_ERROR?$AA@ 0000000180005460     flags.obj
 0001:00004470       ??_C@_0N@IBOAADDD@FMVT_UNKNOWN?$AA@ 0000000180005470     flags.obj
 0001:00004480       ??_C@_0N@BDMFKEKE@FMVT_INTEGER?$AA@ 0000000180005480     flags.obj
 0001:00004490       ??_C@_0M@LFMLDDKI@FMVT_STRING?$AA@ 0000000180005490     flags.obj
 0001:000044a0       ??_C@_0M@CKDAIOEN@FMVT_DOUBLE?$AA@ 00000001800054a0     flags.obj
 0001:000044b0       ??_C@_0N@MHKOBOGF@FMVT_BOOLEAN?$AA@ 00000001800054b0     flags.obj
 0001:000044c0       ??_C@_0M@GKPDICDA@FMVT_BINARY?$AA@ 00000001800054c0     flags.obj
 0001:000044d0       ??_C@_0N@FMHCFNDF@FMVT_POINTER?$AA@ 00000001800054d0     flags.obj
 0001:000044e0       ??_C@_08DDPDBBNO@FMVT_NIL?$AA@ 00000001800054e0     flags.obj
 0001:000044f0       ??_C@_0L@DJIKMOJA@FMVT_ARRAY?$AA@ 00000001800054f0     flags.obj
 0001:00004500       ??_C@_0N@FNCFCPIG@WTYPE_PANELS?$AA@ 0000000180005500     flags.obj
 0001:00004510       ??_C@_0N@EJKMDMBK@WTYPE_VIEWER?$AA@ 0000000180005510     flags.obj
 0001:00004520       ??_C@_0N@HJNGGOKO@WTYPE_EDITOR?$AA@ 0000000180005520     flags.obj
 0001:00004530       ??_C@_0N@PBFHKEGB@WTYPE_DIALOG?$AA@ 0000000180005530     flags.obj
 0001:00004540       ??_C@_0M@OMKLELFA@WTYPE_VMENU?$AA@ 0000000180005540     flags.obj
 0001:00004550       ??_C@_0L@BCEMNGOG@WTYPE_HELP?$AA@ 0000000180005550     flags.obj
 0001:00004560       ??_C@_0BA@IPEAOBGN@TBPS_NOPROGRESS?$AA@ 0000000180005560     flags.obj
 0001:00004570       ??_C@_0BD@HMEHMDAL@TBPS_INDETERMINATE?$AA@ 0000000180005570     flags.obj
 0001:00004588       ??_C@_0M@KHLNKPHE@TBPS_NORMAL?$AA@ 0000000180005588     flags.obj
 0001:00004598       ??_C@_0L@DFDPCOFD@TBPS_ERROR?$AA@ 0000000180005598     flags.obj
 0001:000045a8       ??_C@_0M@GHGAPHPP@TBPS_PAUSED?$AA@ 00000001800055a8     flags.obj
 0001:000045b8       ??_C@_0O@MCNCFBLF@VSMT_VIEWMODE?$AA@ 00000001800055b8     flags.obj
 0001:000045c8       ??_C@_09FLKONCNO@VSMT_WRAP?$AA@ 00000001800055c8     flags.obj
 0001:000045d8       ??_C@_0O@INKALKJK@VSMT_WORDWRAP?$AA@ 00000001800055d8     flags.obj
 0001:000045e8       ??_C@_08FNEFFFEL@VMT_TEXT?$AA@ 00000001800055e8     flags.obj
 0001:000045f8       ??_C@_07FLIHDEDA@VMT_HEX?$AA@ 00000001800055f8     flags.obj
 0001:00004600       ??_C@_08BDDNDBMJ@VMT_DUMP?$AA@ 0000000180005600     flags.obj
 0001:00004610       ??_C@_07OJCLGDHJ@VE_READ?$AA@ 0000000180005610     flags.obj
 0001:00004618       ??_C@_08JIBCCIDC@VE_CLOSE?$AA@ 0000000180005618     flags.obj
 0001:00004628       ??_C@_0M@FEFKOOMJ@VE_GOTFOCUS?$AA@ 0000000180005628     flags.obj
 0001:00004638       ??_C@_0N@ICHCAKIB@VE_KILLFOCUS?$AA@ 0000000180005638     flags.obj
 0001:00004648       ??_C@_07BLBPFFLB@EE_READ?$AA@ 0000000180005648     flags.obj
 0001:00004650       ??_C@_07KJGPGPOC@EE_SAVE?$AA@ 0000000180005650     flags.obj
 0001:00004658       ??_C@_09NPOPIKMK@EE_REDRAW?$AA@ 0000000180005658     flags.obj
 0001:00004668       ??_C@_08NFPFGIG@EE_CLOSE?$AA@ 0000000180005668     flags.obj
 0001:00004678       ??_C@_0M@CPNMNBMF@EE_GOTFOCUS?$AA@ 0000000180005678     flags.obj
 0001:00004688       ??_C@_0N@ILLPMAJF@EE_KILLFOCUS?$AA@ 0000000180005688     flags.obj
 0001:00004698       ??_C@_09MIOGFFI@EE_CHANGE?$AA@ 0000000180005698     flags.obj
 0001:000046a8       ??_C@_0P@MBHAHBBG@DE_DLGPROCINIT?$AA@ 00000001800056a8     flags.obj
 0001:000046b8       ??_C@_0BC@BMFEJAMO@DE_DEFDLGPROCINIT?$AA@ 00000001800056b8     flags.obj
 0001:000046d0       ??_C@_0O@ICBCOJCG@DE_DLGPROCEND?$AA@ 00000001800056d0     flags.obj
 0001:000046e0       ??_C@_0BB@MNODJNPE@SE_COMMONSYNCHRO?$AA@ 00000001800056e0     flags.obj
 0001:000046f8       ??_C@_0N@HKGMPMJE@ESPT_TABSIZE?$AA@ 00000001800056f8     flags.obj
 0001:00004708       ??_C@_0BA@GOKHPFCK@ESPT_EXPANDTABS?$AA@ 0000000180005708     flags.obj
 0001:00004718       ??_C@_0BA@KOADDMLI@ESPT_AUTOINDENT?$AA@ 0000000180005718     flags.obj
 0001:00004728       ??_C@_0BF@LPNONOMF@ESPT_CURSORBEYONDEOL?$AA@ 0000000180005728     flags.obj
 0001:00004740       ??_C@_0BC@OECOCGLJ@ESPT_CHARCODEBASE?$AA@ 0000000180005740     flags.obj
 0001:00004758       ??_C@_0O@PIAOJINE@ESPT_CODEPAGE?$AA@ 0000000180005758     flags.obj
 0001:00004768       ??_C@_0BG@HAPABMJH@ESPT_SAVEFILEPOSITION?$AA@ 0000000180005768     flags.obj
 0001:00004780       ??_C@_0O@KCPDJCKC@ESPT_LOCKMODE?$AA@ 0000000180005780     flags.obj
 0001:00004790       ??_C@_0BA@EIGIAOHM@ESPT_SETWORDDIV?$AA@ 0000000180005790     flags.obj
 0001:000047a0       ??_C@_0BA@FGEHLJDF@ESPT_GETWORDDIV?$AA@ 00000001800057a0     flags.obj
 0001:000047b0       ??_C@_0BE@MACJBCFP@ESPT_SHOWWHITESPACE?$AA@ 00000001800057b0     flags.obj
 0001:000047c8       ??_C@_0M@FICNFPPA@ESPT_SETBOM?$AA@ 00000001800057c8     flags.obj
 0001:000047d8       ??_C@_09FLEMPKKP@EUR_BEGIN?$AA@ 00000001800057d8     flags.obj
 0001:000047e8       ??_C@_07DDJDFJCN@EUR_END?$AA@ 00000001800057e8     flags.obj
 0001:000047f0       ??_C@_08FCONALGE@EUR_UNDO?$AA@ 00000001800057f0     flags.obj
 0001:00004800       ??_C@_08DHMMFAHF@EUR_REDO?$AA@ 0000000180005800     flags.obj
 0001:00004810       ??_C@_0O@PKOIFEBO@EXPAND_NOTABS?$AA@ 0000000180005810     flags.obj
 0001:00004820       ??_C@_0P@MLHPCNDM@EXPAND_ALLTABS?$AA@ 0000000180005820     flags.obj
 0001:00004830       ??_C@_0P@OONGIIBL@EXPAND_NEWTABS?$AA@ 0000000180005830     flags.obj
 0001:00004840       ??_C@_0BD@DKHPEOHH@EOPT_EXPANDALLTABS?$AA@ 0000000180005840     flags.obj
 0001:00004858       ??_C@_0BG@BOINMDEK@EOPT_PERSISTENTBLOCKS?$AA@ 0000000180005858     flags.obj
 0001:00004870       ??_C@_0BG@PIIHHCAN@EOPT_DELREMOVESBLOCKS?$AA@ 0000000180005870     flags.obj
 0001:00004888       ??_C@_0BA@KPJEAKBD@EOPT_AUTOINDENT?$AA@ 0000000180005888     flags.obj
 0001:00004898       ??_C@_0BG@MBPADLG@EOPT_SAVEFILEPOSITION?$AA@ 0000000180005898     flags.obj
 0001:000048b0       ??_C@_0BI@PFHCGCAI@EOPT_AUTODETECTCODEPAGE?$AA@ 00000001800058b0     flags.obj
 0001:000048c8       ??_C@_0BF@IMCOEIAL@EOPT_CURSORBEYONDEOL?$AA@ 00000001800058c8     flags.obj
 0001:000048e0       ??_C@_0BH@CJPAGGLC@EOPT_EXPANDONLYNEWTABS?$AA@ 00000001800058e0     flags.obj
 0001:000048f8       ??_C@_0BE@DDKCDJDC@EOPT_SHOWWHITESPACE?$AA@ 00000001800058f8     flags.obj
 0001:00004910       ??_C@_08HMMLONBH@EOPT_BOM?$AA@ 0000000180005910     flags.obj
 0001:00004920       ??_C@_0BD@CLLAKGOA@EOPT_SHOWLINEBREAK?$AA@ 0000000180005920     flags.obj
 0001:00004938       ??_C@_0L@BJCBJJNB@BTYPE_NONE?$AA@ 0000000180005938     flags.obj
 0001:00004948       ??_C@_0N@OPHHGFPF@BTYPE_STREAM?$AA@ 0000000180005948     flags.obj
 0001:00004958       ??_C@_0N@EMEGNPLI@BTYPE_COLUMN?$AA@ 0000000180005958     flags.obj
 0001:00004968       ??_C@_0BB@BNPDAPGB@ECSTATE_MODIFIED?$AA@ 0000000180005968     flags.obj
 0001:00004980       ??_C@_0O@GBBGHDFM@ECSTATE_SAVED?$AA@ 0000000180005980     flags.obj
 0001:00004990       ??_C@_0P@BECIAJAM@ECSTATE_LOCKED?$AA@ 0000000180005990     flags.obj
 0001:000049a0       ??_C@_0P@DOBJCNIG@ECTYPE_CHANGED?$AA@ 00000001800059a0     flags.obj
 0001:000049b0       ??_C@_0N@MDEFMEEA@ECTYPE_ADDED?$AA@ 00000001800059b0     flags.obj
 0001:000049c0       ??_C@_0P@NMOJJPOB@ECTYPE_DELETED?$AA@ 00000001800059c0     flags.obj
 0001:000049d0       ??_C@_08HHHKLJPB@PLT_PATH?$AA@ 00000001800059d0     flags.obj
 0001:000049e0       ??_C@_08KBAMIIFB@PFM_GUID?$AA@ 00000001800059e0     flags.obj
 0001:000049f0       ??_C@_0P@KKEMMPNI@PFM_MODULENAME?$AA@ 00000001800059f0     flags.obj
 0001:00004a00       ??_C@_09BOODOHKD@FFT_PANEL?$AA@ 0000000180005a00     flags.obj
 0001:00004a10       ??_C@_0N@GMEDAGNH@FFT_FINDFILE?$AA@ 0000000180005a10     flags.obj
 0001:00004a20       ??_C@_08KKCPIPGP@FFT_COPY?$AA@ 0000000180005a20     flags.obj
 0001:00004a30       ??_C@_0L@EKPDMFDD@FFT_SELECT?$AA@ 0000000180005a30     flags.obj
 0001:00004a40       ??_C@_0L@LGPEDLLD@FFT_CUSTOM?$AA@ 0000000180005a40     flags.obj
 0001:00004a50       ??_C@_0M@OIOMMFOE@FST_UNKNOWN?$AA@ 0000000180005a50     flags.obj
 0001:00004a60       ??_C@_0L@GGGOEGKJ@FST_SUBKEY?$AA@ 0000000180005a60     flags.obj
 0001:00004a70       ??_C@_09LFEEAJIC@FST_QWORD?$AA@ 0000000180005a70     flags.obj
 0001:00004a80       ??_C@_0L@LPMPBKDL@FST_STRING?$AA@ 0000000180005a80     flags.obj
 0001:00004a90       ??_C@_08EJJJCLIG@FST_DATA?$AA@ 0000000180005a90     flags.obj
 0001:00004aa0       ??_C@_09OBBBBFPE@FSSF_ROOT?$AA@ 0000000180005aa0     flags.obj
 0001:00004ab0       ??_C@_0BB@HDKCPBIO@FSSF_HISTORY_CMD?$AA@ 0000000180005ab0     flags.obj
 0001:00004ac8       ??_C@_0BE@BLPOFODL@FSSF_HISTORY_FOLDER?$AA@ 0000000180005ac8     flags.obj
 0001:00004ae0       ??_C@_0BC@NJCJCCNH@FSSF_HISTORY_VIEW?$AA@ 0000000180005ae0     flags.obj
 0001:00004af8       ??_C@_0BC@CODELNPP@FSSF_HISTORY_EDIT?$AA@ 0000000180005af8     flags.obj
 0001:00004b10       ??_C@_0BG@IFGEMJIF@FSSF_HISTORY_EXTERNAL?$AA@ 0000000180005b10     flags.obj
 0001:00004b28       ??_C@_0BG@DGAKDKFK@FSSF_FOLDERSHORTCUT_0?$AA@ 0000000180005b28     flags.obj
 0001:00004b40       ??_C@_0BG@CPBBALBL@FSSF_FOLDERSHORTCUT_1?$AA@ 0000000180005b40     flags.obj
 0001:00004b58       ??_C@_0BG@EDMFINI@FSSF_FOLDERSHORTCUT_2?$AA@ 0000000180005b58     flags.obj
 0001:00004b70       ??_C@_0BG@BNCHGJJJ@FSSF_FOLDERSHORTCUT_3?$AA@ 0000000180005b70     flags.obj
 0001:00004b88       ??_C@_0BG@FCGGPPFO@FSSF_FOLDERSHORTCUT_4?$AA@ 0000000180005b88     flags.obj
 0001:00004ba0       ??_C@_0BG@ELHNMOBP@FSSF_FOLDERSHORTCUT_5?$AA@ 0000000180005ba0     flags.obj
 0001:00004bb8       ??_C@_0BG@GAFAJNNM@FSSF_FOLDERSHORTCUT_6?$AA@ 0000000180005bb8     flags.obj
 0001:00004bd0       ??_C@_0BG@HJELKMJN@FSSF_FOLDERSHORTCUT_7?$AA@ 0000000180005bd0     flags.obj
 0001:00004be8       ??_C@_0BG@PONDLAFC@FSSF_FOLDERSHORTCUT_8?$AA@ 0000000180005be8     flags.obj
 0001:00004c00       ??_C@_0BG@OHMIIBBD@FSSF_FOLDERSHORTCUT_9?$AA@ 0000000180005c00     flags.obj
 0001:00004c18       ??_C@_0BD@PBIEGEHP@FSSF_CONFIRMATIONS?$AA@ 0000000180005c18     flags.obj
 0001:00004c30       ??_C@_0M@PIGDMPJB@FSSF_SYSTEM?$AA@ 0000000180005c30     flags.obj
 0001:00004c40       ??_C@_0L@LBFNJGFB@FSSF_PANEL?$AA@ 0000000180005c40     flags.obj
 0001:00004c50       ??_C@_0M@KJLIHDEL@FSSF_EDITOR?$AA@ 0000000180005c50     flags.obj
 0001:00004c60       ??_C@_0M@KEMGKEOF@FSSF_SCREEN?$AA@ 0000000180005c60     flags.obj
 0001:00004c70       ??_C@_0M@CBDJLJIE@FSSF_DIALOG?$AA@ 0000000180005c70     flags.obj
 0001:00004c80       ??_C@_0P@OCDADNBF@FSSF_INTERFACE?$AA@ 0000000180005c80     flags.obj
 0001:00004c90       ??_C@_0BB@GBBEBNKE@FSSF_PANELLAYOUT?$AA@ 0000000180005c90     flags.obj
 0001:00004ca8       ??_C@_0M@JCGHGLJF@PSL_ROAMING?$AA@ 0000000180005ca8     flags.obj
 0001:00004cb8       ??_C@_09EDBNDHCM@PSL_LOCAL?$AA@ 0000000180005cb8     flags.obj
 0001:00004cc8       ??_C@_07BPEFOPGM@FCT_ANY?$AA@ 0000000180005cc8     flags.obj
 0001:00004cd0       ??_C@_0L@CDAEILNM@FCT_STREAM?$AA@ 0000000180005cd0     flags.obj
 0001:00004ce0       ??_C@_0L@IADFDBJB@FCT_COLUMN?$AA@ 0000000180005ce0     flags.obj
 0001:00004cf0       ??_C@_0O@KJFMBLFE@LINK_HARDLINK?$AA@ 0000000180005cf0     flags.obj
 0001:00004d00       ??_C@_0O@OOAFIIDA@LINK_JUNCTION?$AA@ 0000000180005d00     flags.obj
 0001:00004d10       ??_C@_0O@FIAPLKLH@LINK_VOLMOUNT?$AA@ 0000000180005d10     flags.obj
 0001:00004d20       ??_C@_0BB@JDBEPJDK@LINK_SYMLINKFILE?$AA@ 0000000180005d20     flags.obj
 0001:00004d38       ??_C@_0BA@GFPIOFMG@LINK_SYMLINKDIR?$AA@ 0000000180005d38     flags.obj
 0001:00004d48       ??_C@_0N@PJENIJFN@LINK_SYMLINK?$AA@ 0000000180005d48     flags.obj
 0001:00004d58       ??_C@_08HNOHKPBK@CPM_FULL?$AA@ 0000000180005d58     flags.obj
 0001:00004d68       ??_C@_08LAEGFKJE@CPM_REAL?$AA@ 0000000180005d68     flags.obj
 0001:00004d78       ??_C@_0L@NPJNPCJM@CPM_NATIVE?$AA@ 0000000180005d78     flags.obj
 0001:00004d88       ??_C@_0L@NCFOENCC@VS_RELEASE?$AA@ 0000000180005d88     flags.obj
 0001:00004d98       ??_C@_08BDGLHPMJ@VS_ALPHA?$AA@ 0000000180005d98     flags.obj
 0001:00004da8       ??_C@_07OKFPMINB@VS_BETA?$AA@ 0000000180005da8     flags.obj
 0001:00004db0       ??_C@_05MMFLPJEB@VS_RC?$AA@ 0000000180005db0     flags.obj
 0001:00004db8       ??_C@_0BC@OOKLINPG@OPEN_LEFTDISKMENU?$AA@ 0000000180005db8     flags.obj
 0001:00004dd0       ??_C@_0BB@CEFDHHLF@OPEN_PLUGINSMENU?$AA@ 0000000180005dd0     flags.obj
 0001:00004de8       ??_C@_0O@IEJHJCNB@OPEN_FINDLIST?$AA@ 0000000180005de8     flags.obj
 0001:00004df8       ??_C@_0O@OGDCDPNG@OPEN_SHORTCUT?$AA@ 0000000180005df8     flags.obj
 0001:00004e08       ??_C@_0BB@JHCCMIPF@OPEN_COMMANDLINE?$AA@ 0000000180005e08     flags.obj
 0001:00004e20       ??_C@_0M@DMJLHMGM@OPEN_EDITOR?$AA@ 0000000180005e20     flags.obj
 0001:00004e30       ??_C@_0M@MOBCONI@OPEN_VIEWER?$AA@ 0000000180005e30     flags.obj
 0001:00004e40       ??_C@_0P@LCDNLGDE@OPEN_FILEPANEL?$AA@ 0000000180005e40     flags.obj
 0001:00004e50       ??_C@_0M@LEBKLGKD@OPEN_DIALOG?$AA@ 0000000180005e50     flags.obj
 0001:00004e60       ??_C@_0N@CBHPGAKB@OPEN_ANALYSE?$AA@ 0000000180005e60     flags.obj
 0001:00004e70       ??_C@_0BD@NFNGGFHI@OPEN_RIGHTDISKMENU?$AA@ 0000000180005e70     flags.obj
 0001:00004e88       ??_C@_0P@FOKOAMLC@OPEN_FROMMACRO?$AA@ 0000000180005e88     flags.obj
 0001:00004e98       ??_C@_0O@NEDDJIHC@OPEN_LUAMACRO?$AA@ 0000000180005e98     flags.obj
 0001:00004ea8       ??_C@_0O@MMDEJBDC@MCT_MACROINIT?$AA@ 0000000180005ea8     flags.obj
 0001:00004eb8       ??_C@_0O@LELGJFIK@MCT_MACROSTEP?$AA@ 0000000180005eb8     flags.obj
 0001:00004ec8       ??_C@_0P@FAJLFCPP@MCT_MACROFINAL?$AA@ 0000000180005ec8     flags.obj
 0001:00004ed8       ??_C@_0P@GBMLNMMI@MCT_MACROPARSE?$AA@ 0000000180005ed8     flags.obj
 0001:00004ee8       ??_C@_0P@GNPFPCF@MCT_LOADMACROS?$AA@ 0000000180005ee8     flags.obj
 0001:00004ef8       ??_C@_0P@HMDDACMI@MCT_ENUMMACROS?$AA@ 0000000180005ef8     flags.obj
 0001:00004f08       ??_C@_0BA@MOCJHMJK@MCT_WRITEMACROS?$AA@ 0000000180005f08     flags.obj
 0001:00004f18       ??_C@_0N@IGJGAHKE@MCT_GETMACRO?$AA@ 0000000180005f18     flags.obj
 0001:00004f28       ??_C@_0BB@PIGPKBDF@MCT_PROCESSMACRO?$AA@ 0000000180005f28     flags.obj
 0001:00004f40       ??_C@_0N@OLCKOJMI@MCT_DELMACRO?$AA@ 0000000180005f40     flags.obj
 0001:00004f50       ??_C@_0BC@NALHIHJ@MCT_RUNSTARTMACRO?$AA@ 0000000180005f50     flags.obj
 0001:00004f68       ??_C@_0P@HOMHAEFB@MCT_EXECSTRING?$AA@ 0000000180005f68     flags.obj
 0001:00004f78       ??_C@_0O@CDBDPKIC@MCT_PANELSORT?$AA@ 0000000180005f78     flags.obj
 0001:00004f88       ??_C@_0BH@PKKJIOHM@MCT_GETCUSTOMSORTMODES?$AA@ 0000000180005f88     flags.obj
 0001:00004fa0       ??_C@_0BC@IOECJI@MPRT_NORMALFINISH?$AA@ 0000000180005fa0     flags.obj
 0001:00004fb8       ??_C@_0BB@PMCBIGCA@MPRT_ERRORFINISH?$AA@ 0000000180005fb8     flags.obj
 0001:00004fd0       ??_C@_0BA@BCBAEEOI@MPRT_ERRORPARSE?$AA@ 0000000180005fd0     flags.obj
 0001:00004fe0       ??_C@_09EJDAADCN@MPRT_KEYS?$AA@ 0000000180005fe0     flags.obj
 0001:00004ff0       ??_C@_0L@GEHHCKFA@MPRT_PRINT?$AA@ 0000000180005ff0     flags.obj
 0001:00005000       ??_C@_0BA@OBIDLEIM@MPRT_PLUGINCALL?$AA@ 0000000180006000     flags.obj
 0001:00005010       ??_C@_0BA@EJFFOAMM@MPRT_PLUGINMENU?$AA@ 0000000180006010     flags.obj
 0001:00005020       ??_C@_0BC@LEDOPMKI@MPRT_PLUGINCONFIG?$AA@ 0000000180006020     flags.obj
 0001:00005038       ??_C@_0BD@HHINMPPI@MPRT_PLUGINCOMMAND?$AA@ 0000000180006038     flags.obj
 0001:00005050       ??_C@_0O@IEMNLPAB@MPRT_USERMENU?$AA@ 0000000180006050     flags.obj
 0001:00005060       ??_C@_0BC@PNCKAHJO@FE_CHANGEVIEWMODE?$AA@ 0000000180006060     flags.obj
 0001:00005078       ??_C@_09DENIDBMJ@FE_REDRAW?$AA@ 0000000180006078     flags.obj
 0001:00005088       ??_C@_07CLNPDBLG@FE_IDLE?$AA@ 0000000180006088     flags.obj
 0001:00005090       ??_C@_08DENCGKED@FE_CLOSE?$AA@ 0000000180006090     flags.obj
 0001:000050a0       ??_C@_08MOMCCKPB@FE_BREAK?$AA@ 00000001800060a0     flags.obj
 0001:000050b0       ??_C@_0L@LELAIPLL@FE_COMMAND?$AA@ 00000001800060b0     flags.obj
 0001:000050c0       ??_C@_0M@FIECADDF@FE_GOTFOCUS?$AA@ 00000001800060c0     flags.obj
 0001:000050d0       ??_C@_0N@DGHFKMFL@FE_KILLFOCUS?$AA@ 00000001800060d0     flags.obj
 0001:000050e0       ??_C@_0M@HNDHDHHO@FCF_FG_4BIT?$AA@ 00000001800060e0     flags.obj
 0001:000050f0       ??_C@_0M@PJHNDJIE@FCF_BG_4BIT?$AA@ 00000001800060f0     flags.obj
 0001:00005100       ??_C@_0N@HMKJBHOA@FCF_4BITMASK?$AA@ 0000000180006100     flags.obj
 0001:00005110       ??_C@_0BC@NKBLNNIA@FCF_EXTENDEDFLAGS?$AA@ 0000000180006110     flags.obj
 0001:00005128       ??_C@_0M@LFMGCKHG@FCF_FG_BOLD?$AA@ 0000000180006128     flags.obj
 0001:00005138       ??_C@_0O@FAPDECBF@FCF_FG_ITALIC?$AA@ 0000000180006138     flags.obj
 0001:00005148       ??_C@_0BB@NPEFGEGA@FCF_FG_UNDERLINE?$AA@ 0000000180006148     flags.obj
 0001:00005160       ??_C@_0O@LGBGBIGB@FCF_STYLEMASK?$AA@ 0000000180006160     flags.obj
 0001:00005170       ??_C@_08BKNBBLHK@FCF_NONE?$AA@ 0000000180006170     flags.obj
 0001:00005180       ??_C@_08FKIDFHCM@CDF_NONE?$AA@ 0000000180006180     flags.obj
 0001:00005190       ??_C@_0N@ELMEMNDH@FMSG_WARNING?$AA@ 0000000180006190     flags.obj
 0001:000051a0       ??_C@_0P@HHIGLJAP@FMSG_ERRORTYPE?$AA@ 00000001800061a0     flags.obj
 0001:000051b0       ??_C@_0BE@FHOOILPH@FMSG_KEEPBACKGROUND?$AA@ 00000001800061b0     flags.obj
 0001:000051c8       ??_C@_0P@KBEMNNEP@FMSG_LEFTALIGN?$AA@ 00000001800061c8     flags.obj
 0001:000051d8       ??_C@_0O@FOIOKDHJ@FMSG_ALLINONE?$AA@ 00000001800061d8     flags.obj
 0001:000051e8       ??_C@_0L@BGALGPOK@FMSG_MB_OK?$AA@ 00000001800061e8     flags.obj
 0001:000051f8       ??_C@_0BB@JGAPGIEP@FMSG_MB_OKCANCEL?$AA@ 00000001800061f8     flags.obj
 0001:00005210       ??_C@_0BJ@BKJADAHA@FMSG_MB_ABORTRETRYIGNORE?$AA@ 0000000180006210     flags.obj
 0001:00005230       ??_C@_0O@GPCAPHCL@FMSG_MB_YESNO?$AA@ 0000000180006230     flags.obj
 0001:00005240       ??_C@_0BE@IBNOLCGP@FMSG_MB_YESNOCANCEL?$AA@ 0000000180006240     flags.obj
 0001:00005258       ??_C@_0BE@OCLAIENB@FMSG_MB_RETRYCANCEL?$AA@ 0000000180006258     flags.obj
 0001:00005270       ??_C@_09NEGPLEAH@FMSG_NONE?$AA@ 0000000180006270     flags.obj
 0001:00005280       ??_C@_0N@DHJCDIKM@DIF_BOXCOLOR?$AA@ 0000000180006280     flags.obj
 0001:00005290       ??_C@_09IAEPIICA@DIF_GROUP?$AA@ 0000000180006290     flags.obj
 0001:000052a0       ??_C@_0N@GCKJNBCM@DIF_LEFTTEXT?$AA@ 00000001800062a0     flags.obj
 0001:000052b0       ??_C@_0P@BGPBEDHH@DIF_MOVESELECT?$AA@ 00000001800062b0     flags.obj
 0001:000052c0       ??_C@_0BC@PDKFKKEI@DIF_SHOWAMPERSAND?$AA@ 00000001800062c0     flags.obj
 0001:000052d8       ??_C@_0BA@BLCOKAAO@DIF_CENTERGROUP?$AA@ 00000001800062d8     flags.obj
 0001:000052e8       ??_C@_0P@MKFBJPOB@DIF_NOBRACKETS?$AA@ 00000001800062e8     flags.obj
 0001:000052f8       ??_C@_0BF@JBCDBJCL@DIF_MANUALADDHISTORY?$AA@ 00000001800062f8     flags.obj
 0001:00005310       ??_C@_0O@JKNMBNLA@DIF_SEPARATOR?$AA@ 0000000180006310     flags.obj
 0001:00005320       ??_C@_0P@CGILDLOA@DIF_SEPARATOR2?$AA@ 0000000180006320     flags.obj
 0001:00005330       ??_C@_0L@NBPFNGLB@DIF_EDITOR?$AA@ 0000000180006330     flags.obj
 0001:00005340       ??_C@_0BE@PFICAGJF@DIF_LISTNOAMPERSAND?$AA@ 0000000180006340     flags.obj
 0001:00005358       ??_C@_0O@FFJNBMAD@DIF_LISTNOBOX?$AA@ 0000000180006358     flags.obj
 0001:00005368       ??_C@_0M@IPFBMFDN@DIF_HISTORY?$AA@ 0000000180006368     flags.obj
 0001:00005378       ??_C@_0P@EGFAEEDC@DIF_BTNNOCLOSE?$AA@ 0000000180006378     flags.obj
 0001:00005388       ??_C@_0P@KOJCCCGB@DIF_CENTERTEXT?$AA@ 0000000180006388     flags.obj
 0001:00005398       ??_C@_0BC@ODEMBOPK@DIF_SEPARATORUSER?$AA@ 0000000180006398     flags.obj
 0001:000053b0       ??_C@_0O@IKJBMPOF@DIF_SETSHIELD?$AA@ 00000001800063b0     flags.obj
 0001:000053c0       ??_C@_0P@EEJEDBLH@DIF_EDITEXPAND?$AA@ 00000001800063c0     flags.obj
 0001:000053d0       ??_C@_0BB@EIMEKEFP@DIF_DROPDOWNLIST?$AA@ 00000001800063d0     flags.obj
 0001:000053e8       ??_C@_0BD@MNGIOLFF@DIF_USELASTHISTORY?$AA@ 00000001800063e8     flags.obj
 0001:00005400       ??_C@_0N@MOCGNIKC@DIF_MASKEDIT?$AA@ 0000000180006400     flags.obj
 0001:00005410       ??_C@_0BD@LPDHCLJI@DIF_LISTTRACKMOUSE?$AA@ 0000000180006410     flags.obj
 0001:00005428       ??_C@_0BK@LEFIBDOA@DIF_LISTTRACKMOUSEINFOCUS?$AA@ 0000000180006428     flags.obj
 0001:00005448       ??_C@_0BC@JNLDMGBD@DIF_SELECTONENTRY?$AA@ 0000000180006448     flags.obj
 0001:00005460       ??_C@_0L@KKNJDNBK@DIF_3STATE?$AA@ 0000000180006460     flags.obj
 0001:00005470       ??_C@_0N@GBGHICKO@DIF_EDITPATH?$AA@ 0000000180006470     flags.obj
 0001:00005480       ??_C@_0BB@NPNALIGO@DIF_LISTWRAPMODE?$AA@ 0000000180006480     flags.obj
 0001:00005498       ??_C@_0BD@MFOKKGGF@DIF_NOAUTOCOMPLETE?$AA@ 0000000180006498     flags.obj
 0001:000054b0       ??_C@_0BG@MONEJILE@DIF_LISTAUTOHIGHLIGHT?$AA@ 00000001800064b0     flags.obj
 0001:000054c8       ??_C@_0BA@JNOKLHOL@DIF_LISTNOCLOSE?$AA@ 00000001800064c8     flags.obj
 0001:000054d8       ??_C@_0BB@GMKDKOOP@DIF_EDITPATHEXEC?$AA@ 00000001800064d8     flags.obj
 0001:000054f0       ??_C@_0L@EPNFOPAK@DIF_HIDDEN?$AA@ 00000001800064f0     flags.obj
 0001:00005500       ??_C@_0N@KOGKCAKJ@DIF_READONLY?$AA@ 0000000180006500     flags.obj
 0001:00005510       ??_C@_0M@NLLDINIM@DIF_NOFOCUS?$AA@ 0000000180006510     flags.obj
 0001:00005520       ??_C@_0M@HCFLMDHK@DIF_DISABLE?$AA@ 0000000180006520     flags.obj
 0001:00005530       ??_C@_0BC@CHAAKEJO@DIF_DEFAULTBUTTON?$AA@ 0000000180006530     flags.obj
 0001:00005548       ??_C@_09LCJIOEMN@DIF_FOCUS?$AA@ 0000000180006548     flags.obj
 0001:00005558       ??_C@_0O@KJADCBBN@DIF_RIGHTTEXT?$AA@ 0000000180006558     flags.obj
 0001:00005568       ??_C@_0N@LAEOODAD@DIF_WORDWRAP?$AA@ 0000000180006568     flags.obj
 0001:00005578       ??_C@_08KFOHCPDE@DIF_NONE?$AA@ 0000000180006578     flags.obj
 0001:00005588       ??_C@_0N@EDHAFIIL@LIF_SELECTED?$AA@ 0000000180006588     flags.obj
 0001:00005598       ??_C@_0M@BMGIEAIL@LIF_CHECKED?$AA@ 0000000180006598     flags.obj
 0001:000055a8       ??_C@_0O@KJIFADIG@LIF_SEPARATOR?$AA@ 00000001800065a8     flags.obj
 0001:000055b8       ??_C@_0M@HEFHLFIE@LIF_DISABLE?$AA@ 00000001800065b8     flags.obj
 0001:000055c8       ??_C@_0L@PKDDGEEG@LIF_GRAYED?$AA@ 00000001800065c8     flags.obj
 0001:000055d8       ??_C@_0L@PFBGAOEP@LIF_HIDDEN?$AA@ 00000001800065d8     flags.obj
 0001:000055e8       ??_C@_0BD@HEPCOIEH@LIF_DELETEUSERDATA?$AA@ 00000001800065e8     flags.obj
 0001:00005600       ??_C@_08BODPINCM@LIF_NONE?$AA@ 0000000180006600     flags.obj
 0001:00005610       ??_C@_0BC@BGAENNBJ@LIFIND_EXACTMATCH?$AA@ 0000000180006610     flags.obj
 0001:00005628       ??_C@_0M@FPOGKIGO@LIFIND_NONE?$AA@ 0000000180006628     flags.obj
 0001:00005638       ??_C@_0BA@OOIEKCFB@LINFO_SHOWNOBOX?$AA@ 0000000180006638     flags.obj
 0001:00005648       ??_C@_0BE@DECCEGNO@LINFO_AUTOHIGHLIGHT?$AA@ 0000000180006648     flags.obj
 0001:00005660       ??_C@_0BH@BADLEILJ@LINFO_REVERSEHIGHLIGHT?$AA@ 0000000180006660     flags.obj
 0001:00005678       ??_C@_0P@KLBMHNCG@LINFO_WRAPMODE?$AA@ 0000000180006678     flags.obj
 0001:00005688       ??_C@_0BE@OHJCOKAE@LINFO_SHOWAMPERSAND?$AA@ 0000000180006688     flags.obj
 0001:000056a0       ??_C@_0L@EPACPANF@LINFO_NONE?$AA@ 00000001800066a0     flags.obj
 0001:000056b0       ??_C@_0N@OLGDMHKL@FDLG_WARNING?$AA@ 00000001800066b0     flags.obj
 0001:000056c0       ??_C@_0BB@DKMEBDJJ@FDLG_SMALLDIALOG?$AA@ 00000001800066c0     flags.obj
 0001:000056d8       ??_C@_0BC@ONGLDAJN@FDLG_NODRAWSHADOW?$AA@ 00000001800066d8     flags.obj
 0001:000056f0       ??_C@_0BB@NPLEEAKK@FDLG_NODRAWPANEL?$AA@ 00000001800066f0     flags.obj
 0001:00005708       ??_C@_0BG@GHNOOENB@FDLG_KEEPCONSOLETITLE?$AA@ 0000000180006708     flags.obj
 0001:00005720       ??_C@_09NNFHCBNL@FDLG_NONE?$AA@ 0000000180006720     flags.obj
 0001:00005730       ??_C@_0N@JOOGIBAO@MIF_SELECTED?$AA@ 0000000180006730     flags.obj
 0001:00005740       ??_C@_0M@IHMNAMOE@MIF_CHECKED?$AA@ 0000000180006740     flags.obj
 0001:00005750       ??_C@_0O@DEIKOCPA@MIF_SEPARATOR?$AA@ 0000000180006750     flags.obj
 0001:00005760       ??_C@_0M@OPPCPJOL@MIF_DISABLE?$AA@ 0000000180006760     flags.obj
 0001:00005770       ??_C@_0L@DLLNLLIG@MIF_GRAYED?$AA@ 0000000180006770     flags.obj
 0001:00005780       ??_C@_0L@DEJINBIP@MIF_HIDDEN?$AA@ 0000000180006780     flags.obj
 0001:00005790       ??_C@_08JEEJJGP@MIF_NONE?$AA@ 0000000180006790     flags.obj
 0001:000057a0       ??_C@_0BE@FALMPPJK@FMENU_SHOWAMPERSAND?$AA@ 00000001800067a0     flags.obj
 0001:000057b8       ??_C@_0P@HICDNKDJ@FMENU_WRAPMODE?$AA@ 00000001800067b8     flags.obj
 0001:000057c8       ??_C@_0BE@IDAMFDEA@FMENU_AUTOHIGHLIGHT?$AA@ 00000001800067c8     flags.obj
 0001:000057e0       ??_C@_0BL@OKAIKPMN@FMENU_REVERSEAUTOHIGHLIGHT?$AA@ 00000001800067e0     flags.obj
 0001:00005800       ??_C@_0BJ@FCEONOJC@FMENU_CHANGECONSOLETITLE?$AA@ 0000000180006800     flags.obj
 0001:00005820       ??_C@_0L@DGFIEOMD@FMENU_NONE?$AA@ 0000000180006820     flags.obj
 0001:00005830       ??_C@_0O@JEAJLDHC@PPIF_SELECTED?$AA@ 0000000180006830     flags.obj
 0001:00005840       ??_C@_0BC@LPBDBIOM@PPIF_PROCESSDESCR?$AA@ 0000000180006840     flags.obj
 0001:00005858       ??_C@_09OIFMMGNJ@PPIF_NONE?$AA@ 0000000180006858     flags.obj
 0001:00005868       ??_C@_0BC@BONLDOOD@PFLAGS_SHOWHIDDEN?$AA@ 0000000180006868     flags.obj
 0001:00005880       ??_C@_0BB@BCAJEJEH@PFLAGS_HIGHLIGHT?$AA@ 0000000180006880     flags.obj
 0001:00005898       ??_C@_0BI@BFAFODJ@PFLAGS_REVERSESORTORDER?$AA@ 0000000180006898     flags.obj
 0001:000058b0       ??_C@_0BF@KJNCJPKN@PFLAGS_USESORTGROUPS?$AA@ 00000001800068b0     flags.obj
 0001:000058c8       ??_C@_0BF@LBBAIOCD@PFLAGS_SELECTEDFIRST?$AA@ 00000001800068c8     flags.obj
 0001:000058e0       ??_C@_0BB@KDANIJNM@PFLAGS_REALNAMES?$AA@ 00000001800068e0     flags.obj
 0001:000058f8       ??_C@_0BD@MOODMDAB@PFLAGS_NUMERICSORT?$AA@ 00000001800068f8     flags.obj
 0001:00005910       ??_C@_0BB@ILEHDKFJ@PFLAGS_PANELLEFT?$AA@ 0000000180006910     flags.obj
 0001:00005928       ??_C@_0BI@EHHAJLOH@PFLAGS_DIRECTORIESFIRST?$AA@ 0000000180006928     flags.obj
 0001:00005940       ??_C@_0BA@KJEPHDOM@PFLAGS_USECRC32?$AA@ 0000000180006940     flags.obj
 0001:00005950       ??_C@_0BJ@HJFOABKG@PFLAGS_CASESENSITIVESORT?$AA@ 0000000180006950     flags.obj
 0001:00005970       ??_C@_0O@DBPJGING@PFLAGS_PLUGIN?$AA@ 0000000180006970     flags.obj
 0001:00005980       ??_C@_0P@MLDEBNPK@PFLAGS_VISIBLE?$AA@ 0000000180006980     flags.obj
 0001:00005990       ??_C@_0N@EOFAELOJ@PFLAGS_FOCUS?$AA@ 0000000180006990     flags.obj
 0001:000059a0       ??_C@_0BI@EOCCAHFA@PFLAGS_ALTERNATIVENAMES?$AA@ 00000001800069a0     flags.obj
 0001:000059b8       ??_C@_0BA@GHMDCHHI@PFLAGS_SHORTCUT?$AA@ 00000001800069b8     flags.obj
 0001:000059c8       ??_C@_0M@NEMAHHGP@PFLAGS_NONE?$AA@ 00000001800069c8     flags.obj
 0001:000059d8       ??_C@_0M@IDNADAFL@VF_NONMODAL?$AA@ 00000001800069d8     flags.obj
 0001:000059e8       ??_C@_0BB@OCDDPIKL@VF_DELETEONCLOSE?$AA@ 00000001800069e8     flags.obj
 0001:00005a00       ??_C@_0N@LDHALKKM@VF_ENABLE_F6?$AA@ 0000000180006a00     flags.obj
 0001:00005a10       ??_C@_0BC@DLGKMECC@VF_DISABLEHISTORY?$AA@ 0000000180006a10     flags.obj
 0001:00005a28       ??_C@_0BD@DHJCMLFI@VF_IMMEDIATERETURN?$AA@ 0000000180006a28     flags.obj
 0001:00005a40       ??_C@_0BJ@OGNFHEJG@VF_DELETEONLYFILEONCLOSE?$AA@ 0000000180006a40     flags.obj
 0001:00005a60       ??_C@_07CJJFHP@VF_NONE?$AA@ 0000000180006a60     flags.obj
 0001:00005a68       ??_C@_0M@PIFGAPFH@EF_NONMODAL?$AA@ 0000000180006a68     flags.obj
 0001:00005a78       ??_C@_0N@DBHFPBEO@EF_CREATENEW?$AA@ 0000000180006a78     flags.obj
 0001:00005a88       ??_C@_0N@LKLNHALI@EF_ENABLE_F6?$AA@ 0000000180006a88     flags.obj
 0001:00005a98       ??_C@_0BC@PPEPEFFI@EF_DISABLEHISTORY?$AA@ 0000000180006a98     flags.obj
 0001:00005ab0       ??_C@_0BB@KGPIDKFC@EF_DELETEONCLOSE?$AA@ 0000000180006ab0     flags.obj
 0001:00005ac8       ??_C@_0BD@IHIGHGPL@EF_IMMEDIATERETURN?$AA@ 0000000180006ac8     flags.obj
 0001:00005ae0       ??_C@_0BJ@ILCPOFKL@EF_DELETEONLYFILEONCLOSE?$AA@ 0000000180006ae0     flags.obj
 0001:00005b00       ??_C@_09IJMPFPLB@EF_LOCKED?$AA@ 0000000180006b00     flags.obj
 0001:00005b10       ??_C@_0BC@GFHJGKD@EF_DISABLESAVEPOS?$AA@ 0000000180006b10     flags.obj
 0001:00005b28       ??_C@_07MBPCONNA@EN_NONE?$AA@ 0000000180006b28     flags.obj
 0001:00005b30       ??_C@_0BC@HHNGCBAM@FHELP_NOSHOWERROR?$AA@ 0000000180006b30     flags.obj
 0001:00005b48       ??_C@_0P@GANNLHEJ@FHELP_SELFHELP?$AA@ 0000000180006b48     flags.obj
 0001:00005b58       ??_C@_0O@FLGGLFLC@FHELP_FARHELP?$AA@ 0000000180006b58     flags.obj
 0001:00005b68       ??_C@_0BB@KNKDPNI@FHELP_CUSTOMFILE?$AA@ 0000000180006b68     flags.obj
 0001:00005b80       ??_C@_0BB@IHFFPJJA@FHELP_CUSTOMPATH?$AA@ 0000000180006b80     flags.obj
 0001:00005b98       ??_C@_0L@OOIMFPBD@FHELP_GUID?$AA@ 0000000180006b98     flags.obj
 0001:00005ba8       ??_C@_0BC@PNPOIHMG@FHELP_USECONTENTS?$AA@ 0000000180006ba8     flags.obj
 0001:00005bc0       ??_C@_0L@MAGMKNFN@FHELP_NONE?$AA@ 0000000180006bc0     flags.obj
 0001:00005bd0       ??_C@_0BE@GEGKIINM@KMFLAGS_SILENTCHECK?$AA@ 0000000180006bd0     flags.obj
 0001:00005be8       ??_C@_0BG@OPIGKILK@KMFLAGS_DISABLEOUTPUT?$AA@ 0000000180006be8     flags.obj
 0001:00005c00       ??_C@_0BM@BBOPLPKC@KMFLAGS_NOSENDKEYSTOPLUGINS?$AA@ 0000000180006c00     flags.obj
 0001:00005c20       ??_C@_0BF@PHHPAAOK@KMFLAGS_ENABLEOUTPUT?$AA@ 0000000180006c20     flags.obj
 0001:00005c38       ??_C@_0N@GIJCDFJI@KMFLAGS_NONE?$AA@ 0000000180006c38     flags.obj
 0001:00005c48       ??_C@_0O@GKOLBMFK@AKMFLAGS_NONE?$AA@ 0000000180006c48     flags.obj
 0001:00005c58       ??_C@_0P@LMBMJIMF@FSETCLR_REDRAW?$AA@ 0000000180006c58     flags.obj
 0001:00005c68       ??_C@_0N@LCOHPDHN@FSETCLR_NONE?$AA@ 0000000180006c68     flags.obj
 0001:00005c78       ??_C@_0N@MLMCEKPH@WIF_MODIFIED?$AA@ 0000000180006c78     flags.obj
 0001:00005c88       ??_C@_0M@ICPAPCOF@WIF_CURRENT?$AA@ 0000000180006c88     flags.obj
 0001:00005c98       ??_C@_09FPGEBDGO@WIF_MODAL?$AA@ 0000000180006c98     flags.obj
 0001:00005ca8       ??_C@_0BG@JMJAOELH@VOPT_SAVEFILEPOSITION?$AA@ 0000000180006ca8     flags.obj
 0001:00005cc0       ??_C@_0BI@NCAHLEBN@VOPT_AUTODETECTCODEPAGE?$AA@ 0000000180006cc0     flags.obj
 0001:00005cd8       ??_C@_09FIOJMNJ@VOPT_NONE?$AA@ 0000000180006cd8     flags.obj
 0001:00005ce8       ??_C@_0N@ILNDJNNO@VSMFL_REDRAW?$AA@ 0000000180006ce8     flags.obj
 0001:00005cf8       ??_C@_0N@GHEHKHJN@VSP_NOREDRAW?$AA@ 0000000180006cf8     flags.obj
 0001:00005d08       ??_C@_0M@LHNGMHFO@VSP_PERCENT?$AA@ 0000000180006d08     flags.obj
 0001:00005d18       ??_C@_0N@JGGGCNIP@VSP_RELATIVE?$AA@ 0000000180006d18     flags.obj
 0001:00005d28       ??_C@_0BA@JKDMJLJG@VSP_NORETNEWPOS?$AA@ 0000000180006d28     flags.obj
 0001:00005d38       ??_C@_08FAPBJAKB@VMF_WRAP?$AA@ 0000000180006d38     flags.obj
 0001:00005d48       ??_C@_0N@GHBDMLON@VMF_WORDWRAP?$AA@ 0000000180006d48     flags.obj
 0001:00005d58       ??_C@_0BB@EDGIEBDF@ECF_TABMARKFIRST?$AA@ 0000000180006d58     flags.obj
 0001:00005d70       ??_C@_0BD@DKGCCJNG@ECF_TABMARKCURRENT?$AA@ 0000000180006d70     flags.obj
 0001:00005d88       ??_C@_0BA@KNNLMGCA@FIB_ENABLEEMPTY?$AA@ 0000000180006d88     flags.obj
 0001:00005d98       ??_C@_0N@DLDJCGJI@FIB_PASSWORD?$AA@ 0000000180006d98     flags.obj
 0001:00005da8       ??_C@_0O@DOHEGELC@FIB_EXPANDENV?$AA@ 0000000180006da8     flags.obj
 0001:00005db8       ??_C@_0BF@CEMIHIOK@FIB_NOUSELASTHISTORY?$AA@ 0000000180006db8     flags.obj
 0001:00005dd0       ??_C@_0M@KJOJJDIM@FIB_BUTTONS?$AA@ 0000000180006dd0     flags.obj
 0001:00005de0       ??_C@_0BA@COBBDHNL@FIB_NOAMPERSAND?$AA@ 0000000180006de0     flags.obj
 0001:00005df0       ??_C@_0N@LBOCEEGH@FIB_EDITPATH?$AA@ 0000000180006df0     flags.obj
 0001:00005e00       ??_C@_0BB@DCODFLEL@FIB_EDITPATHEXEC?$AA@ 0000000180006e00     flags.obj
 0001:00005e18       ??_C@_08HPFOCDKB@FIB_NONE?$AA@ 0000000180006e18     flags.obj
 0001:00005e28       ??_C@_0L@NMBLFMBN@FPF_LOADED?$AA@ 0000000180006e28     flags.obj
 0001:00005e38       ??_C@_08GKECKCCJ@FPF_ANSI?$AA@ 0000000180006e38     flags.obj
 0001:00005e48       ??_C@_08OIOFCNLC@FPF_NONE?$AA@ 0000000180006e48     flags.obj
 0001:00005e58       ??_C@_0L@HODJIPGA@PN_CMPNAME?$AA@ 0000000180006e58     flags.obj
 0001:00005e68       ??_C@_0P@KDEENAHJ@PN_CMPNAMELIST?$AA@ 0000000180006e68     flags.obj
 0001:00005e78       ??_C@_0BA@BJCCEIOI@PN_GENERATENAME?$AA@ 0000000180006e78     flags.obj
 0001:00005e88       ??_C@_0N@FEGPCCPJ@PN_CHECKMASK?$AA@ 0000000180006e88     flags.obj
 0001:00005e98       ??_C@_0M@NOOLKEBH@PN_SKIPPATH?$AA@ 0000000180006e98     flags.obj
 0001:00005ea8       ??_C@_0BE@OPDBOAAE@PN_SHOWERRORMESSAGE?$AA@ 0000000180006ea8     flags.obj
 0001:00005ec0       ??_C@_0BG@GOMJDMCK@XLAT_SWITCHKEYBLAYOUT?$AA@ 0000000180006ec0     flags.obj
 0001:00005ed8       ??_C@_0BE@KOIJDNLA@XLAT_SWITCHKEYBBEEP?$AA@ 0000000180006ed8     flags.obj
 0001:00005ef0       ??_C@_0BH@KBFAFPNA@XLAT_USEKEYBLAYOUTNAME?$AA@ 0000000180006ef0     flags.obj
 0001:00005f08       ??_C@_0BH@IANKLOAC@XLAT_CONVERTALLCMDLINE?$AA@ 0000000180006f08     flags.obj
 0001:00005f20       ??_C@_09JCNLKBBK@XLAT_NONE?$AA@ 0000000180006f20     flags.obj
 0001:00005f30       ??_C@_0N@PJEDCNNJ@FRS_RETUPDIR?$AA@ 0000000180006f30     flags.obj
 0001:00005f40       ??_C@_09GHEPLOHO@FRS_RECUR?$AA@ 0000000180006f40     flags.obj
 0001:00005f50       ??_C@_0BA@JCPHOEAE@FRS_SCANSYMLINK?$AA@ 0000000180006f50     flags.obj
 0001:00005f60       ??_C@_0P@LJPBHEIE@MLF_SHOWERRMSG?$AA@ 0000000180006f60     flags.obj
 0001:00005f70       ??_C@_0BF@LMAGFLHF@MLF_DONOTUPDATEPANEL?$AA@ 0000000180006f70     flags.obj
 0001:00005f88       ??_C@_08EBKEJHAL@MLF_NONE?$AA@ 0000000180006f88     flags.obj
 0001:00005f98       ??_C@_0M@JDMKDBDH@FFFS_COMMAS?$AA@ 0000000180006f98     flags.obj
 0001:00005fa8       ??_C@_0P@JPMLNBKL@FFFS_FLOATSIZE?$AA@ 0000000180006fa8     flags.obj
 0001:00005fb8       ??_C@_0BE@NPKCCEJ@FFFS_SHOWBYTESINDEX?$AA@ 0000000180006fb8     flags.obj
 0001:00005fd0       ??_C@_0O@FPIOAIMC@FFFS_ECONOMIC?$AA@ 0000000180006fd0     flags.obj
 0001:00005fe0       ??_C@_0O@HFIGPFIH@FFFS_THOUSAND?$AA@ 0000000180006fe0     flags.obj
 0001:00005ff0       ??_C@_0BC@LLLANJJO@FFFS_MINSIZEINDEX?$AA@ 0000000180006ff0     flags.obj
 0001:00006008       ??_C@_0BH@PEGBPJKE@FFFS_MINSIZEINDEX_MASK?$AA@ 0000000180007008     flags.obj
 0001:00006020       ??_C@_0L@NHEJGKCF@PF_PRELOAD?$AA@ 0000000180007020     flags.obj
 0001:00006030       ??_C@_0BB@GCINAIGN@PF_DISABLEPANELS?$AA@ 0000000180007030     flags.obj
 0001:00006048       ??_C@_09OENCMPGE@PF_EDITOR?$AA@ 0000000180007048     flags.obj
 0001:00006058       ??_C@_09NEKIJNNA@PF_VIEWER?$AA@ 0000000180007058     flags.obj
 0001:00006068       ??_C@_0P@MBLBBCNK@PF_FULLCMDLINE?$AA@ 0000000180007068     flags.obj
 0001:00006078       ??_C@_09GMFDAFKL@PF_DIALOG?$AA@ 0000000180007078     flags.obj
 0001:00006088       ??_C@_07MGEGJMPI@PF_NONE?$AA@ 0000000180007088     flags.obj
 0001:00006090       ??_C@_0BD@EGELEIIG@IPLFLAGS_SEPARATOR?$AA@ 0000000180007090     flags.obj
 0001:000060a8       ??_C@_0BD@KGHJOBGM@PMFLAGS_FULLSCREEN?$AA@ 00000001800070a8     flags.obj
 0001:000060c0       ??_C@_0BH@GDAAKEMH@PMFLAGS_DETAILEDSTATUS?$AA@ 00000001800070c0     flags.obj
 0001:000060d8       ??_C@_0BI@BMHIBDMH@PMFLAGS_ALIGNEXTENSIONS?$AA@ 00000001800070d8     flags.obj
 0001:000060f0       ??_C@_0BH@KOFCBJBO@PMFLAGS_CASECONVERSION?$AA@ 00000001800070f0     flags.obj
 0001:00006108       ??_C@_0BD@PBMGDJEM@OPIF_DISABLEFILTER?$AA@ 0000000180007108     flags.obj
 0001:00006120       ??_C@_0BH@FHBKALPD@OPIF_DISABLESORTGROUPS?$AA@ 0000000180007120     flags.obj
 0001:00006138       ??_C@_0BJ@NGLIANCL@OPIF_DISABLEHIGHLIGHTING?$AA@ 0000000180007138     flags.obj
 0001:00006158       ??_C@_0N@JANKJMLP@OPIF_ADDDOTS?$AA@ 0000000180007158     flags.obj
 0001:00006168       ??_C@_0BC@HOFHNJIG@OPIF_RAWSELECTION?$AA@ 0000000180007168     flags.obj
 0001:00006180       ??_C@_0P@OFEDJCO@OPIF_REALNAMES?$AA@ 0000000180007180     flags.obj
 0001:00006190       ??_C@_0BD@FPGMNAPD@OPIF_SHOWNAMESONLY?$AA@ 0000000180007190     flags.obj
 0001:000061a8       ??_C@_0BJ@NMIFAPJD@OPIF_SHOWRIGHTALIGNNAMES?$AA@ 00000001800071a8     flags.obj
 0001:000061c8       ??_C@_0BG@HGPMKHIE@OPIF_SHOWPRESERVECASE?$AA@ 00000001800071c8     flags.obj
 0001:000061e0       ??_C@_0BE@GJEJHNKJ@OPIF_COMPAREFATTIME?$AA@ 00000001800071e0     flags.obj
 0001:000061f8       ??_C@_0BB@PELHBPAM@OPIF_EXTERNALGET?$AA@ 00000001800071f8     flags.obj
 0001:00006210       ??_C@_0BB@CFFPNDFK@OPIF_EXTERNALPUT?$AA@ 0000000180007210     flags.obj
 0001:00006228       ??_C@_0BE@LKEMICNM@OPIF_EXTERNALDELETE?$AA@ 0000000180007228     flags.obj
 0001:00006240       ??_C@_0BD@JIMJPFEP@OPIF_EXTERNALMKDIR?$AA@ 0000000180007240     flags.obj
 0001:00006258       ??_C@_0BJ@CALDMPLF@OPIF_USEATTRHIGHLIGHTING?$AA@ 0000000180007258     flags.obj
 0001:00006278       ??_C@_0O@JHHHMHIG@OPIF_USECRC32?$AA@ 0000000180007278     flags.obj
 0001:00006288       ??_C@_0BB@PFDFAFHG@OPIF_USEFREESIZE?$AA@ 0000000180007288     flags.obj
 0001:000062a0       ??_C@_0O@FJPLJDBC@OPIF_SHORTCUT?$AA@ 00000001800072a0     flags.obj
 0001:000062b0       ??_C@_09DOPJBMLM@OPIF_NONE?$AA@ 00000001800072b0     flags.obj
 0001:000062c0       ??_C@_0L@GEHHKNBL@OPM_SILENT?$AA@ 00000001800072c0     flags.obj
 0001:000062d0       ??_C@_08EKEBOKEP@OPM_FIND?$AA@ 00000001800072d0     flags.obj
 0001:000062e0       ??_C@_08EHBLNDLO@OPM_VIEW?$AA@ 00000001800072e0     flags.obj
 0001:000062f0       ??_C@_08LAAGEMJG@OPM_EDIT?$AA@ 00000001800072f0     flags.obj
 0001:00006300       ??_C@_0N@NDGKAFDM@OPM_TOPLEVEL?$AA@ 0000000180007300     flags.obj
 0001:00006310       ??_C@_09EBKAPHPA@OPM_DESCR?$AA@ 0000000180007310     flags.obj
 0001:00006320       ??_C@_0O@OPDAGBBE@OPM_QUICKVIEW?$AA@ 0000000180007320     flags.obj
 0001:00006330       ??_C@_08LCEGJCAC@OPM_PGDN?$AA@ 0000000180007330     flags.obj
 0001:00006340       ??_C@_0N@HKCLLJDG@OPM_COMMANDS?$AA@ 0000000180007340     flags.obj
 0001:00006350       ??_C@_08EGEBMPBD@OPM_NONE?$AA@ 0000000180007350     flags.obj
 0001:00006360       ??_C@_0M@MIGJPBPE@FOSF_ACTIVE?$AA@ 0000000180007360     flags.obj
 0001:00006370       ??_C@_09FMOOJHDF@FOSF_NONE?$AA@ 0000000180007370     flags.obj
 0001:00006380       ??_C@_0O@PLFENGLI@PCIF_FROMMAIN?$AA@ 0000000180007380     flags.obj
 0001:00006390       ??_C@_09HNBBLIGN@PCIF_NONE?$AA@ 0000000180007390     flags.obj
 0001:000063a0       ??_C@_0BA@MAEBFMHC@FOREGROUND_BLUE?$AA@ 00000001800073a0     flags.obj
 0001:000063b0       ??_C@_0BB@PDFNMAI@FOREGROUND_GREEN?$AA@ 00000001800073b0     flags.obj
 0001:000063c8       ??_C@_0P@PBJHCFGA@FOREGROUND_RED?$AA@ 00000001800073c8     flags.obj
 0001:000063d8       ??_C@_0BF@OOGEJCC@FOREGROUND_INTENSITY?$AA@ 00000001800073d8     flags.obj
 0001:000063f0       ??_C@_0BA@PIFINJCK@BACKGROUND_BLUE?$AA@ 00000001800073f0     flags.obj
 0001:00006400       ??_C@_0BB@GKLNBMEL@BACKGROUND_GREEN?$AA@ 0000000180007400     flags.obj
 0001:00006418       ??_C@_0P@DANALJMC@BACKGROUND_RED?$AA@ 0000000180007418     flags.obj
 0001:00006428       ??_C@_0BF@NIGKKPCF@BACKGROUND_INTENSITY?$AA@ 0000000180007428     flags.obj
 0001:00006440       ??_C@_0N@FEFOEFHG@CTRL_C_EVENT?$AA@ 0000000180007440     flags.obj
 0001:00006450       ??_C@_0BB@ELEIIFAE@CTRL_BREAK_EVENT?$AA@ 0000000180007450     flags.obj
 0001:00006468       ??_C@_0BB@KMPDMOKK@CTRL_CLOSE_EVENT?$AA@ 0000000180007468     flags.obj
 0001:00006480       ??_C@_0BC@MCKCEPAL@CTRL_LOGOFF_EVENT?$AA@ 0000000180007480     flags.obj
 0001:00006498       ??_C@_0BE@BCNEFGKM@CTRL_SHUTDOWN_EVENT?$AA@ 0000000180007498     flags.obj
 0001:000064b0       ??_C@_0BC@BBOPHMOM@ENABLE_LINE_INPUT?$AA@ 00000001800074b0     flags.obj
 0001:000064c8       ??_C@_0BC@JPFKLHOC@ENABLE_ECHO_INPUT?$AA@ 00000001800074c8     flags.obj
 0001:000064e0       ??_C@_0BH@EHINFMOF@ENABLE_PROCESSED_INPUT?$AA@ 00000001800074e0     flags.obj
 0001:000064f8       ??_C@_0BE@BLAHACNB@ENABLE_WINDOW_INPUT?$AA@ 00000001800074f8     flags.obj
 0001:00006510       ??_C@_0BD@BJECBJPO@ENABLE_MOUSE_INPUT?$AA@ 0000000180007510     flags.obj
 0001:00006528       ??_C@_0BD@KJBPOMPN@ENABLE_INSERT_MODE?$AA@ 0000000180007528     flags.obj
 0001:00006540       ??_C@_0BH@BJKMFKAO@ENABLE_QUICK_EDIT_MODE?$AA@ 0000000180007540     flags.obj
 0001:00006558       ??_C@_0BG@CBCHHIEH@ENABLE_EXTENDED_FLAGS?$AA@ 0000000180007558     flags.obj
 0001:00006570       ??_C@_0BF@PEBFEBKN@ENABLE_AUTO_POSITION?$AA@ 0000000180007570     flags.obj
 0001:00006588       ??_C@_0BI@MHKNPIFM@ENABLE_PROCESSED_OUTPUT?$AA@ 0000000180007588     flags.obj
 0001:000065a0       ??_C@_0BK@CDKLKCHJ@ENABLE_WRAP_AT_EOL_OUTPUT?$AA@ 00000001800075a0     flags.obj
 0001:000065c0       ??_C@_09JBABGNAE@KEY_EVENT?$AA@ 00000001800075c0     flags.obj
 0001:000065d0       ??_C@_0M@CPILDGOO@MOUSE_EVENT?$AA@ 00000001800075d0     flags.obj
 0001:000065e0       ??_C@_0BJ@OHDOHJKG@WINDOW_BUFFER_SIZE_EVENT?$AA@ 00000001800075e0     flags.obj
 0001:00006600       ??_C@_0L@MPODFLFH@MENU_EVENT?$AA@ 0000000180007600     flags.obj
 0001:00006610       ??_C@_0M@LNGHCCGJ@FOCUS_EVENT?$AA@ 0000000180007610     flags.obj
 0001:00006620       ??_C@_0M@MKBGBFGO@CAPSLOCK_ON?$AA@ 0000000180007620     flags.obj
 0001:00006630       ??_C@_0N@EMEOEKDA@ENHANCED_KEY?$AA@ 0000000180007630     flags.obj
 0001:00006640       ??_C@_0BC@GDHABBAP@RIGHT_ALT_PRESSED?$AA@ 0000000180007640     flags.obj
 0001:00006658       ??_C@_0BB@MCADLJJO@LEFT_ALT_PRESSED?$AA@ 0000000180007658     flags.obj
 0001:00006670       ??_C@_0BD@NEHHNAHO@RIGHT_CTRL_PRESSED?$AA@ 0000000180007670     flags.obj
 0001:00006688       ??_C@_0BC@FDNOAAAE@LEFT_CTRL_PRESSED?$AA@ 0000000180007688     flags.obj
 0001:000066a0       ??_C@_0O@OGDFJMBK@SHIFT_PRESSED?$AA@ 00000001800076a0     flags.obj
 0001:000066b0       ??_C@_0L@IMGKKBIM@NUMLOCK_ON?$AA@ 00000001800076b0     flags.obj
 0001:000066c0       ??_C@_0O@LAHFNPLG@SCROLLLOCK_ON?$AA@ 00000001800076c0     flags.obj
 0001:000066d0       ??_C@_0BN@HACKHGAB@FROM_LEFT_1ST_BUTTON_PRESSED?$AA@ 00000001800076d0     flags.obj
 0001:000066f0       ??_C@_0BJ@JECFAJNJ@RIGHTMOST_BUTTON_PRESSED?$AA@ 00000001800076f0     flags.obj
 0001:00006710       ??_C@_0BN@BJCFPKCG@FROM_LEFT_2ND_BUTTON_PRESSED?$AA@ 0000000180007710     flags.obj
 0001:00006730       ??_C@_0BN@PMJNFPGM@FROM_LEFT_3RD_BUTTON_PRESSED?$AA@ 0000000180007730     flags.obj
 0001:00006750       ??_C@_0BN@CNMHAAPD@FROM_LEFT_4TH_BUTTON_PRESSED?$AA@ 0000000180007750     flags.obj
 0001:00006770       ??_C@_0M@KKBDEELB@MOUSE_MOVED?$AA@ 0000000180007770     flags.obj
 0001:00006780       ??_C@_0N@EDCKBGJE@DOUBLE_CLICK?$AA@ 0000000180007780     flags.obj
 0001:00006790       ??_C@_0O@GABDOPO@MOUSE_WHEELED?$AA@ 0000000180007790     flags.obj
 0001:00007790       ??_C@_06ICDCBJPI@Colors?$AA@ 0000000180008790     keysandcolors.obj
 0001:00007f60       ??_C@_01EEMJAFIK@?6?$AA@   0000000180008f60     lflua.obj
 0001:00007f68       ??_C@_0BB@BJDGDOHH@cannot?5?$CFs?5?$CFs?3?5?$CFs?$AA@ 0000000180008f68     lflua.obj
 0001:00007f7c       ??_C@_03PKPBNCAL@?o?$LL?$LP?$AA@ 0000000180008f7c     lflua.obj
 0001:00007f80       ??_C@_06CCPPALKB@?$DNstdin?$AA@ 0000000180008f80     lflua.obj
 0001:00007f88       ??_C@_01EOFPKCAF@?$EA?$AA@ 0000000180008f88     lflua.obj
 0001:00007f8c       ??_C@_13BPINEIPE@?$AAr?$AA?$AA@ 0000000180008f8c     lflua.obj
 0001:00007f90       ??_C@_04PMOCAHAA@open?$AA@ 0000000180008f90     lflua.obj
 0001:00007f98       ??_C@_15JJPIMNBO@?$AAr?$AAb?$AA?$AA@ 0000000180008f98     lflua.obj
 0001:00007fa0       ??_C@_06IEGCHAII@reopen?$AA@ 0000000180008fa0     lflua.obj
 0001:00007fa8       ??_C@_04POLDLDMI@read?$AA@ 0000000180008fa8     lflua.obj
 0001:00007fb0       ??_C@_02LOCGON@?$AA?$AA?$AA@ 0000000180008fb0     lflua.obj
 0001:00008580       regex_methods              0000000180009580     lregex.obj
 0001:00008620       regex_functions            0000000180009620     lregex.obj
 0001:000088c8       ??_C@_04CKFJHKAP@find?$AA@ 00000001800098c8     lregex.obj
 0001:000088d0       ??_C@_04GOLEAPFD@gsub?$AA@ 00000001800098d0     lregex.obj
 0001:000088d8       ??_C@_05FNONLPDI@match?$AA@ 00000001800098d8     lregex.obj
 0001:000088e0       ??_C@_05GFGPIPHI@findW?$AA@ 00000001800098e0     lregex.obj
 0001:000088e8       ??_C@_05HPGHPNC@gsubW?$AA@ 00000001800098e8     lregex.obj
 0001:000088f0       ??_C@_06NNKFJOLC@matchW?$AA@ 00000001800098f0     lregex.obj
 0001:000088f8       ??_C@_0O@OJAOCNID@bracketscount?$AA@ 00000001800098f8     lregex.obj
 0001:00008908       ??_C@_04BDLIKKMN@__gc?$AA@ 0000000180009908     lregex.obj
 0001:00008910       ??_C@_06DPFCLDIO@gmatch?$AA@ 0000000180009910     lregex.obj
 0001:00008918       ??_C@_07PPMFDHAH@gmatchW?$AA@ 0000000180009918     lregex.obj
 0001:00008920       ??_C@_09KIEPBIJC@far_regex?$AA@ 0000000180009920     lregex.obj
 0001:00008930       ??_C@_0BO@PBOFMCLL@attempt?5to?5access?5freed?5regex?$AA@ 0000000180009930     lregex.obj
 0001:00008950       ??_C@_07IHINEPFG@?$CFs?5?$CI?$CFp?$CJ?$AA@ 0000000180009950     lregex.obj
 0001:00008958       ??_C@_01KMDKNFGN@?1?$AA@   0000000180009958     lregex.obj
 0001:00008960       ??_C@_0BE@BBBEAHLK@RECTL_CREATE?5failed?$AA@ 0000000180009960     lregex.obj
 0001:00008978       ??_C@_0BL@HEFMPIBG@invalid?5regular?5expression?$AA@ 0000000180009978     lregex.obj
 0001:00008998       ??_C@_0BM@MOHHGMBK@string?5or?5table?5or?5function?$AA@ 0000000180009998     lregex.obj
 0001:000089b8       ??_C@_0CG@IDFLGMFM@replace?5string?3?5invalid?5capture?5@ 00000001800099b8     lregex.obj
 0001:000089e0       ??_C@_0BJ@IMAIDFKH@invalid?5replacement?5type?$AA@ 00000001800099e0     lregex.obj
 0001:00008a00       ??_C@_0BE@KPDOHKBE@invalid?5return?5type?$AA@ 0000000180009a00     lregex.obj
 0001:00008a18       ??_C@_07NHABFFHN@__index?$AA@ 0000000180009a18     lregex.obj
 0001:00008a20       ??_C@_05FGAODPCE@regex?$AA@ 0000000180009a20     lregex.obj
 0001:00009200       ??_C@_0BC@PMGNICBE@MacroPluginReturn?$AA@ 000000018000a200     luamacro.obj
 0001:00009214       ??_C@_02JIEIHMJD@wl?$AA@   000000018000a214     luamacro.obj
 0001:00009218       ??_C@_15PMCGDJNJ@?$AAO?$AAK?$AA?$AA@ 000000018000a218     luamacro.obj
 0001:00009220       ??_C@_1BC@GBFPAMBP@?$AAL?$AAu?$AAa?$AAM?$AAa?$AAc?$AAr?$AAo?$AA?$AA@ 000000018000a220     luamacro.obj
 0001:00009240       ??_C@_1FA@DAFHIDEP@?$AAt?$AAo?$AAo?$AA?5?$AAm?$AAa?$AAn?$AAy?$AA?5?$AAv?$AAa?$AAl?$AAu?$AAe?$AAs?$AA?5?$AAt?$AAo?$AA?5?$AAp?$AAl?$AAa?$AAc?$AAe?$AA?5?$AAo?$AAn?$AAt?$AAo?$AA?5?$AAL?$AAu@ 000000018000a240     luamacro.obj
 0001:00009290       ??_C@_0BD@IOJAAODF@too?5many?5arguments?$AA@ 000000018000a290     luamacro.obj
 0001:000092a8       ??_C@_0BN@ICDOMFBB@invalid?5argument?5?$CD?$CFd?5to?5?8?$CFs?8?$AA@ 000000018000a2a8     luamacro.obj
 0001:000092c8       ??_C@_0BB@FCMFBGOM@invalid?5argument?$AA@ 000000018000a2c8     luamacro.obj
 0001:000092e0       ??_C@_0CI@IMKOFGKJ@too?5many?5values?5to?5place?5onto?5Lu@ 000000018000a2e0     luamacro.obj
 0001:00009450       usercontrol_methods        000000018000a450     lusercontrol.obj
 0001:000094a0       usercontrol_functions      000000018000a4a0     lusercontrol.obj
 0001:00009b48       ??_C@_05MNDELLDN@__len?$AA@ 000000018000ab48     lusercontrol.obj
 0001:00009b50       ??_C@_0L@GADKNKH@__newindex?$AA@ 000000018000ab50     lusercontrol.obj
 0001:00009b60       ??_C@_0BC@KFJDHEIC@CreateUserControl?$AA@ 000000018000ab60     lusercontrol.obj
 0001:00009b78       ??_C@_0BA@MDNLMOMP@far_usercontrol?$AA@ 000000018000ab78     lusercontrol.obj
 0001:00009b88       ??_C@_0BH@DOPNHMGD@bounds?5checking?5failed?$AA@ 000000018000ab88     lusercontrol.obj
 0001:00009ba0       ??_C@_04IMAAEPPE@Char?$AA@ 000000018000aba0     lusercontrol.obj
 0001:00009ba8       ??_C@_0L@PLFFHFAH@Attributes?$AA@ 000000018000aba8     lusercontrol.obj
 0001:00009bb8       ??_C@_0BD@BPIMECDH@X?5must?5be?5positive?$AA@ 000000018000abb8     lusercontrol.obj
 0001:00009bd0       ??_C@_0BD@MIGOMCGP@Y?5must?5be?5positive?$AA@ 000000018000abd0     lusercontrol.obj
 0001:00009e80       timer_methods              000000018000ae80     service.obj
 0001:00009ee0       filefilter_methods         000000018000aee0     service.obj
 0001:00009f58       dialog_methods             000000018000af58     service.obj
 0001:00009f90       Settings_methods           000000018000af90     service.obj
 0001:0000a060       editor_funcs               000000018000b060     service.obj
 0001:0000a3a0       viewer_funcs               000000018000b3a0     service.obj
 0001:0000a470       panel_funcs                000000018000b470     service.obj
 0001:0000a760       far_funcs                  000000018000b760     service.obj
 0001:0000ace0       far_Dialog                 000000018000bce0     service.obj
 0001:0000b130       FarFileFilterType          000000018000c130     service.obj
 0001:0000b140       FarTimerType               000000018000c140     service.obj
 0001:0000b150       FarDialogType              000000018000c150     service.obj
 0001:0000b160       SettingsType               000000018000c160     service.obj
 0001:0000b170       SettingsHandles            000000018000c170     service.obj
 0001:0000b188       PluginHandleType           000000018000c188     service.obj
 0001:0000b198       FAR_VIRTUALKEYS            000000018000c198     service.obj
 0001:0000b1a8       FAR_FLAGSTABLE             000000018000c1a8     service.obj
 0001:0000b2b0       ??_C@_05KHKCEJME@OEM_6?$AA@ 000000018000c2b0     service.obj
 0001:0000b2b8       ??_C@_05LOLJHIIF@OEM_7?$AA@ 000000018000c2b8     service.obj
 0001:0000b2c0       ??_C@_05DJCBGEEK@OEM_8?$AA@ 000000018000c2c0     service.obj
 0001:0000b2c8       ??_C@_07PEFKMFIE@OEM_102?$AA@ 000000018000c2c8     service.obj
 0001:0000b2d0       ??_C@_0L@EFLJCPAM@PROCESSKEY?$AA@ 000000018000c2d0     service.obj
 0001:0000b2dc       ??_C@_06HOICDKCB@PACKET?$AA@ 000000018000c2dc     service.obj
 0001:0000b2e8       ??_C@_09CAKPMKHM@OEM_RESET?$AA@ 000000018000c2e8     service.obj
 0001:0000b2f8       ??_C@_08INMNLJCK@OEM_JUMP?$AA@ 000000018000c2f8     service.obj
 0001:0000b308       ??_C@_07JNOAEEG@OEM_PA1?$AA@ 000000018000c308     service.obj
 0001:0000b310       ??_C@_07CCPDFHIF@OEM_PA2?$AA@ 000000018000c310     service.obj
 0001:0000b318       ??_C@_05LCLENNFI@table?$AA@ 000000018000c318     service.obj
 0001:0000b320       ??_C@_07DLOIGGME@OEM_PA3?$AA@ 000000018000c320     service.obj
 0001:0000b328       ??_C@_0L@OCAIHDP@OEM_WSCTRL?$AA@ 000000018000c328     service.obj
 0001:0000b334       ??_C@_06ICGJLFIM@string?$AA@ 000000018000c334     service.obj
 0001:0000b33c       ??_C@_04BNGOAFAJ@ATTN?$AA@ 000000018000c33c     service.obj
 0001:0000b344       ??_C@_05HGAHFFFL@CRSEL?$AA@ 000000018000c344     service.obj
 0001:0000b34c       ??_C@_05OKOOKOOH@EXSEL?$AA@ 000000018000c34c     service.obj
 0001:0000b354       ??_C@_05CCFENDFJ@EREOF?$AA@ 000000018000c354     service.obj
 0001:0000b35c       ??_C@_04MKCNCBEG@PLAY?$AA@ 000000018000c35c     service.obj
 0001:0000b364       ??_C@_04LGBIGMFG@ZOOM?$AA@ 000000018000c364     service.obj
 0001:0000b36c       ??_C@_06LJIOOKLP@NONAME?$AA@ 000000018000c36c     service.obj
 0001:0000b374       ??_C@_03KCLDMPAE@PA1?$AA@  000000018000c374     service.obj
 0001:0000b378       ??_C@_09MBBEHOCK@OEM_CLEAR?$AA@ 000000018000c378     service.obj
 0001:0000b388       ??_C@_0P@LKPINHLK@FreeFileFilter?$AA@ 000000018000c388     service.obj
 0001:0000b398       ??_C@_0BA@JGEOEAE@OpenFiltersMenu?$AA@ 000000018000c398     service.obj
 0001:0000b3a8       ??_C@_0BB@OPPOFOAK@StartingToFilter?$AA@ 000000018000c3a8     service.obj
 0001:0000b3c0       ??_C@_0P@JDMCHDIM@IsFileInFilter?$AA@ 000000018000c3c0     service.obj
 0001:0000b3d0       ??_C@_06JBKGCNBB@Delete?$AA@ 000000018000c3d0     service.obj
 0001:0000b3d8       ??_C@_04PAFOOALK@Enum?$AA@ 000000018000c3d8     service.obj
 0001:0000b3e0       ??_C@_04HJMOFLDF@Free?$AA@ 000000018000c3e0     service.obj
 0001:0000b3e8       ??_C@_03NNDHPFFO@Get?$AA@  000000018000c3e8     service.obj
 0001:0000b3ec       ??_C@_03CEMDFJG@Set?$AA@   000000018000c3ec     service.obj
 0001:0000b3f0       ??_C@_0N@OELJMCEC@CreateSubkey?$AA@ 000000018000c3f0     service.obj
 0001:0000b400       ??_C@_0L@CPCKAMD@OpenSubkey?$AA@ 000000018000c400     service.obj
 0001:0000b410       ??_C@_08EGJLHNCO@AddColor?$AA@ 000000018000c410     service.obj
 0001:0000b420       ??_C@_0BD@DOFEEDDC@AddSessionBookmark?$AA@ 000000018000c420     service.obj
 0001:0000b438       ??_C@_0BG@IGFHDIIN@ClearSessionBookmarks?$AA@ 000000018000c438     service.obj
 0001:0000b450       ??_C@_08PDEJHGJI@DelColor?$AA@ 000000018000c450     service.obj
 0001:0000b460       ??_C@_0M@LPIECDD@DeleteBlock?$AA@ 000000018000c460     service.obj
 0001:0000b470       ??_C@_0L@BCLIBKOC@DeleteChar?$AA@ 000000018000c470     service.obj
 0001:0000b480       ??_C@_0BG@KOELEFCN@DeleteSessionBookmark?$AA@ 000000018000c480     service.obj
 0001:0000b498       ??_C@_0N@EKENACAE@DeleteString?$AA@ 000000018000c498     service.obj
 0001:0000b4a8       ??_C@_06MJDIICIN@Editor?$AA@ 000000018000c4a8     service.obj
 0001:0000b4b0       ??_C@_0L@HDLPOLMA@ExpandTabs?$AA@ 000000018000c4b0     service.obj
 0001:0000b4c0       ??_C@_0N@MGAOADJN@GetBookmarks?$AA@ 000000018000c4c0     service.obj
 0001:0000b4d0       ??_C@_08JOPFJIPE@GetColor?$AA@ 000000018000c4d0     service.obj
 0001:0000b4e0       ??_C@_0M@FECPLAMN@GetFileName?$AA@ 000000018000c4e0     service.obj
 0001:0000b4f0       ??_C@_07NAJNLNAF@GetInfo?$AA@ 000000018000c4f0     service.obj
 0001:0000b4f8       ??_C@_0N@KIILHCLH@GetSelection?$AA@ 000000018000c4f8     service.obj
 0001:0000b508       ??_C@_0BE@LBJJGOGD@GetSessionBookmarks?$AA@ 000000018000c508     service.obj
 0001:0000b520       ??_C@_09HBLKHMEA@GetString?$AA@ 000000018000c520     service.obj
 0001:0000b530       ??_C@_0L@IDFHDAHP@GetStringW?$AA@ 000000018000c530     service.obj
 0001:0000b540       ??_C@_0N@ICPGLOEG@InsertString?$AA@ 000000018000c540     service.obj
 0001:0000b550       ??_C@_0L@JMOIGJIA@InsertText?$AA@ 000000018000c550     service.obj
 0001:0000b560       ??_C@_0M@BINOKANK@InsertTextW?$AA@ 000000018000c560     service.obj
 0001:0000b570       ??_C@_0BE@CNGODNDI@NextSessionBookmark?$AA@ 000000018000c570     service.obj
 0001:0000b588       ??_C@_0BE@IEBIGOAP@PrevSessionBookmark?$AA@ 000000018000c588     service.obj
 0001:0000b5a0       ??_C@_0N@FNCEPAJJ@ProcessInput?$AA@ 000000018000c5a0     service.obj
 0001:0000b5b0       ??_C@_04GMBKPCGK@Quit?$AA@ 000000018000c5b0     service.obj
 0001:0000b5b8       ??_C@_09KINLOJJJ@ReadInput?$AA@ 000000018000c5b8     service.obj
 0001:0000b5c8       ??_C@_09DBPLBJBJ@RealToTab?$AA@ 000000018000c5c8     service.obj
 0001:0000b5d4       ??_C@_06KAPLBEK@Redraw?$AA@ 000000018000c5d4     service.obj
 0001:0000b5e0       ??_C@_08FBDDPFPJ@SaveFile?$AA@ 000000018000c5e0     service.obj
 0001:0000b5ec       ??_C@_06HJGPBJLE@Select?$AA@ 000000018000c5ec     service.obj
 0001:0000b5f8       ??_C@_09PPEOOGEC@SetKeyBar?$AA@ 000000018000c5f8     service.obj
 0001:0000b608       ??_C@_08CCKJEGOF@SetParam?$AA@ 000000018000c608     service.obj
 0001:0000b618       ??_C@_0M@GKIFPNAD@SetPosition?$AA@ 000000018000c618     service.obj
 0001:0000b628       ??_C@_09FPPPFNNC@SetString?$AA@ 000000018000c628     service.obj
 0001:0000b638       ??_C@_0L@JNHIIHDG@SetStringW?$AA@ 000000018000c638     service.obj
 0001:0000b648       ??_C@_08GMCCAJLF@SetTitle?$AA@ 000000018000c648     service.obj
 0001:0000b658       ??_C@_0BF@LIMPGNED@SubscribeChangeEvent?$AA@ 000000018000c658     service.obj
 0001:0000b670       ??_C@_09JFBCONJH@TabToReal?$AA@ 000000018000c670     service.obj
 0001:0000b680       ??_C@_08IBJJAHJG@UndoRedo?$AA@ 000000018000c680     service.obj
 0001:0000b690       ??_C@_07JMDLHPJF@SetMode?$AA@ 000000018000c690     service.obj
 0001:0000b698       ??_C@_06PJECNADJ@Viewer?$AA@ 000000018000c698     service.obj
 0001:0000b6a0       ??_C@_0BB@PJGDGIKA@CheckPanelsExist?$AA@ 000000018000c6a0     service.obj
 0001:0000b6b8       ??_C@_0P@DFBDDHFA@ClearSelection?$AA@ 000000018000c6b8     service.obj
 0001:0000b6c8       ??_C@_0L@KOHCMOPM@GetCmdLine?$AA@ 000000018000c6c8     service.obj
 0001:0000b6d8       ??_C@_0O@NLDIMJEA@GetCmdLinePos?$AA@ 000000018000c6d8     service.obj
 0001:0000b6e8       ??_C@_0BE@CBPLLCEH@GetCmdLineSelection?$AA@ 000000018000c6e8     service.obj
 0001:0000b700       ??_C@_0P@CMFANDFM@GetColumnTypes?$AA@ 000000018000c700     service.obj
 0001:0000b710       ??_C@_0BA@DJGLDCBG@GetColumnWidths?$AA@ 000000018000c710     service.obj
 0001:0000b720       ??_C@_0BE@JPAIJBCI@GetCurrentPanelItem?$AA@ 000000018000c720     service.obj
 0001:0000b738       ??_C@_0BC@NGKPIKGL@GetPanelDirectory?$AA@ 000000018000c738     service.obj
 0001:0000b750       ??_C@_0P@GODLFFFJ@GetPanelFormat?$AA@ 000000018000c750     service.obj
 0001:0000b760       ??_C@_0BB@LCMBHPNI@GetPanelHostFile?$AA@ 000000018000c760     service.obj
 0001:0000b778       ??_C@_0N@HPIPGDFA@GetPanelInfo?$AA@ 000000018000c778     service.obj
 0001:0000b788       ??_C@_0N@HAFLAIHA@GetPanelItem?$AA@ 000000018000c788     service.obj
 0001:0000b798       ??_C@_0P@HCBKDPMP@GetPanelPrefix?$AA@ 000000018000c798     service.obj
 0001:0000b7a8       ??_C@_0BF@MEMFMMGB@GetSelectedPanelItem?$AA@ 000000018000c7a8     service.obj
 0001:0000b7c0       ??_C@_0O@HEGDGAJG@GetUserScreen?$AA@ 000000018000c7c0     service.obj
 0001:0000b7d0       ??_C@_0O@EHOCCHAL@InsertCmdLine?$AA@ 000000018000c7d0     service.obj
 0001:0000b7e0       ??_C@_0O@OMMHIHHH@IsActivePanel?$AA@ 000000018000c7e0     service.obj
 0001:0000b7f0       ??_C@_0M@LCEPDNPK@RedrawPanel?$AA@ 000000018000c7f0     service.obj
 0001:0000b800       ??_C@_0P@OPKJJMLB@SetActivePanel?$AA@ 000000018000c800     service.obj
 0001:0000b810       ??_C@_0BF@LKMKIFPG@SetCaseSensitiveSort?$AA@ 000000018000c810     service.obj
 0001:0000b828       ??_C@_0L@LAFNHJLF@SetCmdLine?$AA@ 000000018000c828     service.obj
 0001:0000b838       ??_C@_0O@KECGHKDH@SetCmdLinePos?$AA@ 000000018000c838     service.obj
 0001:0000b848       ??_C@_0BE@IPNAPCDL@SetCmdLineSelection?$AA@ 000000018000c848     service.obj
 0001:0000b860       ??_C@_0BE@PAPEKLCP@SetDirectoriesFirst?$AA@ 000000018000c860     service.obj
 0001:0000b878       ??_C@_0P@NPNKOENM@SetNumericSort?$AA@ 000000018000c878     service.obj
 0001:0000b888       ??_C@_0BC@PDKEABHF@SetPanelDirectory?$AA@ 000000018000c888     service.obj
 0001:0000b8a0       ??_C@_0N@NMDFLOPL@SetSelection?$AA@ 000000018000c8a0     service.obj
 0001:0000b8b0       ??_C@_0M@CMMMGIDG@SetSortMode?$AA@ 000000018000c8b0     service.obj
 0001:0000b8c0       ??_C@_0N@HCHLALN@SetSortOrder?$AA@ 000000018000c8c0     service.obj
 0001:0000b8d0       ??_C@_0O@LHNNDOB@SetUserScreen?$AA@ 000000018000c8d0     service.obj
 0001:0000b8e0       ??_C@_0M@IENJPEBA@SetViewMode?$AA@ 000000018000c8e0     service.obj
 0001:0000b8f0       ??_C@_0M@EICBHAOA@UpdatePanel?$AA@ 000000018000c8f0     service.obj
 0001:0000b900       ??_C@_0BC@BIIKJLKB@PluginStartupInfo?$AA@ 000000018000c900     service.obj
 0001:0000b918       ??_C@_0L@PJAHNOGM@DialogInit?$AA@ 000000018000c918     service.obj
 0001:0000b928       ??_C@_09DBEDLMHB@DialogRun?$AA@ 000000018000c928     service.obj
 0001:0000b938       ??_C@_0L@DLFLHLOO@DialogFree?$AA@ 000000018000c938     service.obj
 0001:0000b948       ??_C@_0P@HLOFPDFP@SendDlgMessage?$AA@ 000000018000c948     service.obj
 0001:0000b958       ??_C@_0L@CKELNLCE@GetDlgItem?$AA@ 000000018000c958     service.obj
 0001:0000b968       ??_C@_0L@DEGEGMGN@SetDlgItem?$AA@ 000000018000c968     service.obj
 0001:0000b978       ??_C@_0L@MCFABBED@GetDirList?$AA@ 000000018000c978     service.obj
 0001:0000b984       ??_C@_06KCCBBIBJ@GetMsg?$AA@ 000000018000c984     service.obj
 0001:0000b990       ??_C@_0BB@HIDBFOJJ@GetPluginDirList?$AA@ 000000018000c990     service.obj
 0001:0000b9a4       ??_C@_04IFEHPILC@Menu?$AA@ 000000018000c9a4     service.obj
 0001:0000b9b0       ??_C@_07BEIHKDLJ@Message?$AA@ 000000018000c9b0     service.obj
 0001:0000b9b8       ??_C@_0O@CGLFPNOD@RestoreScreen?$AA@ 000000018000c9b8     service.obj
 0001:0000b9c8       ??_C@_0L@PGGGPLFK@SaveScreen?$AA@ 000000018000c9c8     service.obj
 0001:0000b9d8       ??_C@_08DAHHHDJC@ShowHelp?$AA@ 000000018000c9d8     service.obj
 0001:0000b9e8       ??_C@_08IAADAJIH@InputBox?$AA@ 000000018000c9e8     service.obj
 0001:0000b9f8       ??_C@_0L@HHLOIHOP@AdvControl?$AA@ 000000018000c9f8     service.obj
 0001:0000ba08       ??_C@_0N@GHGEMEN@MacroLoadAll?$AA@ 000000018000ca08     service.obj
 0001:0000ba18       ??_C@_0N@NAGBAPAE@MacroSaveAll?$AA@ 000000018000ca18     service.obj
 0001:0000ba28       ??_C@_0O@KGHDMPAJ@MacroGetState?$AA@ 000000018000ca28     service.obj
 0001:0000ba38       ??_C@_0N@PNLHCOIE@MacroGetArea?$AA@ 000000018000ca38     service.obj
 0001:0000ba48       ??_C@_09KGKKBHMO@MacroPost?$AA@ 000000018000ca48     service.obj
 0001:0000ba58       ??_C@_0L@KBAKOGFP@MacroCheck?$AA@ 000000018000ca58     service.obj
 0001:0000ba68       ??_C@_08KAFLEHAN@MacroAdd?$AA@ 000000018000ca68     service.obj
 0001:0000ba78       ??_C@_0M@KFMHCNNB@MacroDelete?$AA@ 000000018000ca78     service.obj
 0001:0000ba88       ??_C@_0BC@MJDKBAPF@MacroGetLastError?$AA@ 000000018000ca88     service.obj
 0001:0000baa0       ??_C@_0N@COEPENFH@MacroExecute?$AA@ 000000018000caa0     service.obj
 0001:0000bab0       ??_C@_0BB@BICELPOF@CreateFileFilter?$AA@ 000000018000cab0     service.obj
 0001:0000bac8       ??_C@_0L@CHJBHF@LoadPlugin?$AA@ 000000018000cac8     service.obj
 0001:0000bad8       ??_C@_0N@DHIONCLI@UnloadPlugin?$AA@ 000000018000cad8     service.obj
 0001:0000bae8       ??_C@_0BB@IJHIBGJA@ForcedLoadPlugin?$AA@ 000000018000cae8     service.obj
 0001:0000bb00       ??_C@_0L@DACPHGGH@FindPlugin?$AA@ 000000018000cb00     service.obj
 0001:0000bb10       ??_C@_0BF@KLOGLFMF@GetPluginInformation?$AA@ 000000018000cb10     service.obj
 0001:0000bb28       ??_C@_0L@JIDCIJHM@GetPlugins?$AA@ 000000018000cb28     service.obj
 0001:0000bb38       ??_C@_0P@IKAEEPOB@IsPluginLoaded?$AA@ 000000018000cb38     service.obj
 0001:0000bb48       ??_C@_0P@HMKEDHIE@CreateSettings?$AA@ 000000018000cb48     service.obj
 0001:0000bb58       ??_C@_0N@GOMOBHDB@FreeSettings?$AA@ 000000018000cb58     service.obj
 0001:0000bb68       ??_C@_0M@IFKFGKML@ColorDialog?$AA@ 000000018000cb68     service.obj
 0001:0000bb78       ??_C@_0BA@EOCNNPOG@CopyToClipboard?$AA@ 000000018000cb78     service.obj
 0001:0000bb88       ??_C@_0BD@PLIHDKFC@PasteFromClipboard?$AA@ 000000018000cb88     service.obj
 0001:0000bba0       ??_C@_0BC@FJDIKOMH@InputRecordToName?$AA@ 000000018000cba0     service.obj
 0001:0000bbb8       ??_C@_0BC@FFNOIDFI@NameToInputRecord?$AA@ 000000018000cbb8     service.obj
 0001:0000bbd0       ??_C@_08HGLFNLMB@LStricmp?$AA@ 000000018000cbd0     service.obj
 0001:0000bbe0       ??_C@_09GALOFBAC@LStrnicmp?$AA@ 000000018000cbe0     service.obj
 0001:0000bbf0       ??_C@_0M@KPPMMAOL@ProcessName?$AA@ 000000018000cbf0     service.obj
 0001:0000bc00       ??_C@_0M@KFCNKLDK@GetPathRoot?$AA@ 000000018000cc00     service.obj
 0001:0000bc10       ??_C@_0BE@EPGHGPJC@GetReparsePointInfo?$AA@ 000000018000cc10     service.obj
 0001:0000bc28       ??_C@_08DNJCLFF@LIsAlpha?$AA@ 000000018000cc28     service.obj
 0001:0000bc38       ??_C@_0M@LKJIEECA@LIsAlphanum?$AA@ 000000018000cc38     service.obj
 0001:0000bc48       ??_C@_08MAHKICD@LIsLower?$AA@ 000000018000cc48     service.obj
 0001:0000bc58       ??_C@_08FHLJMDJK@LIsUpper?$AA@ 000000018000cc58     service.obj
 0001:0000bc68       ??_C@_09LPKAHGM@LLowerBuf?$AA@ 000000018000cc68     service.obj
 0001:0000bc78       ??_C@_09GLKFOOEP@LUpperBuf?$AA@ 000000018000cc78     service.obj
 0001:0000bc84       ??_C@_06ILCHIEBO@MkTemp?$AA@ 000000018000cc84     service.obj
 0001:0000bc8c       ??_C@_06DKBBJCCG@MkLink?$AA@ 000000018000cc8c     service.obj
 0001:0000bc98       ??_C@_0N@CCDDAJK@TruncPathStr?$AA@ 000000018000cc98     service.obj
 0001:0000bca8       ??_C@_08BNEIIKEJ@TruncStr?$AA@ 000000018000cca8     service.obj
 0001:0000bcb8       ??_C@_0BA@CLEHBIPM@RecursiveSearch?$AA@ 000000018000ccb8     service.obj
 0001:0000bcc8       ??_C@_0M@HKHGOOHG@ConvertPath?$AA@ 000000018000ccc8     service.obj
 0001:0000bcd4       ??_C@_04OCDKHGII@XLat?$AA@ 000000018000ccd4     service.obj
 0001:0000bce0       ??_C@_0P@BGLLKGOI@FormatFileSize?$AA@ 000000018000cce0     service.obj
 0001:0000bcf0       ??_C@_0BD@ELMHPHAC@CPluginStartupInfo?$AA@ 000000018000ccf0     service.obj
 0001:0000bd08       ??_C@_0BE@DJLJEKBK@GetCurrentDirectory?$AA@ 000000018000cd08     service.obj
 0001:0000bd20       ??_C@_0N@MOMBJEKA@GetFileOwner?$AA@ 000000018000cd20     service.obj
 0001:0000bd30       ??_C@_0BB@JBNBALEM@GetNumberOfLinks?$AA@ 000000018000cd30     service.obj
 0001:0000bd48       ??_C@_0O@EFLBAKBJ@LuafarVersion?$AA@ 000000018000cd48     service.obj
 0001:0000bd58       ??_C@_0O@BJEAJNBH@MakeMenuItems?$AA@ 000000018000cd58     service.obj
 0001:0000bd68       ??_C@_04JLAJABDJ@Show?$AA@ 000000018000cd68     service.obj
 0001:0000bd70       ??_C@_05NHFJDMOA@Timer?$AA@ 000000018000cd70     service.obj
 0001:0000bd78       ??_C@_02KFNNKBCK@io?$AA@   000000018000cd78     service.obj
 0001:0000bd7c       ??_C@_02EHCHIAMF@os?$AA@   000000018000cd7c     service.obj
 0001:0000bd80       ??_C@_04CFDJAKFL@math?$AA@ 000000018000cd80     service.obj
 0001:0000bd88       ??_C@_07GAJMMAJO@unicode?$AA@ 000000018000cd88     service.obj
 0001:0000bd90       ??_C@_03JECLAOEA@win?$AA@  000000018000cd90     service.obj
 0001:0000bd98       ??_C@_0M@PLOBHAKE@luaopen_bit?$AA@ 000000018000cd98     service.obj
 0001:0000bda8       ??_C@_0M@IALDMMNC@luaopen_ffi?$AA@ 000000018000cda8     service.obj
 0001:0000bdb8       ??_C@_0M@DOFFFIEL@luaopen_jit?$AA@ 000000018000cdb8     service.obj
 0001:0000bdc8       ??_C@_07PHPIFDKI@LBUTTON?$AA@ 000000018000cdc8     service.obj
 0001:0000bdd0       ??_C@_07JOMJHALB@RBUTTON?$AA@ 000000018000cdd0     service.obj
 0001:0000bdd8       ??_C@_06JHILMIHF@CANCEL?$AA@ 000000018000cdd8     service.obj
 0001:0000bde0       ??_C@_07DLFCFDDG@MBUTTON?$AA@ 000000018000cde0     service.obj
 0001:0000bde8       ??_C@_08OPILMHEG@XBUTTON1?$AA@ 000000018000cde8     service.obj
 0001:0000bdf8       ??_C@_08MEKGJEIF@XBUTTON2?$AA@ 000000018000cdf8     service.obj
 0001:0000be04       ??_C@_04FJBHJJME@BACK?$AA@ 000000018000ce04     service.obj
 0001:0000be0c       ??_C@_03CJMDHCGG@TAB?$AA@  000000018000ce0c     service.obj
 0001:0000be10       ??_C@_05PONODPI@CLEAR?$AA@ 000000018000ce10     service.obj
 0001:0000be18       ??_C@_06LJMOENAO@RETURN?$AA@ 000000018000ce18     service.obj
 0001:0000be20       ??_C@_05OAHIEJBI@SHIFT?$AA@ 000000018000ce20     service.obj
 0001:0000be28       ??_C@_07DBEDOPMC@CONTROL?$AA@ 000000018000ce28     service.obj
 0001:0000be30       ??_C@_04IILMDFMO@MENU?$AA@ 000000018000ce30     service.obj
 0001:0000be38       ??_C@_05DIAHPDGL@PAUSE?$AA@ 000000018000ce38     service.obj
 0001:0000be40       ??_C@_07OPCFNGJB@CAPITAL?$AA@ 000000018000ce40     service.obj
 0001:0000be48       ??_C@_04KGDAIAGM@KANA?$AA@ 000000018000ce48     service.obj
 0001:0000be50       ??_C@_05PPKJGOLB@JUNJA?$AA@ 000000018000ce50     service.obj
 0001:0000be58       ??_C@_05JEIAEFOF@FINAL?$AA@ 000000018000ce58     service.obj
 0001:0000be60       ??_C@_05CHABPOPI@HANJA?$AA@ 000000018000ce60     service.obj
 0001:0000be68       ??_C@_06CDPDIIDH@ESCAPE?$AA@ 000000018000ce68     service.obj
 0001:0000be70       ??_C@_0L@ODNCKDCK@NONCONVERT?$AA@ 000000018000ce70     service.obj
 0001:0000be7c       ??_C@_06INBBKPI@ACCEPT?$AA@ 000000018000ce7c     service.obj
 0001:0000be88       ??_C@_0L@HEHNEBED@MODECHANGE?$AA@ 000000018000ce88     service.obj
 0001:0000be94       ??_C@_05CAEOFMEP@SPACE?$AA@ 000000018000ce94     service.obj
 0001:0000be9c       ??_C@_05BFDHCIJM@PRIOR?$AA@ 000000018000ce9c     service.obj
 0001:0000bea4       ??_C@_04MOKMKBJN@NEXT?$AA@ 000000018000cea4     service.obj
 0001:0000beac       ??_C@_03JMGAKCCH@END?$AA@  000000018000ceac     service.obj
 0001:0000beb0       ??_C@_04GHGFPGNC@HOME?$AA@ 000000018000ceb0     service.obj
 0001:0000beb8       ??_C@_04KCNEHMIH@LEFT?$AA@ 000000018000ceb8     service.obj
 0001:0000bec0       ??_C@_02NAHCJHOC@UP?$AA@   000000018000cec0     service.obj
 0001:0000bec4       ??_C@_05PMAFOJDE@RIGHT?$AA@ 000000018000cec4     service.obj
 0001:0000becc       ??_C@_04FANAOELO@DOWN?$AA@ 000000018000cecc     service.obj
 0001:0000bed4       ??_C@_06LCPJPOPK@SELECT?$AA@ 000000018000ced4     service.obj
 0001:0000bedc       ??_C@_05ECKPOFCN@PRINT?$AA@ 000000018000cedc     service.obj
 0001:0000bee8       ??_C@_07LBDEDADF@EXECUTE?$AA@ 000000018000cee8     service.obj
 0001:0000bef0       ??_C@_08EMOKHGD@SNAPSHOT?$AA@ 000000018000cef0     service.obj
 0001:0000befc       ??_C@_06OEMEAEKN@INSERT?$AA@ 000000018000cefc     service.obj
 0001:0000bf04       ??_C@_06FKDAMKFP@DELETE?$AA@ 000000018000cf04     service.obj
 0001:0000bf0c       ??_C@_04DOKPJKJF@HELP?$AA@ 000000018000cf0c     service.obj
 0001:0000bf14       ??_C@_01GBGANLPD@0?$AA@    000000018000cf14     service.obj
 0001:0000bf18       ??_C@_01HIHLOKLC@1?$AA@    000000018000cf18     service.obj
 0001:0000bf1c       ??_C@_01FDFGLJHB@2?$AA@    000000018000cf1c     service.obj
 0001:0000bf20       ??_C@_01EKENIIDA@3?$AA@    000000018000cf20     service.obj
 0001:0000bf24       ??_C@_01FAMBOPH@4?$AA@     000000018000cf24     service.obj
 0001:0000bf28       ??_C@_01BMBHCPLG@5?$AA@    000000018000cf28     service.obj
 0001:0000bf2c       ??_C@_01DHDKHMHF@6?$AA@    000000018000cf2c     service.obj
 0001:0000bf30       ??_C@_01COCBENDE@7?$AA@    000000018000cf30     service.obj
 0001:0000bf34       ??_C@_01KJLJFBPL@8?$AA@    000000018000cf34     service.obj
 0001:0000bf38       ??_C@_01LAKCGALK@9?$AA@    000000018000cf38     service.obj
 0001:0000bf3c       ??_C@_01FHEEJDEE@A?$AA@    000000018000cf3c     service.obj
 0001:0000bf40       ??_C@_01HMGJMAIH@B?$AA@    000000018000cf40     service.obj
 0001:0000bf44       ??_C@_01GFHCPBMG@C?$AA@    000000018000cf44     service.obj
 0001:0000bf48       ??_C@_01CKDDGHAB@D?$AA@    000000018000cf48     service.obj
 0001:0000bf4c       ??_C@_01DDCIFGEA@E?$AA@    000000018000cf4c     service.obj
 0001:0000bf50       ??_C@_01BIAFAFID@F?$AA@    000000018000cf50     service.obj
 0001:0000bf54       ??_C@_01BBODEMC@G?$AA@     000000018000cf54     service.obj
 0001:0000bf58       ??_C@_01IGIGCIAN@H?$AA@    000000018000cf58     service.obj
 0001:0000bf5c       ??_C@_01JPJNBJEM@I?$AA@    000000018000cf5c     service.obj
 0001:0000bf60       ??_C@_01LELAEKIP@J?$AA@    000000018000cf60     service.obj
 0001:0000bf64       ??_C@_01KNKLHLMO@K?$AA@    000000018000cf64     service.obj
 0001:0000bf68       ??_C@_01OCOKONAJ@L?$AA@    000000018000cf68     service.obj
 0001:0000bf6c       ??_C@_01PLPBNMEI@M?$AA@    000000018000cf6c     service.obj
 0001:0000bf70       ??_C@_01NANMIPIL@N?$AA@    000000018000cf70     service.obj
 0001:0000bf74       ??_C@_01MJMHLOMK@O?$AA@    000000018000cf74     service.obj
 0001:0000bf78       ??_C@_01EJNLAFE@P?$AA@     000000018000cf78     service.obj
 0001:0000bf7c       ??_C@_01BNIGIBBF@Q?$AA@    000000018000cf7c     service.obj
 0001:0000bf80       ??_C@_01DGKLNCNG@R?$AA@    000000018000cf80     service.obj
 0001:0000bf84       ??_C@_01CPLAODJH@S?$AA@    000000018000cf84     service.obj
 0001:0000bf88       ??_C@_01GAPBHFFA@T?$AA@    000000018000cf88     service.obj
 0001:0000bf8c       ??_C@_01HJOKEEBB@U?$AA@    000000018000cf8c     service.obj
 0001:0000bf90       ??_C@_01FCMHBHNC@V?$AA@    000000018000cf90     service.obj
 0001:0000bf94       ??_C@_01ELNMCGJD@W?$AA@    000000018000cf94     service.obj
 0001:0000bf98       ??_C@_01MMEEDKFM@X?$AA@    000000018000cf98     service.obj
 0001:0000bf9c       ??_C@_01NFFPALBN@Y?$AA@    000000018000cf9c     service.obj
 0001:0000bfa0       ??_C@_01POHCFINO@Z?$AA@    000000018000cfa0     service.obj
 0001:0000bfa4       ??_C@_04ODLFFOHF@LWIN?$AA@ 000000018000cfa4     service.obj
 0001:0000bfac       ??_C@_04DMGFHHJG@RWIN?$AA@ 000000018000cfac     service.obj
 0001:0000bfb4       ??_C@_04GKGJFGJO@APPS?$AA@ 000000018000cfb4     service.obj
 0001:0000bfbc       ??_C@_05DJAECLDN@SLEEP?$AA@ 000000018000cfbc     service.obj
 0001:0000bfc8       ??_C@_07NHIPMMJH@NUMPAD0?$AA@ 000000018000cfc8     service.obj
 0001:0000bfd0       ??_C@_07MOJEPNNG@NUMPAD1?$AA@ 000000018000cfd0     service.obj
 0001:0000bfd8       ??_C@_07OFLJKOBF@NUMPAD2?$AA@ 000000018000cfd8     service.obj
 0001:0000bfe0       ??_C@_07PMKCJPFE@NUMPAD3?$AA@ 000000018000cfe0     service.obj
 0001:0000bfe8       ??_C@_07LDODAJJD@NUMPAD4?$AA@ 000000018000cfe8     service.obj
 0001:0000bff0       ??_C@_07KKPIDINC@NUMPAD5?$AA@ 000000018000cff0     service.obj
 0001:0000bff8       ??_C@_07IBNFGLBB@NUMPAD6?$AA@ 000000018000cff8     service.obj
 0001:0000c000       ??_C@_07JIMOFKFA@NUMPAD7?$AA@ 000000018000d000     service.obj
 0001:0000c008       ??_C@_07BPFGEGJP@NUMPAD8?$AA@ 000000018000d008     service.obj
 0001:0000c010       ??_C@_07GENHHNO@NUMPAD9?$AA@ 000000018000d010     service.obj
 0001:0000c018       ??_C@_08LDEOAAGM@MULTIPLY?$AA@ 000000018000d018     service.obj
 0001:0000c024       ??_C@_03BOJFLAKG@ADD?$AA@  000000018000d024     service.obj
 0001:0000c028       ??_C@_09POPINEFK@SEPARATOR?$AA@ 000000018000d028     service.obj
 0001:0000c038       ??_C@_08MGBEENML@SUBTRACT?$AA@ 000000018000d038     service.obj
 0001:0000c048       ??_C@_07LJPMJDLL@DECIMAL?$AA@ 000000018000d048     service.obj
 0001:0000c050       ??_C@_06FBFCJJMP@DIVIDE?$AA@ 000000018000d050     service.obj
 0001:0000c058       ??_C@_02LCPENACN@F1?$AA@   000000018000d058     service.obj
 0001:0000c05c       ??_C@_02JJNJIDOO@F2?$AA@   000000018000d05c     service.obj
 0001:0000c060       ??_C@_02IAMCLCKP@F3?$AA@   000000018000d060     service.obj
 0001:0000c064       ??_C@_02MPIDCEGI@F4?$AA@   000000018000d064     service.obj
 0001:0000c068       ??_C@_02NGJIBFCJ@F5?$AA@   000000018000d068     service.obj
 0001:0000c06c       ??_C@_02PNLFEGOK@F6?$AA@   000000018000d06c     service.obj
 0001:0000c070       ??_C@_02OEKOHHKL@F7?$AA@   000000018000d070     service.obj
 0001:0000c074       ??_C@_02GDDGGLGE@F8?$AA@   000000018000d074     service.obj
 0001:0000c078       ??_C@_02HKCNFKCF@F9?$AA@   000000018000d078     service.obj
 0001:0000c07c       ??_C@_03JKCLJOFG@F10?$AA@  000000018000d07c     service.obj
 0001:0000c080       ??_C@_03IDDAKPBH@F11?$AA@  000000018000d080     service.obj
 0001:0000c084       ??_C@_03KIBNPMNE@F12?$AA@  000000018000d084     service.obj
 0001:0000c088       ??_C@_03LBAGMNJF@F13?$AA@  000000018000d088     service.obj
 0001:0000c08c       ??_C@_03POEHFLFC@F14?$AA@  000000018000d08c     service.obj
 0001:0000c090       ??_C@_03OHFMGKBD@F15?$AA@  000000018000d090     service.obj
 0001:0000c094       ??_C@_03MMHBDJNA@F16?$AA@  000000018000d094     service.obj
 0001:0000c098       ??_C@_03NFGKAIJB@F17?$AA@  000000018000d098     service.obj
 0001:0000c09c       ??_C@_03FCPCBEFO@F18?$AA@  000000018000d09c     service.obj
 0001:0000c0a0       ??_C@_03ELOJCFBP@F19?$AA@  000000018000d0a0     service.obj
 0001:0000c0a4       ??_C@_03JIGNCAAP@F20?$AA@  000000018000d0a4     service.obj
 0001:0000c0a8       ??_C@_03IBHGBBEO@F21?$AA@  000000018000d0a8     service.obj
 0001:0000c0ac       ??_C@_03KKFLECIN@F22?$AA@  000000018000d0ac     service.obj
 0001:0000c0b0       ??_C@_03LDEAHDMM@F23?$AA@  000000018000d0b0     service.obj
 0001:0000c0b4       ??_C@_03PMABOFAL@F24?$AA@  000000018000d0b4     service.obj
 0001:0000c0b8       ??_C@_07FLMEHHJP@NUMLOCK?$AA@ 000000018000d0b8     service.obj
 0001:0000c0c0       ??_C@_06FNIKALAE@SCROLL?$AA@ 000000018000d0c0     service.obj
 0001:0000c0c8       ??_C@_0O@DBBJDALK@OEM_NEC_EQUAL?$AA@ 000000018000d0c8     service.obj
 0001:0000c0d8       ??_C@_0P@JKGCFGCD@OEM_FJ_MASSHOU?$AA@ 000000018000d0d8     service.obj
 0001:0000c0e8       ??_C@_0P@NIEOFNLG@OEM_FJ_TOUROKU?$AA@ 000000018000d0e8     service.obj
 0001:0000c0f8       ??_C@_0M@IBEHGLCM@OEM_FJ_LOYA?$AA@ 000000018000d0f8     service.obj
 0001:0000c108       ??_C@_0M@FOJHECMP@OEM_FJ_ROYA?$AA@ 000000018000d108     service.obj
 0001:0000c114       ??_C@_06EPHNCIMI@LSHIFT?$AA@ 000000018000d114     service.obj
 0001:0000c11c       ??_C@_06HIJMMPFL@RSHIFT?$AA@ 000000018000d11c     service.obj
 0001:0000c128       ??_C@_08IKMONEBG@LCONTROL?$AA@ 000000018000d128     service.obj
 0001:0000c138       ??_C@_08OOMMENPF@RCONTROL?$AA@ 000000018000d138     service.obj
 0001:0000c144       ??_C@_05IHMGKJGH@LMENU?$AA@ 000000018000d144     service.obj
 0001:0000c14c       ??_C@_05LOBKMKIM@RMENU?$AA@ 000000018000d14c     service.obj
 0001:0000c158       ??_C@_0N@OAJIELLG@BROWSER_BACK?$AA@ 000000018000d158     service.obj
 0001:0000c168       ??_C@_0BA@ENOAJOGH@BROWSER_FORWARD?$AA@ 000000018000d168     service.obj
 0001:0000c178       ??_C@_0BA@GDNDIDGJ@BROWSER_REFRESH?$AA@ 000000018000d178     service.obj
 0001:0000c188       ??_C@_0N@HKPDGANH@BROWSER_STOP?$AA@ 000000018000d188     service.obj
 0001:0000c198       ??_C@_0P@BEAEBJDD@BROWSER_SEARCH?$AA@ 000000018000d198     service.obj
 0001:0000c1a8       ??_C@_0BC@BOMJIH@BROWSER_FAVORITES?$AA@ 000000018000d1a8     service.obj
 0001:0000c1c0       ??_C@_0N@NOOKCEKA@BROWSER_HOME?$AA@ 000000018000d1c0     service.obj
 0001:0000c1d0       ??_C@_0M@ENOHKBMG@VOLUME_MUTE?$AA@ 000000018000d1d0     service.obj
 0001:0000c1e0       ??_C@_0M@JOOBBDNO@VOLUME_DOWN?$AA@ 000000018000d1e0     service.obj
 0001:0000c1f0       ??_C@_09MGPMNMJC@VOLUME_UP?$AA@ 000000018000d1f0     service.obj
 0001:0000c200       ??_C@_0BB@KLAENPA@MEDIA_NEXT_TRACK?$AA@ 000000018000d200     service.obj
 0001:0000c218       ??_C@_0BB@CMOIJKPH@MEDIA_PREV_TRACK?$AA@ 000000018000d218     service.obj
 0001:0000c230       ??_C@_0L@KBJOCDHK@MEDIA_STOP?$AA@ 000000018000d230     service.obj
 0001:0000c240       ??_C@_0BB@HAEMIJHO@MEDIA_PLAY_PAUSE?$AA@ 000000018000d240     service.obj
 0001:0000c258       ??_C@_0M@GCIKMBID@LAUNCH_MAIL?$AA@ 000000018000d258     service.obj
 0001:0000c268       ??_C@_0BE@FADJJAPM@LAUNCH_MEDIA_SELECT?$AA@ 000000018000d268     service.obj
 0001:0000c280       ??_C@_0M@MGLJIDDM@LAUNCH_APP1?$AA@ 000000018000d280     service.obj
 0001:0000c290       ??_C@_0M@ONJENAPP@LAUNCH_APP2?$AA@ 000000018000d290     service.obj
 0001:0000c29c       ??_C@_05OIODNPAD@OEM_1?$AA@ 000000018000d29c     service.obj
 0001:0000c2a8       ??_C@_08LDJEIPBH@OEM_PLUS?$AA@ 000000018000d2a8     service.obj
 0001:0000c2b8       ??_C@_09CLPFJEOD@OEM_COMMA?$AA@ 000000018000d2b8     service.obj
 0001:0000c2c8       ??_C@_09OGMLCNMG@OEM_MINUS?$AA@ 000000018000d2c8     service.obj
 0001:0000c2d8       ??_C@_0L@DNNMNDGM@OEM_PERIOD?$AA@ 000000018000d2d8     service.obj
 0001:0000c2e4       ??_C@_05MDMOIMMA@OEM_2?$AA@ 000000018000d2e4     service.obj
 0001:0000c2ec       ??_C@_05NKNFLNIB@OEM_3?$AA@ 000000018000d2ec     service.obj
 0001:0000c2f4       ??_C@_05JFJECLEG@OEM_4?$AA@ 000000018000d2f4     service.obj
 0001:0000c2fc       ??_C@_05IMIPBKAH@OEM_5?$AA@ 000000018000d2fc     service.obj
 0001:0000c308       ??_C@_0N@JJLBBDOC@invalid?5flag?$AA@ 000000018000d308     service.obj
 0001:0000c318       ??_C@_0BJ@MIKGPOKL@invalid?5flag?5combination?$AA@ 000000018000d318     service.obj
 0001:0000c338       ??_C@_0P@FCIHMHBI@3?40?5build?53674?$AA@ 000000018000d338     service.obj
 0001:0000c348       ??_C@_0P@EANMLDOP@MousePositionX?$AA@ 000000018000d348     service.obj
 0001:0000c358       ??_C@_0P@FJMHICKO@MousePositionY?$AA@ 000000018000d358     service.obj
 0001:0000c368       ??_C@_0M@BJAICPIE@ButtonState?$AA@ 000000018000d368     service.obj
 0001:0000c378       ??_C@_0L@EMFBJIPA@EventFlags?$AA@ 000000018000d378     service.obj
 0001:0000c388       ??_C@_07EEJLMCNH@CurLine?$AA@ 000000018000d388     service.obj
 0001:0000c390       ??_C@_06EDBJMJDC@CurPos?$AA@ 000000018000d390     service.obj
 0001:0000c398       ??_C@_09EGONKHKB@CurTabPos?$AA@ 000000018000d398     service.obj
 0001:0000c3a8       ??_C@_0O@OKGGHEJK@TopScreenLine?$AA@ 000000018000d3a8     service.obj
 0001:0000c3b8       ??_C@_07GDAKJHLE@LeftPos?$AA@ 000000018000d3b8     service.obj
 0001:0000c3c0       ??_C@_08LLJICOLD@Overtype?$AA@ 000000018000d3c0     service.obj
 0001:0000c3d0       ??_C@_0BB@OKGMKOG@CustomColumnData?$AA@ 000000018000d3d0     service.obj
 0001:0000c3e8       ??_C@_0L@GEIEADPN@ModuleName?$AA@ 000000018000d3e8     service.obj
 0001:0000c3f8       ??_C@_09HOIHBHIM@ModuleDir?$AA@ 000000018000d3f8     service.obj
 0001:0000c408       ??_C@_0L@JLHCLFBG@PluginGuid?$AA@ 000000018000d408     service.obj
 0001:0000c418       ??_C@_08GGMFPBHM@EditorID?$AA@ 000000018000d418     service.obj
 0001:0000c428       ??_C@_0M@CPDBGLHN@WindowSizeX?$AA@ 000000018000d428     service.obj
 0001:0000c438       ??_C@_0M@DGCKFKDM@WindowSizeY?$AA@ 000000018000d438     service.obj
 0001:0000c448       ??_C@_0L@PMKENHMA@TotalLines?$AA@ 000000018000d448     service.obj
 0001:0000c458       ??_C@_09HKBEFIPN@BlockType?$AA@ 000000018000d458     service.obj
 0001:0000c468       ??_C@_0P@GAEEHNHE@BlockStartLine?$AA@ 000000018000d468     service.obj
 0001:0000c478       ??_C@_07KHIHFBFN@Options?$AA@ 000000018000d478     service.obj
 0001:0000c480       ??_C@_07FLDNELFM@TabSize?$AA@ 000000018000d480     service.obj
 0001:0000c488       ??_C@_0O@EBLDFOPH@BookmarkCount?$AA@ 000000018000d488     service.obj
 0001:0000c498       ??_C@_0BF@ODFKBFAK@SessionBookmarkCount?$AA@ 000000018000d498     service.obj
 0001:0000c4b0       ??_C@_08CPAOHJDL@CurState?$AA@ 000000018000d4b0     service.obj
 0001:0000c4c0       ??_C@_0N@DAJMJAE@StringLength?$AA@ 000000018000d4c0     service.obj
 0001:0000c4d0       ??_C@_08JPMALCFA@SelStart?$AA@ 000000018000d4d0     service.obj
 0001:0000c4dc       ??_C@_06JLEHDHII@SelEnd?$AA@ 000000018000d4dc     service.obj
 0001:0000c4e8       ??_C@_0L@IFNFGDGN@StringText?$AA@ 000000018000d4e8     service.obj
 0001:0000c4f8       ??_C@_09IBGOAAEM@StringEOL?$AA@ 000000018000d4f8     service.obj
 0001:0000c504       ??_C@_06MFLCIING@redraw?$AA@ 000000018000d504     service.obj
 0001:0000c510       ??_C@_07HICINA@restore?$AA@ 000000018000d510     service.obj
 0001:0000c518       ??_C@_0CG@LAKEGANL@must?5be?5?8redraw?8?0?5?8restore?8?0?5or?5@ 000000018000d518     service.obj
 0001:0000c540       ??_C@_04LIDDHMOL@Line?$AA@ 000000018000d540     service.obj
 0001:0000c548       ??_C@_06OIIFPIKD@Cursor?$AA@ 000000018000d548     service.obj
 0001:0000c550       ??_C@_0L@GDDEHGKI@ScreenLine?$AA@ 000000018000d550     service.obj
 0001:0000c560       ??_C@_0O@CIAFMMMB@BlockStartPos?$AA@ 000000018000d560     service.obj
 0001:0000c570       ??_C@_0L@EKLJJHPF@BlockWidth?$AA@ 000000018000d570     service.obj
 0001:0000c580       ??_C@_0M@NKKGBDGK@BlockHeight?$AA@ 000000018000d580     service.obj
 0001:0000c590       ??_C@_09JFPCGCOC@StartLine?$AA@ 000000018000d590     service.obj
 0001:0000c5a0       ??_C@_08JBNOANJG@StartPos?$AA@ 000000018000d5a0     service.obj
 0001:0000c5b0       ??_C@_07DCKCOCOC@EndLine?$AA@ 000000018000d5b0     service.obj
 0001:0000c5b8       ??_C@_06KGHIGMHC@EndPos?$AA@ 000000018000d5b8     service.obj
 0001:0000c5c0       ??_C@_0BA@HNIJJEO@ForegroundColor?$AA@ 000000018000d5c0     service.obj
 0001:0000c5d0       ??_C@_0BA@DPMBBMBG@BackgroundColor?$AA@ 000000018000d5d0     service.obj
 0001:0000c5e0       ??_C@_0O@NHKEGDJF@GUID?5required?$AA@ 000000018000d5e0     service.obj
 0001:0000c5f0       ??_C@_08KGEIBGG@Priority?$AA@ 000000018000d5f0     service.obj
 0001:0000c5fc       ??_C@_05PDOBBJNA@Color?$AA@ 000000018000d5fc     service.obj
 0001:0000c608       ??_C@_09KDLBEGCN@EventType?$AA@ 000000018000d608     service.obj
 0001:0000c618       ??_C@_07HPHPOAEG@KeyDown?$AA@ 000000018000d618     service.obj
 0001:0000c620       ??_C@_0M@FGGHEADP@RepeatCount?$AA@ 000000018000d620     service.obj
 0001:0000c630       ??_C@_0BA@KCCLHPM@VirtualScanCode?$AA@ 000000018000d630     service.obj
 0001:0000c640       ??_C@_0M@PBJKDIHH@UnicodeChar?$AA@ 000000018000d640     service.obj
 0001:0000c64c       ??_C@_05GIPJKPFG@SizeX?$AA@ 000000018000d64c     service.obj
 0001:0000c654       ??_C@_05HBOCJOBH@SizeY?$AA@ 000000018000d654     service.obj
 0001:0000c660       ??_C@_09GEJJJAHL@CommandId?$AA@ 000000018000d660     service.obj
 0001:0000c670       ??_C@_08GPNNBNIL@SetFocus?$AA@ 000000018000d670     service.obj
 0001:0000c680       ??_C@_0M@BEDENHPD@invalid?5key?$AA@ 000000018000d680     service.obj
 0001:0000c690       ??_C@_19IBCFILMC@?$AAM?$AAe?$AAn?$AAu?$AA?$AA@ 000000018000d690     service.obj
 0001:0000c6a0       ??_C@_0BF@OOLFJKGP@must?5be?5table?5or?5nil?$AA@ 000000018000d6a0     service.obj
 0001:0000c6b8       ??_C@_09FDAFFNEA@MaxHeight?$AA@ 000000018000d6b8     service.obj
 0001:0000c6c4       ??_C@_06DDHCBBGN@Bottom?$AA@ 000000018000d6c4     service.obj
 0001:0000c6d0       ??_C@_09CFELDMD@HelpTopic?$AA@ 000000018000d6d0     service.obj
 0001:0000c6e0       ??_C@_0M@GGMLPAIK@SelectIndex?$AA@ 000000018000d6e0     service.obj
 0001:0000c6ec       ??_C@_02HOGEDOAB@Id?$AA@   000000018000d6ec     service.obj
 0001:0000c6f0       ??_C@_07FJOBMBFC@checked?$AA@ 000000018000d6f0     service.obj
 0001:0000c6f8       ??_C@_09MOAJOJKN@separator?$AA@ 000000018000d6f8     service.obj
 0001:0000c708       ??_C@_07DBNODEFN@disable?$AA@ 000000018000d708     service.obj
 0001:0000c710       ??_C@_06JHIAOIKD@grayed?$AA@ 000000018000d710     service.obj
 0001:0000c718       ??_C@_06JIKFICKK@hidden?$AA@ 000000018000d718     service.obj
 0001:0000c720       ??_C@_08MMCKBNNI@AccelKey?$AA@ 000000018000d720     service.obj
 0001:0000c730       ??_C@_08PNHLLJE@BreakKey?$AA@ 000000018000d730     service.obj
 0001:0000c73c       ??_C@_15FMBEJGOH@?$AAO?$AAk?$AA?$AA@ 000000018000d73c     service.obj
 0001:0000c748       ??_C@_1BC@IBCAPFAE@?$AAO?$AAk?$AAC?$AAa?$AAn?$AAc?$AAe?$AAl?$AA?$AA@ 000000018000d748     service.obj
 0001:0000c760       ??_C@_1CC@HODOHOHB@?$AAA?$AAb?$AAo?$AAr?$AAt?$AAR?$AAe?$AAt?$AAr?$AAy?$AAI?$AAg?$AAn?$AAo?$AAr?$AAe?$AA?$AA@ 000000018000d760     service.obj
 0001:0000c788       ??_C@_1M@GGPOIMAD@?$AAY?$AAe?$AAs?$AAN?$AAo?$AA?$AA@ 000000018000d788     service.obj
 0001:0000c798       ??_C@_1BI@BNDFIGCI@?$AAY?$AAe?$AAs?$AAN?$AAo?$AAC?$AAa?$AAn?$AAc?$AAe?$AAl?$AA?$AA@ 000000018000d798     service.obj
 0001:0000c7b0       ??_C@_1BI@KMMIHPHF@?$AAR?$AAe?$AAt?$AAr?$AAy?$AAC?$AAa?$AAn?$AAc?$AAe?$AAl?$AA?$AA@ 000000018000d7b0     service.obj
 0001:0000c7c8       ??_C@_1DG@LMKDDADI@?$AA?$DM?$AAn?$AAo?$AAn?$AA?9?$AAs?$AAt?$AAr?$AAi?$AAn?$AAg?$AA?5?$AAe?$AAr?$AAr?$AAo?$AAr?$AA?5?$AAm?$AAe?$AAs?$AAs?$AAa?$AAg?$AAe?$AA?$DO?$AA?$AA@ 000000018000d7c8     service.obj
 0001:0000c800       ??_C@_15IEGBJKPD@?$AA?3?$AA?6?$AA?$AA@ 000000018000d800     service.obj
 0001:0000c808       ??_C@_19FFLPMPBO@?$AA?6?$AA?5?$AA?5?$AA?5?$AA?$AA@ 000000018000d808     service.obj
 0001:0000c814       ??_C@_15JCKODCLA@?$AA?6?$AA?7?$AA?$AA@ 000000018000d814     service.obj
 0001:0000c820       ??_C@_1M@ILHOPKA@?$AAE?$AAr?$AAr?$AAo?$AAr?$AA?$AA@ 000000018000d820     service.obj
 0001:0000c830       ??_C@_08FNIIFOJC@tostring?$AA@ 000000018000d830     service.obj
 0001:0000c840       ??_C@_0BJ@JOELOGM@cannot?5convert?5to?5string?$AA@ 000000018000d840     service.obj
 0001:0000c860       ??_C@_1BA@HHOMBECE@?$AAM?$AAe?$AAs?$AAs?$AAa?$AAg?$AAe?$AA?$AA@ 000000018000d860     service.obj
 0001:0000c870       ??_C@_17PAGBAIDI@?$AA?$DL?$AAO?$AAK?$AA?$AA@ 000000018000d870     service.obj
 0001:0000c878       ??_C@_09ENKGJCEC@OwnerGuid?$AA@ 000000018000d878     service.obj
 0001:0000c888       ??_C@_0N@CCPLCIHE@PluginHandle?$AA@ 000000018000d888     service.obj
 0001:0000c898       ??_C@_09BKHPOLGD@PanelType?$AA@ 000000018000d898     service.obj
 0001:0000c8a4       ??_C@_04GOOOJOPP@left?$AA@ 000000018000d8a4     service.obj
 0001:0000c8ac       ??_C@_03FGFCOCMD@top?$AA@  000000018000d8ac     service.obj
 0001:0000c8b0       ??_C@_05DHJDAOHK@right?$AA@ 000000018000d8b0     service.obj
 0001:0000c8b8       ??_C@_06PMMPCIPB@bottom?$AA@ 000000018000d8b8     service.obj
 0001:0000c8c0       ??_C@_09MCEJMINN@PanelRect?$AA@ 000000018000d8c0     service.obj
 0001:0000c8d0       ??_C@_0M@DDGFKGKJ@ItemsNumber?$AA@ 000000018000d8d0     service.obj
 0001:0000c8e0       ??_C@_0BE@EOBAHHNK@SelectedItemsNumber?$AA@ 000000018000d8e0     service.obj
 0001:0000c8f8       ??_C@_0M@JMILNLLF@CurrentItem?$AA@ 000000018000d8f8     service.obj
 0001:0000c908       ??_C@_0N@CDHIFJIH@TopPanelItem?$AA@ 000000018000d908     service.obj
 0001:0000c918       ??_C@_08IMMBLBLF@ViewMode?$AA@ 000000018000d918     service.obj
 0001:0000c928       ??_C@_08CENECNJD@SortMode?$AA@ 000000018000d928     service.obj
 0001:0000c934       ??_C@_04FABLJDN@Name?$AA@  000000018000d934     service.obj
 0001:0000c93c       ??_C@_05LOJBNELM@Param?$AA@ 000000018000d93c     service.obj
 0001:0000c944       ??_C@_04PBAHLACE@File?$AA@ 000000018000d944     service.obj
 0001:0000c950       ??_C@_08HGEAFCFN@PluginId?$AA@ 000000018000d950     service.obj
 0001:0000c960       ??_C@_0BA@MLHECKCE@table?5or?5string?$AA@ 000000018000d960     service.obj
 0001:0000c970       ??_C@_0BD@CKJHMJBG@non?9positive?5index?$AA@ 000000018000d970     service.obj
 0001:0000c988       ??_C@_0BA@GNKNKKDM@number?5or?5table?$AA@ 000000018000d988     service.obj
 0001:0000c998       ??_C@_0CI@DDAJHJKO@?$CFs?5?9?5unsupported?5type?5in?5dialog?5@ 000000018000d998     service.obj
 0001:0000c9c0       ??_C@_0CD@JIANOKII@unsupported?5flag?5in?5dialog?5item?5@ 000000018000d9c0     service.obj
 0001:0000c9e8       ??_C@_0CB@EOGFCCCC@value?5at?5index?5?$CFd?5is?5not?5a?5table@ 000000018000d9e8     service.obj
 0001:0000ca10       ??_C@_0O@FEBHKEHB@closed?5dialog?$AA@ 000000018000da10     service.obj
 0001:0000ca20       ??_C@_0BK@NEMPGLFN@operation?5not?5implemented?$AA@ 000000018000da20     service.obj
 0001:0000ca3c       ??_C@_04KPCPLBPL@Left?$AA@ 000000018000da3c     service.obj
 0001:0000ca44       ??_C@_03PGGAENPN@Top?$AA@  000000018000da44     service.obj
 0001:0000ca48       ??_C@_05DADPALEM@Right?$AA@ 000000018000da48     service.obj
 0001:0000ca50       ??_C@_0L@CECHCPAP@StartIndex?$AA@ 000000018000da50     service.obj
 0001:0000ca5c       ??_C@_05IJGIMMHE@Count?$AA@ 000000018000da5c     service.obj
 0001:0000ca68       ??_C@_07NOCIGAPP@Pattern?$AA@ 000000018000da68     service.obj
 0001:0000ca70       ??_C@_09IMOCKOO@SelectPos?$AA@ 000000018000da70     service.obj
 0001:0000ca7c       ??_C@_06DJONBJOP@TopPos?$AA@ 000000018000da7c     service.obj
 0001:0000ca88       ??_C@_09OGCBKCAK@MaxLength?$AA@ 000000018000da88     service.obj
 0001:0000ca94       ??_C@_05FNNGFGLF@Index?$AA@ 000000018000da94     service.obj
 0001:0000caa0       ??_C@_07GHGHLGFI@GetType?$AA@ 000000018000daa0     service.obj
 0001:0000caa8       ??_C@_07MMLMCDAI@ValType?$AA@ 000000018000daa8     service.obj
 0001:0000cab0       ??_C@_05LPIJGKJ@Value?$AA@ 000000018000dab0     service.obj
 0001:0000cab8       ??_C@_0L@LPFMIAHH@helpstring?$AA@ 000000018000dab8     service.obj
 0001:0000cac8       ??_C@_0P@NABDHFON@getvaluestring?$AA@ 000000018000dac8     service.obj
 0001:0000cad8       ??_C@_0BJ@IINAPFDG@Items?$FL?$CFd?$FN?5is?5not?5a?5table?$AA@ 000000018000dad8     service.obj
 0001:0000caf8       ??_C@_0CC@GBOJFNBI@error?5occured?5in?5dialog?5procedur@ 000000018000daf8     service.obj
 0001:0000cb20       ??_C@_0M@EHMONPJO@?$CFs?5?$CIclosed?$CJ?$AA@ 000000018000db20     service.obj
 0001:0000cb30       ??_C@_08GDAJJKGC@ViewerID?$AA@ 000000018000db30     service.obj
 0001:0000cb40       ??_C@_07MJHBHMFM@FilePos?$AA@ 000000018000db40     service.obj
 0001:0000cb48       ??_C@_07FBAHDBGN@CurMode?$AA@ 000000018000db48     service.obj
 0001:0000cb50       ??_C@_06IMBBKDFH@iParam?$AA@ 000000018000db50     service.obj
 0001:0000cb58       ??_C@_1BE@CGKCNEEP@?$AAI?$AAn?$AAp?$AAu?$AAt?$AA?5?$AAB?$AAo?$AAx?$AA?$AA@ 000000018000db58     service.obj
 0001:0000cb70       ??_C@_1CA@PCDNIBFH@?$AAE?$AAn?$AAt?$AAe?$AAr?$AA?5?$AAt?$AAh?$AAe?$AA?5?$AAt?$AAe?$AAx?$AAt?$AA?3?$AA?$AA@ 000000018000db70     service.obj
 0001:0000cb90       ??_C@_0BG@GAFLOAPP@command?5not?5supported?$AA@ 000000018000db90     service.obj
 0001:0000cba8       ??_C@_09MIJAKHKB@Completed?$AA@ 000000018000dba8     service.obj
 0001:0000cbb4       ??_C@_05KGEAEGFG@Total?$AA@ 000000018000dbb4     service.obj
 0001:0000cbc0       ??_C@_0P@DJOANNIK@?$CFd?4?$CFd?4?$CFd?4?$CFd?4?$CFd?$AA@ 000000018000dbc0     service.obj
 0001:0000cbd0       ??_C@_03FCCPIJGJ@Pos?$AA@  000000018000dbd0     service.obj
 0001:0000cbd8       ??_C@_08NNKIOIN@TypeName?$AA@ 000000018000dbd8     service.obj
 0001:0000cbe8       ??_C@_07ONPPLIAF@ErrCode?$AA@ 000000018000dbe8     service.obj
 0001:0000cbf0       ??_C@_07LJDOKIBM@ErrPosX?$AA@ 000000018000dbf0     service.obj
 0001:0000cbf8       ??_C@_07KACFJJFN@ErrPosY?$AA@ 000000018000dbf8     service.obj
 0001:0000cc00       ??_C@_06HBEFEBCM@ErrSrc?$AA@ 000000018000dc00     service.obj
 0001:0000cc08       ??_C@_1BE@KIBHGBKO@?$AA?$CF?$AA?$CF?$AA?$CF?$AAd?$AAd?$AA?$CF?$AAl?$AAs?$AA?5?$AA?$AA@ 000000018000dc08     service.obj
 0001:0000cc20       ??_C@_1BG@HDCFDOO@?$AA?$CF?$AA?$CF?$AA?$CF?$AAd?$AAl?$AAs?$AA?$CF?$AAl?$AAs?$AA?5?$AA?$AA@ 000000018000dc20     service.obj
 0001:0000cc38       ??_C@_0CC@JIGPFMKG@global?5?$GAtostring?8?5is?5not?5functio@ 000000018000dc38     service.obj
 0001:0000cc5c       ??_C@_04CIMGMMMG@text?$AA@ 000000018000dc5c     service.obj
 0001:0000cc70       ??_C@_0NC@MGDKLGKI@local?5items?0n?$DN?4?4?4?6local?5bottom?$DNn@ 000000018000dc70     service.obj
 0001:0000cd48       ??_C@_0CG@FGNNCNLL@attempt?5to?5access?5invalid?5file?5f@ 000000018000dd48     service.obj
 0001:0000cd70       ??_C@_07BJOIOONN@Strings?$AA@ 000000018000dd70     service.obj
 0001:0000cd78       ??_C@_05GALAPKHH@Guids?$AA@ 000000018000dd78     service.obj
 0001:0000cd80       ??_C@_08FGAFMHLF@DiskMenu?$AA@ 000000018000dd80     service.obj
 0001:0000cd90       ??_C@_0L@NHENMPLN@PluginMenu?$AA@ 000000018000dd90     service.obj
 0001:0000cda0       ??_C@_0N@IEACHFBM@PluginConfig?$AA@ 000000018000dda0     service.obj
 0001:0000cdb0       ??_C@_05GCJGCMFJ@PInfo?$AA@ 000000018000ddb0     service.obj
 0001:0000cdb8       ??_C@_05HMEFBOHK@GInfo?$AA@ 000000018000ddb8     service.obj
 0001:0000cdc0       ??_C@_0N@GAMEMCEE@invalid?5GUID?$AA@ 000000018000ddc0     service.obj
 0001:0000cdd0       ??_C@_0BP@NJEEOHDB@attempt?5to?5access?5closed?5timer?$AA@ 000000018000ddd0     service.obj
 0001:0000cdf0       ??_C@_05LGELBCGM@Close?$AA@ 000000018000ddf0     service.obj
 0001:0000cdf8       ??_C@_07DOAOMMKG@Enabled?$AA@ 000000018000ddf8     service.obj
 0001:0000ce00       ??_C@_08KDKDEPAG@Interval?$AA@ 000000018000de00     service.obj
 0001:0000ce10       ??_C@_07CIINKFND@OnTimer?$AA@ 000000018000de10     service.obj
 0001:0000ce18       ??_C@_06EFCDMIMC@Closed?$AA@ 000000018000de18     service.obj
 0001:0000ce20       ??_C@_0CE@LHJCBGGH@attempt?5to?5call?5non?9existent?5met@ 000000018000de20     service.obj
 0001:0000ce48       ??_C@_0BO@PNFLEJKN@attempt?5to?5access?5a?5closed?5?$CFs?$AA@ 000000018000de48     service.obj
 0001:0000ce68       ??_C@_04OKOFBOPB@Time?$AA@ 000000018000de68     service.obj
 0001:0000ce70       ??_C@_04LADJNOK@Lock?$AA@  000000018000de70     service.obj
 0001:0000ce78       ??_C@_0N@ECMJOJJG@MacroCallFar?$AA@ 000000018000de78     service.obj
 0001:0000ce88       ??_C@_0BA@IEKDOJLH@MacroCallPlugin?$AA@ 000000018000de88     service.obj
 0001:0000ce98       ??_C@_06GIFLLBB@editor?$AA@ 000000018000de98     service.obj
 0001:0000cea0       ??_C@_06DGPPOJKF@viewer?$AA@ 000000018000dea0     service.obj
 0001:0000cea8       ??_C@_05LNOAKADA@panel?$AA@ 000000018000dea8     service.obj
 0001:0000ceb0       ??_C@_01DICPFPGM@k?$AA@    000000018000deb0     service.obj
 0001:0000ceb4       ??_C@_06BPGFKLEK@__mode?$AA@ 000000018000deb4     service.obj
 0001:0000cebc       ??_C@_05LFOKGKBN@?$DMboot?$AA@ 000000018000debc     service.obj
 0001:0000cec4       ??_C@_15CBMDENPJ@?$AA?4?$AA?9?$AA?$AA@ 000000018000dec4     service.obj
 0001:0000ced0       ??_C@_19BCNABNAK@?$AA?4?$AAl?$AAu?$AAa?$AA?$AA@ 000000018000ded0     service.obj
 0001:0000cee0       ??_C@_1DC@PABHCCON@?$AAD?$AAe?$AAf?$AAa?$AAu?$AAl?$AAt?$AA?5?$AAs?$AAc?$AAr?$AAi?$AAp?$AAt?$AA?5?$AAn?$AAo?$AAt?$AA?5?$AAf?$AAo?$AAu?$AAn?$AAd?$AA?$AA@ 000000018000dee0     service.obj
 0001:0000cf18       ??_C@_1M@FPFJICOF@?$AA_?$AAP?$AAA?$AAT?$AAH?$AA?$AA@ 000000018000df18     service.obj
 0001:0000cf24       ??_C@_04LNEJFJGI@path?$AA@ 000000018000df24     service.obj
 0001:0000cf2c       ??_C@_06HEJKBFLB@?$DP?4lua?$DL?$AA@ 000000018000df2c     service.obj
 0001:0000cf38       ??_C@_1O@INLKOCFL@?$AA_?$AAC?$AAP?$AAA?$AAT?$AAH?$AA?$AA@ 000000018000df38     service.obj
 0001:0000cf48       ??_C@_05EEMJHCCC@cpath?$AA@ 000000018000df48     service.obj
 0001:0000cf50       ??_C@_1M@PIEFMDAJ@?$AA_?$AAI?$AAN?$AAI?$AAT?$AA?$AA@ 000000018000df50     service.obj
 0001:0000cf5c       ??_C@_04LHHHFLPP@utf8?$AA@ 000000018000df5c     service.obj
 0001:0000cf68       ??_C@_0L@EKHHLNNJ@lua5?41?4dll?$AA@ 000000018000df68     service.obj
 0001:0000cf74       ??_C@_06ONNDGCDK@dofile?$AA@ 000000018000df74     service.obj
 0001:0000cf80       ??_C@_08BNNFLGCJ@loadfile?$AA@ 000000018000df80     service.obj
 0001:0000cf8c       ??_C@_03OFAPEBGM@?$CFs?6?$AA@ 000000018000df8c     service.obj
 0001:0000cf90       __real@3ff0000000000000    000000018000df90     service.obj
 0001:0000cf98       __real@4059000000000000    000000018000df98     service.obj
 0001:0000cfa0       __real@41e0000000000000    000000018000dfa0     service.obj
 0001:0000cfa8       __real@43f0000000000000    000000018000dfa8     service.obj
 0001:0000d0c0       ??_C@_04IHGKJMLH@byte?$AA@ 000000018000e0c0     slnunico.obj
 0001:0000d0c8       ??_C@_04ENMBGAPA@char?$AA@ 000000018000e0c8     slnunico.obj
 0001:0000d0d0       ??_C@_04GGLOKIEE@dump?$AA@ 000000018000e0d0     slnunico.obj
 0001:0000d0d8       ??_C@_06DLEPGFEF@format?$AA@ 000000018000e0d8     slnunico.obj
 0001:0000d0e0       ??_C@_05EIEIBDFD@gfind?$AA@ 000000018000e0e0     slnunico.obj
 0001:0000d0e8       ??_C@_03BKCJCHLK@len?$AA@  000000018000e0e8     slnunico.obj
 0001:0000d0ec       ??_C@_05IPJEPLHL@lower?$AA@ 000000018000e0ec     slnunico.obj
 0001:0000d0f4       ??_C@_03HOKODIMJ@rep?$AA@  000000018000e0f4     slnunico.obj
 0001:0000d0f8       ??_C@_07KOIEOCCE@reverse?$AA@ 000000018000e0f8     slnunico.obj
 0001:0000d100       ??_C@_05NECKJAMC@upper?$AA@ 000000018000e100     slnunico.obj
 0001:0000d108       ??_C@_09GCBMKPBD@utf8valid?$AA@ 000000018000e108     slnunico.obj
 0001:0000d114       ??_C@_04GMGOKAFF@mode?$AA@ 000000018000e114     slnunico.obj
 0001:0000d120       ??_C@_0BG@DFAIEAEC@string?5slice?5too?5long?$AA@ 000000018000e120     slnunico.obj
 0001:0000d138       ??_C@_0O@EAJJMEEM@invalid?5value?$AA@ 000000018000e138     slnunico.obj
 0001:0000d148       ??_C@_0BO@BNLBHKJN@unable?5to?5dump?5given?5function?$AA@ 000000018000e148     slnunico.obj
 0001:0000d168       ??_C@_0BG@LEHNKOGD@invalid?5capture?5index?$AA@ 000000018000e168     slnunico.obj
 0001:0000d180       ??_C@_0BI@ECNPHIBF@invalid?5pattern?5capture?$AA@ 000000018000e180     slnunico.obj
 0001:0000d198       ??_C@_0CD@PLJBIEHA@malformed?5pattern?5?$CIends?5with?5?8?$CF?$CF@ 000000018000e198     slnunico.obj
 0001:0000d1c0       ??_C@_0CA@CFGACOGB@malformed?5pattern?5?$CImissing?5?8?$FN?8?$CJ?$AA@ 000000018000e1c0     slnunico.obj
 0001:0000d1e0       ??_C@_0BD@NGJIMPLI@unbalanced?5pattern?$AA@ 000000018000e1e0     slnunico.obj
 0001:0000d1f8       ??_C@_0BC@IMEAEJPD@too?5many?5captures?$AA@ 000000018000e1f8     slnunico.obj
 0001:0000d210       ??_C@_0BD@BFKNEALP@unfinished?5capture?$AA@ 000000018000e210     slnunico.obj
 0001:0000d228       ??_C@_0L@NLFJOONJ@?$FO$?$CK?$CL?$DP?4?$CI?$FL?$CF?9?$AA@ 000000018000e228     slnunico.obj
 0001:0000d238       ??_C@_0CO@MAGJPEI@?8string?4gfind?8?5was?5renamed?5to?5?8s@ 000000018000e238     slnunico.obj
 0001:0000d268       ??_C@_0BP@PPPOBACA@string?1function?1table?5expected?$AA@ 000000018000e268     slnunico.obj
 0001:0000d288       ??_C@_0CB@LPDIHGGA@invalid?5replacement?5value?5?$CIa?5?$CFs?$CJ@ 000000018000e288     slnunico.obj
 0001:0000d2ac       ??_C@_02HIBBOKEN@?2r?$AA@  000000018000e2ac     slnunico.obj
 0001:0000d2b0       ??_C@_04MPDIABOK@?2000?$AA@ 000000018000e2b0     slnunico.obj
 0001:0000d2b8       ??_C@_05GGBDHNF@?9?$CL?5?$CD0?$AA@ 000000018000e2b8     slnunico.obj
 0001:0000d2c0       ??_C@_0CA@COOMGCAO@invalid?5format?5?$CIrepeated?5flags?$CJ?$AA@ 000000018000e2c0     slnunico.obj
 0001:0000d2e0       ??_C@_0CN@KALFEKPN@invalid?5format?5?$CIwidth?5or?5precisi@ 000000018000e2e0     slnunico.obj
 0001:0000d310       ??_C@_0CC@KIPBEOBI@invalid?5option?5?8?$CF?$CF?$CFc?8?5to?5?8format@ 000000018000e310     slnunico.obj
 0001:0000d338       ??_C@_0O@EJMKHGFJ@unicode?4ascii?$AA@ 000000018000e338     slnunico.obj
 0001:0000d348       ??_C@_0P@CMOFLLND@unicode?4latin1?$AA@ 000000018000e348     slnunico.obj
 0001:0000d358       ??_C@_0BB@EFCDCNG@unicode?4grapheme?$AA@ 000000018000e358     slnunico.obj
 0001:0000d370       ??_C@_0N@DKIDGKBP@unicode?4utf8?$AA@ 000000018000e370     slnunico.obj
 0001:0000d550       ??_C@_03KCHOJKKI@set?$AA@  000000018000e550     uliolib51.obj
 0001:0000d554       ??_C@_03LIBLMJMB@cur?$AA@  000000018000e554     uliolib51.obj
 0001:0000d558       ??_C@_03JBJLGPFL@end?$AA@  000000018000e558     uliolib51.obj
 0001:0000d55c       ??_C@_02KAJCLHKP@no?$AA@   000000018000e55c     uliolib51.obj
 0001:0000d560       ??_C@_04PLMLMMEO@full?$AA@ 000000018000e560     uliolib51.obj
 0001:0000d568       ??_C@_04HJPCFDOP@line?$AA@ 000000018000e568     uliolib51.obj
 0001:0000d570       ??_C@_05LBOHBHFK@close?$AA@ 000000018000e570     uliolib51.obj
 0001:0000d578       ??_C@_05GLCAEPFP@flush?$AA@ 000000018000e578     uliolib51.obj
 0001:0000d580       ??_C@_05DENOCHIP@lines?$AA@ 000000018000e580     uliolib51.obj
 0001:0000d588       ??_C@_05IACAFMHP@popen?$AA@ 000000018000e588     uliolib51.obj
 0001:0000d590       ??_C@_07FKJPAINK@tmpfile?$AA@ 000000018000e590     uliolib51.obj
 0001:0000d598       ??_C@_05NGFEDHGN@write?$AA@ 000000018000e598     uliolib51.obj
 0001:0000d5a0       ??_C@_04EDECCOGL@seek?$AA@ 000000018000e5a0     uliolib51.obj
 0001:0000d5a8       ??_C@_07HHBPNGAN@setvbuf?$AA@ 000000018000e5a8     uliolib51.obj
 0001:0000d5b0       ??_C@_05DFJCHPDH@input?$AA@ 000000018000e5b0     uliolib51.obj
 0001:0000d5b8       ??_C@_06DKIGHACF@output?$AA@ 000000018000e5b8     uliolib51.obj
 0001:0000d5c0       ??_C@_06DJHOIPC@?$CFs?3?5?$CFs?$AA@ 000000018000e5c0     uliolib51.obj
 0001:0000d5c8       ??_C@_02DKCKIIND@?$CFs?$AA@ 000000018000e5c8     uliolib51.obj
 0001:0000d5cc       ??_C@_05KCHOJJD@FILE?$CK?$AA@ 000000018000e5cc     uliolib51.obj
 0001:0000d5d8       ??_C@_0M@IBKPHHKH@closed?5file?$AA@ 000000018000e5d8     uliolib51.obj
 0001:0000d5e4       ??_C@_04DAMGJPCA@file?$AA@ 000000018000e5e4     uliolib51.obj
 0001:0000d5f0       ??_C@_0BN@LPOOHAOM@attempt?5to?5use?5a?5closed?5file?$AA@ 000000018000e5f0     uliolib51.obj
 0001:0000d610       ??_C@_0BL@PEFGCPAG@cannot?5close?5standard?5file?$AA@ 000000018000e610     uliolib51.obj
 0001:0000d630       ??_C@_07DMJMBBKE@__close?$AA@ 000000018000e630     uliolib51.obj
 0001:0000d638       ??_C@_0O@PLFAPHPG@file?5?$CIclosed?$CJ?$AA@ 000000018000e638     uliolib51.obj
 0001:0000d648       ??_C@_09BPMAMLLD@file?5?$CI?$CFp?$CJ?$AA@ 000000018000e648     uliolib51.obj
 0001:0000d658       ??_C@_0BL@JMNLNGCA@standard?5?$CFs?5file?5is?5closed?$AA@ 000000018000e658     uliolib51.obj
 0001:0000d674       ??_C@_13CIFDLIMG@?$AAw?$AA?$AA@ 000000018000e674     uliolib51.obj
 0001:0000d678       ??_C@_03DLDNIBIK@?$CFlf?$AA@ 000000018000e678     uliolib51.obj
 0001:0000d680       ??_C@_0P@PJFAGLMH@invalid?5option?$AA@ 000000018000e680     uliolib51.obj
 0001:0000d690       ??_C@_0P@CENJCLHM@invalid?5format?$AA@ 000000018000e690     uliolib51.obj
 0001:0000d6a0       ??_C@_0BH@PBGIDLEF@file?5is?5already?5closed?$AA@ 000000018000e6a0     uliolib51.obj
 0001:0000d6b8       ??_C@_05CGOEHEFE@?$CF?414g?$AA@ 000000018000e6b8     uliolib51.obj
 0001:0000d6c0       ??_C@_05MHOFLBOO@stdin?$AA@ 000000018000e6c0     uliolib51.obj
 0001:0000d6c8       ??_C@_06DJDOIFHB@stdout?$AA@ 000000018000e6c8     uliolib51.obj
 0001:0000d6d0       ??_C@_06FJGNEBG@stderr?$AA@ 000000018000e6d0     uliolib51.obj
 0001:0000d768       ??_C@_07KOEABFCN@loadlib?$AA@ 000000018000e768     uloadlib51.obj
 0001:0000d770       ??_C@_06LNOHAKGK@seeall?$AA@ 000000018000e770     uloadlib51.obj
 0001:0000d778       ??_C@_06BIEEJMKO@module?$AA@ 000000018000e778     uloadlib51.obj
 0001:0000d780       ??_C@_07FFLLPPLH@require?$AA@ 000000018000e780     uloadlib51.obj
 0001:0000d788       ??_C@_0BN@GMPFCLAN@unable?5to?5get?5ModuleFileName?$AA@ 000000018000e788     uloadlib51.obj
 0001:0000d7a8       ??_C@_13MGDFOILI@?$AA?$CB?$AA?$AA@ 000000018000e7a8     uloadlib51.obj
 0001:0000d7b0       ??_C@_09GMLHALBF@LOADLIB?3?5?$AA@ 000000018000e7b0     uloadlib51.obj
 0001:0000d7bc       ??_C@_04HDOCAJNK@?$CFs?$CFs?$AA@ 000000018000e7bc     uloadlib51.obj
 0001:0000d7c8       ??_C@_08HNNNOMMJ@_LOADLIB?$AA@ 000000018000e7c8     uloadlib51.obj
 0001:0000d7d4       ??_C@_04HKFDNBLD@init?$AA@ 000000018000e7d4     uloadlib51.obj
 0001:0000d7dc       ??_C@_13FPGAJAPJ@?$AA?2?$AA?$AA@ 000000018000e7dc     uloadlib51.obj
 0001:0000d7e0       ??_C@_13JOFGPIOO@?$AA?4?$AA?$AA@ 000000018000e7e0     uloadlib51.obj
 0001:0000d7e8       ??_C@_0BO@COFCKCAL@?8package?4?$CFs?8?5must?5be?5a?5string?$AA@ 000000018000e7e8     uloadlib51.obj
 0001:0000d808       ??_C@_0CE@EPEHLLIH@?8package?4?$CFs?8?5contains?5invalid?5UT@ 000000018000e808     uloadlib51.obj
 0001:0000d82c       ??_C@_13HGPDMIBE@?$AA?$DP?$AA?$AA@ 000000018000e82c     uloadlib51.obj
 0001:0000d830       ??_C@_0P@NEBKIMDC@?6?7no?5file?5?8?$CFs?8?$AA@ 000000018000e830     uloadlib51.obj
 0001:0000d840       ??_C@_0CO@KHMIPLKM@error?5loading?5module?5?8?$CFs?8?5from?5f@ 000000018000e840     uloadlib51.obj
 0001:0000d870       ??_C@_01IDAFKMJL@_?$AA@    000000018000e870     uloadlib51.obj
 0001:0000d874       ??_C@_01LFCBOECM@?4?$AA@   000000018000e874     uloadlib51.obj
 0001:0000d878       ??_C@_0L@KHKMBFOE@luaopen_?$CFs?$AA@ 000000018000e878     uloadlib51.obj
 0001:0000d888       ??_C@_0BO@KOILFIGK@?6?7no?5module?5?8?$CFs?8?5in?5file?5?8?$CFs?8?$AA@ 000000018000e888     uloadlib51.obj
 0001:0000d8a8       ??_C@_0CC@CCJHFBLH@?8package?4preload?8?5must?5be?5a?5tabl@ 000000018000e8a8     uloadlib51.obj
 0001:0000d8d0       ??_C@_0CB@NPNABMBF@?6?7no?5field?5package?4preload?$FL?8?$CFs?8?$FN@ 000000018000e8d0     uloadlib51.obj
 0001:0000d8f8       ??_C@_07PINPBNPB@_LOADED?$AA@ 000000018000e8f8     uloadlib51.obj
 0001:0000d900       ??_C@_0CL@DIEJCPFH@loop?5or?5previous?5error?5loading?5m@ 000000018000e900     uloadlib51.obj
 0001:0000d930       ??_C@_07JAOCDFCG@loaders?$AA@ 000000018000e930     uloadlib51.obj
 0001:0000d938       ??_C@_0CC@IGEJMOFI@?8package?4loaders?8?5must?5be?5a?5tabl@ 000000018000e938     uloadlib51.obj
 0001:0000d960       ??_C@_0BJ@HFHHABH@module?5?8?$CFs?8?5not?5found?3?$CFs?$AA@ 000000018000e960     uloadlib51.obj
 0001:0000d97c       ??_C@_01INIBCBCB@f?$AA@    000000018000e97c     uloadlib51.obj
 0001:0000d980       ??_C@_0CI@GKOMOAFD@?8module?8?5not?5called?5from?5a?5Lua?5f@ 000000018000e980     uloadlib51.obj
 0001:0000d9a8       ??_C@_02CCIJHOCI@_M?$AA@   000000018000e9a8     uloadlib51.obj
 0001:0000d9ac       ??_C@_05ICMCJINN@_NAME?$AA@ 000000018000e9ac     uloadlib51.obj
 0001:0000d9b8       ??_C@_08HONLOGDK@_PACKAGE?$AA@ 000000018000e9b8     uloadlib51.obj
 0001:0000d9c8       ??_C@_0BO@CBJIAGLF@name?5conflict?5for?5module?5?8?$CFs?8?$AA@ 000000018000e9c8     uloadlib51.obj
 0001:0000d9e8       ??_C@_17KOAMMDLI@?$AA?$DL?$AA?$AB?$AA?$DL?$AA?$AA@ 000000018000e9e8     uloadlib51.obj
 0001:0000d9f0       ??_C@_15HKKNGJC@?$AA?$DL?$AA?$DL?$AA?$AA@ 000000018000e9f0     uloadlib51.obj
 0001:0000d9f8       ??_C@_13GGAHEHIG@?$AA?$AB?$AA?$AA@ 000000018000e9f8     uloadlib51.obj
 0001:0000da00       ??_C@_1HE@JLDBNBHO@?$AA?4?$AA?2?$AA?$DP?$AA?4?$AAl?$AAu?$AAa?$AA?$DL?$AA?$CB?$AA?2?$AAl?$AAu?$AAa?$AA?2?$AA?$DP?$AA?4?$AAl?$AAu?$AAa?$AA?$DL?$AA?$CB?$AA?2?$AAl?$AAu?$AAa?$AA?2?$AA?$DP?$AA?2?$AAi?$AAn?$AAi?$AAt@ 000000018000ea00     uloadlib51.obj
 0001:0000da78       ??_C@_1BC@ILFFIBFI@?$AAL?$AAU?$AAA?$AA_?$AAP?$AAA?$AAT?$AAH?$AA?$AA@ 000000018000ea78     uloadlib51.obj
 0001:0000da90       ??_C@_1DM@FGPGEDD@?$AA?4?$AA?2?$AA?$DP?$AA?4?$AAd?$AAl?$AAl?$AA?$DL?$AA?$CB?$AA?2?$AA?$DP?$AA?4?$AAd?$AAl?$AAl?$AA?$DL?$AA?$CB?$AA?2?$AAl?$AAo?$AAa?$AAd?$AAa?$AAl?$AAl?$AA?4?$AAd?$AAl?$AAl?$AA?$AA@ 000000018000ea90     uloadlib51.obj
 0001:0000dad0       ??_C@_1BE@EFNILHBI@?$AAL?$AAU?$AAA?$AA_?$AAC?$AAP?$AAA?$AAT?$AAH?$AA?$AA@ 000000018000ead0     uloadlib51.obj
 0001:0000dae8       ??_C@_1BE@CKNDCMBB@?$AA?2?$AA?6?$AA?$DL?$AA?6?$AA?$DP?$AA?6?$AA?$CB?$AA?6?$AA?9?$AA?$AA@ 000000018000eae8     uloadlib51.obj
 0001:0000dafc       ??_C@_06HEJKKHEK@config?$AA@ 000000018000eafc     uloadlib51.obj
 0001:0000db04       ??_C@_06IILMCCFO@loaded?$AA@ 000000018000eb04     uloadlib51.obj
 0001:0000db10       ustring_funcs              000000018000eb10     ustring.obj
 0001:0000dc70       ??_C@_0BE@DEHGONAH@EnumSystemCodePages?$AA@ 000000018000ec70     ustring.obj
 0001:0000dc84       ??_C@_06FMJLOCAF@GetACP?$AA@ 000000018000ec84     ustring.obj
 0001:0000dc90       ??_C@_09HLFMNDA@GetCPInfo?$AA@ 000000018000ec90     ustring.obj
 0001:0000dca0       ??_C@_0N@IIBOJKJ@GetDriveType?$AA@ 000000018000eca0     ustring.obj
 0001:0000dcb0       ??_C@_0M@KHMMJMNI@GetFileAttr?$AA@ 000000018000ecb0     ustring.obj
 0001:0000dcc0       ??_C@_0BH@KKAFOIJJ@GetLogicalDriveStrings?$AA@ 000000018000ecc0     ustring.obj
 0001:0000dcd8       ??_C@_08OMCNFONF@GetOEMCP?$AA@ 000000018000ecd8     ustring.obj
 0001:0000dce8       ??_C@_0BD@IHIHPGDL@GlobalMemoryStatus?$AA@ 000000018000ece8     ustring.obj
 0001:0000dd00       ??_C@_0BE@HCIKGJGE@MultiByteToWideChar?$AA@ 000000018000ed00     ustring.obj
 0001:0000dd18       ??_C@_09EPINLGBH@OemToUtf8?$AA@ 000000018000ed18     ustring.obj
 0001:0000dd28       ??_C@_0BA@MNJFBAJH@SHGetFolderPath?$AA@ 000000018000ed28     ustring.obj
 0001:0000dd38       ??_C@_0L@PMCLJMMJ@SearchPath?$AA@ 000000018000ed38     ustring.obj
 0001:0000dd48       ??_C@_0M@KINCEKFL@SetFileAttr?$AA@ 000000018000ed48     ustring.obj
 0001:0000dd54       ??_C@_05PFDOMJEF@Sleep?$AA@ 000000018000ed54     ustring.obj
 0001:0000dd60       ??_C@_0M@KJELMDJD@Utf16ToUtf8?$AA@ 000000018000ed60     ustring.obj
 0001:0000dd70       ??_C@_09LCEKPEGC@Utf8ToOem?$AA@ 000000018000ed70     ustring.obj
 0001:0000dd80       ??_C@_0M@GJGCILHG@Utf8ToUtf16?$AA@ 000000018000ed80     ustring.obj
 0001:0000dd8c       ??_C@_04NDFIEGPL@Uuid?$AA@ 000000018000ed8c     ustring.obj
 0001:0000dd98       ??_C@_0BE@LJADKLBD@WideCharToMultiByte?$AA@ 000000018000ed98     ustring.obj
 0001:0000ddac       ??_C@_04GFOHBGIO@subW?$AA@ 000000018000edac     ustring.obj
 0001:0000ddb4       ??_C@_04NOFELICG@lenW?$AA@ 000000018000edb4     ustring.obj
 0001:0000ddc0       ??_C@_0BB@BLJKPILH@system?5error?5?$CFd?6?$AA@ 000000018000edc0     ustring.obj
 0001:0000ddd8       ??_C@_0BJ@MEAJDMDL@invalid?5multibyte?5string?$AA@ 000000018000edd8     ustring.obj
 0001:0000ddf8       ??_C@_0BG@ELIKBHAO@invalid?5UTF?916?5string?$AA@ 000000018000edf8     ustring.obj
 0001:0000de10       ??_C@_0M@KJGJBDLL@MaxCharSize?$AA@ 000000018000ee10     ustring.obj
 0001:0000de20       ??_C@_0M@IMOFNPBB@DefaultChar?$AA@ 000000018000ee20     ustring.obj
 0001:0000de30       ??_C@_08HIIJAENB@LeadByte?$AA@ 000000018000ee30     ustring.obj
 0001:0000de40       ??_C@_0BD@CBNPFFPH@UnicodeDefaultChar?$AA@ 000000018000ee40     ustring.obj
 0001:0000de58       ??_C@_0N@DJCOCBOB@CodePageName?$AA@ 000000018000ee58     ustring.obj
 0001:0000de68       ??_C@_0N@IFJMFGJK@unknown?5type?$AA@ 000000018000ee68     ustring.obj
 0001:0000de78       ??_C@_0BC@GPFCFLGN@no?5root?5directory?$AA@ 000000018000ee78     ustring.obj
 0001:0000de90       ??_C@_09HPGMKNKO@removable?$AA@ 000000018000ee90     ustring.obj
 0001:0000de9c       ??_C@_05OFLEIIDM@fixed?$AA@ 000000018000ee9c     ustring.obj
 0001:0000dea4       ??_C@_06IMIHEKN@remote?$AA@ 000000018000eea4     ustring.obj
 0001:0000deac       ??_C@_05POABADMF@cdrom?$AA@ 000000018000eeac     ustring.obj
 0001:0000deb8       ??_C@_07BHCBOAMP@ramdisk?$AA@ 000000018000eeb8     ustring.obj
 0001:0000dec0       ??_C@_0L@PLJFMBIJ@MemoryLoad?$AA@ 000000018000eec0     ustring.obj
 0001:0000ded0       ??_C@_09MMAOIBBJ@TotalPhys?$AA@ 000000018000eed0     ustring.obj
 0001:0000dee0       ??_C@_09KFOEOLH@AvailPhys?$AA@ 000000018000eee0     ustring.obj
 0001:0000def0       ??_C@_0O@PEEMGPEP@TotalPageFile?$AA@ 000000018000eef0     ustring.obj
 0001:0000df00       ??_C@_0O@LLHOKNF@AvailPageFile?$AA@ 000000018000ef00     ustring.obj
 0001:0000df10       ??_C@_0N@LCJEOHMM@TotalVirtual?$AA@ 000000018000ef10     ustring.obj
 0001:0000df20       ??_C@_0N@EGHLANBF@AvailVirtual?$AA@ 000000018000ef20     ustring.obj
 0001:0000df30       ??_C@_0BF@KKNLCGDE@AvailExtendedVirtual?$AA@ 000000018000ef30     ustring.obj
 0001:0000df48       ??_C@_0P@KJDDGAFH@FileAttributes?$AA@ 000000018000ef48     ustring.obj
 0001:0000df58       ??_C@_07JOJHCKGP@ustring?$AA@ 000000018000ef58     ustring.obj
 0001:0000e728       ??_C@_0DJ@KKHMCMAP@bad?5field?5?$FL?$CFd?$FN?5in?5table?5stackpos@ 000000018000f728     util.obj
 0001:0000e768       ??_C@_0DJ@PFHHGAMM@bad?5field?5?8?$CFs?8?5in?5table?5stackpos@ 000000018000f768     util.obj
 0001:0000e7a4       ??_C@_06EBGNBFIA@number?$AA@ 000000018000f7a4     util.obj
 0001:0000ee00       win_funcs                  000000018000fe00     win.obj
 0001:0000f108       ??_C@_0O@CFPMOCDP@CompareString?$AA@ 0000000180010108     win.obj
 0001:0000f118       ??_C@_08PPLNFCGA@CopyFile?$AA@ 0000000180010118     win.obj
 0001:0000f128       ??_C@_09INHPLKKM@CreateDir?$AA@ 0000000180010128     win.obj
 0001:0000f138       ??_C@_0L@GPLPOFDC@DeleteFile?$AA@ 0000000180010138     win.obj
 0001:0000f148       ??_C@_0N@FOJPHHPH@DeleteRegKey?$AA@ 0000000180010148     win.obj
 0001:0000f158       ??_C@_0L@DGAGCFOP@EnumRegKey?$AA@ 0000000180010158     win.obj
 0001:0000f168       ??_C@_0N@PFFNCIBD@EnumRegValue?$AA@ 0000000180010168     win.obj
 0001:0000f178       ??_C@_0L@MGMEFCAE@ExtractKey?$AA@ 0000000180010178     win.obj
 0001:0000f188       ??_C@_0BI@EKFDIGHI@FileTimeToLocalFileTime?$AA@ 0000000180010188     win.obj
 0001:0000f1a0       ??_C@_0BF@KPJNHALE@FileTimeToSystemTime?$AA@ 00000001800101a0     win.obj
 0001:0000f1b8       ??_C@_0BL@NAIJNMLL@GetConsoleScreenBufferInfo?$AA@ 00000001800101b8     win.obj
 0001:0000f1d4       ??_C@_06CALCCDMF@GetEnv?$AA@ 00000001800101d4     win.obj
 0001:0000f1e0       ??_C@_0M@EINGHLOA@GetFileInfo?$AA@ 00000001800101e0     win.obj
 0001:0000f1f0       ??_C@_09GFGIAJLD@GetRegKey?$AA@ 00000001800101f0     win.obj
 0001:0000f200       ??_C@_0BI@ENMDHCMK@GetSystemTimeAsFileTime?$AA@ 0000000180010200     win.obj
 0001:0000f218       ??_C@_0P@GGGHOPAD@GetVirtualKeys?$AA@ 0000000180010218     win.obj
 0001:0000f228       ??_C@_08CALLHOCI@MoveFile?$AA@ 0000000180010228     win.obj
 0001:0000f238       ??_C@_09EDKALOCB@RemoveDir?$AA@ 0000000180010238     win.obj
 0001:0000f248       ??_C@_0L@HBAGBENL@RenameFile?$AA@ 0000000180010248     win.obj
 0001:0000f254       ??_C@_06LDCDJLBI@SetEnv?$AA@ 0000000180010254     win.obj
 0001:0000f260       ??_C@_09ELCNCICB@SetRegKey?$AA@ 0000000180010260     win.obj
 0001:0000f270       ??_C@_0N@BFFIJKHB@ShellExecute?$AA@ 0000000180010270     win.obj
 0001:0000f280       ??_C@_0BF@HBHGIPOG@SystemTimeToFileTime?$AA@ 0000000180010280     win.obj
 0001:0000f298       ??_C@_06DNONFAKH@wcscmp?$AA@ 0000000180010298     win.obj
 0001:0000f2a0       ??_C@_04CBBMIBLK@HKLM?$AA@ 00000001800102a0     win.obj
 0001:0000f2a8       ??_C@_04LEMDOLAJ@HKCC?$AA@ 00000001800102a8     win.obj
 0001:0000f2b0       ??_C@_04OHBKMIBJ@HKCR?$AA@ 00000001800102b0     win.obj
 0001:0000f2b8       ??_C@_04KIFLFONO@HKCU?$AA@ 00000001800102b8     win.obj
 0001:0000f2c0       ??_C@_03DLBIJLAB@HKU?$AA@  00000001800102c0     win.obj
 0001:0000f2c8       ??_C@_0DA@DKALLFDI@must?5be?5?8HKLM?8?0?5?8HKCC?8?0?5?8HKCR?8?0?5@ 00000001800102c8     win.obj
 0001:0000f2f8       ??_C@_05KDALNKAH@dword?$AA@ 00000001800102f8     win.obj
 0001:0000f300       ??_C@_06FNFBAEBE@binary?$AA@ 0000000180010300     win.obj
 0001:0000f308       ??_C@_0N@CBOMHLPN@expandstring?$AA@ 0000000180010308     win.obj
 0001:0000f318       ??_C@_0M@PEGIPCHN@multistring?$AA@ 0000000180010318     win.obj
 0001:0000f328       ??_C@_0BH@NOJOGNJM@unsupported?5value?5type?$AA@ 0000000180010328     win.obj
 0001:0000f340       ??_C@_0BD@MJODDCFG@OpenRegKey?5failed?4?$AA@ 0000000180010340     win.obj
 0001:0000f358       ??_C@_0BI@COLHBIIE@RegQueryValueEx?5failed?4?$AA@ 0000000180010358     win.obj
 0001:0000f370       ??_C@_0BG@HHFHBIKG@RegOpenKeyExW?5failed?4?$AA@ 0000000180010370     win.obj
 0001:0000f388       ??_C@_05DFPNHDMN@wYear?$AA@ 0000000180010388     win.obj
 0001:0000f390       ??_C@_06MGNNJGBJ@wMonth?$AA@ 0000000180010390     win.obj
 0001:0000f398       ??_C@_0L@OAHPHHP@wDayOfWeek?$AA@ 0000000180010398     win.obj
 0001:0000f3a4       ??_C@_04NBLBJIPP@wDay?$AA@ 00000001800103a4     win.obj
 0001:0000f3ac       ??_C@_05BMOPCGDH@wHour?$AA@ 00000001800103ac     win.obj
 0001:0000f3b8       ??_C@_07HPODENI@wMinute?$AA@ 00000001800103b8     win.obj
 0001:0000f3c0       ??_C@_07IIEDHHJN@wSecond?$AA@ 00000001800103c0     win.obj
 0001:0000f3c8       ??_C@_0O@HBAPEOKP@wMilliseconds?$AA@ 00000001800103c8     win.obj
 0001:0000f3d8       ??_C@_01LKDEMHDF@s?$AA@    00000001800103d8     win.obj
 0001:0000f3e0       ??_C@_0BA@IAFODGNM@CursorPositionX?$AA@ 00000001800103e0     win.obj
 0001:0000f3f0       ??_C@_0BA@JJEFAHJN@CursorPositionY?$AA@ 00000001800103f0     win.obj
 0001:0000f400       ??_C@_0L@NFCEOFBF@WindowLeft?$AA@ 0000000180010400     win.obj
 0001:0000f410       ??_C@_09JHGOALHG@WindowTop?$AA@ 0000000180010410     win.obj
 0001:0000f420       ??_C@_0M@HHPHMPGH@WindowRight?$AA@ 0000000180010420     win.obj
 0001:0000f430       ??_C@_0N@JPIJCAOJ@WindowBottom?$AA@ 0000000180010430     win.obj
 0001:0000f440       ??_C@_0BD@DOLDEII@MaximumWindowSizeX?$AA@ 0000000180010440     win.obj
 0001:0000f458       ??_C@_0BD@BKPAAFMJ@MaximumWindowSizeY?$AA@ 0000000180010458     win.obj
 0001:0000f46c       ??_C@_01PFHFFBPC@t?$AA@    000000018001046c     win.obj
 0001:0000f470       ??_C@_0BJ@LPJMBJJL@directory?5already?5exists?$AA@ 0000000180010470     win.obj
 0001:0000f490       __real@41f0000000000000    0000000180010490     win.obj
 0001:0000f498       _FPinit                    0000000180010498     LIBCMT:fpinit.obj
 0001:0000f4a0       ??_C@_0EA@FCLIIPNN@Visual?5C?$CL?$CL?5CRT?3?5Not?5enough?5memor@ 00000001800104a0     LIBCMT:strerror.obj
 0001:0000f4e0       ??_C@_05PBJFFIGL@floor?$AA@ 00000001800104e0     LIBCMT:floor.obj
 0001:00010728       ??_C@_01KICIPPFI@?2?$AA@   0000000180011728     LIBCMT:popen.obj
 0001:00010730       ??_C@_1BA@HMCCKBDK@?$AAC?$AAO?$AAM?$AAS?$AAP?$AAE?$AAC?$AA?$AA@ 0000000180011730     LIBCMT:wpopen.obj
 0001:00010740       ??_C@_1BA@DBKIDAPL@?$AAc?$AAm?$AAd?$AA?4?$AAe?$AAx?$AAe?$AA?$AA@ 0000000180011740     LIBCMT:wpopen.obj
 0001:00010750       ??_C@_19FNCMDGGJ@?$AA?5?$AA?1?$AAc?$AA?5?$AA?$AA@ 0000000180011750     LIBCMT:wpopen.obj
 0001:00010760       ??_C@_19IJOJOJIB@?$AAP?$AAA?$AAT?$AAH?$AA?$AA@ 0000000180011760     LIBCMT:wpopen.obj
 0001:00010770       _pDefaultRawDllMain        0000000180011770     LIBCMT:dllcrt0.obj
 0001:00010770       _pRawDllMain               0000000180011770     LIBCMT:dllcrt0.obj
 0001:00010778       ??_C@_06OJHGLDPL@?$CInull?$CJ?$AA@ 0000000180011778     LIBCMT:output.obj
 0001:00010780       ??_C@_1O@CEDCILHN@?$AA?$CI?$AAn?$AAu?$AAl?$AAl?$AA?$CJ?$AA?$AA@ 0000000180011780     LIBCMT:output.obj
 0001:00010790       __lookuptable              0000000180011790     LIBCMT:output.obj
 0001:000107ec       ??_C@_05KLBDPFGC@e?$CL000?$AA@ 00000001800117ec     LIBCMT:cvt.obj
 0001:000107f8       __real@0000000000000000    00000001800117f8     LIBCMT:cvt.obj
 0001:00010800       ??_C@_1BI@BGOHAHKC@?$AAm?$AAs?$AAc?$AAo?$AAr?$AAe?$AAe?$AA?4?$AAd?$AAl?$AAl?$AA?$AA@ 0000000180011800     LIBCMT:crt0dat.obj
 0001:00010818       ??_C@_0P@MIGLKIOC@CorExitProcess?$AA@ 0000000180011818     LIBCMT:crt0dat.obj
 0001:000109a0       ??_C@_1FK@PGACCAFB@?$AAR?$AA6?$AA0?$AA0?$AA2?$AA?$AN?$AA?6?$AA?9?$AA?5?$AAf?$AAl?$AAo?$AAa?$AAt?$AAi?$AAn?$AAg?$AA?5?$AAp?$AAo?$AAi?$AAn?$AAt?$AA?5?$AAs?$AAu?$AAp?$AAp?$AAo?$AAr?$AAt?$AA?5@ 00000001800119a0     LIBCMT:crt0msg.obj
 0001:00010a00       ??_C@_1FE@LLNEDJMD@?$AAR?$AA6?$AA0?$AA0?$AA8?$AA?$AN?$AA?6?$AA?9?$AA?5?$AAn?$AAo?$AAt?$AA?5?$AAe?$AAn?$AAo?$AAu?$AAg?$AAh?$AA?5?$AAs?$AAp?$AAa?$AAc?$AAe?$AA?5?$AAf?$AAo?$AAr?$AA?5?$AAa?$AAr@ 0000000180011a00     LIBCMT:crt0msg.obj
 0001:00010a60       ??_C@_1FI@HONFMGBI@?$AAR?$AA6?$AA0?$AA0?$AA9?$AA?$AN?$AA?6?$AA?9?$AA?5?$AAn?$AAo?$AAt?$AA?5?$AAe?$AAn?$AAo?$AAu?$AAg?$AAh?$AA?5?$AAs?$AAp?$AAa?$AAc?$AAe?$AA?5?$AAf?$AAo?$AAr?$AA?5?$AAe?$AAn@ 0000000180011a60     LIBCMT:crt0msg.obj
 0001:00010ac0       ??_C@_1EG@BEHAGFJD@?$AAR?$AA6?$AA0?$AA1?$AA0?$AA?$AN?$AA?6?$AA?9?$AA?5?$AAa?$AAb?$AAo?$AAr?$AAt?$AA?$CI?$AA?$CJ?$AA?5?$AAh?$AAa?$AAs?$AA?5?$AAb?$AAe?$AAe?$AAn?$AA?5?$AAc?$AAa?$AAl?$AAl?$AAe?$AAd@ 0000000180011ac0     LIBCMT:crt0msg.obj
 0001:00010b10       ??_C@_1FI@LOGNIKDM@?$AAR?$AA6?$AA0?$AA1?$AA6?$AA?$AN?$AA?6?$AA?9?$AA?5?$AAn?$AAo?$AAt?$AA?5?$AAe?$AAn?$AAo?$AAu?$AAg?$AAh?$AA?5?$AAs?$AAp?$AAa?$AAc?$AAe?$AA?5?$AAf?$AAo?$AAr?$AA?5?$AAt?$AAh@ 0000000180011b10     LIBCMT:crt0msg.obj
 0001:00010b70       ??_C@_1FK@BEOGODMC@?$AAR?$AA6?$AA0?$AA1?$AA7?$AA?$AN?$AA?6?$AA?9?$AA?5?$AAu?$AAn?$AAe?$AAx?$AAp?$AAe?$AAc?$AAt?$AAe?$AAd?$AA?5?$AAm?$AAu?$AAl?$AAt?$AAi?$AAt?$AAh?$AAr?$AAe?$AAa?$AAd?$AA?5@ 0000000180011b70     LIBCMT:crt0msg.obj
 0001:00010bd0       ??_C@_1EC@JIBHAOPH@?$AAR?$AA6?$AA0?$AA1?$AA8?$AA?$AN?$AA?6?$AA?9?$AA?5?$AAu?$AAn?$AAe?$AAx?$AAp?$AAe?$AAc?$AAt?$AAe?$AAd?$AA?5?$AAh?$AAe?$AAa?$AAp?$AA?5?$AAe?$AAr?$AAr?$AAo?$AAr?$AA?$AN?$AA?6@ 0000000180011bd0     LIBCMT:crt0msg.obj
 0001:00010c20       ??_C@_1FC@ECHBIFBC@?$AAR?$AA6?$AA0?$AA1?$AA9?$AA?$AN?$AA?6?$AA?9?$AA?5?$AAu?$AAn?$AAa?$AAb?$AAl?$AAe?$AA?5?$AAt?$AAo?$AA?5?$AAo?$AAp?$AAe?$AAn?$AA?5?$AAc?$AAo?$AAn?$AAs?$AAo?$AAl?$AAe?$AA?5@ 0000000180011c20     LIBCMT:crt0msg.obj
 0001:00010c80       ??_C@_1GK@FHCKBEFA@?$AAR?$AA6?$AA0?$AA2?$AA4?$AA?$AN?$AA?6?$AA?9?$AA?5?$AAn?$AAo?$AAt?$AA?5?$AAe?$AAn?$AAo?$AAu?$AAg?$AAh?$AA?5?$AAs?$AAp?$AAa?$AAc?$AAe?$AA?5?$AAf?$AAo?$AAr?$AA?5?$AA_?$AAo@ 0000000180011c80     LIBCMT:crt0msg.obj
 0001:00010cf0       ??_C@_1EM@MAADIHMB@?$AAR?$AA6?$AA0?$AA2?$AA5?$AA?$AN?$AA?6?$AA?9?$AA?5?$AAp?$AAu?$AAr?$AAe?$AA?5?$AAv?$AAi?$AAr?$AAt?$AAu?$AAa?$AAl?$AA?5?$AAf?$AAu?$AAn?$AAc?$AAt?$AAi?$AAo?$AAn?$AA?5?$AAc@ 0000000180011cf0     LIBCMT:crt0msg.obj
 0001:00010d40       ??_C@_1GK@MCAAGJMO@?$AAR?$AA6?$AA0?$AA2?$AA6?$AA?$AN?$AA?6?$AA?9?$AA?5?$AAn?$AAo?$AAt?$AA?5?$AAe?$AAn?$AAo?$AAu?$AAg?$AAh?$AA?5?$AAs?$AAp?$AAa?$AAc?$AAe?$AA?5?$AAf?$AAo?$AAr?$AA?5?$AAs?$AAt@ 0000000180011d40     LIBCMT:crt0msg.obj
 0001:00010db0       ??_C@_1GK@MFGOKLAG@?$AAR?$AA6?$AA0?$AA2?$AA7?$AA?$AN?$AA?6?$AA?9?$AA?5?$AAn?$AAo?$AAt?$AA?5?$AAe?$AAn?$AAo?$AAu?$AAg?$AAh?$AA?5?$AAs?$AAp?$AAa?$AAc?$AAe?$AA?5?$AAf?$AAo?$AAr?$AA?5?$AAl?$AAo@ 0000000180011db0     LIBCMT:crt0msg.obj
 0001:00010e20       ??_C@_1EK@HHFLMAOL@?$AAR?$AA6?$AA0?$AA2?$AA8?$AA?$AN?$AA?6?$AA?9?$AA?5?$AAu?$AAn?$AAa?$AAb?$AAl?$AAe?$AA?5?$AAt?$AAo?$AA?5?$AAi?$AAn?$AAi?$AAt?$AAi?$AAa?$AAl?$AAi?$AAz?$AAe?$AA?5?$AAh?$AAe@ 0000000180011e20     LIBCMT:crt0msg.obj
 0001:00010e70       ??_C@_1DO@BMFCDCD@?$AAR?$AA6?$AA0?$AA3?$AA0?$AA?$AN?$AA?6?$AA?9?$AA?5?$AAC?$AAR?$AAT?$AA?5?$AAn?$AAo?$AAt?$AA?5?$AAi?$AAn?$AAi?$AAt?$AAi?$AAa?$AAl?$AAi?$AAz?$AAe?$AAd?$AA?$AN?$AA?6?$AA?$AA@ 0000000180011e70     LIBCMT:crt0msg.obj
 0001:00010eb0       ??_C@_1MG@ENCOOIDF@?$AAR?$AA6?$AA0?$AA3?$AA1?$AA?$AN?$AA?6?$AA?9?$AA?5?$AAA?$AAt?$AAt?$AAe?$AAm?$AAp?$AAt?$AA?5?$AAt?$AAo?$AA?5?$AAi?$AAn?$AAi?$AAt?$AAi?$AAa?$AAl?$AAi?$AAz?$AAe?$AA?5?$AAt@ 0000000180011eb0     LIBCMT:crt0msg.obj
 0001:00010f80       ??_C@_1GG@GOPILAJP@?$AAR?$AA6?$AA0?$AA3?$AA2?$AA?$AN?$AA?6?$AA?9?$AA?5?$AAn?$AAo?$AAt?$AA?5?$AAe?$AAn?$AAo?$AAu?$AAg?$AAh?$AA?5?$AAs?$AAp?$AAa?$AAc?$AAe?$AA?5?$AAf?$AAo?$AAr?$AA?5?$AAl?$AAo@ 0000000180011f80     LIBCMT:crt0msg.obj
 0001:00010ff0       ??_C@_1BOO@KGEDBGAJ@?$AAR?$AA6?$AA0?$AA3?$AA3?$AA?$AN?$AA?6?$AA?9?$AA?5?$AAA?$AAt?$AAt?$AAe?$AAm?$AAp?$AAt?$AA?5?$AAt?$AAo?$AA?5?$AAu?$AAs?$AAe?$AA?5?$AAM?$AAS?$AAI?$AAL?$AA?5?$AAc?$AAo?$AAd@ 0000000180011ff0     LIBCMT:crt0msg.obj
 0001:000111e0       ??_C@_1GG@MKFPEKFO@?$AAR?$AA6?$AA0?$AA3?$AA4?$AA?$AN?$AA?6?$AA?9?$AA?5?$AAi?$AAn?$AAc?$AAo?$AAn?$AAs?$AAi?$AAs?$AAt?$AAe?$AAn?$AAt?$AA?5?$AAo?$AAn?$AAe?$AAx?$AAi?$AAt?$AA?5?$AAb?$AAe?$AAg@ 00000001800121e0     LIBCMT:crt0msg.obj
 0001:00011248       ??_C@_1BO@BFCDCGC@?$AAD?$AAO?$AAM?$AAA?$AAI?$AAN?$AA?5?$AAe?$AAr?$AAr?$AAo?$AAr?$AA?$AN?$AA?6?$AA?$AA@ 0000000180012248     LIBCMT:crt0msg.obj
 0001:00011268       ??_C@_1BK@KMOMNAAI@?$AAS?$AAI?$AAN?$AAG?$AA?5?$AAe?$AAr?$AAr?$AAo?$AAr?$AA?$AN?$AA?6?$AA?$AA@ 0000000180012268     LIBCMT:crt0msg.obj
 0001:00011288       ??_C@_1BM@JBBEPPHI@?$AAT?$AAL?$AAO?$AAS?$AAS?$AA?5?$AAe?$AAr?$AAr?$AAo?$AAr?$AA?$AN?$AA?6?$AA?$AA@ 0000000180012288     LIBCMT:crt0msg.obj
 0001:000112a4       ??_C@_15JNBOKNOG@?$AA?$AN?$AA?6?$AA?$AA@ 00000001800122a4     LIBCMT:crt0msg.obj
 0001:000112b0       ??_C@_1BO@BKOMIGKJ@?$AAr?$AAu?$AAn?$AAt?$AAi?$AAm?$AAe?$AA?5?$AAe?$AAr?$AAr?$AAo?$AAr?$AA?5?$AA?$AA@ 00000001800122b0     LIBCMT:crt0msg.obj
 0001:000112d0       ??_C@_1DE@JNGNBFGO@?$AAR?$AAu?$AAn?$AAt?$AAi?$AAm?$AAe?$AA?5?$AAE?$AAr?$AAr?$AAo?$AAr?$AA?$CB?$AA?6?$AA?6?$AAP?$AAr?$AAo?$AAg?$AAr?$AAa?$AAm?$AA?3?$AA?5?$AA?$AA@ 00000001800122d0     LIBCMT:crt0msg.obj
 0001:00011308       ??_C@_1CO@EAEJAADC@?$AA?$DM?$AAp?$AAr?$AAo?$AAg?$AAr?$AAa?$AAm?$AA?5?$AAn?$AAa?$AAm?$AAe?$AA?5?$AAu?$AAn?$AAk?$AAn?$AAo?$AAw?$AAn?$AA?$DO?$AA?$AA@ 0000000180012308     LIBCMT:crt0msg.obj
 0001:00011338       ??_C@_17LGKOMLJ@?$AA?4?$AA?4?$AA?4?$AA?$AA@ 0000000180012338     LIBCMT:crt0msg.obj
 0001:00011340       ??_C@_15IABLJNFO@?$AA?6?$AA?6?$AA?$AA@ 0000000180012340     LIBCMT:crt0msg.obj
 0001:00011350       ??_C@_1EK@MBDPDCGA@?$AAM?$AAi?$AAc?$AAr?$AAo?$AAs?$AAo?$AAf?$AAt?$AA?5?$AAV?$AAi?$AAs?$AAu?$AAa?$AAl?$AA?5?$AAC?$AA?$CL?$AA?$CL?$AA?5?$AAR?$AAu?$AAn?$AAt?$AAi?$AAm?$AAe?$AA?5?$AAL?$AAi?$AAb@ 0000000180012350     LIBCMT:crt0msg.obj
 0001:000113b0       _sys_errlist               00000001800123b0     LIBCMT:syserr.obj
 0001:00011510       ??_C@_08INEPGKHH@No?5error?$AA@ 0000000180012510     LIBCMT:syserr.obj
 0001:00011520       ??_C@_0BI@BJFCGOHL@Operation?5not?5permitted?$AA@ 0000000180012520     LIBCMT:syserr.obj
 0001:00011538       ??_C@_0BK@FMDHKPNF@No?5such?5file?5or?5directory?$AA@ 0000000180012538     LIBCMT:syserr.obj
 0001:00011558       ??_C@_0BA@FKIAIBGA@No?5such?5process?$AA@ 0000000180012558     LIBCMT:syserr.obj
 0001:00011568       ??_C@_0BK@FJBOAFDK@Interrupted?5function?5call?$AA@ 0000000180012568     LIBCMT:syserr.obj
 0001:00011588       ??_C@_0BD@KKNFOBBD@Input?1output?5error?$AA@ 0000000180012588     LIBCMT:syserr.obj
 0001:000115a0       ??_C@_0BK@DPKMCKJ@No?5such?5device?5or?5address?$AA@ 00000001800125a0     LIBCMT:syserr.obj
 0001:000115c0       ??_C@_0BC@MFFGCDFL@Arg?5list?5too?5long?$AA@ 00000001800125c0     LIBCMT:syserr.obj
 0001:000115d8       ??_C@_0BC@HKPNECK@Exec?5format?5error?$AA@ 00000001800125d8     LIBCMT:syserr.obj
 0001:000115f0       ??_C@_0BE@NFGDDCEF@Bad?5file?5descriptor?$AA@ 00000001800125f0     LIBCMT:syserr.obj
 0001:00011608       ??_C@_0BD@LOHELEP@No?5child?5processes?$AA@ 0000000180012608     LIBCMT:syserr.obj
 0001:00011620       ??_C@_0CB@EPFKGNAK@Resource?5temporarily?5unavailable@ 0000000180012620     LIBCMT:syserr.obj
 0001:00011648       ??_C@_0BB@IMDKMPFB@Not?5enough?5space?$AA@ 0000000180012648     LIBCMT:syserr.obj
 0001:00011660       ??_C@_0BC@HFNFNKAI@Permission?5denied?$AA@ 0000000180012660     LIBCMT:syserr.obj
 0001:00011678       ??_C@_0M@LOEHLCJD@Bad?5address?$AA@ 0000000180012678     LIBCMT:syserr.obj
 0001:00011688       ??_C@_0O@NIPGCINC@Unknown?5error?$AA@ 0000000180012688     LIBCMT:syserr.obj
 0001:00011698       ??_C@_0BA@BIBLIOEK@Resource?5device?$AA@ 0000000180012698     LIBCMT:syserr.obj
 0001:000116a8       ??_C@_0M@NAAJNNGH@File?5exists?$AA@ 00000001800126a8     LIBCMT:syserr.obj
 0001:000116b8       ??_C@_0O@OAMDNOCP@Improper?5link?$AA@ 00000001800126b8     LIBCMT:syserr.obj
 0001:000116c8       ??_C@_0P@NLEIANHE@No?5such?5device?$AA@ 00000001800126c8     LIBCMT:syserr.obj
 0001:000116d8       ??_C@_0BA@CJBACOOL@Not?5a?5directory?$AA@ 00000001800126d8     LIBCMT:syserr.obj
 0001:000116e8       ??_C@_0P@NDHGCGKE@Is?5a?5directory?$AA@ 00000001800126e8     LIBCMT:syserr.obj
 0001:000116f8       ??_C@_0BB@HMGGCEBG@Invalid?5argument?$AA@ 00000001800126f8     LIBCMT:syserr.obj
 0001:00011710       ??_C@_0BO@IIFBODJE@Too?5many?5open?5files?5in?5system?$AA@ 0000000180012710     LIBCMT:syserr.obj
 0001:00011730       ??_C@_0BE@INBJMKGG@Too?5many?5open?5files?$AA@ 0000000180012730     LIBCMT:syserr.obj
 0001:00011748       ??_C@_0CE@ONOKNLPF@Inappropriate?5I?1O?5control?5operat@ 0000000180012748     LIBCMT:syserr.obj
 0001:00011770       ??_C@_0P@LFMMIPAE@File?5too?5large?$AA@ 0000000180012770     LIBCMT:syserr.obj
 0001:00011780       ??_C@_0BI@FEALHKLD@No?5space?5left?5on?5device?$AA@ 0000000180012780     LIBCMT:syserr.obj
 0001:00011798       ??_C@_0N@FEHLOILP@Invalid?5seek?$AA@ 0000000180012798     LIBCMT:syserr.obj
 0001:000117a8       ??_C@_0BG@DDBFNKBH@Read?9only?5file?5system?$AA@ 00000001800127a8     LIBCMT:syserr.obj
 0001:000117c0       ??_C@_0P@PKCJJLLM@Too?5many?5links?$AA@ 00000001800127c0     LIBCMT:syserr.obj
 0001:000117d0       ??_C@_0M@LHEPIIOM@Broken?5pipe?$AA@ 00000001800127d0     LIBCMT:syserr.obj
 0001:000117e0       ??_C@_0N@MMJPGLJK@Domain?5error?$AA@ 00000001800127e0     LIBCMT:syserr.obj
 0001:000117f0       ??_C@_0BB@FCBJFCAJ@Result?5too?5large?$AA@ 00000001800127f0     LIBCMT:syserr.obj
 0001:00011808       ??_C@_0BK@JAEBMJJM@Resource?5deadlock?5avoided?$AA@ 0000000180012808     LIBCMT:syserr.obj
 0001:00011828       ??_C@_0BC@BEDIHIDK@Filename?5too?5long?$AA@ 0000000180012828     LIBCMT:syserr.obj
 0001:00011840       ??_C@_0BD@CLHBCGPB@No?5locks?5available?$AA@ 0000000180012840     LIBCMT:syserr.obj
 0001:00011858       ??_C@_0BJ@IHEHINLI@Function?5not?5implemented?$AA@ 0000000180012858     LIBCMT:syserr.obj
 0001:00011878       ??_C@_0BE@ICMCHPHH@Directory?5not?5empty?$AA@ 0000000180012878     LIBCMT:syserr.obj
 0001:00011890       ??_C@_0BG@KLEAJEFJ@Illegal?5byte?5sequence?$AA@ 0000000180012890     LIBCMT:syserr.obj
 0001:00011908       ??_C@_1M@HPNHIDJI@?$AAj?$AAa?$AA?9?$AAJ?$AAP?$AA?$AA@ 0000000180012908     LIBCMT:mbctype.obj
 0001:00011918       ??_C@_1M@BIBDDEMK@?$AAz?$AAh?$AA?9?$AAC?$AAN?$AA?$AA@ 0000000180012918     LIBCMT:mbctype.obj
 0001:00011928       ??_C@_1M@JLOOOEGK@?$AAk?$AAo?$AA?9?$AAK?$AAR?$AA?$AA@ 0000000180012928     LIBCMT:mbctype.obj
 0001:00011938       ??_C@_1M@CLNBBOPM@?$AAz?$AAh?$AA?9?$AAT?$AAW?$AA?$AA@ 0000000180012938     LIBCMT:mbctype.obj
 0001:00011944       ??_C@_03KOEHGMDN@Sun?$AA@  0000000180012944     LIBCMT:nlsdata.obj
 0001:00011948       ??_C@_03PDAGKDH@Mon?$AA@   0000000180012948     LIBCMT:nlsdata.obj
 0001:0001194c       ??_C@_03NAGEINEP@Tue?$AA@  000000018001294c     LIBCMT:nlsdata.obj
 0001:00011950       ??_C@_03MHOMLAJA@Wed?$AA@  0000000180012950     LIBCMT:nlsdata.obj
 0001:00011954       ??_C@_03IOFIKPDN@Thu?$AA@  0000000180012954     LIBCMT:nlsdata.obj
 0001:00011958       ??_C@_03IDIOELNC@Fri?$AA@  0000000180012958     LIBCMT:nlsdata.obj
 0001:0001195c       ??_C@_03FEFJNEK@Sat?$AA@   000000018001295c     LIBCMT:nlsdata.obj
 0001:00011960       ??_C@_06OOPIFAJ@Sunday?$AA@ 0000000180012960     LIBCMT:nlsdata.obj
 0001:00011968       ??_C@_06JLEDEDGH@Monday?$AA@ 0000000180012968     LIBCMT:nlsdata.obj
 0001:00011970       ??_C@_07BAAGCFCM@Tuesday?$AA@ 0000000180012970     LIBCMT:nlsdata.obj
 0001:00011978       ??_C@_09DLIGFAKA@Wednesday?$AA@ 0000000180012978     LIBCMT:nlsdata.obj
 0001:00011988       ??_C@_08HACCIKIA@Thursday?$AA@ 0000000180012988     LIBCMT:nlsdata.obj
 0001:00011994       ??_C@_06JECMNKMI@Friday?$AA@ 0000000180012994     LIBCMT:nlsdata.obj
 0001:000119a0       ??_C@_08INBOOONO@Saturday?$AA@ 00000001800129a0     LIBCMT:nlsdata.obj
 0001:000119ac       ??_C@_03JIHJHPIE@Jan?$AA@  00000001800129ac     LIBCMT:nlsdata.obj
 0001:000119b0       ??_C@_03HJBDCHOM@Feb?$AA@  00000001800129b0     LIBCMT:nlsdata.obj
 0001:000119b4       ??_C@_03ODNJBKGA@Mar?$AA@  00000001800129b4     LIBCMT:nlsdata.obj
 0001:000119b8       ??_C@_03LEOLGMJP@Apr?$AA@  00000001800129b8     LIBCMT:nlsdata.obj
 0001:000119bc       ??_C@_03CNMDKL@May?$AA@    00000001800129bc     LIBCMT:nlsdata.obj
 0001:000119c0       ??_C@_03IDFGHECI@Jun?$AA@  00000001800129c0     LIBCMT:nlsdata.obj
 0001:000119c4       ??_C@_03LBGABGKK@Jul?$AA@  00000001800129c4     LIBCMT:nlsdata.obj
 0001:000119c8       ??_C@_03IFJFEIGA@Aug?$AA@  00000001800129c8     LIBCMT:nlsdata.obj
 0001:000119cc       ??_C@_03GGCAPAJC@Sep?$AA@  00000001800129cc     LIBCMT:nlsdata.obj
 0001:000119d0       ??_C@_03BMAOKBAD@Oct?$AA@  00000001800129d0     LIBCMT:nlsdata.obj
 0001:000119d4       ??_C@_03JPJOFNIA@Nov?$AA@  00000001800129d4     LIBCMT:nlsdata.obj
 0001:000119d8       ??_C@_03MKABNOCG@Dec?$AA@  00000001800129d8     LIBCMT:nlsdata.obj
 0001:000119e0       ??_C@_07CGJPFGJA@January?$AA@ 00000001800129e0     LIBCMT:nlsdata.obj
 0001:000119e8       ??_C@_08GNJGEPFN@February?$AA@ 00000001800129e8     LIBCMT:nlsdata.obj
 0001:000119f4       ??_C@_05HPCKOFNC@March?$AA@ 00000001800129f4     LIBCMT:nlsdata.obj
 0001:000119fc       ??_C@_05DMJDNLEJ@April?$AA@ 00000001800129fc     LIBCMT:nlsdata.obj
 0001:00011a04       ??_C@_04CNLMGBGM@June?$AA@ 0000000180012a04     LIBCMT:nlsdata.obj
 0001:00011a0c       ??_C@_04MIEPOIFP@July?$AA@ 0000000180012a0c     LIBCMT:nlsdata.obj
 0001:00011a14       ??_C@_06LBBHFDDG@August?$AA@ 0000000180012a14     LIBCMT:nlsdata.obj
 0001:00011a20       ??_C@_09BHHEALKD@September?$AA@ 0000000180012a20     LIBCMT:nlsdata.obj
 0001:00011a30       ??_C@_07JJNFCEND@October?$AA@ 0000000180012a30     LIBCMT:nlsdata.obj
 0001:00011a38       ??_C@_08HCHEGEOA@November?$AA@ 0000000180012a38     LIBCMT:nlsdata.obj
 0001:00011a48       ??_C@_08EDHMEBNP@December?$AA@ 0000000180012a48     LIBCMT:nlsdata.obj
 0001:00011a54       ??_C@_02DEDBPAFC@AM?$AA@   0000000180012a54     LIBCMT:nlsdata.obj
 0001:00011a58       ??_C@_02CJNFDJBF@PM?$AA@   0000000180012a58     LIBCMT:nlsdata.obj
 0001:00011a60       ??_C@_08BPBNCDIB@MM?1dd?1yy?$AA@ 0000000180012a60     LIBCMT:nlsdata.obj
 0001:00011a70       ??_C@_0BE@CKGJFCPC@dddd?0?5MMMM?5dd?0?5yyyy?$AA@ 0000000180012a70     LIBCMT:nlsdata.obj
 0001:00011a88       ??_C@_08JCCMCCIL@HH?3mm?3ss?$AA@ 0000000180012a88     LIBCMT:nlsdata.obj
 0001:00011a98       ??_C@_17MBGCMIPB@?$AAS?$AAu?$AAn?$AA?$AA@ 0000000180012a98     LIBCMT:nlsdata.obj
 0001:00011aa0       ??_C@_17KBOMKBF@?$AAM?$AAo?$AAn?$AA?$AA@ 0000000180012aa0     LIBCMT:nlsdata.obj
 0001:00011aa8       ??_C@_17BMKGEGOJ@?$AAT?$AAu?$AAe?$AA?$AA@ 0000000180012aa8     LIBCMT:nlsdata.obj
 0001:00011ab0       ??_C@_17CJEDCEPE@?$AAW?$AAe?$AAd?$AA?$AA@ 0000000180012ab0     LIBCMT:nlsdata.obj
 0001:00011ab8       ??_C@_17PDPHAADD@?$AAT?$AAh?$AAu?$AA?$AA@ 0000000180012ab8     LIBCMT:nlsdata.obj
 0001:00011ac0       ??_C@_17HFOLPPLP@?$AAF?$AAr?$AAi?$AA?$AA@ 0000000180012ac0     LIBCMT:nlsdata.obj
 0001:00011ac8       ??_C@_17GGIBDPIH@?$AAS?$AAa?$AAt?$AA?$AA@ 0000000180012ac8     LIBCMT:nlsdata.obj
 0001:00011ad0       ??_C@_1O@IHNHDHPB@?$AAS?$AAu?$AAn?$AAd?$AAa?$AAy?$AA?$AA@ 0000000180012ad0     LIBCMT:nlsdata.obj
 0001:00011ae0       ??_C@_1O@MMNBFLIA@?$AAM?$AAo?$AAn?$AAd?$AAa?$AAy?$AA?$AA@ 0000000180012ae0     LIBCMT:nlsdata.obj
 0001:00011af0       ??_C@_1BA@ENFBFFEK@?$AAT?$AAu?$AAe?$AAs?$AAd?$AAa?$AAy?$AA?$AA@ 0000000180012af0     LIBCMT:nlsdata.obj
 0001:00011b00       ??_C@_1BE@EBOGMDOH@?$AAW?$AAe?$AAd?$AAn?$AAe?$AAs?$AAd?$AAa?$AAy?$AA?$AA@ 0000000180012b00     LIBCMT:nlsdata.obj
 0001:00011b18       ??_C@_1BC@HHMNLIHE@?$AAT?$AAh?$AAu?$AAr?$AAs?$AAd?$AAa?$AAy?$AA?$AA@ 0000000180012b18     LIBCMT:nlsdata.obj
 0001:00011b30       ??_C@_1O@PDICJHAG@?$AAF?$AAr?$AAi?$AAd?$AAa?$AAy?$AA?$AA@ 0000000180012b30     LIBCMT:nlsdata.obj
 0001:00011b40       ??_C@_1BC@ENMNNPAJ@?$AAS?$AAa?$AAt?$AAu?$AAr?$AAd?$AAa?$AAy?$AA?$AA@ 0000000180012b40     LIBCMT:nlsdata.obj
 0001:00011b58       ??_C@_17DKNBKCHM@?$AAJ?$AAa?$AAn?$AA?$AA@ 0000000180012b58     LIBCMT:nlsdata.obj
 0001:00011b60       ??_C@_17LMDJEKJN@?$AAF?$AAe?$AAb?$AA?$AA@ 0000000180012b60     LIBCMT:nlsdata.obj
 0001:00011b68       ??_C@_17CKNLEDEC@?$AAM?$AAa?$AAr?$AA?$AA@ 0000000180012b68     LIBCMT:nlsdata.obj
 0001:00011b70       ??_C@_17LFPOIHDD@?$AAA?$AAp?$AAr?$AA?$AA@ 0000000180012b70     LIBCMT:nlsdata.obj
 0001:00011b78       ??_C@_17PNNKMEED@?$AAM?$AAa?$AAy?$AA?$AA@ 0000000180012b78     LIBCMT:nlsdata.obj
 0001:00011b80       ??_C@_17KCJGOCPB@?$AAJ?$AAu?$AAn?$AA?$AA@ 0000000180012b80     LIBCMT:nlsdata.obj
 0001:00011b88       ??_C@_17IJPCKHK@?$AAJ?$AAu?$AAl?$AA?$AA@ 0000000180012b88     LIBCMT:nlsdata.obj
 0001:00011b90       ??_C@_17ICPELBCN@?$AAA?$AAu?$AAg?$AA?$AA@ 0000000180012b90     LIBCMT:nlsdata.obj
 0001:00011b98       ??_C@_17HCHCOKMG@?$AAS?$AAe?$AAp?$AA?$AA@ 0000000180012b98     LIBCMT:nlsdata.obj
 0001:00011ba0       ??_C@_17FNLKOI@?$AAO?$AAc?$AAt?$AA?$AA@ 0000000180012ba0     LIBCMT:nlsdata.obj
 0001:00011ba8       ??_C@_17BBDMLCIG@?$AAN?$AAo?$AAv?$AA?$AA@ 0000000180012ba8     LIBCMT:nlsdata.obj
 0001:00011bb0       ??_C@_17EGKACKIF@?$AAD?$AAe?$AAc?$AA?$AA@ 0000000180012bb0     LIBCMT:nlsdata.obj
 0001:00011bb8       ??_C@_1BA@EFMEIEBA@?$AAJ?$AAa?$AAn?$AAu?$AAa?$AAr?$AAy?$AA?$AA@ 0000000180012bb8     LIBCMT:nlsdata.obj
 0001:00011bc8       ??_C@_1BC@JGDDFFAM@?$AAF?$AAe?$AAb?$AAr?$AAu?$AAa?$AAr?$AAy?$AA?$AA@ 0000000180012bc8     LIBCMT:nlsdata.obj
 0001:00011be0       ??_C@_1M@IKEENEDF@?$AAM?$AAa?$AAr?$AAc?$AAh?$AA?$AA@ 0000000180012be0     LIBCMT:nlsdata.obj
 0001:00011bf0       ??_C@_1M@GJNLMHFD@?$AAA?$AAp?$AAr?$AAi?$AAl?$AA?$AA@ 0000000180012bf0     LIBCMT:nlsdata.obj
 0001:00011c00       ??_C@_19EPFLPGAP@?$AAJ?$AAu?$AAn?$AAe?$AA?$AA@ 0000000180012c00     LIBCMT:nlsdata.obj
 0001:00011c10       ??_C@_19BIFMLPCD@?$AAJ?$AAu?$AAl?$AAy?$AA?$AA@ 0000000180012c10     LIBCMT:nlsdata.obj
 0001:00011c20       ??_C@_1O@PAHLKOAC@?$AAA?$AAu?$AAg?$AAu?$AAs?$AAt?$AA?$AA@ 0000000180012c20     LIBCMT:nlsdata.obj
 0001:00011c30       ??_C@_1BE@DKAAMBJL@?$AAS?$AAe?$AAp?$AAt?$AAe?$AAm?$AAb?$AAe?$AAr?$AA?$AA@ 0000000180012c30     LIBCMT:nlsdata.obj
 0001:00011c48       ??_C@_1BA@EPANDLNG@?$AAO?$AAc?$AAt?$AAo?$AAb?$AAe?$AAr?$AA?$AA@ 0000000180012c48     LIBCMT:nlsdata.obj
 0001:00011c58       ??_C@_1BC@BGLIFPF@?$AAN?$AAo?$AAv?$AAe?$AAm?$AAb?$AAe?$AAr?$AA?$AA@ 0000000180012c58     LIBCMT:nlsdata.obj
 0001:00011c70       ??_C@_1BC@FEMKIFH@?$AAD?$AAe?$AAc?$AAe?$AAm?$AAb?$AAe?$AAr?$AA?$AA@ 0000000180012c70     LIBCMT:nlsdata.obj
 0001:00011c84       ??_C@_15ODEHAHHF@?$AAA?$AAM?$AA?$AA@ 0000000180012c84     LIBCMT:nlsdata.obj
 0001:00011c8c       ??_C@_15CLMNNGEL@?$AAP?$AAM?$AA?$AA@ 0000000180012c8c     LIBCMT:nlsdata.obj
 0001:00011c98       ??_C@_1BC@IEBCMHCM@?$AAM?$AAM?$AA?1?$AAd?$AAd?$AA?1?$AAy?$AAy?$AA?$AA@ 0000000180012c98     LIBCMT:nlsdata.obj
 0001:00011cb0       ??_C@_1CI@KNAKOEBC@?$AAd?$AAd?$AAd?$AAd?$AA?0?$AA?5?$AAM?$AAM?$AAM?$AAM?$AA?5?$AAd?$AAd?$AA?0?$AA?5?$AAy?$AAy?$AAy?$AAy?$AA?$AA@ 0000000180012cb0     LIBCMT:nlsdata.obj
 0001:00011cd8       ??_C@_1BC@GDGBMEMK@?$AAH?$AAH?$AA?3?$AAm?$AAm?$AA?3?$AAs?$AAs?$AA?$AA@ 0000000180012cd8     LIBCMT:nlsdata.obj
 0001:00011cf0       ??_C@_1M@BMHNFIME@?$AAe?$AAn?$AA?9?$AAU?$AAS?$AA?$AA@ 0000000180012cf0     LIBCMT:nlsdata.obj
 0001:00011d80       ??_C@_03MGHMBJCF@log?$AA@  0000000180012d80     LIBCMT:log_special.obj
 0001:00011d84       ??_C@_05HGHHAHAP@log10?$AA@ 0000000180012d84     LIBCMT:log_special.obj
 0001:00011d90       __log_F_inv_qword          0000000180012d90     LIBCMT:log_F_inv_qword_table.obj
 0001:000125b0       _XcptActTab                00000001800135b0     LIBCMT:winxfltr.obj
 0001:00012670       _XcptActTabCount           0000000180013670     LIBCMT:winxfltr.obj
 0001:00012674       _XcptActTabSize            0000000180013674     LIBCMT:winxfltr.obj
 0001:00012678       _First_FPE_Indx            0000000180013678     LIBCMT:winxfltr.obj
 0001:0001267c       _Num_FPE                   000000018001367c     LIBCMT:winxfltr.obj
 0001:00012680       ??_C@_1BK@MGMFAEKH@?$AAk?$AAe?$AAr?$AAn?$AAe?$AAl?$AA3?$AA2?$AA?4?$AAd?$AAl?$AAl?$AA?$AA@ 0000000180013680     LIBCMT:winapisupp.obj
 0001:000126a0       ??_C@_08KNHFBNJ@FlsAlloc?$AA@ 00000001800136a0     LIBCMT:winapisupp.obj
 0001:000126b0       ??_C@_07PEJMOBNF@FlsFree?$AA@ 00000001800136b0     LIBCMT:winapisupp.obj
 0001:000126b8       ??_C@_0M@GDNOONDI@FlsGetValue?$AA@ 00000001800136b8     LIBCMT:winapisupp.obj
 0001:000126c8       ??_C@_0M@JCPCPOEF@FlsSetValue?$AA@ 00000001800136c8     LIBCMT:winapisupp.obj
 0001:000126d8       ??_C@_0BM@HCFOFFN@InitializeCriticalSectionEx?$AA@ 00000001800136d8     LIBCMT:winapisupp.obj
 0001:000126f8       ??_C@_0BD@KIEEOEEH@CreateSemaphoreExW?$AA@ 00000001800136f8     LIBCMT:winapisupp.obj
 0001:00012710       ??_C@_0BI@BKLFFAPO@SetThreadStackGuarantee?$AA@ 0000000180013710     LIBCMT:winapisupp.obj
 0001:00012728       ??_C@_0BG@OGFAJCKC@CreateThreadpoolTimer?$AA@ 0000000180013728     LIBCMT:winapisupp.obj
 0001:00012740       ??_C@_0BD@LPLEMMDI@SetThreadpoolTimer?$AA@ 0000000180013740     LIBCMT:winapisupp.obj
 0001:00012758       ??_C@_0CA@FMNJENH@WaitForThreadpoolTimerCallbacks?$AA@ 0000000180013758     LIBCMT:winapisupp.obj
 0001:00012778       ??_C@_0BF@DCFCCNOC@CloseThreadpoolTimer?$AA@ 0000000180013778     LIBCMT:winapisupp.obj
 0001:00012790       ??_C@_0BF@FLABGKKM@CreateThreadpoolWait?$AA@ 0000000180013790     LIBCMT:winapisupp.obj
 0001:000127a8       ??_C@_0BC@MGCOHNA@SetThreadpoolWait?$AA@ 00000001800137a8     LIBCMT:winapisupp.obj
 0001:000127c0       ??_C@_0BE@OCIOMIMP@CloseThreadpoolWait?$AA@ 00000001800137c0     LIBCMT:winapisupp.obj
 0001:000127d8       ??_C@_0BJ@LKGHFHBO@FlushProcessWriteBuffers?$AA@ 00000001800137d8     LIBCMT:winapisupp.obj
 0001:000127f8       ??_C@_0BP@KALKKPMO@FreeLibraryWhenCallbackReturns?$AA@ 00000001800137f8     LIBCMT:winapisupp.obj
 0001:00012818       ??_C@_0BK@DFNBACLA@GetCurrentProcessorNumber?$AA@ 0000000180013818     LIBCMT:winapisupp.obj
 0001:00012838       ??_C@_0BP@KHGALBC@GetLogicalProcessorInformation?$AA@ 0000000180013838     LIBCMT:winapisupp.obj
 0001:00012858       ??_C@_0BE@FKKLLFLM@CreateSymbolicLinkW?$AA@ 0000000180013858     LIBCMT:winapisupp.obj
 0001:00012870       ??_C@_0BJ@OHNKDLIJ@SetDefaultDllDirectories?$AA@ 0000000180013870     LIBCMT:winapisupp.obj
 0001:00012890       ??_C@_0BE@LJANKFHF@EnumSystemLocalesEx?$AA@ 0000000180013890     LIBCMT:winapisupp.obj
 0001:000128a8       ??_C@_0BA@IHGNDAEB@CompareStringEx?$AA@ 00000001800138a8     LIBCMT:winapisupp.obj
 0001:000128b8       ??_C@_0BA@EPCJIIPD@GetDateFormatEx?$AA@ 00000001800138b8     LIBCMT:winapisupp.obj
 0001:000128c8       ??_C@_0BA@ONOKGCMP@GetLocaleInfoEx?$AA@ 00000001800138c8     LIBCMT:winapisupp.obj
 0001:000128d8       ??_C@_0BA@CIJJKCJJ@GetTimeFormatEx?$AA@ 00000001800138d8     LIBCMT:winapisupp.obj
 0001:000128e8       ??_C@_0BJ@PBCCBIPI@GetUserDefaultLocaleName?$AA@ 00000001800138e8     LIBCMT:winapisupp.obj
 0001:00012908       ??_C@_0BC@CELBKLLA@IsValidLocaleName?$AA@ 0000000180013908     LIBCMT:winapisupp.obj
 0001:00012920       ??_C@_0O@KKBNKAPF@LCMapStringEx?$AA@ 0000000180013920     LIBCMT:winapisupp.obj
 0001:00012930       ??_C@_0BE@JOGNEJCI@GetCurrentPackageId?$AA@ 0000000180013930     LIBCMT:winapisupp.obj
 0001:00012950       __lookuptable_s            0000000180013950     LIBCMT:outputs.obj
 0001:000129b0       ??_C@_1BG@GOEBHBDC@?$AAU?$AAS?$AAE?$AAR?$AA3?$AA2?$AA?4?$AAD?$AAL?$AAL?$AA?$AA@ 00000001800139b0     LIBCMT:crtmboxw.obj
 0001:000129c8       ??_C@_0M@DLDCCGNP@MessageBoxW?$AA@ 00000001800139c8     LIBCMT:crtmboxw.obj
 0001:000129d8       ??_C@_0BA@HNOPNCHB@GetActiveWindow?$AA@ 00000001800139d8     LIBCMT:crtmboxw.obj
 0001:000129e8       ??_C@_0BD@HHGDFDBJ@GetLastActivePopup?$AA@ 00000001800139e8     LIBCMT:crtmboxw.obj
 0001:00012a00       ??_C@_0BK@DEKFELLI@GetUserObjectInformationW?$AA@ 0000000180013a00     LIBCMT:crtmboxw.obj
 0001:00012a20       ??_C@_0BI@DFKBFLJE@GetProcessWindowStation?$AA@ 0000000180013a20     LIBCMT:crtmboxw.obj
 0001:00012a38       ??_C@_0M@HHGEPIBF@CreateFile2?$AA@ 0000000180013a38     LIBCMT:wopen.obj
 0001:00012a50       __newctype                 0000000180013a50     LIBCMT:ctype.obj
 0001:00012d50       _wctype                    0000000180013d50     LIBCMT:ctype.obj
 0001:00012f60       __newclmap                 0000000180013f60     LIBCMT:ctype.obj
 0001:000130e0       __newcumap                 00000001800140e0     LIBCMT:ctype.obj
 0001:00013260       ??_C@_15PJPFLCCM@?$AAu?$AAk?$AA?$AA@ 0000000180014260     LIBCMT:getqloc.obj
 0001:00013268       __rg_language_count        0000000180014268     LIBCMT:getqloc.obj
 0001:0001326c       __rg_country_count         000000018001426c     LIBCMT:getqloc.obj
 0001:00013270       ??_C@_15HPJPHDM@?$AAb?$AAe?$AA?$AA@ 0000000180014270     LIBCMT:winapinls.obj
 0001:00013278       ??_C@_15LCHLGJII@?$AAs?$AAl?$AA?$AA@ 0000000180014278     LIBCMT:winapinls.obj
 0001:00013280       ??_C@_15PCFJPHHO@?$AAe?$AAt?$AA?$AA@ 0000000180014280     LIBCMT:winapinls.obj
 0001:00013288       ??_C@_15HPFPGODN@?$AAl?$AAv?$AA?$AA@ 0000000180014288     LIBCMT:winapinls.obj
 0001:00013290       ??_C@_15NFFGKGLG@?$AAl?$AAt?$AA?$AA@ 0000000180014290     LIBCMT:winapinls.obj
 0001:00013298       ??_C@_15BDAKCCHN@?$AAf?$AAa?$AA?$AA@ 0000000180014298     LIBCMT:winapinls.obj
 0001:000132a0       ??_C@_15NFGIAIAJ@?$AAv?$AAi?$AA?$AA@ 00000001800142a0     LIBCMT:winapinls.obj
 0001:000132a8       ??_C@_15LMKNDMHN@?$AAh?$AAy?$AA?$AA@ 00000001800142a8     LIBCMT:winapinls.obj
 0001:000132b0       ??_C@_15IJBHMCFL@?$AAa?$AAz?$AA?$AA@ 00000001800142b0     LIBCMT:winapinls.obj
 0001:000132b8       ??_C@_15EKOFJABL@?$AAe?$AAu?$AA?$AA@ 00000001800142b8     LIBCMT:winapinls.obj
 0001:000132c0       ??_C@_15BGHADCNK@?$AAm?$AAk?$AA?$AA@ 00000001800142c0     LIBCMT:winapinls.obj
 0001:000132c8       ??_C@_15JDNICKHM@?$AAa?$AAf?$AA?$AA@ 00000001800142c8     LIBCMT:winapinls.obj
 0001:000132d0       ??_C@_15KPJEDBKD@?$AAk?$AAa?$AA?$AA@ 00000001800142d0     LIBCMT:winapinls.obj
 0001:000132d8       ??_C@_15PDNFFFEO@?$AAf?$AAo?$AA?$AA@ 00000001800142d8     LIBCMT:winapinls.obj
 0001:000132e0       ??_C@_15OMLEGLOC@?$AAh?$AAi?$AA?$AA@ 00000001800142e0     LIBCMT:winapinls.obj
 0001:000132e8       ??_C@_15IDNNENKK@?$AAm?$AAs?$AA?$AA@ 00000001800142e8     LIBCMT:winapinls.obj
 0001:000132f0       ??_C@_15MACJNBMH@?$AAk?$AAk?$AA?$AA@ 00000001800142f0     LIBCMT:winapinls.obj
 0001:000132f8       ??_C@_15DKDJEOND@?$AAk?$AAy?$AA?$AA@ 00000001800142f8     LIBCMT:winapinls.obj
 0001:00013300       ??_C@_15DFGDLJBG@?$AAs?$AAw?$AA?$AA@ 0000000180014300     LIBCMT:winapinls.obj
 0001:00013308       ??_C@_15BBFAICNG@?$AAu?$AAz?$AA?$AA@ 0000000180014308     LIBCMT:winapinls.obj
 0001:00013310       ??_C@_15DKNDCGEA@?$AAt?$AAt?$AA?$AA@ 0000000180014310     LIBCMT:winapinls.obj
 0001:00013318       ??_C@_15MGIFMDPL@?$AAp?$AAa?$AA?$AA@ 0000000180014318     LIBCMT:winapinls.obj
 0001:00013320       ??_C@_15HCNDBBA@?$AAg?$AAu?$AA?$AA@ 0000000180014320     LIBCMT:winapinls.obj
 0001:00013328       ??_C@_15FNBEIBON@?$AAt?$AAa?$AA?$AA@ 0000000180014328     LIBCMT:winapinls.obj
 0001:00013330       ??_C@_15NCHGBGLK@?$AAt?$AAe?$AA?$AA@ 0000000180014330     LIBCMT:winapinls.obj
 0001:00013338       ??_C@_15PHPHCBPF@?$AAk?$AAn?$AA?$AA@ 0000000180014338     LIBCMT:winapinls.obj
 0001:00013340       ??_C@_15DLGBCKMP@?$AAm?$AAr?$AA?$AA@ 0000000180014340     LIBCMT:winapinls.obj
 0001:00013348       ??_C@_15EABBLBFF@?$AAs?$AAa?$AA?$AA@ 0000000180014348     LIBCMT:winapinls.obj
 0001:00013350       ??_C@_15CBKOMCOI@?$AAm?$AAn?$AA?$AA@ 0000000180014350     LIBCMT:winapinls.obj
 0001:00013358       ??_C@_15CKDMCJAF@?$AAg?$AAl?$AA?$AA@ 0000000180014358     LIBCMT:winapinls.obj
 0001:00013360       ??_C@_17CNJFBPG@?$AAk?$AAo?$AAk?$AA?$AA@ 0000000180014360     LIBCMT:winapinls.obj
 0001:00013368       ??_C@_17FFBJICPL@?$AAs?$AAy?$AAr?$AA?$AA@ 0000000180014368     LIBCMT:winapinls.obj
 0001:00013370       ??_C@_17KPNDCPAF@?$AAd?$AAi?$AAv?$AA?$AA@ 0000000180014370     LIBCMT:winapinls.obj
 0001:00013378       ??_C@_1M@OKAHONE@?$AAa?$AAr?$AA?9?$AAS?$AAA?$AA?$AA@ 0000000180014378     LIBCMT:winapinls.obj
 0001:00013388       ??_C@_1M@FFFIGIGK@?$AAb?$AAg?$AA?9?$AAB?$AAG?$AA?$AA@ 0000000180014388     LIBCMT:winapinls.obj
 0001:00013398       ??_C@_1M@BJNKEDC@?$AAc?$AAa?$AA?9?$AAE?$AAS?$AA?$AA@ 0000000180014398     LIBCMT:winapinls.obj
 0001:000133a8       ??_C@_1M@IJJHFJHA@?$AAc?$AAs?$AA?9?$AAC?$AAZ?$AA?$AA@ 00000001800143a8     LIBCMT:winapinls.obj
 0001:000133b8       ??_C@_1M@CLPEOBGI@?$AAd?$AAa?$AA?9?$AAD?$AAK?$AA?$AA@ 00000001800143b8     LIBCMT:winapinls.obj
 0001:000133c8       ??_C@_1M@MCMADGCB@?$AAd?$AAe?$AA?9?$AAD?$AAE?$AA?$AA@ 00000001800143c8     LIBCMT:winapinls.obj
 0001:000133d8       ??_C@_1M@OOCKEMAM@?$AAe?$AAl?$AA?9?$AAG?$AAR?$AA?$AA@ 00000001800143d8     LIBCMT:winapinls.obj
 0001:000133e8       ??_C@_1M@DDNJFGID@?$AAf?$AAi?$AA?9?$AAF?$AAI?$AA?$AA@ 00000001800143e8     LIBCMT:winapinls.obj
 0001:000133f8       ??_C@_1M@GLIPPMAC@?$AAf?$AAr?$AA?9?$AAF?$AAR?$AA?$AA@ 00000001800143f8     LIBCMT:winapinls.obj
 0001:00013408       ??_C@_1M@GFMCHPE@?$AAh?$AAe?$AA?9?$AAI?$AAL?$AA?$AA@ 0000000180014408     LIBCMT:winapinls.obj
 0001:00013418       ??_C@_1M@MHLPGNKM@?$AAh?$AAu?$AA?9?$AAH?$AAU?$AA?$AA@ 0000000180014418     LIBCMT:winapinls.obj
 0001:00013428       ??_C@_1M@LPDDNNPN@?$AAi?$AAs?$AA?9?$AAI?$AAS?$AA?$AA@ 0000000180014428     LIBCMT:winapinls.obj
 0001:00013438       ??_C@_1M@MADIPODN@?$AAi?$AAt?$AA?9?$AAI?$AAT?$AA?$AA@ 0000000180014438     LIBCMT:winapinls.obj
 0001:00013448       ??_C@_1M@IHBJJGG@?$AAn?$AAl?$AA?9?$AAN?$AAL?$AA?$AA@ 0000000180014448     LIBCMT:winapinls.obj
 0001:00013458       ??_C@_1M@EANAGDL@?$AAn?$AAb?$AA?9?$AAN?$AAO?$AA?$AA@ 0000000180014458     LIBCMT:winapinls.obj
 0001:00013468       ??_C@_1M@NEIEMEGP@?$AAp?$AAl?$AA?9?$AAP?$AAL?$AA?$AA@ 0000000180014468     LIBCMT:winapinls.obj
 0001:00013478       ??_C@_1M@BOCFIGEP@?$AAp?$AAt?$AA?9?$AAB?$AAR?$AA?$AA@ 0000000180014478     LIBCMT:winapinls.obj
 0001:00013488       ??_C@_1M@IMPFOPBG@?$AAr?$AAo?$AA?9?$AAR?$AAO?$AA?$AA@ 0000000180014488     LIBCMT:winapinls.obj
 0001:00013498       ??_C@_1M@IDNNEJMM@?$AAr?$AAu?$AA?9?$AAR?$AAU?$AA?$AA@ 0000000180014498     LIBCMT:winapinls.obj
 0001:000134a8       ??_C@_1M@LILEEOGM@?$AAh?$AAr?$AA?9?$AAH?$AAR?$AA?$AA@ 00000001800144a8     LIBCMT:winapinls.obj
 0001:000134b8       ??_C@_1M@FKIFEHPB@?$AAs?$AAk?$AA?9?$AAS?$AAK?$AA?$AA@ 00000001800144b8     LIBCMT:winapinls.obj
 0001:000134c8       ??_C@_1M@LJMAMNPJ@?$AAs?$AAq?$AA?9?$AAA?$AAL?$AA?$AA@ 00000001800144c8     LIBCMT:winapinls.obj
 0001:000134d8       ??_C@_1M@GIAKDKJK@?$AAs?$AAv?$AA?9?$AAS?$AAE?$AA?$AA@ 00000001800144d8     LIBCMT:winapinls.obj
 0001:000134e8       ??_C@_1M@MKJKIKCL@?$AAt?$AAh?$AA?9?$AAT?$AAH?$AA?$AA@ 00000001800144e8     LIBCMT:winapinls.obj
 0001:000134f8       ??_C@_1M@MFLCCMPB@?$AAt?$AAr?$AA?9?$AAT?$AAR?$AA?$AA@ 00000001800144f8     LIBCMT:winapinls.obj
 0001:00013508       ??_C@_1M@OIJHDKJN@?$AAu?$AAr?$AA?9?$AAP?$AAK?$AA?$AA@ 0000000180014508     LIBCMT:winapinls.obj
 0001:00013518       ??_C@_1M@LHIPCIEK@?$AAi?$AAd?$AA?9?$AAI?$AAD?$AA?$AA@ 0000000180014518     LIBCMT:winapinls.obj
 0001:00013528       ??_C@_1M@MFMOBGI@?$AAu?$AAk?$AA?9?$AAU?$AAA?$AA?$AA@ 0000000180014528     LIBCMT:winapinls.obj
 0001:00013538       ??_C@_1M@OBGLJIPL@?$AAb?$AAe?$AA?9?$AAB?$AAY?$AA?$AA@ 0000000180014538     LIBCMT:winapinls.obj
 0001:00013548       ??_C@_1M@BCFAJEAD@?$AAs?$AAl?$AA?9?$AAS?$AAI?$AA?$AA@ 0000000180014548     LIBCMT:winapinls.obj
 0001:00013558       ??_C@_1M@FKFFEDDN@?$AAe?$AAt?$AA?9?$AAE?$AAE?$AA?$AA@ 0000000180014558     LIBCMT:winapinls.obj
 0001:00013568       ??_C@_1M@KGKKAACI@?$AAl?$AAv?$AA?9?$AAL?$AAV?$AA?$AA@ 0000000180014568     LIBCMT:winapinls.obj
 0001:00013578       ??_C@_1M@IFGBIJO@?$AAl?$AAt?$AA?9?$AAL?$AAT?$AA?$AA@ 0000000180014578     LIBCMT:winapinls.obj
 0001:00013588       ??_C@_1M@FGEAHEDM@?$AAf?$AAa?$AA?9?$AAI?$AAR?$AA?$AA@ 0000000180014588     LIBCMT:winapinls.obj
 0001:00013598       ??_C@_1M@KBMAIBFN@?$AAv?$AAi?$AA?9?$AAV?$AAN?$AA?$AA@ 0000000180014598     LIBCMT:winapinls.obj
 0001:000135a8       ??_C@_1M@GPCBKDJK@?$AAh?$AAy?$AA?9?$AAA?$AAM?$AA?$AA@ 00000001800145a8     LIBCMT:winapinls.obj
 0001:000135b8       ??_C@_1BG@BECMDDJB@?$AAa?$AAz?$AA?9?$AAA?$AAZ?$AA?9?$AAL?$AAa?$AAt?$AAn?$AA?$AA@ 00000001800145b8     LIBCMT:winapinls.obj
 0001:000135d0       ??_C@_1M@MAOFCAEA@?$AAe?$AAu?$AA?9?$AAE?$AAS?$AA?$AA@ 00000001800145d0     LIBCMT:winapinls.obj
 0001:000135e0       ??_C@_1M@IGHABKPI@?$AAm?$AAk?$AA?9?$AAM?$AAK?$AA?$AA@ 00000001800145e0     LIBCMT:winapinls.obj
 0001:000135f0       ??_C@_1M@IAIGNEJG@?$AAt?$AAn?$AA?9?$AAZ?$AAA?$AA?$AA@ 00000001800145f0     LIBCMT:winapinls.obj
 0001:00013600       ??_C@_1M@IIJCOJFA@?$AAx?$AAh?$AA?9?$AAZ?$AAA?$AA?$AA@ 0000000180014600     LIBCMT:winapinls.obj
 0001:00013610       ??_C@_1M@LGPJHNJH@?$AAz?$AAu?$AA?9?$AAZ?$AAA?$AA?$AA@ 0000000180014610     LIBCMT:winapinls.obj
 0001:00013620       ??_C@_1M@HOKAOIO@?$AAa?$AAf?$AA?9?$AAZ?$AAA?$AA?$AA@ 0000000180014620     LIBCMT:winapinls.obj
 0001:00013630       ??_C@_1M@DPCLHLIE@?$AAk?$AAa?$AA?9?$AAG?$AAE?$AA?$AA@ 0000000180014630     LIBCMT:winapinls.obj
 0001:00013640       ??_C@_1M@BLKMHJBI@?$AAf?$AAo?$AA?9?$AAF?$AAO?$AA?$AA@ 0000000180014640     LIBCMT:winapinls.obj
 0001:00013650       ??_C@_1M@LGGJAPPB@?$AAh?$AAi?$AA?9?$AAI?$AAN?$AA?$AA@ 0000000180014650     LIBCMT:winapinls.obj
 0001:00013660       ??_C@_1M@FIKPIHFE@?$AAm?$AAt?$AA?9?$AAM?$AAT?$AA?$AA@ 0000000180014660     LIBCMT:winapinls.obj
 0001:00013670       ??_C@_1M@HEGGPBFA@?$AAs?$AAe?$AA?9?$AAN?$AAO?$AA?$AA@ 0000000180014670     LIBCMT:winapinls.obj
 0001:00013680       ??_C@_1M@EIBJEEPA@?$AAm?$AAs?$AA?9?$AAM?$AAY?$AA?$AA@ 0000000180014680     LIBCMT:winapinls.obj
 0001:00013690       ??_C@_1M@FHLBGMPP@?$AAk?$AAk?$AA?9?$AAK?$AAZ?$AA?$AA@ 0000000180014690     LIBCMT:winapinls.obj
 0001:000136a0       ??_C@_1M@NGJJLCGI@?$AAk?$AAy?$AA?9?$AAK?$AAG?$AA?$AA@ 00000001800146a0     LIBCMT:winapinls.obj
 0001:000136b0       ??_C@_1M@GIENNBFC@?$AAs?$AAw?$AA?9?$AAK?$AAE?$AA?$AA@ 00000001800146b0     LIBCMT:winapinls.obj
 0001:000136c0       ??_C@_1BG@NDGMJIMJ@?$AAu?$AAz?$AA?9?$AAU?$AAZ?$AA?9?$AAL?$AAa?$AAt?$AAn?$AA?$AA@ 00000001800146c0     LIBCMT:winapinls.obj
 0001:000136d8       ??_C@_1M@IDCCIHBC@?$AAt?$AAt?$AA?9?$AAR?$AAU?$AA?$AA@ 00000001800146d8     LIBCMT:winapinls.obj
 0001:000136e8       ??_C@_1M@LOICPMOJ@?$AAb?$AAn?$AA?9?$AAI?$AAN?$AA?$AA@ 00000001800146e8     LIBCMT:winapinls.obj
 0001:000136f8       ??_C@_1M@KPKKNEAH@?$AAp?$AAa?$AA?9?$AAI?$AAN?$AA?$AA@ 00000001800146f8     LIBCMT:winapinls.obj
 0001:00013708       ??_C@_1M@PJGPPBOG@?$AAg?$AAu?$AA?9?$AAI?$AAN?$AA?$AA@ 0000000180014708     LIBCMT:winapinls.obj
 0001:00013718       ??_C@_1M@KMKMOPHI@?$AAt?$AAa?$AA?9?$AAI?$AAN?$AA?$AA@ 0000000180014718     LIBCMT:winapinls.obj
 0001:00013728       ??_C@_1M@KFEHEPAC@?$AAt?$AAe?$AA?9?$AAI?$AAN?$AA?$AA@ 0000000180014728     LIBCMT:winapinls.obj
 0001:00013738       ??_C@_1M@CDCLMGHI@?$AAk?$AAn?$AA?9?$AAI?$AAN?$AA?$AA@ 0000000180014738     LIBCMT:winapinls.obj
 0001:00013748       ??_C@_1M@MIODLDKF@?$AAm?$AAl?$AA?9?$AAI?$AAN?$AA?$AA@ 0000000180014748     LIBCMT:winapinls.obj
 0001:00013758       ??_C@_1M@PBIEACPO@?$AAm?$AAr?$AA?9?$AAI?$AAN?$AA?$AA@ 0000000180014758     LIBCMT:winapinls.obj
 0001:00013768       ??_C@_1M@NIDEAGPH@?$AAs?$AAa?$AA?9?$AAI?$AAN?$AA?$AA@ 0000000180014768     LIBCMT:winapinls.obj
 0001:00013778       ??_C@_1M@FHIHCBIO@?$AAm?$AAn?$AA?9?$AAM?$AAN?$AA?$AA@ 0000000180014778     LIBCMT:winapinls.obj
 0001:00013788       ??_C@_1M@JAIJPENP@?$AAc?$AAy?$AA?9?$AAG?$AAB?$AA?$AA@ 0000000180014788     LIBCMT:winapinls.obj
 0001:00013798       ??_C@_1M@PHGFBEPN@?$AAg?$AAl?$AA?9?$AAE?$AAS?$AA?$AA@ 0000000180014798     LIBCMT:winapinls.obj
 0001:000137a8       ??_C@_1O@KPIPDNCP@?$AAk?$AAo?$AAk?$AA?9?$AAI?$AAN?$AA?$AA@ 00000001800147a8     LIBCMT:winapinls.obj
 0001:000137b8       ??_C@_1O@KNHJLDJA@?$AAs?$AAy?$AAr?$AA?9?$AAS?$AAY?$AA?$AA@ 00000001800147b8     LIBCMT:winapinls.obj
 0001:000137c8       ??_C@_1O@MKEKBLAH@?$AAd?$AAi?$AAv?$AA?9?$AAM?$AAV?$AA?$AA@ 00000001800147c8     LIBCMT:winapinls.obj
 0001:000137d8       ??_C@_1O@OHDCKDDF@?$AAq?$AAu?$AAz?$AA?9?$AAB?$AAO?$AA?$AA@ 00000001800147d8     LIBCMT:winapinls.obj
 0001:000137e8       ??_C@_1M@LEPJNLFD@?$AAn?$AAs?$AA?9?$AAZ?$AAA?$AA?$AA@ 00000001800147e8     LIBCMT:winapinls.obj
 0001:000137f8       ??_C@_1M@OMLEIIJB@?$AAm?$AAi?$AA?9?$AAN?$AAZ?$AA?$AA@ 00000001800147f8     LIBCMT:winapinls.obj
 0001:00013808       ??_C@_1M@PMPEAILG@?$AAa?$AAr?$AA?9?$AAI?$AAQ?$AA?$AA@ 0000000180014808     LIBCMT:winapinls.obj
 0001:00013818       ??_C@_1M@CNKPNOEE@?$AAd?$AAe?$AA?9?$AAC?$AAH?$AA?$AA@ 0000000180014818     LIBCMT:winapinls.obj
 0001:00013828       ??_C@_1M@LKMGMLKO@?$AAe?$AAn?$AA?9?$AAG?$AAB?$AA?$AA@ 0000000180014828     LIBCMT:winapinls.obj
 0001:00013838       ??_C@_1M@PGKJFFGL@?$AAe?$AAs?$AA?9?$AAM?$AAX?$AA?$AA@ 0000000180014838     LIBCMT:winapinls.obj
 0001:00013848       ??_C@_1M@DNNANBDC@?$AAf?$AAr?$AA?9?$AAB?$AAE?$AA?$AA@ 0000000180014848     LIBCMT:winapinls.obj
 0001:00013858       ??_C@_1M@HLGMDFHM@?$AAi?$AAt?$AA?9?$AAC?$AAH?$AA?$AA@ 0000000180014858     LIBCMT:winapinls.obj
 0001:00013868       ??_C@_1M@CLLBGJH@?$AAn?$AAl?$AA?9?$AAB?$AAE?$AA?$AA@ 0000000180014868     LIBCMT:winapinls.obj
 0001:00013878       ??_C@_1M@BODBOGLF@?$AAn?$AAn?$AA?9?$AAN?$AAO?$AA?$AA@ 0000000180014878     LIBCMT:winapinls.obj
 0001:00013888       ??_C@_1M@HFFAHKAD@?$AAp?$AAt?$AA?9?$AAP?$AAT?$AA?$AA@ 0000000180014888     LIBCMT:winapinls.obj
 0001:00013898       ??_C@_1BG@LNOAKHIE@?$AAs?$AAr?$AA?9?$AAS?$AAP?$AA?9?$AAL?$AAa?$AAt?$AAn?$AA?$AA@ 0000000180014898     LIBCMT:winapinls.obj
 0001:000138b0       ??_C@_1M@HBMHBGAK@?$AAs?$AAv?$AA?9?$AAF?$AAI?$AA?$AA@ 00000001800148b0     LIBCMT:winapinls.obj
 0001:000138c0       ??_C@_1BG@DGCJGJBE@?$AAa?$AAz?$AA?9?$AAA?$AAZ?$AA?9?$AAC?$AAy?$AAr?$AAl?$AA?$AA@ 00000001800148c0     LIBCMT:winapinls.obj
 0001:000138d8       ??_C@_1M@KEJDAAHB@?$AAs?$AAe?$AA?9?$AAS?$AAE?$AA?$AA@ 00000001800148d8     LIBCMT:winapinls.obj
 0001:000138e8       ??_C@_1M@HEIBJJAD@?$AAm?$AAs?$AA?9?$AAB?$AAN?$AA?$AA@ 00000001800148e8     LIBCMT:winapinls.obj
 0001:000138f8       ??_C@_1BG@PBGJMCEM@?$AAu?$AAz?$AA?9?$AAU?$AAZ?$AA?9?$AAC?$AAy?$AAr?$AAl?$AA?$AA@ 00000001800148f8     LIBCMT:winapinls.obj
 0001:00013910       ??_C@_1O@LAOBCMDF@?$AAq?$AAu?$AAz?$AA?9?$AAE?$AAC?$AA?$AA@ 0000000180014910     LIBCMT:winapinls.obj
 0001:00013920       ??_C@_1M@POEEMAIO@?$AAa?$AAr?$AA?9?$AAE?$AAG?$AA?$AA@ 0000000180014920     LIBCMT:winapinls.obj
 0001:00013930       ??_C@_1M@EFAKDEDL@?$AAz?$AAh?$AA?9?$AAH?$AAK?$AA?$AA@ 0000000180014930     LIBCMT:winapinls.obj
 0001:00013940       ??_C@_1M@HKKIJHGI@?$AAd?$AAe?$AA?9?$AAA?$AAT?$AA?$AA@ 0000000180014940     LIBCMT:winapinls.obj
 0001:00013950       ??_C@_1M@KBFBEHJF@?$AAe?$AAn?$AA?9?$AAA?$AAU?$AA?$AA@ 0000000180014950     LIBCMT:winapinls.obj
 0001:00013960       ??_C@_1M@MNPLFAAH@?$AAe?$AAs?$AA?9?$AAE?$AAS?$AA?$AA@ 0000000180014960     LIBCMT:winapinls.obj
 0001:00013970       ??_C@_1M@HJOOJFMA@?$AAf?$AAr?$AA?9?$AAC?$AAA?$AA?$AA@ 0000000180014970     LIBCMT:winapinls.obj
 0001:00013980       ??_C@_1BG@JPOFPNAB@?$AAs?$AAr?$AA?9?$AAS?$AAP?$AA?9?$AAC?$AAy?$AAr?$AAl?$AA?$AA@ 0000000180014980     LIBCMT:winapinls.obj
 0001:00013998       ??_C@_1M@LNFOCMOB@?$AAs?$AAe?$AA?9?$AAF?$AAI?$AA?$AA@ 0000000180014998     LIBCMT:winapinls.obj
 0001:000139a8       ??_C@_1O@MGJBOAMB@?$AAq?$AAu?$AAz?$AA?9?$AAP?$AAE?$AA?$AA@ 00000001800149a8     LIBCMT:winapinls.obj
 0001:000139b8       ??_C@_1M@GJINLBOK@?$AAa?$AAr?$AA?9?$AAL?$AAY?$AA?$AA@ 00000001800149b8     LIBCMT:winapinls.obj
 0001:000139c8       ??_C@_1M@GGMNHJNL@?$AAz?$AAh?$AA?9?$AAS?$AAG?$AA?$AA@ 00000001800149c8     LIBCMT:winapinls.obj
 0001:000139d8       ??_C@_1M@HOIKODND@?$AAd?$AAe?$AA?9?$AAL?$AAU?$AA?$AA@ 00000001800149d8     LIBCMT:winapinls.obj
 0001:000139e8       ??_C@_1M@DDOCCGFG@?$AAe?$AAn?$AA?9?$AAC?$AAA?$AA?$AA@ 00000001800149e8     LIBCMT:winapinls.obj
 0001:000139f8       ??_C@_1M@BNOEMJLF@?$AAe?$AAs?$AA?9?$AAG?$AAT?$AA?$AA@ 00000001800149f8     LIBCMT:winapinls.obj
 0001:00013a08       ??_C@_1M@EOGNKEK@?$AAf?$AAr?$AA?9?$AAC?$AAH?$AA?$AA@ 0000000180014a08     LIBCMT:winapinls.obj
 0001:00013a18       ??_C@_1M@FLIDJFHL@?$AAh?$AAr?$AA?9?$AAB?$AAA?$AA?$AA@ 0000000180014a18     LIBCMT:winapinls.obj
 0001:00013a28       ??_C@_1O@FMCELNAJ@?$AAs?$AAm?$AAj?$AA?9?$AAN?$AAO?$AA?$AA@ 0000000180014a28     LIBCMT:winapinls.obj
 0001:00013a38       ??_C@_1M@JHGLJMGJ@?$AAa?$AAr?$AA?9?$AAD?$AAZ?$AA?$AA@ 0000000180014a38     LIBCMT:winapinls.obj
 0001:00013a48       ??_C@_1M@JKKFDCNP@?$AAz?$AAh?$AA?9?$AAM?$AAO?$AA?$AA@ 0000000180014a48     LIBCMT:winapinls.obj
 0001:00013a58       ??_C@_1M@GEEFALPE@?$AAd?$AAe?$AA?9?$AAL?$AAI?$AA?$AA@ 0000000180014a58     LIBCMT:winapinls.obj
 0001:00013a68       ??_C@_1M@IGEOFBG@?$AAe?$AAn?$AA?9?$AAN?$AAZ?$AA?$AA@ 0000000180014a68     LIBCMT:winapinls.obj
 0001:00013a78       ??_C@_1M@KDBONEHP@?$AAe?$AAs?$AA?9?$AAC?$AAR?$AA?$AA@ 0000000180014a78     LIBCMT:winapinls.obj
 0001:00013a88       ??_C@_1M@FHMDOHNN@?$AAf?$AAr?$AA?9?$AAL?$AAU?$AA?$AA@ 0000000180014a88     LIBCMT:winapinls.obj
 0001:00013a98       ??_C@_1BG@NFKKMAFG@?$AAb?$AAs?$AA?9?$AAB?$AAA?$AA?9?$AAL?$AAa?$AAt?$AAn?$AA?$AA@ 0000000180014a98     LIBCMT:winapinls.obj
 0001:00013ab0       ??_C@_1O@IMNBEMCI@?$AAs?$AAm?$AAj?$AA?9?$AAS?$AAE?$AA?$AA@ 0000000180014ab0     LIBCMT:winapinls.obj
 0001:00013ac0       ??_C@_1M@DHHMBNDP@?$AAa?$AAr?$AA?9?$AAM?$AAA?$AA?$AA@ 0000000180014ac0     LIBCMT:winapinls.obj
 0001:00013ad0       ??_C@_1M@BNBLJCGH@?$AAe?$AAn?$AA?9?$AAI?$AAE?$AA?$AA@ 0000000180014ad0     LIBCMT:winapinls.obj
 0001:00013ae0       ??_C@_1M@GEPAFMDL@?$AAe?$AAs?$AA?9?$AAP?$AAA?$AA?$AA@ 0000000180014ae0     LIBCMT:winapinls.obj
 0001:00013af0       ??_C@_1M@OJONDMDL@?$AAf?$AAr?$AA?9?$AAM?$AAC?$AA?$AA@ 0000000180014af0     LIBCMT:winapinls.obj
 0001:00013b00       ??_C@_1BG@OBCNFJB@?$AAs?$AAr?$AA?9?$AAB?$AAA?$AA?9?$AAL?$AAa?$AAt?$AAn?$AA?$AA@ 0000000180014b00     LIBCMT:winapinls.obj
 0001:00013b18       ??_C@_1O@KEMEEGPO@?$AAs?$AAm?$AAa?$AA?9?$AAN?$AAO?$AA?$AA@ 0000000180014b18     LIBCMT:winapinls.obj
 0001:00013b28       ??_C@_1M@ELMGFODK@?$AAa?$AAr?$AA?9?$AAT?$AAN?$AA?$AA@ 0000000180014b28     LIBCMT:winapinls.obj
 0001:00013b38       ??_C@_1M@BHDLHFAF@?$AAe?$AAn?$AA?9?$AAZ?$AAA?$AA?$AA@ 0000000180014b38     LIBCMT:winapinls.obj
 0001:00013b48       ??_C@_1M@BMGIGLIF@?$AAe?$AAs?$AA?9?$AAD?$AAO?$AA?$AA@ 0000000180014b48     LIBCMT:winapinls.obj
 0001:00013b58       ??_C@_1BG@CMBHIPBE@?$AAs?$AAr?$AA?9?$AAB?$AAA?$AA?9?$AAC?$AAy?$AAr?$AAl?$AA?$AA@ 0000000180014b58     LIBCMT:winapinls.obj
 0001:00013b70       ??_C@_1O@HEDBLHNP@?$AAs?$AAm?$AAa?$AA?9?$AAS?$AAE?$AA?$AA@ 0000000180014b70     LIBCMT:winapinls.obj
 0001:00013b80       ??_C@_1M@DAGCADIM@?$AAa?$AAr?$AA?9?$AAO?$AAM?$AA?$AA@ 0000000180014b80     LIBCMT:winapinls.obj
 0001:00013b90       ??_C@_1M@FODLMICG@?$AAe?$AAn?$AA?9?$AAJ?$AAM?$AA?$AA@ 0000000180014b90     LIBCMT:winapinls.obj
 0001:00013ba0       ??_C@_1M@DNMLCIHB@?$AAe?$AAs?$AA?9?$AAV?$AAE?$AA?$AA@ 0000000180014ba0     LIBCMT:winapinls.obj
 0001:00013bb0       ??_C@_1O@EOKHMKJK@?$AAs?$AAm?$AAs?$AA?9?$AAF?$AAI?$AA?$AA@ 0000000180014bb0     LIBCMT:winapinls.obj
 0001:00013bc0       ??_C@_1M@CAFJMKOF@?$AAa?$AAr?$AA?9?$AAY?$AAE?$AA?$AA@ 0000000180014bc0     LIBCMT:winapinls.obj
 0001:00013bd0       ??_C@_1M@CBFHIJLI@?$AAe?$AAn?$AA?9?$AAC?$AAB?$AA?$AA@ 0000000180014bd0     LIBCMT:winapinls.obj
 0001:00013be0       ??_C@_1M@BGNFLDN@?$AAe?$AAs?$AA?9?$AAC?$AAO?$AA?$AA@ 0000000180014be0     LIBCMT:winapinls.obj
 0001:00013bf0       ??_C@_1O@JMPHMAMC@?$AAs?$AAm?$AAn?$AA?9?$AAF?$AAI?$AA?$AA@ 0000000180014bf0     LIBCMT:winapinls.obj
 0001:00013c00       ??_C@_1M@JLANABKE@?$AAa?$AAr?$AA?9?$AAS?$AAY?$AA?$AA@ 0000000180014c00     LIBCMT:winapinls.obj
 0001:00013c10       ??_C@_1M@HPKGCFGN@?$AAe?$AAn?$AA?9?$AAB?$AAZ?$AA?$AA@ 0000000180014c10     LIBCMT:winapinls.obj
 0001:00013c20       ??_C@_1M@OLJCMLGM@?$AAe?$AAs?$AA?9?$AAP?$AAE?$AA?$AA@ 0000000180014c20     LIBCMT:winapinls.obj
 0001:00013c30       ??_C@_1M@MKKGFKLE@?$AAa?$AAr?$AA?9?$AAJ?$AAO?$AA?$AA@ 0000000180014c30     LIBCMT:winapinls.obj
 0001:00013c40       ??_C@_1M@EKPGLDNI@?$AAe?$AAn?$AA?9?$AAT?$AAT?$AA?$AA@ 0000000180014c40     LIBCMT:winapinls.obj
 0001:00013c50       ??_C@_1M@OONGHFHE@?$AAe?$AAs?$AA?9?$AAA?$AAR?$AA?$AA@ 0000000180014c50     LIBCMT:winapinls.obj
 0001:00013c60       ??_C@_1M@OOJFGBHE@?$AAa?$AAr?$AA?9?$AAL?$AAB?$AA?$AA@ 0000000180014c60     LIBCMT:winapinls.obj
 0001:00013c70       ??_C@_1M@GCEJHNEG@?$AAe?$AAn?$AA?9?$AAZ?$AAW?$AA?$AA@ 0000000180014c70     LIBCMT:winapinls.obj
 0001:00013c80       ??_C@_1M@JNOCAHJI@?$AAe?$AAs?$AA?9?$AAE?$AAC?$AA?$AA@ 0000000180014c80     LIBCMT:winapinls.obj
 0001:00013c90       ??_C@_1M@JEFHPGGB@?$AAa?$AAr?$AA?9?$AAK?$AAW?$AA?$AA@ 0000000180014c90     LIBCMT:winapinls.obj
 0001:00013ca0       ??_C@_1M@MLKIBJOJ@?$AAe?$AAn?$AA?9?$AAP?$AAH?$AA?$AA@ 0000000180014ca0     LIBCMT:winapinls.obj
 0001:00013cb0       ??_C@_1M@BDNIPEND@?$AAe?$AAs?$AA?9?$AAC?$AAL?$AA?$AA@ 0000000180014cb0     LIBCMT:winapinls.obj
 0001:00013cc0       ??_C@_1M@MPNMEKBD@?$AAa?$AAr?$AA?9?$AAA?$AAE?$AA?$AA@ 0000000180014cc0     LIBCMT:winapinls.obj
 0001:00013cd0       ??_C@_1M@KBJALCPI@?$AAe?$AAs?$AA?9?$AAU?$AAY?$AA?$AA@ 0000000180014cd0     LIBCMT:winapinls.obj
 0001:00013ce0       ??_C@_1M@LLCCOAGA@?$AAa?$AAr?$AA?9?$AAB?$AAH?$AA?$AA@ 0000000180014ce0     LIBCMT:winapinls.obj
 0001:00013cf0       ??_C@_1M@PBFNCDEL@?$AAe?$AAs?$AA?9?$AAP?$AAY?$AA?$AA@ 0000000180014cf0     LIBCMT:winapinls.obj
 0001:00013d00       ??_C@_1M@EDGINPNP@?$AAa?$AAr?$AA?9?$AAQ?$AAA?$AA?$AA@ 0000000180014d00     LIBCMT:winapinls.obj
 0001:00013d10       ??_C@_1M@MKDBIIJI@?$AAe?$AAs?$AA?9?$AAB?$AAO?$AA?$AA@ 0000000180014d10     LIBCMT:winapinls.obj
 0001:00013d20       ??_C@_1M@CPKKEBLD@?$AAe?$AAs?$AA?9?$AAS?$AAV?$AA?$AA@ 0000000180014d20     LIBCMT:winapinls.obj
 0001:00013d30       ??_C@_1M@NDBGMMJL@?$AAe?$AAs?$AA?9?$AAH?$AAN?$AA?$AA@ 0000000180014d30     LIBCMT:winapinls.obj
 0001:00013d40       ??_C@_1M@JIJIBHDP@?$AAe?$AAs?$AA?9?$AAN?$AAI?$AA?$AA@ 0000000180014d40     LIBCMT:winapinls.obj
 0001:00013d50       ??_C@_1M@CGFMKEEK@?$AAe?$AAs?$AA?9?$AAP?$AAR?$AA?$AA@ 0000000180014d50     LIBCMT:winapinls.obj
 0001:00013d60       ??_C@_1O@ICJHKIIK@?$AAz?$AAh?$AA?9?$AAC?$AAH?$AAT?$AA?$AA@ 0000000180014d60     LIBCMT:winapinls.obj
 0001:00013d70       ??_C@_15CLNEJCE@?$AAs?$AAr?$AA?$AA@ 0000000180014d70     LIBCMT:winapinls.obj
 0001:00013d80       LocaleNameToIndexTable     0000000180014d80     LIBCMT:winapinls.obj
 0001:00014bc0       LcidToLocaleNameTable      0000000180015bc0     LIBCMT:winapinls.obj
 0001:00015a00       ??_C@_1M@KAHEKEIG@?$AAa?$AAf?$AA?9?$AAz?$AAa?$AA?$AA@ 0000000180016a00     LIBCMT:winapinls.obj
 0001:00015a10       ??_C@_1M@GIECOABL@?$AAa?$AAr?$AA?9?$AAa?$AAe?$AA?$AA@ 0000000180016a10     LIBCMT:winapinls.obj
 0001:00015a20       ??_C@_1M@BMLMEKGI@?$AAa?$AAr?$AA?9?$AAb?$AAh?$AA?$AA@ 0000000180016a20     LIBCMT:winapinls.obj
 0001:00015a30       ??_C@_1M@DAPFDGGB@?$AAa?$AAr?$AA?9?$AAd?$AAz?$AA?$AA@ 0000000180016a30     LIBCMT:winapinls.obj
 0001:00015a40       ??_C@_1M@FJNKGKIG@?$AAa?$AAr?$AA?9?$AAe?$AAg?$AA?$AA@ 0000000180016a40     LIBCMT:winapinls.obj
 0001:00015a50       ??_C@_1M@FLGKKCLO@?$AAa?$AAr?$AA?9?$AAi?$AAq?$AA?$AA@ 0000000180016a50     LIBCMT:winapinls.obj
 0001:00015a60       ??_C@_1M@GNDIPALM@?$AAa?$AAr?$AA?9?$AAj?$AAo?$AA?$AA@ 0000000180016a60     LIBCMT:winapinls.obj
 0001:00015a70       ??_C@_1M@DDMJFMGJ@?$AAa?$AAr?$AA?9?$AAk?$AAw?$AA?$AA@ 0000000180016a70     LIBCMT:winapinls.obj
 0001:00015a80       ??_C@_1M@EJALMLHM@?$AAa?$AAr?$AA?9?$AAl?$AAb?$AA?$AA@ 0000000180016a80     LIBCMT:winapinls.obj
 0001:00015a90       ??_C@_1M@MOBDBLOC@?$AAa?$AAr?$AA?9?$AAl?$AAy?$AA?$AA@ 0000000180016a90     LIBCMT:winapinls.obj
 0001:00015aa0       ??_C@_1M@JAOCLHDH@?$AAa?$AAr?$AA?9?$AAm?$AAa?$AA?$AA@ 0000000180016aa0     LIBCMT:winapinls.obj
 0001:00015ab0       ??_C@_1M@JHPMKJIE@?$AAa?$AAr?$AA?9?$AAo?$AAm?$AA?$AA@ 0000000180016ab0     LIBCMT:winapinls.obj
 0001:00015ac0       ??_C@_1M@OEPGHFNH@?$AAa?$AAr?$AA?9?$AAq?$AAa?$AA?$AA@ 0000000180016ac0     LIBCMT:winapinls.obj
 0001:00015ad0       ??_C@_1M@KJDONENM@?$AAa?$AAr?$AA?9?$AAs?$AAa?$AA?$AA@ 0000000180016ad0     LIBCMT:winapinls.obj
 0001:00015ae0       ??_C@_1M@DMJDKLKM@?$AAa?$AAr?$AA?9?$AAs?$AAy?$AA?$AA@ 0000000180016ae0     LIBCMT:winapinls.obj
 0001:00015af0       ??_C@_1M@OMFIPEDC@?$AAa?$AAr?$AA?9?$AAt?$AAn?$AA?$AA@ 0000000180016af0     LIBCMT:winapinls.obj
 0001:00015b00       ??_C@_1M@IHMHGAON@?$AAa?$AAr?$AA?9?$AAy?$AAe?$AA?$AA@ 0000000180016b00     LIBCMT:winapinls.obj
 0001:00015b10       ??_C@_1BG@KDCPGJGB@?$AAa?$AAz?$AA?9?$AAa?$AAz?$AA?9?$AAc?$AAy?$AAr?$AAl?$AA?$AA@ 0000000180016b10     LIBCMT:winapinls.obj
 0001:00015b28       ??_C@_1BG@IBCKDDOE@?$AAa?$AAz?$AA?9?$AAa?$AAz?$AA?9?$AAl?$AAa?$AAt?$AAn?$AA?$AA@ 0000000180016b28     LIBCMT:winapinls.obj
 0001:00015b40       ??_C@_1M@EGPFDCPD@?$AAb?$AAe?$AA?9?$AAb?$AAy?$AA?$AA@ 0000000180016b40     LIBCMT:winapinls.obj
 0001:00015b50       ??_C@_1M@PCMGMCGC@?$AAb?$AAg?$AA?9?$AAb?$AAg?$AA?$AA@ 0000000180016b50     LIBCMT:winapinls.obj
 0001:00015b60       ??_C@_1M@BJBMFGOB@?$AAb?$AAn?$AA?9?$AAi?$AAn?$AA?$AA@ 0000000180016b60     LIBCMT:winapinls.obj
 0001:00015b70       ??_C@_1BG@EAKMMACD@?$AAb?$AAs?$AA?9?$AAb?$AAa?$AA?9?$AAl?$AAa?$AAt?$AAn?$AA?$AA@ 0000000180016b70     LIBCMT:winapinls.obj
 0001:00015b88       ??_C@_1M@KGADAODK@?$AAc?$AAa?$AA?9?$AAe?$AAs?$AA?$AA@ 0000000180016b88     LIBCMT:winapinls.obj
 0001:00015b98       ??_C@_1M@COAJPDHI@?$AAc?$AAs?$AA?9?$AAc?$AAz?$AA?$AA@ 0000000180016b98     LIBCMT:winapinls.obj
 0001:00015ba8       ??_C@_1M@DHBHFONH@?$AAc?$AAy?$AA?9?$AAg?$AAb?$AA?$AA@ 0000000180016ba8     LIBCMT:winapinls.obj
 0001:00015bb8       ??_C@_1M@IMGKELGA@?$AAd?$AAa?$AA?9?$AAd?$AAk?$AA?$AA@ 0000000180016bb8     LIBCMT:winapinls.obj
 0001:00015bc8       ??_C@_1M@NNDGDNGA@?$AAd?$AAe?$AA?9?$AAa?$AAt?$AA?$AA@ 0000000180016bc8     LIBCMT:winapinls.obj
 0001:00015bd8       ??_C@_1M@IKDBHEEM@?$AAd?$AAe?$AA?9?$AAc?$AAh?$AA?$AA@ 0000000180016bd8     LIBCMT:winapinls.obj
 0001:00015be8       ??_C@_1M@GFFOJMCJ@?$AAd?$AAe?$AA?9?$AAd?$AAe?$AA?$AA@ 0000000180016be8     LIBCMT:winapinls.obj
 0001:00015bf8       ??_C@_1M@MDNLKBPM@?$AAd?$AAe?$AA?9?$AAl?$AAi?$AA?$AA@ 0000000180016bf8     LIBCMT:winapinls.obj
 0001:00015c08       ??_C@_1M@NJBEEJNL@?$AAd?$AAe?$AA?9?$AAl?$AAu?$AA?$AA@ 0000000180016c08     LIBCMT:winapinls.obj
 0001:00015c18       ??_C@_1O@GNNELBAP@?$AAd?$AAi?$AAv?$AA?9?$AAm?$AAv?$AA?$AA@ 0000000180016c18     LIBCMT:winapinls.obj
 0001:00015c28       ??_C@_1M@EJLEOGAE@?$AAe?$AAl?$AA?9?$AAg?$AAr?$AA?$AA@ 0000000180016c28     LIBCMT:winapinls.obj
 0001:00015c38       ??_C@_1M@GMPONJN@?$AAe?$AAn?$AA?9?$AAa?$AAu?$AA?$AA@ 0000000180016c38     LIBCMT:winapinls.obj
 0001:00015c48       ??_C@_1M@NIDIIPGF@?$AAe?$AAn?$AA?9?$AAb?$AAz?$AA?$AA@ 0000000180016c48     LIBCMT:winapinls.obj
 0001:00015c58       ??_C@_1M@JEHMIMFO@?$AAe?$AAn?$AA?9?$AAc?$AAa?$AA?$AA@ 0000000180016c58     LIBCMT:winapinls.obj
 0001:00015c68       ??_C@_1M@IGMJCDLA@?$AAe?$AAn?$AA?9?$AAc?$AAb?$AA?$AA@ 0000000180016c68     LIBCMT:winapinls.obj
 0001:00015c78       ??_C@_1M@BNFIGBKG@?$AAe?$AAn?$AA?9?$AAg?$AAb?$AA?$AA@ 0000000180016c78     LIBCMT:winapinls.obj
 0001:00015c88       ??_C@_1M@LKIFDIGP@?$AAe?$AAn?$AA?9?$AAi?$AAe?$AA?$AA@ 0000000180016c88     LIBCMT:winapinls.obj
 0001:00015c98       ??_C@_1M@PJKFGCCO@?$AAe?$AAn?$AA?9?$AAj?$AAm?$AA?$AA@ 0000000180016c98     LIBCMT:winapinls.obj
 0001:00015ca8       ??_C@_1M@KPPKEPBO@?$AAe?$AAn?$AA?9?$AAn?$AAz?$AA?$AA@ 0000000180016ca8     LIBCMT:winapinls.obj
 0001:00015cb8       ??_C@_1M@GMDGLDOB@?$AAe?$AAn?$AA?9?$AAp?$AAh?$AA?$AA@ 0000000180016cb8     LIBCMT:winapinls.obj
 0001:00015cc8       ??_C@_1M@ONGIBJNA@?$AAe?$AAn?$AA?9?$AAt?$AAt?$AA?$AA@ 0000000180016cc8     LIBCMT:winapinls.obj
 0001:00015cd8       ??_C@_1M@LLODPCMM@?$AAe?$AAn?$AA?9?$AAu?$AAs?$AA?$AA@ 0000000180016cd8     LIBCMT:winapinls.obj
 0001:00015ce8       ??_C@_1M@LAKFNPAN@?$AAe?$AAn?$AA?9?$AAz?$AAa?$AA?$AA@ 0000000180016ce8     LIBCMT:winapinls.obj
 0001:00015cf8       ??_C@_1M@MFNHNHEO@?$AAe?$AAn?$AA?9?$AAz?$AAw?$AA?$AA@ 0000000180016cf8     LIBCMT:winapinls.obj
 0001:00015d08       ??_C@_1M@EJEINPHM@?$AAe?$AAs?$AA?9?$AAa?$AAr?$AA?$AA@ 0000000180016d08     LIBCMT:winapinls.obj
 0001:00015d18       ??_C@_1M@GNKPCCJA@?$AAe?$AAs?$AA?9?$AAb?$AAo?$AA?$AA@ 0000000180016d18     LIBCMT:winapinls.obj
 0001:00015d28       ??_C@_1M@LEEGFONL@?$AAe?$AAs?$AA?9?$AAc?$AAl?$AA?$AA@ 0000000180016d28     LIBCMT:winapinls.obj
 0001:00015d38       ??_C@_1M@KGPDPBDF@?$AAe?$AAs?$AA?9?$AAc?$AAo?$AA?$AA@ 0000000180016d38     LIBCMT:winapinls.obj
 0001:00015d48       ??_C@_1M@EIAHOHH@?$AAe?$AAs?$AA?9?$AAc?$AAr?$AA?$AA@ 0000000180016d48     LIBCMT:winapinls.obj
 0001:00015d58       ??_C@_1M@LLPGMBIN@?$AAe?$AAs?$AA?9?$AAd?$AAo?$AA?$AA@ 0000000180016d58     LIBCMT:winapinls.obj
 0001:00015d68       ??_C@_1M@DKHMKNJA@?$AAe?$AAs?$AA?9?$AAe?$AAc?$AA?$AA@ 0000000180016d68     LIBCMT:winapinls.obj
 0001:00015d78       ??_C@_1M@GKGFPKAP@?$AAe?$AAs?$AA?9?$AAe?$AAs?$AA?$AA@ 0000000180016d78     LIBCMT:winapinls.obj
 0001:00015d88       ??_C@_1M@LKHKGDLN@?$AAe?$AAs?$AA?9?$AAg?$AAt?$AA?$AA@ 0000000180016d88     LIBCMT:winapinls.obj
 0001:00015d98       ??_C@_1M@HEIIGGJD@?$AAe?$AAs?$AA?9?$AAh?$AAn?$AA?$AA@ 0000000180016d98     LIBCMT:winapinls.obj
 0001:00015da8       ??_C@_1M@FBDHPPGD@?$AAe?$AAs?$AA?9?$AAm?$AAx?$AA?$AA@ 0000000180016da8     LIBCMT:winapinls.obj
 0001:00015db8       ??_C@_1M@DPAGLNDH@?$AAe?$AAs?$AA?9?$AAn?$AAi?$AA?$AA@ 0000000180016db8     LIBCMT:winapinls.obj
 0001:00015dc8       ??_C@_1M@MDGOPGDD@?$AAe?$AAs?$AA?9?$AAp?$AAa?$AA?$AA@ 0000000180016dc8     LIBCMT:winapinls.obj
 0001:00015dd8       ??_C@_1M@EMAMGBGE@?$AAe?$AAs?$AA?9?$AAp?$AAe?$AA?$AA@ 0000000180016dd8     LIBCMT:winapinls.obj
 0001:00015de8       ??_C@_1M@IBMCAOEC@?$AAe?$AAs?$AA?9?$AAp?$AAr?$AA?$AA@ 0000000180016de8     LIBCMT:winapinls.obj
 0001:00015df8       ??_C@_1M@FGMDIJED@?$AAe?$AAs?$AA?9?$AAp?$AAy?$AA?$AA@ 0000000180016df8     LIBCMT:winapinls.obj
 0001:00015e08       ??_C@_1M@IIDEOLLL@?$AAe?$AAs?$AA?9?$AAs?$AAv?$AA?$AA@ 0000000180016e08     LIBCMT:winapinls.obj
 0001:00015e18       ??_C@_1M@GAOBIPA@?$AAe?$AAs?$AA?9?$AAu?$AAy?$AA?$AA@ 0000000180016e18     LIBCMT:winapinls.obj
 0001:00015e28       ??_C@_1M@JKFFICHJ@?$AAe?$AAs?$AA?9?$AAv?$AAe?$AA?$AA@ 0000000180016e28     LIBCMT:winapinls.obj
 0001:00015e38       ??_C@_1M@PNMLOJDF@?$AAe?$AAt?$AA?9?$AAe?$AAe?$AA?$AA@ 0000000180016e38     LIBCMT:winapinls.obj
 0001:00015e48       ??_C@_1M@GHHLIKEI@?$AAe?$AAu?$AA?9?$AAe?$AAs?$AA?$AA@ 0000000180016e48     LIBCMT:winapinls.obj
 0001:00015e58       ??_C@_1M@PBNONODE@?$AAf?$AAa?$AA?9?$AAi?$AAr?$AA?$AA@ 0000000180016e58     LIBCMT:winapinls.obj
 0001:00015e68       ??_C@_1M@JEEHPMIL@?$AAf?$AAi?$AA?9?$AAf?$AAi?$AA?$AA@ 0000000180016e68     LIBCMT:winapinls.obj
 0001:00015e78       ??_C@_1M@LMDCNDBA@?$AAf?$AAo?$AA?9?$AAf?$AAo?$AA?$AA@ 0000000180016e78     LIBCMT:winapinls.obj
 0001:00015e88       ??_C@_1M@JKEOHLDK@?$AAf?$AAr?$AA?9?$AAb?$AAe?$AA?$AA@ 0000000180016e88     LIBCMT:winapinls.obj
 0001:00015e98       ??_C@_1M@NOHADPMI@?$AAf?$AAr?$AA?9?$AAc?$AAa?$AA?$AA@ 0000000180016e98     LIBCMT:winapinls.obj
 0001:00015ea8       ??_C@_1M@KDHIHAEC@?$AAf?$AAr?$AA?9?$AAc?$AAh?$AA?$AA@ 0000000180016ea8     LIBCMT:winapinls.obj
 0001:00015eb8       ??_C@_1M@MMBBFGAK@?$AAf?$AAr?$AA?9?$AAf?$AAr?$AA?$AA@ 0000000180016eb8     LIBCMT:winapinls.obj
 0001:00015ec8       ??_C@_1M@PAFNENNF@?$AAf?$AAr?$AA?9?$AAl?$AAu?$AA?$AA@ 0000000180016ec8     LIBCMT:winapinls.obj
 0001:00015ed8       ??_C@_1M@EOHDJGDD@?$AAf?$AAr?$AA?9?$AAm?$AAc?$AA?$AA@ 0000000180016ed8     LIBCMT:winapinls.obj
 0001:00015ee8       ??_C@_1M@FAPLLOPF@?$AAg?$AAl?$AA?9?$AAe?$AAs?$AA?$AA@ 0000000180016ee8     LIBCMT:winapinls.obj
 0001:00015ef8       ??_C@_1M@FOPBFLOO@?$AAg?$AAu?$AA?9?$AAi?$AAn?$AA?$AA@ 0000000180016ef8     LIBCMT:winapinls.obj
 0001:00015f08       ??_C@_1M@KBMCINPM@?$AAh?$AAe?$AA?9?$AAi?$AAl?$AA?$AA@ 0000000180016f08     LIBCMT:winapinls.obj
 0001:00015f18       ??_C@_1M@BBPHKFPJ@?$AAh?$AAi?$AA?9?$AAi?$AAn?$AA?$AA@ 0000000180016f18     LIBCMT:winapinls.obj
 0001:00015f28       ??_C@_1M@PMBNDPHD@?$AAh?$AAr?$AA?9?$AAb?$AAa?$AA?$AA@ 0000000180016f28     LIBCMT:winapinls.obj
 0001:00015f38       ??_C@_1M@BPCKOEGE@?$AAh?$AAr?$AA?9?$AAh?$AAr?$AA?$AA@ 0000000180016f38     LIBCMT:winapinls.obj
 0001:00015f48       ??_C@_1M@GACBMHKE@?$AAh?$AAu?$AA?9?$AAh?$AAu?$AA?$AA@ 0000000180016f48     LIBCMT:winapinls.obj
 0001:00015f58       ??_C@_1M@MILPAJJC@?$AAh?$AAy?$AA?9?$AAa?$AAm?$AA?$AA@ 0000000180016f58     LIBCMT:winapinls.obj
 0001:00015f68       ??_C@_1M@BABBICEC@?$AAi?$AAd?$AA?9?$AAi?$AAd?$AA?$AA@ 0000000180016f68     LIBCMT:winapinls.obj
 0001:00015f78       ??_C@_1M@BIKNHHPF@?$AAi?$AAs?$AA?9?$AAi?$AAs?$AA?$AA@ 0000000180016f78     LIBCMT:winapinls.obj
 0001:00015f88       ??_C@_1M@NMPCJPHE@?$AAi?$AAt?$AA?9?$AAc?$AAh?$AA?$AA@ 0000000180016f88     LIBCMT:winapinls.obj
 0001:00015f98       ??_C@_1M@GHKGFEDF@?$AAi?$AAt?$AA?9?$AAi?$AAt?$AA?$AA@ 0000000180016f98     LIBCMT:winapinls.obj
 0001:00015fa8       ??_C@_1M@NIEJCJJA@?$AAj?$AAa?$AA?9?$AAj?$AAp?$AA?$AA@ 0000000180016fa8     LIBCMT:winapinls.obj
 0001:00015fb8       ??_C@_1M@JILFNBIM@?$AAk?$AAa?$AA?9?$AAg?$AAe?$AA?$AA@ 0000000180016fb8     LIBCMT:winapinls.obj
 0001:00015fc8       ??_C@_1M@PACPMGPH@?$AAk?$AAk?$AA?9?$AAk?$AAz?$AA?$AA@ 0000000180016fc8     LIBCMT:winapinls.obj
 0001:00015fd8       ??_C@_1M@IELFGMHA@?$AAk?$AAn?$AA?9?$AAi?$AAn?$AA?$AA@ 0000000180016fd8     LIBCMT:winapinls.obj
 0001:00015fe8       ??_C@_1O@IBBJHCH@?$AAk?$AAo?$AAk?$AA?9?$AAi?$AAn?$AA?$AA@ 0000000180016fe8     LIBCMT:winapinls.obj
 0001:00015ff8       ??_C@_1M@DMHAEOGC@?$AAk?$AAo?$AA?9?$AAk?$AAr?$AA?$AA@ 0000000180016ff8     LIBCMT:winapinls.obj
 0001:00016008       ??_C@_1M@HBAHBIGA@?$AAk?$AAy?$AA?9?$AAk?$AAg?$AA?$AA@ 0000000180017008     LIBCMT:winapinls.obj
 0001:00016018       ??_C@_1M@KPMILCJG@?$AAl?$AAt?$AA?9?$AAl?$AAt?$AA?$AA@ 0000000180017018     LIBCMT:winapinls.obj
 0001:00016028       ??_C@_1M@BDEKKCA@?$AAl?$AAv?$AA?9?$AAl?$AAv?$AA?$AA@ 0000000180017028     LIBCMT:winapinls.obj
 0001:00016038       ??_C@_1M@ELCKCCJJ@?$AAm?$AAi?$AA?9?$AAn?$AAz?$AA?$AA@ 0000000180017038     LIBCMT:winapinls.obj
 0001:00016048       ??_C@_1M@CBOOLAPA@?$AAm?$AAk?$AA?9?$AAm?$AAk?$AA?$AA@ 0000000180017048     LIBCMT:winapinls.obj
 0001:00016058       ??_C@_1M@GPHNBJKN@?$AAm?$AAl?$AA?9?$AAi?$AAn?$AA?$AA@ 0000000180017058     LIBCMT:winapinls.obj
 0001:00016068       ??_C@_1M@PABJILIG@?$AAm?$AAn?$AA?9?$AAm?$AAn?$AA?$AA@ 0000000180017068     LIBCMT:winapinls.obj
 0001:00016078       ??_C@_1M@FGBKKIPG@?$AAm?$AAr?$AA?9?$AAi?$AAn?$AA?$AA@ 0000000180017078     LIBCMT:winapinls.obj
 0001:00016088       ??_C@_1M@NDBPDDAL@?$AAm?$AAs?$AA?9?$AAb?$AAn?$AA?$AA@ 0000000180017088     LIBCMT:winapinls.obj
 0001:00016098       ??_C@_1M@OPIHOOPI@?$AAm?$AAs?$AA?9?$AAm?$AAy?$AA?$AA@ 0000000180017098     LIBCMT:winapinls.obj
 0001:000160a8       ??_C@_1M@PPDBCNFM@?$AAm?$AAt?$AA?9?$AAm?$AAt?$AA?$AA@ 00000001800170a8     LIBCMT:winapinls.obj
 0001:000160b8       ??_C@_1M@KDJDKMDD@?$AAn?$AAb?$AA?9?$AAn?$AAo?$AA?$AA@ 00000001800170b8     LIBCMT:winapinls.obj
 0001:000160c8       ??_C@_1M@KFCFLMJP@?$AAn?$AAl?$AA?9?$AAb?$AAe?$AA?$AA@ 00000001800170c8     LIBCMT:winapinls.obj
 0001:000160d8       ??_C@_1M@KPOPDDGO@?$AAn?$AAl?$AA?9?$AAn?$AAl?$AA?$AA@ 00000001800170d8     LIBCMT:winapinls.obj
 0001:000160e8       ??_C@_1M@LJKPEMLN@?$AAn?$AAn?$AA?9?$AAn?$AAo?$AA?$AA@ 00000001800170e8     LIBCMT:winapinls.obj
 0001:000160f8       ??_C@_1M@BDGHHBFL@?$AAn?$AAs?$AA?9?$AAz?$AAa?$AA?$AA@ 00000001800170f8     LIBCMT:winapinls.obj
 0001:00016108       ??_C@_1M@IDEHOAP@?$AAp?$AAa?$AA?9?$AAi?$AAn?$AA?$AA@ 0000000180017108     LIBCMT:winapinls.obj
 0001:00016118       ??_C@_1M@HDBKGOGH@?$AAp?$AAl?$AA?9?$AAp?$AAl?$AA?$AA@ 0000000180017118     LIBCMT:winapinls.obj
 0001:00016128       ??_C@_1M@LJLLCMEH@?$AAp?$AAt?$AA?9?$AAb?$AAr?$AA?$AA@ 0000000180017128     LIBCMT:winapinls.obj
 0001:00016138       ??_C@_1M@NCMONAAL@?$AAp?$AAt?$AA?9?$AAp?$AAt?$AA?$AA@ 0000000180017138     LIBCMT:winapinls.obj
 0001:00016148       ??_C@_1O@EAKMAJDN@?$AAq?$AAu?$AAz?$AA?9?$AAb?$AAo?$AA?$AA@ 0000000180017148     LIBCMT:winapinls.obj
 0001:00016158       ??_C@_1O@BHHPIGDN@?$AAq?$AAu?$AAz?$AA?9?$AAe?$AAc?$AA?$AA@ 0000000180017158     LIBCMT:winapinls.obj
 0001:00016168       ??_C@_1O@GBAPEKMJ@?$AAq?$AAu?$AAz?$AA?9?$AAp?$AAe?$AA?$AA@ 0000000180017168     LIBCMT:winapinls.obj
 0001:00016178       ??_C@_1M@CLGLEFBO@?$AAr?$AAo?$AA?9?$AAr?$AAo?$AA?$AA@ 0000000180017178     LIBCMT:winapinls.obj
 0001:00016188       ??_C@_1M@CEEDODME@?$AAr?$AAu?$AA?9?$AAr?$AAu?$AA?$AA@ 0000000180017188     LIBCMT:winapinls.obj
 0001:00016198       ??_C@_1M@HPKKKMPP@?$AAs?$AAa?$AA?9?$AAi?$AAn?$AA?$AA@ 0000000180017198     LIBCMT:winapinls.obj
 0001:000161a8       ??_C@_1M@BKMAIGOJ@?$AAs?$AAe?$AA?9?$AAf?$AAi?$AA?$AA@ 00000001800171a8     LIBCMT:winapinls.obj
 0001:000161b8       ??_C@_1M@NDPIFLFI@?$AAs?$AAe?$AA?9?$AAn?$AAo?$AA?$AA@ 00000001800171b8     LIBCMT:winapinls.obj
 0001:000161c8       ??_C@_1M@DANKKHJ@?$AAs?$AAe?$AA?9?$AAs?$AAe?$AA?$AA@ 00000001800171c8     LIBCMT:winapinls.obj
 0001:000161d8       ??_C@_1M@PNBLONPJ@?$AAs?$AAk?$AA?9?$AAs?$AAk?$AA?$AA@ 00000001800171d8     LIBCMT:winapinls.obj
 0001:000161e8       ??_C@_1M@LFMODOAL@?$AAs?$AAl?$AA?9?$AAs?$AAi?$AA?$AA@ 00000001800171e8     LIBCMT:winapinls.obj
 0001:000161f8       ??_C@_1O@DFKOMPG@?$AAs?$AAm?$AAa?$AA?9?$AAn?$AAo?$AA?$AA@ 00000001800171f8     LIBCMT:winapinls.obj
 0001:00016208       ??_C@_1O@NDKPBNNH@?$AAs?$AAm?$AAa?$AA?9?$AAs?$AAe?$AA?$AA@ 0000000180017208     LIBCMT:winapinls.obj
 0001:00016218       ??_C@_1O@PLLKBHAB@?$AAs?$AAm?$AAj?$AA?9?$AAn?$AAo?$AA?$AA@ 0000000180017218     LIBCMT:winapinls.obj
 0001:00016228       ??_C@_1O@CLEPOGCA@?$AAs?$AAm?$AAj?$AA?9?$AAs?$AAe?$AA?$AA@ 0000000180017228     LIBCMT:winapinls.obj
 0001:00016238       ??_C@_1O@DLGJGKMK@?$AAs?$AAm?$AAn?$AA?9?$AAf?$AAi?$AA?$AA@ 0000000180017238     LIBCMT:winapinls.obj
 0001:00016248       ??_C@_1O@OJDJGAJC@?$AAs?$AAm?$AAs?$AA?9?$AAf?$AAi?$AA?$AA@ 0000000180017248     LIBCMT:winapinls.obj
 0001:00016258       ??_C@_1M@BOFOGHPB@?$AAs?$AAq?$AA?9?$AAa?$AAl?$AA?$AA@ 0000000180017258     LIBCMT:winapinls.obj
 0001:00016268       ??_C@_1BG@LJBBIPGB@?$AAs?$AAr?$AA?9?$AAb?$AAa?$AA?9?$AAc?$AAy?$AAr?$AAl?$AA?$AA@ 0000000180017268     LIBCMT:winapinls.obj
 0001:00016280       ??_C@_1BG@JLBENFOE@?$AAs?$AAr?$AA?9?$AAb?$AAa?$AA?9?$AAl?$AAa?$AAt?$AAn?$AA?$AA@ 0000000180017280     LIBCMT:winapinls.obj
 0001:00016298       ??_C@_1BG@KODPNHE@?$AAs?$AAr?$AA?9?$AAs?$AAp?$AA?9?$AAc?$AAy?$AAr?$AAl?$AA?$AA@ 0000000180017298     LIBCMT:winapinls.obj
 0001:000162b0       ??_C@_1BG@CIOGKHPB@?$AAs?$AAr?$AA?9?$AAs?$AAp?$AA?9?$AAl?$AAa?$AAt?$AAn?$AA?$AA@ 00000001800172b0     LIBCMT:winapinls.obj
 0001:000162c8       ??_C@_1M@NGFJLMAC@?$AAs?$AAv?$AA?9?$AAf?$AAi?$AA?$AA@ 00000001800172c8     LIBCMT:winapinls.obj
 0001:000162d8       ??_C@_1M@MPJEJAJC@?$AAs?$AAv?$AA?9?$AAs?$AAe?$AA?$AA@ 00000001800172d8     LIBCMT:winapinls.obj
 0001:000162e8       ??_C@_1M@MPNDHLFK@?$AAs?$AAw?$AA?9?$AAk?$AAe?$AA?$AA@ 00000001800172e8     LIBCMT:winapinls.obj
 0001:000162f8       ??_C@_1O@KOHBJJI@?$AAs?$AAy?$AAr?$AA?9?$AAs?$AAy?$AA?$AA@ 00000001800172f8     LIBCMT:winapinls.obj
 0001:00016308       ??_C@_1M@LDCEFHA@?$AAt?$AAa?$AA?9?$AAi?$AAn?$AA?$AA@ 0000000180017308     LIBCMT:winapinls.obj
 0001:00016318       ??_C@_1M@CNJOFAK@?$AAt?$AAe?$AA?9?$AAi?$AAn?$AA?$AA@ 0000000180017318     LIBCMT:winapinls.obj
 0001:00016328       ??_C@_1M@GNAECACD@?$AAt?$AAh?$AA?9?$AAt?$AAh?$AA?$AA@ 0000000180017328     LIBCMT:winapinls.obj
 0001:00016338       ??_C@_1M@CHBIHOJO@?$AAt?$AAn?$AA?9?$AAz?$AAa?$AA?$AA@ 0000000180017338     LIBCMT:winapinls.obj
 0001:00016348       ??_C@_1M@GCCMIGPJ@?$AAt?$AAr?$AA?9?$AAt?$AAr?$AA?$AA@ 0000000180017348     LIBCMT:winapinls.obj
 0001:00016358       ??_C@_1M@CELMCNBK@?$AAt?$AAt?$AA?9?$AAr?$AAu?$AA?$AA@ 0000000180017358     LIBCMT:winapinls.obj
 0001:00016368       ??_C@_1M@KLMCELGA@?$AAu?$AAk?$AA?9?$AAu?$AAa?$AA?$AA@ 0000000180017368     LIBCMT:winapinls.obj
 0001:00016378       ??_C@_1M@EPAJJAJF@?$AAu?$AAr?$AA?9?$AAp?$AAk?$AA?$AA@ 0000000180017378     LIBCMT:winapinls.obj
 0001:00016388       ??_C@_1BG@GEGPMCDJ@?$AAu?$AAz?$AA?9?$AAu?$AAz?$AA?9?$AAc?$AAy?$AAr?$AAl?$AA?$AA@ 0000000180017388     LIBCMT:winapinls.obj
 0001:000163a0       ??_C@_1BG@EGGKJILM@?$AAu?$AAz?$AA?9?$AAu?$AAz?$AA?9?$AAl?$AAa?$AAt?$AAn?$AA?$AA@ 00000001800173a0     LIBCMT:winapinls.obj
 0001:000163b8       ??_C@_1M@GFOCLFF@?$AAv?$AAi?$AA?9?$AAv?$AAn?$AA?$AA@ 00000001800173b8     LIBCMT:winapinls.obj
 0001:000163c8       ??_C@_1M@CPAMEDFI@?$AAx?$AAh?$AA?9?$AAz?$AAa?$AA?$AA@ 00000001800173c8     LIBCMT:winapinls.obj
 0001:000163d8       ??_C@_1O@EBKIFIGN@?$AAz?$AAh?$AA?9?$AAc?$AAh?$AAs?$AA?$AA@ 00000001800173d8     LIBCMT:winapinls.obj
 0001:000163e8       ??_C@_1O@NMHPGANE@?$AAz?$AAh?$AA?9?$AAc?$AAh?$AAt?$AA?$AA@ 00000001800173e8     LIBCMT:winapinls.obj
 0001:000163f8       ??_C@_1M@LPINJOMC@?$AAz?$AAh?$AA?9?$AAc?$AAn?$AA?$AA@ 00000001800173f8     LIBCMT:winapinls.obj
 0001:00016408       ??_C@_1M@OCJEJODD@?$AAz?$AAh?$AA?9?$AAh?$AAk?$AA?$AA@ 0000000180017408     LIBCMT:winapinls.obj
 0001:00016418       ??_C@_1M@DNDLJINH@?$AAz?$AAh?$AA?9?$AAm?$AAo?$AA?$AA@ 0000000180017418     LIBCMT:winapinls.obj
 0001:00016428       ??_C@_1M@MBFDNDND@?$AAz?$AAh?$AA?9?$AAs?$AAg?$AA?$AA@ 0000000180017428     LIBCMT:winapinls.obj
 0001:00016438       ??_C@_1M@IMEPLEPE@?$AAz?$AAh?$AA?9?$AAt?$AAw?$AA?$AA@ 0000000180017438     LIBCMT:winapinls.obj
 0001:00016448       ??_C@_1M@BBGHNHJP@?$AAz?$AAu?$AA?9?$AAz?$AAa?$AA?$AA@ 0000000180017448     LIBCMT:winapinls.obj
 0001:00016454       ??_C@_15EMKDOKLE@?$AAa?$AAr?$AA?$AA@ 0000000180017454     LIBCMT:winapinls.obj
 0001:0001645c       ??_C@_15KNPADPLH@?$AAb?$AAg?$AA?$AA@ 000000018001745c     LIBCMT:winapinls.obj
 0001:00016464       ??_C@_15EDMHLDMO@?$AAc?$AAa?$AA?$AA@ 0000000180017464     LIBCMT:winapinls.obj
 0001:00016470       ??_C@_1O@BPEAJADD@?$AAz?$AAh?$AA?9?$AAC?$AAH?$AAS?$AA?$AA@ 0000000180017470     LIBCMT:winapinls.obj
 0001:00016480       ??_C@_15LJNHCMNK@?$AAc?$AAs?$AA?$AA@ 0000000180017480     LIBCMT:winapinls.obj
 0001:00016488       ??_C@_15FOMCIDHG@?$AAd?$AAa?$AA?$AA@ 0000000180017488     LIBCMT:winapinls.obj
 0001:00016490       ??_C@_15NBKABECB@?$AAd?$AAe?$AA?$AA@ 0000000180017490     LIBCMT:winapinls.obj
 0001:00016498       ??_C@_15GHPEIIAO@?$AAe?$AAl?$AA?$AA@ 0000000180017498     LIBCMT:winapinls.obj
 0001:000164a0       ??_C@_15MNPNEAIF@?$AAe?$AAn?$AA?$AA@ 00000001800174a0     LIBCMT:winapinls.obj
 0001:000164a8       ??_C@_15GPIOMPMH@?$AAe?$AAs?$AA?$AA@ 00000001800174a8     LIBCMT:winapinls.obj
 0001:000164b0       ??_C@_15NGLOAKJC@?$AAf?$AAi?$AA?$AA@ 00000001800174b0     LIBCMT:winapinls.obj
 0001:000164b8       ??_C@_15FBKGNKAM@?$AAf?$AAr?$AA?$AA@ 00000001800174b8     LIBCMT:winapinls.obj
 0001:000164c0       ??_C@_15KGGCNEFK@?$AAh?$AAe?$AA?$AA@ 00000001800174c0     LIBCMT:winapinls.obj
 0001:000164c8       ??_C@_15PGHLIDMF@?$AAh?$AAu?$AA?$AA@ 00000001800174c8     LIBCMT:winapinls.obj
 0001:000164d0       ??_C@_15BIEMAPLM@?$AAi?$AAs?$AA?$AA@ 00000001800174d0     LIBCMT:winapinls.obj
 0001:000164d8       ??_C@_15IFJLDHAF@?$AAi?$AAt?$AA?$AA@ 00000001800174d8     LIBCMT:winapinls.obj
 0001:000164e0       ??_C@_15GEMIOCAG@?$AAj?$AAa?$AA?$AA@ 00000001800174e0     LIBCMT:winapinls.obj
 0001:000164e8       ??_C@_15EPELEGJA@?$AAk?$AAo?$AA?$AA@ 00000001800174e8     LIBCMT:winapinls.obj
 0001:000164f0       ??_C@_15NDDHIMN@?$AAn?$AAl?$AA?$AA@ 00000001800174f0     LIBCMT:winapinls.obj
 0001:000164f8       ??_C@_15BPIGNHCD@?$AAn?$AAo?$AA?$AA@ 00000001800174f8     LIBCMT:winapinls.obj
 0001:00016500       ??_C@_15DEOPBLCG@?$AAp?$AAl?$AA?$AA@ 0000000180017500     LIBCMT:winapinls.obj
 0001:00016508       ??_C@_15KBECGEFG@?$AAp?$AAt?$AA?$AA@ 0000000180017508     LIBCMT:winapinls.obj
 0001:00016510       ??_C@_15GLJCBFMD@?$AAr?$AAo?$AA?$AA@ 0000000180017510     LIBCMT:winapinls.obj
 0001:00016518       ??_C@_15FEDGKCDI@?$AAr?$AAu?$AA?$AA@ 0000000180017518     LIBCMT:winapinls.obj
 0001:00016520       ??_C@_15GLKMLLHM@?$AAh?$AAr?$AA?$AA@ 0000000180017520     LIBCMT:winapinls.obj
 0001:00016528       ??_C@_15CPKMFBDB@?$AAs?$AAk?$AA?$AA@ 0000000180017528     LIBCMT:winapinls.obj
 0001:00016530       ??_C@_15BAAIOGMK@?$AAs?$AAq?$AA?$AA@ 0000000180017530     LIBCMT:winapinls.obj
 0001:00016538       ??_C@_15INNPNOHD@?$AAs?$AAv?$AA?$AA@ 0000000180017538     LIBCMT:winapinls.obj
 0001:00016540       ??_C@_15CABMMOGH@?$AAt?$AAh?$AA?$AA@ 0000000180017540     LIBCMT:winapinls.obj
 0001:00016548       ??_C@_15BPLIHJJM@?$AAt?$AAr?$AA?$AA@ 0000000180017548     LIBCMT:winapinls.obj
 0001:00016550       ??_C@_15NEOEKKDJ@?$AAu?$AAr?$AA?$AA@ 0000000180017550     LIBCMT:winapinls.obj
 0001:00016558       ??_C@_15NFICGAJK@?$AAi?$AAd?$AA?$AA@ 0000000180017558     LIBCMT:winapinls.obj
 0001:00016560       ??_C@_03KHJOGHMM@exp?$AA@  0000000180017560     LIBCMT:fpexcept.obj
 0001:00016564       ??_C@_03JGHBODFD@pow?$AA@  0000000180017564     LIBCMT:fpexcept.obj
 0001:00016568       ??_C@_04COOMCNPB@sinh?$AA@ 0000000180017568     LIBCMT:fpexcept.obj
 0001:00016570       ??_C@_04HPJJNFIM@cosh?$AA@ 0000000180017570     LIBCMT:fpexcept.obj
 0001:00016578       ??_C@_04FJHINJAO@tanh?$AA@ 0000000180017578     LIBCMT:fpexcept.obj
 0001:00016580       ??_C@_04FIHNOPOL@asin?$AA@ 0000000180017580     LIBCMT:fpexcept.obj
 0001:00016588       ??_C@_04PDIFKINK@acos?$AA@ 0000000180017588     LIBCMT:fpexcept.obj
 0001:00016590       ??_C@_04MLLJIGOK@atan?$AA@ 0000000180017590     LIBCMT:fpexcept.obj
 0001:00016598       ??_C@_05KNGEOGJB@atan2?$AA@ 0000000180017598     LIBCMT:fpexcept.obj
 0001:000165a0       ??_C@_04EIAKFFMI@sqrt?$AA@ 00000001800175a0     LIBCMT:fpexcept.obj
 0001:000165a8       ??_C@_03BLEJJJBH@sin?$AA@  00000001800175a8     LIBCMT:fpexcept.obj
 0001:000165ac       ??_C@_03LALBNOCG@cos?$AA@  00000001800175ac     LIBCMT:fpexcept.obj
 0001:000165b0       ??_C@_03IIINPABG@tan?$AA@  00000001800175b0     LIBCMT:fpexcept.obj
 0001:000165b4       ??_C@_04GFPJNGEK@ceil?$AA@ 00000001800175b4     LIBCMT:fpexcept.obj
 0001:000165bc       ??_C@_04ODHECPBC@fabs?$AA@ 00000001800175bc     LIBCMT:fpexcept.obj
 0001:000165c4       ??_C@_04EHEDPDJG@modf?$AA@ 00000001800175c4     LIBCMT:fpexcept.obj
 0001:000165cc       ??_C@_05CEJMAHNP@ldexp?$AA@ 00000001800175cc     LIBCMT:fpexcept.obj
 0001:000165d4       ??_C@_05KBKMEMPO@_cabs?$AA@ 00000001800175d4     LIBCMT:fpexcept.obj
 0001:000165dc       ??_C@_06MEIMCGCF@_hypot?$AA@ 00000001800175dc     LIBCMT:fpexcept.obj
 0001:000165e4       ??_C@_04KEPJIHGP@fmod?$AA@ 00000001800175e4     LIBCMT:fpexcept.obj
 0001:000165ec       ??_C@_05GKKHEGJL@frexp?$AA@ 00000001800175ec     LIBCMT:fpexcept.obj
 0001:000165f4       ??_C@_03MJLDFKDL@_y0?$AA@  00000001800175f4     LIBCMT:fpexcept.obj
 0001:000165f8       ??_C@_03NAKIGLHK@_y1?$AA@  00000001800175f8     LIBCMT:fpexcept.obj
 0001:000165fc       ??_C@_03ONILCKOB@_yn?$AA@  00000001800175fc     LIBCMT:fpexcept.obj
 0001:00016600       ??_C@_05JGDBENOH@_logb?$AA@ 0000000180017600     LIBCMT:fpexcept.obj
 0001:00016608       ??_C@_0L@KDOEJCKC@_nextafter?$AA@ 0000000180017608     LIBCMT:fpexcept.obj
 0001:00016614       ??_C@_06PGGFOGJG@1?$CDSNAN?$AA@ 0000000180017614     LIBCMT:x10fout.obj
 0001:0001661c       ??_C@_05PHHOCPM@1?$CDIND?$AA@ 000000018001761c     LIBCMT:x10fout.obj
 0001:00016624       ??_C@_05DNEBIAHO@1?$CDINF?$AA@ 0000000180017624     LIBCMT:x10fout.obj
 0001:0001662c       ??_C@_06IMKFLFPG@1?$CDQNAN?$AA@ 000000018001762c     LIBCMT:x10fout.obj
 0001:00016638       ??_C@_1BA@BALFACEM@?$AAC?$AAO?$AAN?$AAO?$AAU?$AAT?$AA$?$AA?$AA@ 0000000180017638     LIBCMT:initcon.obj
 0001:00016650       _load_config_used          0000000180017650     LIBCMT:loadcfg.obj
 0001:00016740       __rtc_iaa                  0000000180017740     LIBCMT:initsect.obj
 0001:00016748       __rtc_izz                  0000000180017748     LIBCMT:initsect.obj
 0001:00016750       __rtc_taa                  0000000180017750     LIBCMT:initsect.obj
 0001:00016758       __rtc_tzz                  0000000180017758     LIBCMT:initsect.obj
 0001:00016770       __chkstk                   0000000180017770 f   chkstk.obj
 0001:00016770       _alloca_probe              0000000180017770     chkstk.obj
 0001:00018680       bit64_getvalue             0000000180019680 f   bit64.obj
 0001:00018730       bit64_push                 0000000180019730 f   bit64.obj
 0001:000187d0       bit64_pushuserdata         00000001800197d0 f   bit64.obj
 0001:00018820       luaopen_bit64              0000000180019820 f   bit64.obj
 0001:00018870       AddBufToCollector          0000000180019870 f   exported.obj
 0001:000188e0       CheckReloadDefaultScript   00000001800198e0 f   exported.obj
 0001:00018960       CreateStringsArray         0000000180019960 f   exported.obj
 0001:00018aa0       FarPanelItemFreeCallback   0000000180019aa0 f   exported.obj
 0001:00018d70       FillFindData               0000000180019d70 f   exported.obj
 0001:00019150       FillPluginPanelItem        000000018001a150 f   exported.obj
 0001:000193e0       GetExportFunction          000000018001a3e0 f   exported.obj
 0001:00019490       LF_Analyse                 000000018001a490 f   exported.obj
 0001:00019550       LF_CloseAnalyse            000000018001a550 f   exported.obj
 0001:00019560       LF_ClosePanel              000000018001a560 f   exported.obj
 0001:00019660       LF_Compare                 000000018001a660 f   exported.obj
 0001:00019770       LF_Configure               000000018001a770 f   exported.obj
 0001:00019800       LF_DeleteFiles             000000018001a800 f   exported.obj
 0001:00019900       LF_ExitFAR                 000000018001a900 f   exported.obj
 0001:00019940       LF_FreeCustomData          000000018001a940 f   exported.obj
 0001:00019950       LF_FreeFindData            000000018001a950 f   exported.obj
 0001:000199c0       LF_GetCustomData           000000018001a9c0 f   exported.obj
 0001:00019a80       LF_GetFiles                000000018001aa80 f   exported.obj
 0001:00019c20       LF_GetFindData             000000018001ac20 f   exported.obj
 0001:00019d40       LF_GetGlobalInfo           000000018001ad40 f   exported.obj
 0001:0001a190       LF_GetOpenPanelInfo        000000018001b190 f   exported.obj
 0001:0001aba0       LF_GetPluginInfo           000000018001bba0 f   exported.obj
 0001:0001ad00       LF_MakeDirectory           000000018001bd00 f   exported.obj
 0001:0001ae50       LF_Open                    000000018001be50 f   exported.obj
 0001:0001b0f0       LF_ProcessConsoleInput     000000018001c0f0 f   exported.obj
 0001:0001b1c0       LF_ProcessDialogEvent      000000018001c1c0 f   exported.obj
 0001:0001b360       LF_ProcessEditorEvent      000000018001c360 f   exported.obj
 0001:0001b4b0       LF_ProcessEditorInput      000000018001c4b0 f   exported.obj
 0001:0001b530       LF_ProcessHostFile         000000018001c530 f   exported.obj
 0001:0001b660       LF_ProcessPanelEvent       000000018001c660 f   exported.obj
 0001:0001b750       LF_ProcessPanelInput       000000018001c750 f   exported.obj
 0001:0001b830       LF_ProcessSynchroEvent     000000018001c830 f   exported.obj
 0001:0001b9c0       LF_ProcessViewerEvent      000000018001c9c0 f   exported.obj
 0001:0001ba60       LF_PutFiles                000000018001ca60 f   exported.obj
 0001:0001bba0       LF_SetDirectory            000000018001cba0 f   exported.obj
 0001:0001bc90       LF_SetFindList             000000018001cc90 f   exported.obj
 0001:0001bd70       PackMacroValues            000000018001cd70 f   exported.obj
 0001:0001bf60       PushFarMacroValue          000000018001cf60 f   exported.obj
 0001:0001c080       RegisterObject             000000018001d080 f   exported.obj
 0001:0001c100       ReplacePluginInfoCollector 000000018001d100 f   exported.obj
 0001:0001c140       UpdateFileSelection        000000018001d140 f   exported.obj
 0001:0001c230       _AddStringToCollector      000000018001d230 f   exported.obj
 0001:0001c2b0       docall                     000000018001d2b0 f   exported.obj
 0001:0001c340       getPluginMenuItems         000000018001d340 f   exported.obj
 0001:0001c410       pcall_msg                  000000018001d410 f   exported.obj
 0001:0001c4a0       traceback                  000000018001d4a0 f   exported.obj
 0001:0001c550       push_flags_table           000000018001d550 f   flags.obj
 0001:0001c5d0       SetFarColors               000000018001d5d0 f   keysandcolors.obj
 0001:0001c610       LF_Gsub                    000000018001d610 f   lflua.obj
 0001:0001c730       LF_LoadFile                000000018001d730 f   lflua.obj
 0001:0001cab0       luaB_dofileW               000000018001dab0 f   lflua.obj
 0001:0001cb20       luaB_loadfileW             000000018001db20 f   lflua.obj
 0001:0001cb70       method_gc                  000000018001db70 f   lregex.obj
 0001:0001cbf0       method_tostring            000000018001dbf0 f   lregex.obj
 0001:0001cc60       func_Gmatch                000000018001dc60 f   lregex.obj
 0001:0001cc70       func_GmatchW               000000018001dc70 f   lregex.obj
 0001:0001cc80       method_bracketscount       000000018001dc80 f   lregex.obj
 0001:0001cd00       func_New                   000000018001dd00 f   lregex.obj
 0001:0001cd50       method_find                000000018001dd50 f   lregex.obj
 0001:0001cd60       func_find                  000000018001dd60 f   lregex.obj
 0001:0001cd70       method_findW               000000018001dd70 f   lregex.obj
 0001:0001cd90       func_findW                 000000018001dd90 f   lregex.obj
 0001:0001cda0       method_match               000000018001dda0 f   lregex.obj
 0001:0001cf50       func_match                 000000018001df50 f   lregex.obj
 0001:0001d100       method_matchW              000000018001e100 f   lregex.obj
 0001:0001d2b0       func_matchW                000000018001e2b0 f   lregex.obj
 0001:0001d2c0       method_gsub                000000018001e2c0 f   lregex.obj
 0001:0001d2d0       func_gsub                  000000018001e2d0 f   lregex.obj
 0001:0001d2e0       method_gsubW               000000018001e2e0 f   lregex.obj
 0001:0001d2f0       func_gsubW                 000000018001e2f0 f   lregex.obj
 0001:0001d300       _Gmatch                    000000018001e300 f   lregex.obj
 0001:0001d420       _regex_gmatch_closure      000000018001e420 f   lregex.obj
 0001:0001d570       check_regex_pattern        000000018001e570 f   lregex.obj
 0001:0001d650       luaopen_regex              000000018001e650 f   lregex.obj
 0001:0001d6e0       push_far_regex             000000018001e6e0 f   lregex.obj
 0001:0001d790       regex_gmatch_closure       000000018001e790 f   lregex.obj
 0001:0001d7a0       regex_gmatch_closureW      000000018001e7a0 f   lregex.obj
 0001:0001d7b0       rx_find_match              000000018001e7b0 f   lregex.obj
 0001:0001da10       rx_gsub                    000000018001ea10 f   lregex.obj
 0001:0001e320       Open_Luamacro              000000018001f320 f   luamacro.obj
 0001:0001e6f0       far_MacroCallFar           000000018001f6f0 f   luamacro.obj
 0001:0001e8d0       far_MacroCallPlugin        000000018001f8d0 f   luamacro.obj
 0001:0001eaa0       uc_len                     000000018001faa0 f   lusercontrol.obj
 0001:0001ed40       CheckFarUserControl        000000018001fd40 f   lusercontrol.obj
 0001:0001ed50       luaopen_usercontrol        000000018001fd50 f   lusercontrol.obj
 0001:0001ee30       CreateRegKey               000000018001fe30 f   reg.obj
 0001:0001ee80       OpenRegKey                 000000018001fe80 f   reg.obj
 0001:0001eec0       SetRegKeyArr               000000018001fec0 f   reg.obj
 0001:0001ef50       SetRegKeyDword             000000018001ff50 f   reg.obj
 0001:0001efe0       SetRegKeyStr               000000018001ffe0 f   reg.obj
 0001:00029d10       ConvertLuaValue            000000018002ad10 f   service.obj
 0001:00029e50       CreateList                 000000018002ae50 f   service.obj
 0001:0002a030       DialogHandleEqual          000000018002b030 f   service.obj
 0001:0002a2f0       FillInputRecord            000000018002b2f0 f   service.obj
 0001:0002a850       GetFarColorFromTable       000000018002b850 f   service.obj
 0001:0002a910       GetFlagCombination         000000018002b910 f   service.obj
 0001:0002ab20       GetFlagsFromTable          000000018002bb20 f   service.obj
 0001:0002ad10       GetPluginData              000000018002bd10 f   service.obj
 0001:0002ad30       LF_DlgProc                 000000018002bd30 f   service.obj
 0001:0002b0d0       LF_DoFile                  000000018002c0d0 f   service.obj
 0001:0002b1a0       LF_Error                   000000018002c1a0 f   service.obj
 0001:0002b2a0       LF_InitLuaState1           000000018002c2a0 f   service.obj
 0001:0002b460       LF_InitLuaState2           000000018002c460 f   service.obj
 0001:0002b520       LF_LuaClose                000000018002c520 f   service.obj
 0001:0002b530       LF_LuaOpen                 000000018002c530 f   service.obj
 0001:0002b540       LF_MacroCallback           000000018002c540 f   service.obj
 0001:0002b5e0       LF_Message                 000000018002c5e0 f   service.obj
 0001:0002ba70       LF_ProcessEnvVars          000000018002ca70 f   service.obj
 0001:0002be10       LF_RunDefaultScript        000000018002ce10 f   service.obj
 0001:0002c1b0       NewDialogData              000000018002d1b0 f   service.obj
 0001:0002c260       NewVirtualKeyTable         000000018002d260 f   service.obj
 0001:0002c5b0       PushDMParams               000000018002d5b0 f   service.obj
 0001:0002c6a0       PushDNParams               000000018002d6a0 f   service.obj
 0001:0002cb90       PushFarColor               000000018002db90 f   service.obj
 0001:0002cc10       PushPanelItem              000000018002dc10 f   service.obj
 0001:0002ce70       PushPanelItems             000000018002de70 f   service.obj
 0001:0002d130       PutFlagsToTable            000000018002e130 f   service.obj
 0001:0002d170       PutMouseEvent              000000018002e170 f   service.obj
 0001:0002da60       TimerThreadFunc            000000018002ea60 f   service.obj
 0001:0002e070       dir_exist                  000000018002f070 f   service.obj
 0001:0002e820       pushFileTime               000000018002f820 f   service.obj
 0001:0002e860       pushInputRecord            000000018002f860 f   service.obj
 0001:000306e0       luaopen_unicode            00000001800316e0 f   slnunico.obj
 0001:000332a0       luaopen_uio                00000001800342a0 f   uliolib51.obj
 0001:00034390       luaopen_upackage           0000000180035390 f   uloadlib51.obj
 0001:00034970       ustring_Uuid               0000000180035970 f   ustring.obj
 0001:00034a40       ustring_SearchPath         0000000180035a40 f   ustring.obj
 0001:00034c50       ustring_GlobalMemoryStatus 0000000180035c50 f   ustring.obj
 0001:00034e60       ustring_Sleep              0000000180035e60 f   ustring.obj
 0001:00034e80       ustring_SetFileAttr        0000000180035e80 f   ustring.obj
 0001:00034fc0       ustring_GetFileAttr        0000000180035fc0 f   ustring.obj
 0001:000350d0       ustring_SHGetFolderPath    00000001800360d0 f   ustring.obj
 0001:00035200       ustring_sub                0000000180036200 f   ustring.obj
 0001:000352c0       ustring_len                00000001800362c0 f   ustring.obj
 0001:00035300       ustring_WideCharToMultiByte 0000000180036300 f   ustring.obj
 0001:00035490       ustring_MultiByteToWideChar 0000000180036490 f   ustring.obj
 0001:00035620       ustring_OemToUtf8          0000000180036620 f   ustring.obj
 0001:00035680       ustring_Utf8ToOem          0000000180036680 f   ustring.obj
 0001:00035770       ustring_Utf16ToUtf8        0000000180036770 f   ustring.obj
 0001:000357c0       ustring_Utf8ToUtf16        00000001800367c0 f   ustring.obj
 0001:000358a0       ustring_GetACP             00000001800368a0 f   ustring.obj
 0001:000358d0       ustring_GetOEMCP           00000001800368d0 f   ustring.obj
 0001:00035900       ustring_EnumSystemCodePages 0000000180036900 f   ustring.obj
 0001:00035990       ustring_GetCPInfo          0000000180036990 f   ustring.obj
 0001:00035c30       ustring_GetLogicalDriveStrings 0000000180036c30 f   ustring.obj
 0001:00035d40       ustring_GetDriveType       0000000180036d40 f   ustring.obj
 0001:00035e50       DecodeAttributes           0000000180036e50 f   ustring.obj
 0001:00035f00       EnumCodePagesProc          0000000180036f00 f   ustring.obj
 0001:00035f70       GetBoolFromTable           0000000180036f70 f   ustring.obj
 0001:00035fb0       GetOptBoolFromTable        0000000180036fb0 f   ustring.obj
 0001:00036010       GetOptIntFromArray         0000000180037010 f   ustring.obj
 0001:00036070       GetOptIntFromTable         0000000180037070 f   ustring.obj
 0001:000360d0       GetOptNumFromTable         00000001800370d0 f   ustring.obj
 0001:00036130       PushAttrString             0000000180037130 f   ustring.obj
 0001:000361d0       PutAttrToTable             00000001800371d0 f   ustring.obj
 0001:00036200       PutBoolToTable             0000000180037200 f   ustring.obj
 0001:00036240       PutIntToArray              0000000180037240 f   ustring.obj
 0001:00036280       PutIntToTable              0000000180037280 f   ustring.obj
 0001:000362c0       PutLStrToTable             00000001800372c0 f   ustring.obj
 0001:00036300       PutNumToTable              0000000180037300 f   ustring.obj
 0001:00036340       PutWStrToArray             0000000180037340 f   ustring.obj
 0001:000363a0       PutWStrToTable             00000001800373a0 f   ustring.obj
 0001:000363e0       SysErrorReturn             00000001800373e0 f   ustring.obj
 0001:00036420       check_utf16_string         0000000180037420 f   ustring.obj
 0001:00036450       check_utf8_string          0000000180037450 f   ustring.obj
 0001:00036480       convert_multibyte_string   0000000180037480 f   ustring.obj
 0001:000365c0       luaopen_ustring            00000001800375c0 f   ustring.obj
 0001:00036620       oem_to_utf16               0000000180037620 f   ustring.obj
 0001:00036730       opt_utf16_string           0000000180037730 f   ustring.obj
 0001:00036740       opt_utf8_string            0000000180037740 f   ustring.obj
 0001:00036850       push_multibyte_string      0000000180037850 f   ustring.obj
 0001:00036960       push_utf16_string          0000000180037960 f   ustring.obj
 0001:00036990       push_utf8_string           0000000180037990 f   ustring.obj
 0001:000369c0       pusherror                  00000001800379c0 f   ustring.obj
 0001:000369e0       pusherrorcode              00000001800379e0 f   ustring.obj
 0001:00036a80       utf8_to_utf16              0000000180037a80 f   ustring.obj
 0001:00036b90       GetAttrFromTable           0000000180037b90 f   util.obj
 0001:00036bf0       GetFileSizeFromTable       0000000180037bf0 f   util.obj
 0001:00036c70       GetFileTimeFromTable       0000000180037c70 f   util.obj
 0001:00036cf0       GetIntFromArray            0000000180037cf0 f   util.obj
 0001:00036db0       InitSynchroData            0000000180037db0 f   util.obj
 0001:00036dd0       PutFileTimeToTable         0000000180037dd0 f   util.obj
 0001:00036e20       luaLF_FieldError           0000000180037e20 f   util.obj
 0001:00036e90       luaLF_SlotError            0000000180037e90 f   util.obj
 0001:00038430       luaopen_win                0000000180039430 f   win.obj
 0001:00038784       lua_gettop                 0000000180039784 f   lua5.1:lua5.1.dll
 0001:0003878a       lua_settop                 000000018003978a f   lua5.1:lua5.1.dll
 0001:00038790       lua_type                   0000000180039790 f   lua5.1:lua5.1.dll
 0001:00038796       lua_rawequal               0000000180039796 f   lua5.1:lua5.1.dll
 0001:0003879c       lua_tonumber               000000018003979c f   lua5.1:lua5.1.dll
 0001:000387a2       lua_tolstring              00000001800397a2 f   lua5.1:lua5.1.dll
 0001:000387a8       lua_touserdata             00000001800397a8 f   lua5.1:lua5.1.dll
 0001:000387ae       lua_pushnil                00000001800397ae f   lua5.1:lua5.1.dll
 0001:000387b4       lua_pushnumber             00000001800397b4 f   lua5.1:lua5.1.dll
 0001:000387ba       lua_pushstring             00000001800397ba f   lua5.1:lua5.1.dll
 0001:000387c0       lua_pushboolean            00000001800397c0 f   lua5.1:lua5.1.dll
 0001:000387c6       lua_getfield               00000001800397c6 f   lua5.1:lua5.1.dll
 0001:000387cc       lua_newuserdata            00000001800397cc f   lua5.1:lua5.1.dll
 0001:000387d2       lua_getmetatable           00000001800397d2 f   lua5.1:lua5.1.dll
 0001:000387d8       lua_setmetatable           00000001800397d8 f   lua5.1:lua5.1.dll
 0001:000387de       luaL_register              00000001800397de f   lua5.1:lua5.1.dll
 0001:000387e4       luaL_argerror              00000001800397e4 f   lua5.1:lua5.1.dll
 0001:000387ea       luaL_checkinteger          00000001800397ea f   lua5.1:lua5.1.dll
 0001:000387f0       luaL_newmetatable          00000001800397f0 f   lua5.1:lua5.1.dll
 0001:000387f6       lua_pushvalue              00000001800397f6 f   lua5.1:lua5.1.dll
 0001:000387fc       lua_remove                 00000001800397fc f   lua5.1:lua5.1.dll
 0001:00038802       lua_insert                 0000000180039802 f   lua5.1:lua5.1.dll
 0001:00038808       lua_isnumber               0000000180039808 f   lua5.1:lua5.1.dll
 0001:0003880e       lua_isstring               000000018003980e f   lua5.1:lua5.1.dll
 0001:00038814       lua_tointeger              0000000180039814 f   lua5.1:lua5.1.dll
 0001:0003881a       lua_toboolean              000000018003981a f   lua5.1:lua5.1.dll
 0001:00038820       lua_objlen                 0000000180039820 f   lua5.1:lua5.1.dll
 0001:00038826       lua_pushinteger            0000000180039826 f   lua5.1:lua5.1.dll
 0001:0003882c       lua_pushlstring            000000018003982c f   lua5.1:lua5.1.dll
 0001:00038832       lua_pushcclosure           0000000180039832 f   lua5.1:lua5.1.dll
 0001:00038838       lua_pushlightuserdata      0000000180039838 f   lua5.1:lua5.1.dll
 0001:0003883e       lua_gettable               000000018003983e f   lua5.1:lua5.1.dll
 0001:00038844       lua_rawgeti                0000000180039844 f   lua5.1:lua5.1.dll
 0001:0003884a       lua_createtable            000000018003984a f   lua5.1:lua5.1.dll
 0001:00038850       lua_setfield               0000000180039850 f   lua5.1:lua5.1.dll
 0001:00038856       lua_rawseti                0000000180039856 f   lua5.1:lua5.1.dll
 0001:0003885c       lua_call                   000000018003985c f   lua5.1:lua5.1.dll
 0001:00038862       lua_pcall                  0000000180039862 f   lua5.1:lua5.1.dll
 0001:00038868       lua_gc                     0000000180039868 f   lua5.1:lua5.1.dll
 0001:0003886e       luaL_ref                   000000018003986e f   lua5.1:lua5.1.dll
 0001:00038874       luaL_unref                 0000000180039874 f   lua5.1:lua5.1.dll
 0001:0003887a       luaL_loadstring            000000018003987a f   lua5.1:lua5.1.dll
 0001:00038880       lua_pushfstring            0000000180039880 f   lua5.1:lua5.1.dll
 0001:00038886       lua_load                   0000000180039886 f   lua5.1:lua5.1.dll
 0001:0003888c       lua_error                  000000018003988c f   lua5.1:lua5.1.dll
 0001:00038892       lua_concat                 0000000180039892 f   lua5.1:lua5.1.dll
 0001:00038898       luaL_buffinit              0000000180039898 f   lua5.1:lua5.1.dll
 0001:0003889e       luaL_addlstring            000000018003989e f   lua5.1:lua5.1.dll
 0001:000388a4       luaL_pushresult            00000001800398a4 f   lua5.1:lua5.1.dll
 0001:000388aa       lua_replace                00000001800398aa f   lua5.1:lua5.1.dll
 0001:000388b0       lua_checkstack             00000001800398b0 f   lua5.1:lua5.1.dll
 0001:000388b6       luaL_checklstring          00000001800398b6 f   lua5.1:lua5.1.dll
 0001:000388bc       luaL_optlstring            00000001800398bc f   lua5.1:lua5.1.dll
 0001:000388c2       luaL_optinteger            00000001800398c2 f   lua5.1:lua5.1.dll
 0001:000388c8       luaL_checkudata            00000001800398c8 f   lua5.1:lua5.1.dll
 0001:000388ce       luaL_error                 00000001800398ce f   lua5.1:lua5.1.dll
 0001:000388d4       luaL_addvalue              00000001800398d4 f   lua5.1:lua5.1.dll
 0001:000388da       lua_getstack               00000001800398da f   lua5.1:lua5.1.dll
 0001:000388e0       lua_getinfo                00000001800398e0 f   lua5.1:lua5.1.dll
 0001:000388e6       luaL_checktype             00000001800398e6 f   lua5.1:lua5.1.dll
 0001:000388ec       luaopen_base               00000001800398ec f   lua5.1:lua5.1.dll
 0001:000388f2       luaopen_table              00000001800398f2 f   lua5.1:lua5.1.dll
 0001:000388f8       luaopen_os                 00000001800398f8 f   lua5.1:lua5.1.dll
 0001:000388fe       luaopen_string             00000001800398fe f   lua5.1:lua5.1.dll
 0001:00038904       luaopen_math               0000000180039904 f   lua5.1:lua5.1.dll
 0001:0003890a       luaopen_debug              000000018003990a f   lua5.1:lua5.1.dll
 0001:00038910       lua_close                  0000000180039910 f   lua5.1:lua5.1.dll
 0001:00038916       lua_rawget                 0000000180039916 f   lua5.1:lua5.1.dll
 0001:0003891c       lua_getfenv                000000018003991c f   lua5.1:lua5.1.dll
 0001:00038922       lua_settable               0000000180039922 f   lua5.1:lua5.1.dll
 0001:00038928       lua_rawset                 0000000180039928 f   lua5.1:lua5.1.dll
 0001:0003892e       lua_setfenv                000000018003992e f   lua5.1:lua5.1.dll
 0001:00038934       lua_next                   0000000180039934 f   lua5.1:lua5.1.dll
 0001:0003893a       lua_getallocf              000000018003993a f   lua5.1:lua5.1.dll
 0001:00038940       lua_setallocf              0000000180039940 f   lua5.1:lua5.1.dll
 0001:00038946       luaL_typerror              0000000180039946 f   lua5.1:lua5.1.dll
 0001:0003894c       luaL_checknumber           000000018003994c f   lua5.1:lua5.1.dll
 0001:00038952       luaL_optnumber             0000000180039952 f   lua5.1:lua5.1.dll
 0001:00038958       luaL_checkany              0000000180039958 f   lua5.1:lua5.1.dll
 0001:0003895e       luaL_newstate              000000018003995e f   lua5.1:lua5.1.dll
 0001:00038964       lua_typename               0000000180039964 f   lua5.1:lua5.1.dll
 0001:0003896a       lua_dump                   000000018003996a f   lua5.1:lua5.1.dll
 0001:00038970       luaL_checkstack            0000000180039970 f   lua5.1:lua5.1.dll
 0001:00038976       luaL_prepbuffer            0000000180039976 f   lua5.1:lua5.1.dll
 0001:0003897c       lua_tocfunction            000000018003997c f   lua5.1:lua5.1.dll
 0001:00038982       luaL_checkoption           0000000180039982 f   lua5.1:lua5.1.dll
 0001:00038988       lua_iscfunction            0000000180039988 f   lua5.1:lua5.1.dll
 0001:0003898e       luaL_gsub                  000000018003998e f   lua5.1:lua5.1.dll
 0001:00038994       luaL_findtable             0000000180039994 f   lua5.1:lua5.1.dll
 0001:0003899a       lua_isuserdata             000000018003999a f   lua5.1:lua5.1.dll
 0001:000389a0       sprintf                    00000001800399a0 f   LIBCMT:sprintf.obj
 0001:00038a40       _fpmath                    0000000180039a40 f   LIBCMT:fpinit.obj
 0001:00038a48       _cfltcvt_init              0000000180039a48 f   LIBCMT:fpinit.obj
 0001:00038ad0       _wcsdup                    0000000180039ad0 f   LIBCMT:wcsdup.obj
 0001:00038ad0       wcsdup                     0000000180039ad0 f   LIBCMT:wcsdup.obj
 0001:00038b48       free                       0000000180039b48 f   LIBCMT:free.obj
 0001:00038b88       malloc                     0000000180039b88 f   LIBCMT:malloc.obj
 0001:00038c40       _control87                 0000000180039c40 f i LIBCMT:ieee.obj
 0001:00038ee0       memmove                    0000000180039ee0     LIBCMT:memcpy.obj
 0001:00038ee0       memcpy                     0000000180039ee0 f   LIBCMT:memcpy.obj
 0001:000393e0       memset                     000000018003a3e0 f   LIBCMT:memset.obj
 0001:000394ec       strerror                   000000018003a4ec f   LIBCMT:strerror.obj
 0001:00039588       wcsstr                     000000018003a588 f   LIBCMT:wcsstr.obj
 0001:00039784       __doserrno                 000000018003a784 f   LIBCMT:dosmap.obj
 0001:000397a4       _dosmaperr                 000000018003a7a4 f   LIBCMT:dosmap.obj
 0001:000397f4       _errno                     000000018003a7f4 f   LIBCMT:dosmap.obj
 0001:00039814       _get_errno_from_oserr      000000018003a814 f   LIBCMT:dosmap.obj
 0001:00039864       __initstdio                000000018003a864 f   LIBCMT:_file.obj
 0001:000398fc       __endstdio                 000000018003a8fc f   LIBCMT:_file.obj
 0001:0003992c       __iob_func                 000000018003a92c f   LIBCMT:_file.obj
 0001:00039934       _lock_file                 000000018003a934 f   LIBCMT:_file.obj
 0001:0003999c       _lock_file2                000000018003a99c f   LIBCMT:_file.obj
 0001:000399d0       _unlock_file               000000018003a9d0 f   LIBCMT:_file.obj
 0001:00039a20       _unlock_file2              000000018003aa20 f   LIBCMT:_file.obj
 0001:00039a40       _fclose_nolock             000000018003aa40 f   LIBCMT:fclose.obj
 0001:00039abc       fclose                     000000018003aabc f   LIBCMT:fclose.obj
 0001:00039b24       feof                       000000018003ab24 f   LIBCMT:feoferr.obj
 0001:00039b4c       ferror                     000000018003ab4c f   LIBCMT:feoferr.obj
 0001:00039b74       _fread_nolock_s            000000018003ab74 f   LIBCMT:fread.obj
 0001:00039d94       fread                      000000018003ad94 f   LIBCMT:fread.obj
 0001:00039db4       fread_s                    000000018003adb4 f   LIBCMT:fread.obj
 0001:00039e5c       getc                       000000018003ae5c f   LIBCMT:fgetc.obj
 0001:00039f5c       rewind                     000000018003af5c f   LIBCMT:rewind.obj
 0001:0003a018       _ungetc_nolock             000000018003b018 f   LIBCMT:ungetc.obj
 0001:0003a120       ungetc                     000000018003b120 f   LIBCMT:ungetc.obj
 0001:0003a180       _wfopen                    000000018003b180 f   LIBCMT:wfopen.obj
 0001:0003a18c       _wfsopen                   000000018003b18c f   LIBCMT:wfopen.obj
 0001:0003a26c       _wfreopen                  000000018003b26c f   LIBCMT:wfreopen.obj
 0001:0003a29c       _wfreopen_helper           000000018003b29c f   LIBCMT:wfreopen.obj
 0001:0003a38c       ??0_LocaleUpdate@@QEAA@PEAUlocaleinfo_struct@@@Z 000000018003b38c f i LIBCMT:_ctype.obj
 0001:0003a434       isalnum                    000000018003b434 f i LIBCMT:_ctype.obj
 0001:0003a4b4       isdigit                    000000018003b4b4 f i LIBCMT:_ctype.obj
 0001:0003a530       isspace                    000000018003b530 f i LIBCMT:_ctype.obj
 0001:0003a5ac       isxdigit                   000000018003b5ac f i LIBCMT:_ctype.obj
 0001:0003a62c       strchr                     000000018003b62c f   LIBCMT:strchr.obj
 0001:0003a6d0       strncmp                    000000018003b6d0 f   LIBCMT:strncmp.obj
 0001:0003a750       wcschr                     000000018003b750 f   LIBCMT:wcschr.obj
 0001:0003a7dc       wcsncpy                    000000018003b7dc f   LIBCMT:wcsncpy.obj
 0001:0003a824       wcsrchr                    000000018003b824 f   LIBCMT:wcsrchr.obj
 0001:0003a8d4       _wcsicmp                   000000018003b8d4 f   LIBCMT:wcsicmp.obj
 0001:0003a958       _wcsicmp_l                 000000018003b958 f   LIBCMT:wcsicmp.obj
 0001:0003aa48       fprintf                    000000018003ba48 f   LIBCMT:fprintf.obj
 0001:0003ab70       floor                      000000018003bb70 f   LIBCMT:floor.obj
 0001:0003ac70       log10                      000000018003bc70 f   LIBCMT:log10.obj
 0001:0003afa0       strcmp                     000000018003bfa0 f   LIBCMT:strcmp.obj
 0001:0003b008       _snwprintf                 000000018003c008 f   LIBCMT:snwprint.obj
 0001:0003b0ec       memchr                     000000018003c0ec f   LIBCMT:memchr.obj
 0001:0003b120       strncpy                    000000018003c120 f   LIBCMT:strncpy.obj
 0001:0003b284       strpbrk                    000000018003c284 f   LIBCMT:strpbrk.obj
 0001:0003b340       memcmp                     000000018003c340 f   LIBCMT:memcmp.obj
 0001:0003b408       clearerr                   000000018003c408 f   LIBCMT:clearerr.obj
 0001:0003b410       clearerr_s                 000000018003c410 f   LIBCMT:clearerr.obj
 0001:0003b4c4       _fflush_nolock             000000018003c4c4 f   LIBCMT:fflush.obj
 0001:0003b510       _flush                     000000018003c510 f   LIBCMT:fflush.obj
 0001:0003b58c       _flushall                  000000018003c58c f   LIBCMT:fflush.obj
 0001:0003b598       fflush                     000000018003c598 f   LIBCMT:fflush.obj
 0001:0003b6c4       fgets                      000000018003c6c4 f   LIBCMT:fgets.obj
 0001:0003b824       fscanf                     000000018003c824 f   LIBCMT:fscanf.obj
 0001:0003b85c       vfscanf                    000000018003c85c f   LIBCMT:fscanf.obj
 0001:0003b97c       _fseek_nolock              000000018003c97c f   LIBCMT:fseek.obj
 0001:0003ba28       fseek                      000000018003ca28 f   LIBCMT:fseek.obj
 0001:0003ba9c       _ftell_nolock              000000018003ca9c f   LIBCMT:ftell.obj
 0001:0003bd90       ftell                      000000018003cd90 f   LIBCMT:ftell.obj
 0001:0003bde8       _fwrite_nolock             000000018003cde8 f   LIBCMT:fwrite.obj
 0001:0003bf78       fwrite                     000000018003cf78 f   LIBCMT:fwrite.obj
 0001:0003c008       _pclose                    000000018003d008 f   LIBCMT:popen.obj
 0001:0003c17c       setvbuf                    000000018003d17c f   LIBCMT:setvbuf.obj
 0001:0003c294       _tmpfile_helper            000000018003d294 f   LIBCMT:tmpfile.obj
 0001:0003c6e0       tmpfile                    000000018003d6e0 f   LIBCMT:tmpfile.obj
 0001:0003c704       _wpopen                    000000018003d704 f   LIBCMT:wpopen.obj
 0001:0003ce24       _wdupenv_s                 000000018003de24 f   LIBCMT:wgetenv.obj
 0001:0003cf28       _wgetenv                   000000018003df28 f   LIBCMT:wgetenv.obj
 0001:0003cf94       _wgetenv_helper_nolock     000000018003df94 f   LIBCMT:wgetenv.obj
 0001:0003d054       strrchr                    000000018003e054 f   LIBCMT:strrchr.obj
 0001:0003d198       wcscmp                     000000018003e198 f   LIBCMT:wcscmp.obj
 0001:0003d1d4       _CRT_INIT                  000000018003e1d4 f   LIBCMT:dllcrt0.obj
 0001:0003d334       _DllMainCRTStartup         000000018003e334 f   LIBCMT:dllcrt0.obj
 0001:0003d494       _call_reportfault          000000018003e494 f   LIBCMT:invarg.obj
 0001:0003d588       _initp_misc_invarg         000000018003e588 f   LIBCMT:invarg.obj
 0001:0003d590       _invalid_parameter         000000018003e590 f   LIBCMT:invarg.obj
 0001:0003d5f8       _invalid_parameter_noinfo  000000018003e5f8 f   LIBCMT:invarg.obj
 0001:0003d618       _invoke_watson             000000018003e618 f   LIBCMT:invarg.obj
 0001:0003d654       _flsbuf                    000000018003e654 f   LIBCMT:_flsbuf.obj
 0001:0003d7e0       _output_l                  000000018003e7e0 f   LIBCMT:output.obj
 0001:0003e330       _cfltcvt                   000000018003f330 f   LIBCMT:cvt.obj
 0001:0003e354       _cfltcvt_l                 000000018003f354 f   LIBCMT:cvt.obj
 0001:0003e3d4       _cftoa_l                   000000018003f3d4 f   LIBCMT:cvt.obj
 0001:0003e980       _cftoe_l                   000000018003f980 f   LIBCMT:cvt.obj
 0001:0003ebdc       _cftof_l                   000000018003fbdc f   LIBCMT:cvt.obj
 0001:0003ecb0       _cftog_l                   000000018003fcb0 f   LIBCMT:cvt.obj
 0001:0003ede4       _cropzeros                 000000018003fde4 f   LIBCMT:cvt.obj
 0001:0003edec       _cropzeros_l               000000018003fdec f   LIBCMT:cvt.obj
 0001:0003ee84       _fassign                   000000018003fe84 f   LIBCMT:cvt.obj
 0001:0003ee8c       _fassign_l                 000000018003fe8c f   LIBCMT:cvt.obj
 0001:0003eecc       _forcdecpt                 000000018003fecc f   LIBCMT:cvt.obj
 0001:0003eed4       _forcdecpt_l               000000018003fed4 f   LIBCMT:cvt.obj
 0001:0003ef54       _positive                  000000018003ff54 f   LIBCMT:cvt.obj
 0001:0003ef68       _initp_misc_cfltcvt_tab    000000018003ff68 f   LIBCMT:cmiscdat.obj
 0001:0003efa4       calloc                     000000018003ffa4 f   LIBCMT:calloc.obj
 0001:0003efe8       wcscpy_s                   000000018003ffe8 f   LIBCMT:wcscpy_s.obj
 0001:0003f054       wcslen                     0000000180040054 f   LIBCMT:wcslen.obj
 0001:0003f070       _heap_init                 0000000180040070 f   LIBCMT:heapinit.obj
 0001:0003f090       _heap_term                 0000000180040090 f   LIBCMT:heapinit.obj
 0001:0003f09c       _callnewh                  000000018004009c f   LIBCMT:handler.obj
 0001:0003f0d0       _initp_heap_handler        00000001800400d0 f   LIBCMT:handler.obj
 0001:0003f0d8       __copy_path_to_wide_string 00000001800400d8 f   LIBCMT:crt0dat.obj
 0001:0003f1d8       __crtCorExitProcess        00000001800401d8 f   LIBCMT:crt0dat.obj
 0001:0003f21c       __crtExitProcess           000000018004021c f   LIBCMT:crt0dat.obj
 0001:0003f234       __freeCrtMemory            0000000180040234 f   LIBCMT:crt0dat.obj
 0001:0003f37c       _amsg_exit                 000000018004037c f   LIBCMT:crt0dat.obj
 0001:0003f3a4       _cexit                     00000001800403a4 f   LIBCMT:crt0dat.obj
 0001:0003f3b4       _cinit                     00000001800403b4 f   LIBCMT:crt0dat.obj
 0001:0003f464       _exit                      0000000180040464 f   LIBCMT:crt0dat.obj
 0001:0003f470       _init_pointers             0000000180040470 f   LIBCMT:crt0dat.obj
 0001:0003f4f0       _initterm_e                00000001800404f0 f   LIBCMT:crt0dat.obj
 0001:0003f52c       _lockexit                  000000018004052c f   LIBCMT:crt0dat.obj
 0001:0003f538       _unlockexit                0000000180040538 f   LIBCMT:crt0dat.obj
 0001:0003f6dc       _FF_MSGBANNER              00000001800406dc f   LIBCMT:crt0msg.obj
 0001:0003f720       _GET_RTERRMSG              0000000180040720 f   LIBCMT:crt0msg.obj
 0001:0003f750       _NMSG_WRITE                0000000180040750 f   LIBCMT:crt0msg.obj
 0001:0003f9d0       _get_fpsr                  00000001800409d0 f   LIBCMT:fpsr.obj
 0001:0003f9e0       _set_fpsr                  00000001800409e0 f   LIBCMT:fpsr.obj
 0001:0003f9ea       _fclrf                     00000001800409ea f   LIBCMT:fpsr.obj
 0001:0003f9fe       _frnd                      00000001800409fe f   LIBCMT:fpsr.obj
 0001:0003fa20       __C_specific_handler       0000000180040a20 f   LIBCMT:chandler.obj
 0001:0003fc00       __isa_available_init       0000000180040c00 f   LIBCMT:cpu_disp.obj
 0001:0003fd08       __sys_errlist              0000000180040d08 f   LIBCMT:syserr.obj
 0001:0003fd10       __sys_nerr                 0000000180040d10 f   LIBCMT:syserr.obj
 0001:0003fd18       strcpy_s                   0000000180040d18 f   LIBCMT:strcpy_s.obj
 0001:0003fd7c       _freefls                   0000000180040d7c f   LIBCMT:tidtable.obj
 0001:0003feb0       _freeptd                   0000000180040eb0 f   LIBCMT:tidtable.obj
 0001:0003feec       _getptd                    0000000180040eec f   LIBCMT:tidtable.obj
 0001:0003ff10       _getptd_noexit             0000000180040f10 f   LIBCMT:tidtable.obj
 0001:0003ff94       _initptd                   0000000180040f94 f   LIBCMT:tidtable.obj
 0001:00040058       _mtinit                    0000000180041058 f   LIBCMT:tidtable.obj
 0001:000400d8       _mtterm                    00000001800410d8 f   LIBCMT:tidtable.obj
 0001:000400fc       _calloc_crt                00000001800410fc f   LIBCMT:crtheap.obj
 0001:0004017c       _malloc_crt                000000018004117c f   LIBCMT:crtheap.obj
 0001:000401f8       _realloc_crt               00000001800411f8 f   LIBCMT:crtheap.obj
 0001:0004027c       _recalloc_crt              000000018004127c f   LIBCMT:crtheap.obj
 0001:00040304       _fcloseall                 0000000180041304 f   LIBCMT:closeall.obj
 0001:000403ac       _lock                      00000001800413ac f   LIBCMT:mlock.obj
 0001:000403f0       _mtdeletelocks             00000001800413f0 f   LIBCMT:mlock.obj
 0001:00040478       _mtinitlocknum             0000000180041478 f   LIBCMT:mlock.obj
 0001:00040534       _mtinitlocks               0000000180041534 f   LIBCMT:mlock.obj
 0001:00040594       _unlock                    0000000180041594 f   LIBCMT:mlock.obj
 0001:000405ac       _fileno                    00000001800415ac f   LIBCMT:fileno.obj
 0001:000405d4       _close                     00000001800415d4 f   LIBCMT:close.obj
 0001:00040698       _close_nolock              0000000180041698 f   LIBCMT:close.obj
 0001:00040754       _freebuf                   0000000180041754 f   LIBCMT:_freebuf.obj
 0001:0004078c       _filbuf                    000000018004178c f   LIBCMT:_filbuf.obj
 0001:000408d0       memcpy_s                   00000001800418d0 f   LIBCMT:memcpy_s.obj
 0001:00040958       _read                      0000000180041958 f   LIBCMT:read.obj
 0001:00040a74       _read_nolock               0000000180041a74 f   LIBCMT:read.obj
 0001:000412d8       _ioinit                    00000001800422d8 f   LIBCMT:ioinit.obj
 0001:00041604       _ioterm                    0000000180042604 f   LIBCMT:ioinit.obj
 0001:00041678       _lseek                     0000000180042678 f   LIBCMT:lseek.obj
 0001:00041758       _lseek_nolock              0000000180042758 f   LIBCMT:lseek.obj
 0001:000417f0       _getbuf                    00000001800427f0 f   LIBCMT:_getbuf.obj
 0001:00041844       _getstream                 0000000180042844 f   LIBCMT:stream.obj
 0001:00041978       _wopenfile                 0000000180042978 f   LIBCMT:_wopen.obj
 0001:00041c70       _local_unwind              0000000180042c70 f   LIBCMT:jmpuwind.obj
 0001:00041ca0       _NLG_Notify                0000000180042ca0 f   LIBCMT:jmpuwind.obj
 0001:00041cc0       __NLG_Dispatch2            0000000180042cc0 f   LIBCMT:jmpuwind.obj
 0001:00041cd0       __NLG_Return2              0000000180042cd0 f   LIBCMT:jmpuwind.obj
 0001:00041cd4       __addlocaleref             0000000180042cd4 f   LIBCMT:localref.obj
 0001:00041d60       __freetlocinfo             0000000180042d60 f   LIBCMT:localref.obj
 0001:00041ef8       __removelocaleref          0000000180042ef8 f   LIBCMT:localref.obj
 0001:00041f9c       __updatetlocinfo           0000000180042f9c f   LIBCMT:localref.obj
 0001:00042014       _updatetlocinfoEx_nolock   0000000180043014 f   LIBCMT:localref.obj
 0001:00042078       __initmbctable             0000000180043078 f   LIBCMT:mbctype.obj
 0001:00042394       __updatetmbcinfo           0000000180043394 f   LIBCMT:mbctype.obj
 0001:00042450       _setmbcp                   0000000180043450 f   LIBCMT:mbctype.obj
 0001:000426ac       _setmbcp_nolock            00000001800436ac f   LIBCMT:mbctype.obj
 0001:0004295c       _isctype_l                 000000018004395c f   LIBCMT:isctype.obj
 0001:00042a38       _locterm                   0000000180043a38 f   LIBCMT:wsetloca.obj
 0001:00042a80       _towlower_l                0000000180043a80 f   LIBCMT:towlower.obj
 0001:00042b4c       _ftbuf                     0000000180043b4c f   LIBCMT:_sftbuf.obj
 0001:00042b84       _stbuf                     0000000180043b84 f   LIBCMT:_sftbuf.obj
 0001:00042d78       _handle_error              0000000180043d78 f   LIBCMT:libm_error.obj
 0001:00042ea0       _log10_special             0000000180043ea0 f   LIBCMT:log_special.obj
 0001:00042f90       _woutput_l                 0000000180043f90 f   LIBCMT:woutput.obj
 0001:00043b58       __raise_securityfailure    0000000180044b58 f   LIBCMT:gs_report.obj
 0001:00043ba4       __report_gsfailure         0000000180044ba4 f   LIBCMT:gs_report.obj
 0001:00043c78       __report_rangecheckfailure 0000000180044c78 f   LIBCMT:gs_report.obj
 0001:00043c8c       __report_securityfailure   0000000180044c8c f   LIBCMT:gs_report.obj
 0001:00043d28       __GSHandlerCheck           0000000180044d28 f   LIBCMT:gshandler.obj
 0001:00043d48       __GSHandlerCheckCommon     0000000180044d48 f   LIBCMT:gshandler.obj
 0001:00043dc0       __security_check_cookie    0000000180044dc0 f   LIBCMT:amdsecgs.obj
 0001:00043de0       _commit                    0000000180044de0 f   LIBCMT:commit.obj
 0001:00043eb8       _write                     0000000180044eb8 f   LIBCMT:write.obj
 0001:00043f98       _write_nolock              0000000180044f98 f   LIBCMT:write.obj
 0001:00044794       _input_l                   0000000180045794 f   LIBCMT:input.obj
 0001:0004577c       _lseeki64                  000000018004677c f   LIBCMT:lseeki64.obj
 0001:00045860       _lseeki64_nolock           0000000180046860 f   LIBCMT:lseeki64.obj
 0001:000458f4       _cwait                     00000001800468f4 f   LIBCMT:wait.obj
 0001:000459ac       _pipe                      00000001800469ac f   LIBCMT:pipe.obj
 0001:00045c6c       strcat_s                   0000000180046c6c f   LIBCMT:strcat_s.obj
 0001:00045d00       strlen                     0000000180046d00 f   LIBCMT:strlen.obj
 0001:00045da8       _mbsrchr                   0000000180046da8 f   LIBCMT:mbsrchr.obj
 0001:00045db0       _mbsrchr_l                 0000000180046db0 f   LIBCMT:mbsrchr.obj
 0001:00045e6c       _getpid                    0000000180046e6c f   LIBCMT:getpid.obj
 0001:00045e74       _sopen_helper              0000000180046e74 f   LIBCMT:open.obj
 0001:00045f50       _sopen_nolock              0000000180046f50 f   LIBCMT:open.obj
 0001:00045fd8       _sopen_s                   0000000180046fd8 f   LIBCMT:open.obj
 0001:0004600c       _strdup                    000000018004700c f   LIBCMT:strdup.obj
 0001:000462b8       strtoul                    00000001800472b8 f   LIBCMT:strtol.obj
 0001:000462ec       _ultoa_s                   00000001800472ec f   LIBCMT:xtoas.obj
 0001:000463f8       _rmtmp                     00000001800473f8 f   LIBCMT:rmtmp.obj
 0001:00046498       _wfdopen                   0000000180047498 f   LIBCMT:wfdopen.obj
 0001:00046654       _waccess_s                 0000000180047654 f   LIBCMT:waccess.obj
 0001:000466fc       wcscat_s                   00000001800476fc f   LIBCMT:wcscat_s.obj
 0001:00046784       _wgetpath                  0000000180047784 f   LIBCMT:wgetpath.obj
 0001:00046868       __GSHandlerCheck_SEH       0000000180047868 f   LIBCMT:gshandlerseh.obj
 0001:00046900       wcsnlen                    0000000180047900 f   LIBCMT:wcslen_s.obj
 0001:00046920       _wcsnicoll                 0000000180047920 f   LIBCMT:wcsnicol.obj
 0001:000469b4       _wcsnicoll_l               00000001800479b4 f   LIBCMT:wcsnicol.obj
 0001:00046ae4       _wsetenvp                  0000000180047ae4 f   LIBCMT:wstdenvp.obj
 0001:00046c1c       __mbtow_environ            0000000180047c1c f   LIBCMT:mbtowenv.obj
 0001:00046ce4       __crtGetEnvironmentStringsW 0000000180047ce4 f   LIBCMT:w_env.obj
 0001:00046d68       _XcptFilter                0000000180047d68 f   LIBCMT:winxfltr.obj
 0001:00046f34       __CppXcptFilter            0000000180047f34 f   LIBCMT:winxfltr.obj
 0001:00046f48       _setargv                   0000000180047f48 f   LIBCMT:stdargv.obj
 0001:00047204       _setenvp                   0000000180048204 f   LIBCMT:stdenvp.obj
 0001:00047338       __security_init_cookie     0000000180048338 f   LIBCMT:gs_support.obj
 0001:000473e4       DllMain                    00000001800483e4 f   LIBCMT:dllmain.obj
 0001:000473ec       __crtGetEnvironmentStringsA 00000001800483ec f   LIBCMT:a_env.obj
 0001:000474e0       __crtCaptureCurrentContext 00000001800484e0 f   LIBCMT:winapisupp.obj
 0001:00047550       __crtCapturePreviousContext 0000000180048550 f   LIBCMT:winapisupp.obj
 0001:000475c4       __crtFlsAlloc              00000001800485c4 f   LIBCMT:winapisupp.obj
 0001:000475e0       __crtFlsFree               00000001800485e0 f   LIBCMT:winapisupp.obj
 0001:000475fc       __crtFlsGetValue           00000001800485fc f   LIBCMT:winapisupp.obj
 0001:00047618       __crtFlsSetValue           0000000180048618 f   LIBCMT:winapisupp.obj
 0001:00047634       __crtIsPackagedApp         0000000180048634 f   LIBCMT:winapisupp.obj
 0001:00047680       __crtLoadWinApiPointers    0000000180048680 f   LIBCMT:winapisupp.obj
 0001:00047a04       __crtTerminateProcess      0000000180048a04 f   LIBCMT:winapisupp.obj
 0001:00047a24       __crtUnhandledException    0000000180048a24 f   LIBCMT:winapisupp.obj
 0001:00047a44       _RTC_Initialize            0000000180048a44 f   LIBCMT:initsect.obj
 0001:00047a7c       _RTC_Terminate             0000000180048a7c f   LIBCMT:initsect.obj
 0001:00047ab4       __crt_debugger_hook        0000000180048ab4 f   LIBCMT:dbghook.obj
 0001:00047abc       _isatty                    0000000180048abc f   LIBCMT:isatty.obj
 0001:00047b1c       _isleadbyte_l              0000000180048b1c f i LIBCMT:_wctype.obj
 0001:00047b60       isleadbyte                 0000000180048b60 f i LIBCMT:_wctype.obj
 0001:00047ba8       _get_printf_count_output   0000000180048ba8 f   LIBCMT:printf.obj
 0001:00047bc0       _wctomb_s_l                0000000180048bc0 f   LIBCMT:wctomb.obj
 0001:00047d4c       wctomb_s                   0000000180048d4c f   LIBCMT:wctomb.obj
 0001:00047d60       _tolower_l                 0000000180048d60 f   LIBCMT:tolower.obj
 0001:00047eb4       tolower                    0000000180048eb4 f   LIBCMT:tolower.obj
 0001:00047ed4       _fptostr                   0000000180048ed4 f   LIBCMT:_fptostr.obj
 0001:00047fa0       _atodbl_l                  0000000180048fa0 f   LIBCMT:atodbl.obj
 0001:00048068       _atoflt_l                  0000000180049068 f   LIBCMT:atodbl.obj
 0001:00048130       __dtold                    0000000180049130 f   LIBCMT:cfout.obj
 0001:00048200       _fltout2                   0000000180049200 f   LIBCMT:cfout.obj
 0001:000482b8       _fptrap                    00000001800492b8 f   LIBCMT:crt0fp.obj
 0001:000482c4       _calloc_impl               00000001800492c4 f   LIBCMT:calloc_impl.obj
 0001:00048360       _FindPESection             0000000180049360 f   LIBCMT:pesect.obj
 0001:000483b0       _IsNonwritableInCurrentImage 00000001800493b0 f   LIBCMT:pesect.obj
 0001:00048400       _ValidateImageBase         0000000180049400 f   LIBCMT:pesect.obj
 0001:00048430       __onexitinit               0000000180049430 f   LIBCMT:onexit.obj
 0001:00048474       _onexit                    0000000180049474 f   LIBCMT:onexit.obj
 0001:00048580       atexit                     0000000180049580 f   LIBCMT:onexit.obj
 0001:00048598       ?terminate@@YAXXZ          0000000180049598 f   LIBCMT:hooks.obj
 0001:000485b8       _initp_eh_hooks            00000001800495b8 f   LIBCMT:hooks.obj
 0001:000485d8       _initp_misc_purevirt       00000001800495d8 f   LIBCMT:inithelp.obj
 0001:000485e0       _initp_misc_rand_s         00000001800495e0 f   LIBCMT:rand_s.obj
 0001:000485e8       __get_sigabrt              00000001800495e8 f   LIBCMT:winsig.obj
 0001:000485f8       _initp_misc_winsig         00000001800495f8 f   LIBCMT:winsig.obj
 0001:00048618       raise                      0000000180049618 f   LIBCMT:winsig.obj
 0001:0004883c       wcsncpy_s                  000000018004983c f   LIBCMT:wcsncpy_s.obj
 0001:00048908       _set_error_mode            0000000180049908 f   LIBCMT:errmode.obj
 0001:00048948       __crtMessageBoxW           0000000180049948 f   LIBCMT:crtmboxw.obj
 0001:00048bb8       realloc                    0000000180049bb8 f   LIBCMT:realloc.obj
 0001:00048c8c       _recalloc                  0000000180049c8c f   LIBCMT:recalloc.obj
 0001:00048d14       __lock_fhandle             0000000180049d14 f   LIBCMT:osfinfo.obj
 0001:00048dac       _alloc_osfhnd              0000000180049dac f   LIBCMT:osfinfo.obj
 0001:00048fa4       _free_osfhnd               0000000180049fa4 f   LIBCMT:osfinfo.obj
 0001:00049050       _get_osfhandle             000000018004a050 f   LIBCMT:osfinfo.obj
 0001:000490c4       _set_osfhnd                000000018004a0c4 f   LIBCMT:osfinfo.obj
 0001:00049174       _unlock_fhandle            000000018004a174 f   LIBCMT:osfinfo.obj
 0001:00049294       _wsopen_helper             000000018004a294 f   LIBCMT:wopen.obj
 0001:00049370       _wsopen_nolock             000000018004a370 f   LIBCMT:wopen.obj
 0001:00049b2c       _wsopen_s                  000000018004ab2c f   LIBCMT:wopen.obj
 0001:00049b60       wcsncmp                    000000018004ab60 f   LIBCMT:wcsncmp.obj
 0001:00049b8c       _wcsnicmp                  000000018004ab8c f   LIBCMT:wcsnicmp.obj
 0001:00049c24       _wcsnicmp_l                000000018004ac24 f   LIBCMT:wcsnicmp.obj
 0001:00049d3c       __free_lconv_mon           000000018004ad3c f   LIBCMT:initmon.obj
 0001:00049e48       __free_lconv_num           000000018004ae48 f   LIBCMT:initnum.obj
 0001:00049eb4       __free_lc_time             000000018004aeb4 f   LIBCMT:inittime.obj
 0001:0004a580       __crtLCMapStringA          000000018004b580 f   LIBCMT:a_map.obj
 0001:0004a780       __crtGetStringTypeA        000000018004b780 f   LIBCMT:a_str.obj
 0001:0004a7fc       GetTableIndexFromLocaleName 000000018004b7fc f   LIBCMT:winapinls.obj
 0001:0004a888       __crtCompareStringEx       000000018004b888 f   LIBCMT:winapinls.obj
 0001:0004a918       __crtDownlevelLocaleNameToLCID 000000018004b918 f   LIBCMT:winapinls.obj
 0001:0004a94c       __crtLCMapStringEx         000000018004b94c f   LIBCMT:winapinls.obj
 0001:0004a9dc       __wcsnicmp_ascii           000000018004b9dc f   LIBCMT:winapinls.obj
 0001:0004aa34       iswctype                   000000018004ba34 f   LIBCMT:iswctype.obj
 0001:0004aa9c       __crtLCMapStringW          000000018004ba9c f   LIBCMT:w_map.obj
 0001:0004aae8       _raise_exc                 000000018004bae8 f   LIBCMT:fpexcept.obj
 0001:0004ab10       _raise_exc_ex              000000018004bb10 f   LIBCMT:fpexcept.obj
 0001:0004ae14       _set_errno_from_matherr    000000018004be14 f   LIBCMT:fpexcept.obj
 0001:0004ae44       _clrfp                     000000018004be44 f   LIBCMT:fpctrl.obj
 0001:0004ae64       _ctrlfp                    000000018004be64 f   LIBCMT:fpctrl.obj
 0001:0004aee0       _set_statfp                000000018004bee0 f   LIBCMT:fpctrl.obj
 0001:0004af00       _statfp                    000000018004bf00 f   LIBCMT:fpctrl.obj
 0001:0004af14       _matherr                   000000018004bf14 f   LIBCMT:matherr.obj
 0001:0004af18       _fputwc_nolock             000000018004bf18 f   LIBCMT:fputwc.obj
 0001:0004b0f0       _mbtowc_l                  000000018004c0f0 f   LIBCMT:mbtowc.obj
 0001:0004b244       mbtowc                     000000018004c244 f   LIBCMT:mbtowc.obj
 0001:0004b24c       _putwch_nolock             000000018004c24c f   LIBCMT:putwch.obj
 0001:0004b2a8       strnlen                    000000018004c2a8 f   LIBCMT:strlen_s.obj
 0001:0004b2c4       _get_fmode                 000000018004c2c4 f   LIBCMT:setmode.obj
 0001:0004b2f4       _setmode_nolock            000000018004c2f4 f   LIBCMT:setmode.obj
 0001:0004b3d4       __crtCompareStringW        000000018004c3d4 f   LIBCMT:w_cmp.obj
 0001:0004b47c       __crtwsetenv               000000018004c47c f   LIBCMT:wsetenv.obj
 0001:0004b8d0       _ismbblead                 000000018004c8d0 f   LIBCMT:ismbbyte.obj
 0001:0004b8e4       _ld12tod                   000000018004c8e4 f   LIBCMT:intrncvt.obj
 0001:0004be94       _ld12tof                   000000018004ce94 f   LIBCMT:intrncvt.obj
 0001:0004c444       __strgtold12_l             000000018004d444 f   LIBCMT:strgtold.obj
 0001:0004cc98       $I10_OUTPUT                000000018004dc98 f   LIBCMT:x10fout.obj
 0001:0004d764       _msize                     000000018004e764 f   LIBCMT:msize.obj
 0001:0004d7a0       abort                      000000018004e7a0 f   LIBCMT:abort.obj
 0001:0004d7f8       _chsize_nolock             000000018004e7f8 f   LIBCMT:chsize.obj
 0001:0004d990       _flswbuf                   000000018004e990 f   LIBCMT:_flswbuf.obj
 0001:0004db20       __termconout               000000018004eb20 f   LIBCMT:initcon.obj
 0001:0004db40       __initconout               000000018004eb40 f   LIBCMT:initcon.obj
 0001:0004db7c       __mtold12                  000000018004eb7c f   LIBCMT:mantold.obj
 0001:0004dda8       IsProcessorFeaturePresent  000000018004eda8 f   kernel32:KERNEL32.dll
 0001:0004ddae       RtlUnwindEx                000000018004edae f   kernel32:KERNEL32.dll
 0001:0004dfb8       strupr                     000000018004efb8 f   LIBCMT:strupr.obj
 0001:0004dfb8       _strupr                    000000018004efb8 f   LIBCMT:strupr.obj
 0001:0004e010       _strupr_s_l                000000018004f010 f   LIBCMT:strupr.obj
 0001:00051468       __IMPORT_DESCRIPTOR_KERNEL32 0000000180052468     kernel32:KERNEL32.dll
 0001:0005147c       __IMPORT_DESCRIPTOR_USER32 000000018005247c     user32:USER32.dll
 0001:00051490       __IMPORT_DESCRIPTOR_ADVAPI32 0000000180052490     advapi32:ADVAPI32.dll
 0001:000514a4       __IMPORT_DESCRIPTOR_SHELL32 00000001800524a4     shell32:SHELL32.dll
 0001:000514b8       __IMPORT_DESCRIPTOR_lua5.1 00000001800524b8     lua5.1:lua5.1.dll
 0001:000514cc       __IMPORT_DESCRIPTOR_RPCRT4 00000001800524cc     rpcrt4:RPCRT4.dll
 0001:000514e0       __NULL_IMPORT_DESCRIPTOR   00000001800524e0     kernel32:KERNEL32.dll
 0002:00000000       Keys                       0000000180054000     flags.obj
 0002:00001520       VirtualKeyStrings          0000000180055520     service.obj
 0002:00008a7c       _fltused                   000000018005ca7c     LIBCMT:fpinit.obj
 0002:00008a80       _ldused                    000000018005ca80     LIBCMT:fpinit.obj
 0002:00008a84       ?dazSupported@?1??_control87@@9@9 000000018005ca84     LIBCMT:ieee.obj
 0002:00008c00       _iob                       000000018005cc00     LIBCMT:_file.obj
 0002:00008fc0       __nullstring               000000018005cfc0     LIBCMT:output.obj
 0002:00008fc8       __wnullstring              000000018005cfc8     LIBCMT:output.obj
 0002:00008fd0       _cfltcvt_tab               000000018005cfd0     LIBCMT:cmiscdat.obj
 0002:00009020       __isa_available            000000018005d020     LIBCMT:cpu_disp.obj
 0002:00009024       __isa_enabled              000000018005d024     LIBCMT:cpu_disp.obj
 0002:00009028       _sys_nerr                  000000018005d028     LIBCMT:syserr.obj
 0002:0000902c       __flsindex                 000000018005d02c     LIBCMT:tidtable.obj
 0002:00009270       _lookuptrailbytes          000000018005d270     LIBCMT:read.obj
 0002:00009370       __badioinfo                000000018005d370     LIBCMT:ioinit.obj
 0002:000094d0       _mbctype                   000000018005d4d0     LIBCMT:mbctype.obj
 0002:000095d8       __ptmbcinfo                000000018005d5d8     LIBCMT:mbctype.obj
 0002:000095e0       _mbcasemap                 000000018005d5e0     LIBCMT:mbctype.obj
 0002:000096e0       __initialmbcinfo           000000018005d6e0     LIBCMT:mbctype.obj
 0002:00009908       __wclocalestr              000000018005d908     LIBCMT:nlsdata.obj
 0002:00009910       __lc_time_c                000000018005d910     LIBCMT:nlsdata.obj
 0002:00009bd0       __ptlocinfo                000000018005dbd0     LIBCMT:nlsdata.obj
 0002:00009be0       __initiallocinfo           000000018005dbe0     LIBCMT:nlsdata.obj
 0002:00009d38       __initiallocalestructinfo  000000018005dd38     LIBCMT:nlsdata.obj
 0002:00009d48       __mb_cur_max               000000018005dd48     LIBCMT:nlsdata.obj
 0002:00009d4c       __globallocalestatus       000000018005dd4c     LIBCMT:glstatus.obj
 0002:00009d60       __security_cookie          000000018005dd60     LIBCMT:gs_cookie.obj
 0002:00009d68       __security_cookie_complement 000000018005dd68     LIBCMT:gs_cookie.obj
 0002:00009d70       _tmpoff                    000000018005dd70     LIBCMT:rmtmp.obj
 0002:00009d74       _tempoff                   000000018005dd74     LIBCMT:rmtmp.obj
 0002:00009d80       __lconv_static_decimal     000000018005dd80     LIBCMT:lconv.obj
 0002:00009d84       __lconv_static_W_decimal   000000018005dd84     LIBCMT:lconv.obj
 0002:00009d88       __lconv                    000000018005dd88     LIBCMT:lconv.obj
 0002:00009d90       __lconv_c                  000000018005dd90     LIBCMT:lconv.obj
 0002:00009e28       _pctype                    000000018005de28     LIBCMT:ctype.obj
 0002:00009e30       _pwctype                   000000018005de30     LIBCMT:ctype.obj
 0002:0000a014       _matherr_flag              000000018005e014     LIBCMT:matherr.obj
 0002:0000a048       __abort_behavior           000000018005e048     LIBCMT:abort.obj
 0002:0000a050       _d_inf                     000000018005e050     LIBCMT:util.obj
 0002:0000a058       _d_ind                     000000018005e058     LIBCMT:util.obj
 0002:0000a060       _d_max                     000000018005e060     LIBCMT:util.obj
 0002:0000a068       _d_min                     000000018005e068     LIBCMT:util.obj
 0002:0000a070       _d_mzero                   000000018005e070     LIBCMT:util.obj
 0002:0000a078       _confh                     000000018005e078     LIBCMT:initcon.obj
 0002:0000a080       _pow10pos                  000000018005e080     LIBCMT:constpow.obj
 0002:0000a1e0       _pow10neg                  000000018005e1e0     LIBCMT:constpow.obj
 0002:0000a340       __fastflag                 000000018005e340     LIBCMT:fpinit.obj
 0002:0000a344       _cflush                    000000018005e344     LIBCMT:_file.obj
 0002:0000a348       __idtabsiz                 000000018005e348     LIBCMT:popen.obj
 0002:0000a350       __idpairs                  000000018005e350     LIBCMT:popen.obj
 0002:0000a498       _aenvptr                   000000018005e498     LIBCMT:dllcrt0.obj
 0002:0000a4a0       _wenvptr                   000000018005e4a0     LIBCMT:dllcrt0.obj
 0002:0000a4b0       __pInvalidArgHandler       000000018005e4b0     LIBCMT:invarg.obj
 0002:0000a4b8       _crtheap                   000000018005e4b8     LIBCMT:heapinit.obj
 0002:0000a4c0       ?_pnhHeap@@3P6AH_K@ZEA     000000018005e4c0     LIBCMT:handler.obj
 0002:0000a4c8       _C_Exit_Done               000000018005e4c8     LIBCMT:crt0dat.obj
 0002:0000a4cc       __argc                     000000018005e4cc     LIBCMT:crt0dat.obj
 0002:0000a4d0       __argv                     000000018005e4d0     LIBCMT:crt0dat.obj
 0002:0000a4d8       __wargv                    000000018005e4d8     LIBCMT:crt0dat.obj
 0002:0000a4e0       _environ                   000000018005e4e0     LIBCMT:crt0dat.obj
 0002:0000a4e8       _wenviron                  000000018005e4e8     LIBCMT:crt0dat.obj
 0002:0000a4f0       _pgmptr                    000000018005e4f0     LIBCMT:crt0dat.obj
 0002:0000a4f8       _wpgmptr                   000000018005e4f8     LIBCMT:crt0dat.obj
 0002:0000a500       _umaskval                  000000018005e500     LIBCMT:crt0dat.obj
 0002:0000a504       _exitflag                  000000018005e504     LIBCMT:crt0dat.obj
 0002:0000a508       _C_Termination_Done        000000018005e508     LIBCMT:crt0dat.obj
 0002:0000a510       __winitenv                 000000018005e510     LIBCMT:crt0dat.obj
 0002:0000a518       __initenv                  000000018005e518     LIBCMT:crt0dat.obj
 0002:0000a520       __app_type                 000000018005e520     LIBCMT:crt0msg.obj
 0002:0000ab58       _newmode                   000000018005eb58     LIBCMT:_newmode.obj
 0002:0000ab5c       __favor                    000000018005eb5c     LIBCMT:cpu_disp.obj
 0002:0000ab60       _maxwait                   000000018005eb60     LIBCMT:crtheap.obj
 0002:0000ada0       __pioinfo                  000000018005eda0     LIBCMT:ioinit.obj
 0002:0000afa0       __mblocalename             000000018005efa0     LIBCMT:mbctype.obj
 0002:0000afa8       __mbcodepage               000000018005efa8     LIBCMT:mbctype.obj
 0002:0000afac       __ismbcodepage             000000018005efac     LIBCMT:mbctype.obj
 0002:0000afb0       __mbulinfo                 000000018005efb0     LIBCMT:mbctype.obj
 0002:0000afc0       __locale_changed           000000018005efc0     LIBCMT:wsetloca.obj
 0002:0000afc8       _stdbuf                    000000018005efc8     LIBCMT:_sftbuf.obj
 0002:0000b554       _commode                   000000018005f554     LIBCMT:ncommode.obj
 0002:0000b558       _old_pfxlen                000000018005f558     LIBCMT:rmtmp.obj
 0002:0000b670       _outputformat              000000018005f670     LIBCMT:outputformat.obj
 0002:0000b678       ?__pInconsistency@@3P6AXXZEA 000000018005f678     LIBCMT:hooks.obj
 0002:0000b680       __pPurecall                000000018005f680     LIBCMT:inithelp.obj
 0002:0000b6b4       __error_mode               000000018005f6b4     LIBCMT:errmode.obj
 0002:0000b6e0       __lconv_static_null        000000018005f6e0     LIBCMT:lconv.obj
 0002:0000b6e4       __lconv_static_W_null      000000018005f6e4     LIBCMT:lconv.obj
 0002:0000b6f0       _fmode                     000000018005f6f0     LIBCMT:txtmode.obj
 0002:0000b700       EnumCP                     000000018005f700     <common>
 0002:0000b710       _debugger_hook_dummy       000000018005f710     <common>
 0002:0000b720       encodedKERNEL32Functions   000000018005f720     <common>
 0002:0000b808       _nhandle                   000000018005f808     <common>
 0002:0000b810       _pDestructExceptionObject  000000018005f810     <common>
 0002:0000b818       __dyn_tls_init_callback    000000018005f818     <common>
 0002:0000b820       __onexitend                000000018005f820     <common>
 0002:0000b828       __onexitbegin              000000018005f828     <common>
 0002:0000b830       __mbctype_initialized      000000018005f830     <common>
 0002:0000b834       __env_initialized          000000018005f834     <common>
 0002:0000b838       _acmdln                    000000018005f838     <common>
 0002:0000b840       __piob                     000000018005f840     <common>
 0002:0000b848       _nstream                   000000018005f848     <common>
 0002:0000b860       _bufin                     000000018005f860     <common>

 entry point at        0001:0003d334

 Static symbols

 0000:fff98000       .debug$S                   0000000180000000     kernel32:KERNEL32.dll
 0000:fff98000       .debug$S                   0000000180000000     kernel32:KERNEL32.dll
 0000:fff98000       .debug$S                   0000000180000000     kernel32:KERNEL32.dll
 0000:fff98000       .debug$S                   0000000180000000     kernel32:KERNEL32.dll
 0000:fff98000       .debug$S                   0000000180000000     kernel32:KERNEL32.dll
 0000:fff98000       .debug$S                   0000000180000000     kernel32:KERNEL32.dll
 0000:fff98000       .debug$S                   0000000180000000     kernel32:KERNEL32.dll
 0000:fff98000       .debug$S                   0000000180000000     kernel32:KERNEL32.dll
 0000:fff98000       .debug$S                   0000000180000000     kernel32:KERNEL32.dll
 0000:fff98000       .debug$S                   0000000180000000     rpcrt4:RPCRT4.dll
 0000:fff98000       .debug$S                   0000000180000000     rpcrt4:RPCRT4.dll
 0000:fff98000       .debug$S                   0000000180000000     rpcrt4:RPCRT4.dll
 0000:fff98000       .debug$S                   0000000180000000     rpcrt4:RPCRT4.dll
 0000:fff98000       .debug$S                   0000000180000000     lua5.1:lua5.1.dll
 0000:fff98000       .debug$S                   0000000180000000     lua5.1:lua5.1.dll
 0000:fff98000       .debug$S                   0000000180000000     lua5.1:lua5.1.dll
 0000:fff98000       .debug$S                   0000000180000000     lua5.1:lua5.1.dll
 0000:fff98000       .debug$S                   0000000180000000     lua5.1:lua5.1.dll
 0000:fff98000       .debug$S                   0000000180000000     lua5.1:lua5.1.dll
 0000:fff98000       .debug$S                   0000000180000000     lua5.1:lua5.1.dll
 0000:fff98000       .debug$S                   0000000180000000     lua5.1:lua5.1.dll
 0000:fff98000       .debug$S                   0000000180000000     lua5.1:lua5.1.dll
 0000:fff98000       .debug$S                   0000000180000000     lua5.1:lua5.1.dll
 0000:fff98000       .debug$S                   0000000180000000     lua5.1:lua5.1.dll
 0000:fff98000       .debug$S                   0000000180000000     lua5.1:lua5.1.dll
 0000:fff98000       .debug$S                   0000000180000000     lua5.1:lua5.1.dll
 0000:fff98000       .debug$S                   0000000180000000     lua5.1:lua5.1.dll
 0000:fff98000       .debug$S                   0000000180000000     lua5.1:lua5.1.dll
 0000:fff98000       .debug$S                   0000000180000000     lua5.1:lua5.1.dll
 0000:fff98000       .debug$S                   0000000180000000     lua5.1:lua5.1.dll
 0000:fff98000       .debug$S                   0000000180000000     lua5.1:lua5.1.dll
 0000:fff98000       .debug$S                   0000000180000000     lua5.1:lua5.1.dll
 0000:fff98000       .debug$S                   0000000180000000     lua5.1:lua5.1.dll
 0000:fff98000       .debug$S                   0000000180000000     lua5.1:lua5.1.dll
 0000:fff98000       .debug$S                   0000000180000000     lua5.1:lua5.1.dll
 0000:fff98000       .debug$S                   0000000180000000     lua5.1:lua5.1.dll
 0000:fff98000       .debug$S                   0000000180000000     lua5.1:lua5.1.dll
 0000:fff98000       .debug$S                   0000000180000000     lua5.1:lua5.1.dll
 0000:fff98000       .debug$S                   0000000180000000     lua5.1:lua5.1.dll
 0000:fff98000       .debug$S                   0000000180000000     lua5.1:lua5.1.dll
 0000:fff98000       .debug$S                   0000000180000000     lua5.1:lua5.1.dll
 0000:fff98000       .debug$S                   0000000180000000     lua5.1:lua5.1.dll
 0000:fff98000       .debug$S                   0000000180000000     lua5.1:lua5.1.dll
 0000:fff98000       .debug$S                   0000000180000000     lua5.1:lua5.1.dll
 0000:fff98000       .debug$S                   0000000180000000     lua5.1:lua5.1.dll
 0000:fff98000       .debug$S                   0000000180000000     lua5.1:lua5.1.dll
 0000:fff98000       .debug$S                   0000000180000000     lua5.1:lua5.1.dll
 0000:fff98000       .debug$S                   0000000180000000     lua5.1:lua5.1.dll
 0000:fff98000       .debug$S                   0000000180000000     lua5.1:lua5.1.dll
 0000:fff98000       .debug$S                   0000000180000000     lua5.1:lua5.1.dll
 0000:fff98000       .debug$S                   0000000180000000     lua5.1:lua5.1.dll
 0000:fff98000       .debug$S                   0000000180000000     lua5.1:lua5.1.dll
 0000:fff98000       .debug$S                   0000000180000000     lua5.1:lua5.1.dll
 0000:fff98000       .debug$S                   0000000180000000     lua5.1:lua5.1.dll
 0000:fff98000       .debug$S                   0000000180000000     lua5.1:lua5.1.dll
 0000:fff98000       .debug$S                   0000000180000000     lua5.1:lua5.1.dll
 0000:fff98000       .debug$S                   0000000180000000     lua5.1:lua5.1.dll
 0000:fff98000       .debug$S                   0000000180000000     lua5.1:lua5.1.dll
 0000:fff98000       .debug$S                   0000000180000000     lua5.1:lua5.1.dll
 0000:fff98000       .debug$S                   0000000180000000     lua5.1:lua5.1.dll
 0000:fff98000       .debug$S                   0000000180000000     lua5.1:lua5.1.dll
 0000:fff98000       .debug$S                   0000000180000000     lua5.1:lua5.1.dll
 0000:fff98000       .debug$S                   0000000180000000     lua5.1:lua5.1.dll
 0000:fff98000       .debug$S                   0000000180000000     lua5.1:lua5.1.dll
 0000:fff98000       .debug$S                   0000000180000000     lua5.1:lua5.1.dll
 0000:fff98000       .debug$S                   0000000180000000     lua5.1:lua5.1.dll
 0000:fff98000       .debug$S                   0000000180000000     lua5.1:lua5.1.dll
 0000:fff98000       .debug$S                   0000000180000000     lua5.1:lua5.1.dll
 0000:fff98000       .debug$S                   0000000180000000     lua5.1:lua5.1.dll
 0000:fff98000       .debug$S                   0000000180000000     lua5.1:lua5.1.dll
 0000:fff98000       .debug$S                   0000000180000000     lua5.1:lua5.1.dll
 0000:fff98000       .debug$S                   0000000180000000     lua5.1:lua5.1.dll
 0000:fff98000       .debug$S                   0000000180000000     lua5.1:lua5.1.dll
 0000:fff98000       .debug$S                   0000000180000000     lua5.1:lua5.1.dll
 0000:fff98000       .debug$S                   0000000180000000     lua5.1:lua5.1.dll
 0000:fff98000       .debug$S                   0000000180000000     lua5.1:lua5.1.dll
 0000:fff98000       .debug$S                   0000000180000000     lua5.1:lua5.1.dll
 0000:fff98000       .debug$S                   0000000180000000     lua5.1:lua5.1.dll
 0000:fff98000       .debug$S                   0000000180000000     lua5.1:lua5.1.dll
 0000:fff98000       .debug$S                   0000000180000000     lua5.1:lua5.1.dll
 0000:fff98000       .debug$S                   0000000180000000     lua5.1:lua5.1.dll
 0000:fff98000       .debug$S                   0000000180000000     lua5.1:lua5.1.dll
 0000:fff98000       .debug$S                   0000000180000000     lua5.1:lua5.1.dll
 0000:fff98000       .debug$S                   0000000180000000     lua5.1:lua5.1.dll
 0000:fff98000       .debug$S                   0000000180000000     lua5.1:lua5.1.dll
 0000:fff98000       .debug$S                   0000000180000000     lua5.1:lua5.1.dll
 0000:fff98000       .debug$S                   0000000180000000     lua5.1:lua5.1.dll
 0000:fff98000       .debug$S                   0000000180000000     lua5.1:lua5.1.dll
 0000:fff98000       .debug$S                   0000000180000000     lua5.1:lua5.1.dll
 0000:fff98000       .debug$S                   0000000180000000     lua5.1:lua5.1.dll
 0000:fff98000       .debug$S                   0000000180000000     lua5.1:lua5.1.dll
 0000:fff98000       .debug$S                   0000000180000000     lua5.1:lua5.1.dll
 0000:fff98000       .debug$S                   0000000180000000     lua5.1:lua5.1.dll
 0000:fff98000       .debug$S                   0000000180000000     lua5.1:lua5.1.dll
 0000:fff98000       .debug$S                   0000000180000000     lua5.1:lua5.1.dll
 0000:fff98000       .debug$S                   0000000180000000     lua5.1:lua5.1.dll
 0000:fff98000       .debug$S                   0000000180000000     lua5.1:lua5.1.dll
 0000:fff98000       .debug$S                   0000000180000000     lua5.1:lua5.1.dll
 0000:fff98000       .debug$S                   0000000180000000     lua5.1:lua5.1.dll
 0000:fff98000       .debug$S                   0000000180000000     lua5.1:lua5.1.dll
 0000:fff98000       .debug$S                   0000000180000000     lua5.1:lua5.1.dll
 0000:fff98000       .debug$S                   0000000180000000     lua5.1:lua5.1.dll
 0000:fff98000       .debug$S                   0000000180000000     lua5.1:lua5.1.dll
 0000:fff98000       .debug$S                   0000000180000000     shell32:SHELL32.dll
 0000:fff98000       .debug$S                   0000000180000000     shell32:SHELL32.dll
 0000:fff98000       .debug$S                   0000000180000000     advapi32:ADVAPI32.dll
 0000:fff98000       .debug$S                   0000000180000000     advapi32:ADVAPI32.dll
 0000:fff98000       .debug$S                   0000000180000000     advapi32:ADVAPI32.dll
 0000:fff98000       .debug$S                   0000000180000000     advapi32:ADVAPI32.dll
 0000:fff98000       .debug$S                   0000000180000000     advapi32:ADVAPI32.dll
 0000:fff98000       .debug$S                   0000000180000000     advapi32:ADVAPI32.dll
 0000:fff98000       .debug$S                   0000000180000000     advapi32:ADVAPI32.dll
 0000:fff98000       .debug$S                   0000000180000000     advapi32:ADVAPI32.dll
 0000:fff98000       .debug$S                   0000000180000000     user32:USER32.dll
 0000:fff98000       .debug$S                   0000000180000000     kernel32:KERNEL32.dll
 0000:fff98000       .debug$S                   0000000180000000     kernel32:KERNEL32.dll
 0000:fff98000       .debug$S                   0000000180000000     kernel32:KERNEL32.dll
 0000:fff98000       .debug$S                   0000000180000000     kernel32:KERNEL32.dll
 0000:fff98000       .debug$S                   0000000180000000     kernel32:KERNEL32.dll
 0000:fff98000       .debug$S                   0000000180000000     kernel32:KERNEL32.dll
 0000:fff98000       .debug$S                   0000000180000000     kernel32:KERNEL32.dll
 0000:fff98000       .debug$S                   0000000180000000     kernel32:KERNEL32.dll
 0000:fff98000       .debug$S                   0000000180000000     kernel32:KERNEL32.dll
 0000:fff98000       .debug$S                   0000000180000000     kernel32:KERNEL32.dll
 0000:fff98000       .debug$S                   0000000180000000     kernel32:KERNEL32.dll
 0000:fff98000       .debug$S                   0000000180000000     kernel32:KERNEL32.dll
 0000:fff98000       .debug$S                   0000000180000000     kernel32:KERNEL32.dll
 0000:fff98000       .debug$S                   0000000180000000     kernel32:KERNEL32.dll
 0000:fff98000       .debug$S                   0000000180000000     kernel32:KERNEL32.dll
 0000:fff98000       .debug$S                   0000000180000000     kernel32:KERNEL32.dll
 0000:fff98000       .debug$S                   0000000180000000     kernel32:KERNEL32.dll
 0000:fff98000       .debug$S                   0000000180000000     kernel32:KERNEL32.dll
 0000:fff98000       .debug$S                   0000000180000000     kernel32:KERNEL32.dll
 0000:fff98000       .debug$S                   0000000180000000     kernel32:KERNEL32.dll
 0000:fff98000       .debug$S                   0000000180000000     kernel32:KERNEL32.dll
 0000:fff98000       .debug$S                   0000000180000000     kernel32:KERNEL32.dll
 0000:fff98000       .debug$S                   0000000180000000     kernel32:KERNEL32.dll
 0000:fff98000       .debug$S                   0000000180000000     kernel32:KERNEL32.dll
 0000:fff98000       .debug$S                   0000000180000000     kernel32:KERNEL32.dll
 0000:fff98000       .debug$S                   0000000180000000     kernel32:KERNEL32.dll
 0000:fff98000       .debug$S                   0000000180000000     kernel32:KERNEL32.dll
 0000:fff98000       .debug$S                   0000000180000000     kernel32:KERNEL32.dll
 0000:fff98000       .debug$S                   0000000180000000     kernel32:KERNEL32.dll
 0000:fff98000       .debug$S                   0000000180000000     kernel32:KERNEL32.dll
 0000:fff98000       .debug$S                   0000000180000000     kernel32:KERNEL32.dll
 0000:fff98000       .debug$S                   0000000180000000     kernel32:KERNEL32.dll
 0000:fff98000       .debug$S                   0000000180000000     kernel32:KERNEL32.dll
 0000:fff98000       .debug$S                   0000000180000000     kernel32:KERNEL32.dll
 0000:fff98000       .debug$S                   0000000180000000     kernel32:KERNEL32.dll
 0000:fff98000       .debug$S                   0000000180000000     kernel32:KERNEL32.dll
 0000:fff98000       .debug$S                   0000000180000000     kernel32:KERNEL32.dll
 0000:fff98000       .debug$S                   0000000180000000     kernel32:KERNEL32.dll
 0000:fff98000       .debug$S                   0000000180000000     kernel32:KERNEL32.dll
 0000:fff98000       .debug$S                   0000000180000000     kernel32:KERNEL32.dll
 0000:fff98000       .debug$S                   0000000180000000     kernel32:KERNEL32.dll
 0000:fff98000       .debug$S                   0000000180000000     kernel32:KERNEL32.dll
 0000:fff98000       .debug$S                   0000000180000000     kernel32:KERNEL32.dll
 0000:fff98000       .debug$S                   0000000180000000     kernel32:KERNEL32.dll
 0000:fff98000       .debug$S                   0000000180000000     kernel32:KERNEL32.dll
 0000:fff98000       .debug$S                   0000000180000000     kernel32:KERNEL32.dll
 0000:fff98000       .debug$S                   0000000180000000     kernel32:KERNEL32.dll
 0000:fff98000       .debug$S                   0000000180000000     kernel32:KERNEL32.dll
 0000:fff98000       .debug$S                   0000000180000000     kernel32:KERNEL32.dll
 0000:fff98000       .debug$S                   0000000180000000     kernel32:KERNEL32.dll
 0000:fff98000       .debug$S                   0000000180000000     kernel32:KERNEL32.dll
 0000:fff98000       .debug$S                   0000000180000000     kernel32:KERNEL32.dll
 0000:fff98000       .debug$S                   0000000180000000     kernel32:KERNEL32.dll
 0000:fff98000       .debug$S                   0000000180000000     kernel32:KERNEL32.dll
 0000:fff98000       .debug$S                   0000000180000000     kernel32:KERNEL32.dll
 0000:fff98000       .debug$S                   0000000180000000     kernel32:KERNEL32.dll
 0000:fff98000       .debug$S                   0000000180000000     kernel32:KERNEL32.dll
 0000:fff98000       .debug$S                   0000000180000000     kernel32:KERNEL32.dll
 0000:fff98000       .debug$S                   0000000180000000     kernel32:KERNEL32.dll
 0000:fff98000       .debug$S                   0000000180000000     kernel32:KERNEL32.dll
 0000:fff98000       .debug$S                   0000000180000000     kernel32:KERNEL32.dll
 0000:fff98000       .debug$S                   0000000180000000     kernel32:KERNEL32.dll
 0000:fff98000       .debug$S                   0000000180000000     kernel32:KERNEL32.dll
 0000:fff98000       .debug$S                   0000000180000000     kernel32:KERNEL32.dll
 0000:fff98000       .debug$S                   0000000180000000     kernel32:KERNEL32.dll
 0000:fff98000       .debug$S                   0000000180000000     kernel32:KERNEL32.dll
 0000:fff98000       .debug$S                   0000000180000000     kernel32:KERNEL32.dll
 0000:fff98000       .debug$S                   0000000180000000     kernel32:KERNEL32.dll
 0000:fff98000       .debug$S                   0000000180000000     kernel32:KERNEL32.dll
 0000:fff98000       .debug$S                   0000000180000000     kernel32:KERNEL32.dll
 0000:fff98000       .debug$S                   0000000180000000     kernel32:KERNEL32.dll
 0000:fff98000       .debug$S                   0000000180000000     kernel32:KERNEL32.dll
 0000:fff98000       .debug$S                   0000000180000000     kernel32:KERNEL32.dll
 0000:fff98000       .debug$S                   0000000180000000     kernel32:KERNEL32.dll
 0000:fff98000       .debug$S                   0000000180000000     kernel32:KERNEL32.dll
 0000:fff98000       .debug$S                   0000000180000000     kernel32:KERNEL32.dll
 0000:fff98000       .debug$S                   0000000180000000     kernel32:KERNEL32.dll
 0000:fff98000       .debug$S                   0000000180000000     kernel32:KERNEL32.dll
 0000:fff98000       .debug$S                   0000000180000000     kernel32:KERNEL32.dll
 0000:fff98000       .debug$S                   0000000180000000     kernel32:KERNEL32.dll
 0000:fff98000       .debug$S                   0000000180000000     kernel32:KERNEL32.dll
 0000:fff98000       .debug$S                   0000000180000000     kernel32:KERNEL32.dll
 0000:fff98000       .debug$S                   0000000180000000     kernel32:KERNEL32.dll
 0000:fff98000       .debug$S                   0000000180000000     kernel32:KERNEL32.dll
 0000:fff98000       .debug$S                   0000000180000000     kernel32:KERNEL32.dll
 0000:fff98000       .debug$S                   0000000180000000     kernel32:KERNEL32.dll
 0000:fff98000       .debug$S                   0000000180000000     kernel32:KERNEL32.dll
 0000:fff98000       .debug$S                   0000000180000000     kernel32:KERNEL32.dll
 0000:fff98000       .debug$S                   0000000180000000     kernel32:KERNEL32.dll
 0000:fff98000       .debug$S                   0000000180000000     kernel32:KERNEL32.dll
 0000:fff98000       .debug$S                   0000000180000000     kernel32:KERNEL32.dll
 0000:fff98000       .debug$S                   0000000180000000     kernel32:KERNEL32.dll
 0000:fff98000       .debug$S                   0000000180000000     kernel32:KERNEL32.dll
 0000:fff98000       .debug$S                   0000000180000000     kernel32:KERNEL32.dll
 0000:fff98000       .debug$S                   0000000180000000     kernel32:KERNEL32.dll
 0000:fff98000       .debug$S                   0000000180000000     kernel32:KERNEL32.dll
 0000:fff98000       .debug$S                   0000000180000000     kernel32:KERNEL32.dll
 0000:fff98000       .debug$S                   0000000180000000     kernel32:KERNEL32.dll
 0000:fff98000       .debug$S                   0000000180000000     kernel32:KERNEL32.dll
 0000:fff98000       .debug$S                   0000000180000000     kernel32:KERNEL32.dll
 0000:fff98000       .debug$S                   0000000180000000     kernel32:KERNEL32.dll
 0000:fff98000       .debug$S                   0000000180000000     kernel32:KERNEL32.dll
 0000:fff98000       .debug$S                   0000000180000000     kernel32:KERNEL32.dll
 0000:fff98000       .debug$S                   0000000180000000     kernel32:KERNEL32.dll
 0000:fff98000       .debug$S                   0000000180000000     kernel32:KERNEL32.dll
 0000:fff98000       .debug$S                   0000000180000000     kernel32:KERNEL32.dll
 0000:fff98000       .debug$S                   0000000180000000     kernel32:KERNEL32.dll
 0000:fff98000       .debug$S                   0000000180000000     kernel32:KERNEL32.dll
 0000:fff98000       .debug$S                   0000000180000000     kernel32:KERNEL32.dll
 0001:000006e0       pinit                      00000001800016e0     LIBCMT:_file.obj
 0001:000006e8       pinit                      00000001800016e8     LIBCMT:cpu_disp.obj
 0001:000006f0       pinit                      00000001800016f0     LIBCMT:mbctype.obj
 0001:000006f8       pinit                      00000001800016f8     LIBCMT:onexit.obj
 0001:00000710       pterm                      0000000180001710     LIBCMT:wsetloca.obj
 0001:00000718       pterm                      0000000180001718     LIBCMT:rmtmp.obj
 0001:00000720       pterm                      0000000180001720     LIBCMT:initcon.obj
 0001:00000728       pterm                      0000000180001728     LIBCMT:_file.obj
 0001:000007a0       funcs                      00000001800017a0     bit64.obj
 0001:000008c0       metamethods                00000001800018c0     bit64.obj
 0001:00000a70       FHELP_NOSHOWERROR          0000000180001a70     exported.obj
 0001:00000a78       FHELP_SELFHELP             0000000180001a78     exported.obj
 0001:00000a80       FHELP_FARHELP              0000000180001a80     exported.obj
 0001:00000a88       FHELP_CUSTOMFILE           0000000180001a88     exported.obj
 0001:00000a90       FHELP_CUSTOMPATH           0000000180001a90     exported.obj
 0001:00000a98       FHELP_GUID                 0000000180001a98     exported.obj
 0001:00000aa0       FHELP_USECONTENTS          0000000180001aa0     exported.obj
 0001:00000aa8       FHELP_NONE                 0000000180001aa8     exported.obj
 0001:00000ab0       KMFLAGS_SILENTCHECK        0000000180001ab0     exported.obj
 0001:00000ab8       KMFLAGS_DISABLEOUTPUT      0000000180001ab8     exported.obj
 0001:00000ac0       KMFLAGS_NOSENDKEYSTOPLUGINS 0000000180001ac0     exported.obj
 0001:00000ac8       KMFLAGS_ENABLEOUTPUT       0000000180001ac8     exported.obj
 0001:00000ad0       KMFLAGS_NONE               0000000180001ad0     exported.obj
 0001:00000ad8       AKMFLAGS_NONE              0000000180001ad8     exported.obj
 0001:00000ae0       FSETCLR_REDRAW             0000000180001ae0     exported.obj
 0001:00000ae8       FSETCLR_NONE               0000000180001ae8     exported.obj
 0001:00000af0       PF_PRELOAD                 0000000180001af0     exported.obj
 0001:00000af8       PF_DISABLEPANELS           0000000180001af8     exported.obj
 0001:00000b00       PF_EDITOR                  0000000180001b00     exported.obj
 0001:00000b08       PF_VIEWER                  0000000180001b08     exported.obj
 0001:00000b10       PF_FULLCMDLINE             0000000180001b10     exported.obj
 0001:00000b18       PF_DIALOG                  0000000180001b18     exported.obj
 0001:00000b20       PF_NONE                    0000000180001b20     exported.obj
 0001:00000b28       WIF_MODIFIED               0000000180001b28     exported.obj
 0001:00000b30       WIF_CURRENT                0000000180001b30     exported.obj
 0001:00000b38       WIF_MODAL                  0000000180001b38     exported.obj
 0001:00000b40       VOPT_SAVEFILEPOSITION      0000000180001b40     exported.obj
 0001:00000b48       VOPT_AUTODETECTCODEPAGE    0000000180001b48     exported.obj
 0001:00000b50       VOPT_NONE                  0000000180001b50     exported.obj
 0001:00000b58       VSMFL_REDRAW               0000000180001b58     exported.obj
 0001:00000b60       IPLFLAGS_SEPARATOR         0000000180001b60     exported.obj
 0001:00000b68       VSP_NOREDRAW               0000000180001b68     exported.obj
 0001:00000b70       VSP_PERCENT                0000000180001b70     exported.obj
 0001:00000b78       VSP_RELATIVE               0000000180001b78     exported.obj
 0001:00000b80       VSP_NORETNEWPOS            0000000180001b80     exported.obj
 0001:00000b88       PMFLAGS_FULLSCREEN         0000000180001b88     exported.obj
 0001:00000b90       PMFLAGS_DETAILEDSTATUS     0000000180001b90     exported.obj
 0001:00000b98       PMFLAGS_ALIGNEXTENSIONS    0000000180001b98     exported.obj
 0001:00000ba0       PMFLAGS_CASECONVERSION     0000000180001ba0     exported.obj
 0001:00000ba8       VMF_WRAP                   0000000180001ba8     exported.obj
 0001:00000bb0       VMF_WORDWRAP               0000000180001bb0     exported.obj
 0001:00000bb8       OPIF_DISABLEFILTER         0000000180001bb8     exported.obj
 0001:00000bc0       OPIF_DISABLESORTGROUPS     0000000180001bc0     exported.obj
 0001:00000bc8       OPIF_DISABLEHIGHLIGHTING   0000000180001bc8     exported.obj
 0001:00000bd0       OPIF_ADDDOTS               0000000180001bd0     exported.obj
 0001:00000bd8       OPIF_RAWSELECTION          0000000180001bd8     exported.obj
 0001:00000be0       OPIF_REALNAMES             0000000180001be0     exported.obj
 0001:00000be8       OPIF_SHOWNAMESONLY         0000000180001be8     exported.obj
 0001:00000bf0       OPIF_SHOWRIGHTALIGNNAMES   0000000180001bf0     exported.obj
 0001:00000bf8       OPIF_SHOWPRESERVECASE      0000000180001bf8     exported.obj
 0001:00000c00       OPIF_COMPAREFATTIME        0000000180001c00     exported.obj
 0001:00000c08       OPIF_EXTERNALGET           0000000180001c08     exported.obj
 0001:00000c10       OPIF_EXTERNALPUT           0000000180001c10     exported.obj
 0001:00000c18       OPIF_EXTERNALDELETE        0000000180001c18     exported.obj
 0001:00000c20       OPIF_EXTERNALMKDIR         0000000180001c20     exported.obj
 0001:00000c28       OPIF_USEATTRHIGHLIGHTING   0000000180001c28     exported.obj
 0001:00000c30       OPIF_USECRC32              0000000180001c30     exported.obj
 0001:00000c38       OPIF_USEFREESIZE           0000000180001c38     exported.obj
 0001:00000c40       OPIF_SHORTCUT              0000000180001c40     exported.obj
 0001:00000c48       OPIF_NONE                  0000000180001c48     exported.obj
 0001:00000c50       OPM_SILENT                 0000000180001c50     exported.obj
 0001:00000c58       OPM_FIND                   0000000180001c58     exported.obj
 0001:00000c60       OPM_VIEW                   0000000180001c60     exported.obj
 0001:00000c68       OPM_EDIT                   0000000180001c68     exported.obj
 0001:00000c70       OPM_TOPLEVEL               0000000180001c70     exported.obj
 0001:00000c78       OPM_DESCR                  0000000180001c78     exported.obj
 0001:00000c80       OPM_QUICKVIEW              0000000180001c80     exported.obj
 0001:00000c88       OPM_PGDN                   0000000180001c88     exported.obj
 0001:00000c90       FCF_FG_4BIT                0000000180001c90     exported.obj
 0001:00000c98       OPM_COMMANDS               0000000180001c98     exported.obj
 0001:00000ca0       FCF_BG_4BIT                0000000180001ca0     exported.obj
 0001:00000ca8       OPM_NONE                   0000000180001ca8     exported.obj
 0001:00000cb0       FCF_4BITMASK               0000000180001cb0     exported.obj
 0001:00000cb8       FCF_EXTENDEDFLAGS          0000000180001cb8     exported.obj
 0001:00000cc0       FCF_FG_BOLD                0000000180001cc0     exported.obj
 0001:00000cc8       FCF_FG_ITALIC              0000000180001cc8     exported.obj
 0001:00000cd0       FCF_FG_UNDERLINE           0000000180001cd0     exported.obj
 0001:00000cd8       FCF_STYLEMASK              0000000180001cd8     exported.obj
 0001:00000ce0       FCF_NONE                   0000000180001ce0     exported.obj
 0001:00000ce8       CDF_NONE                   0000000180001ce8     exported.obj
 0001:00000cf0       FMSG_WARNING               0000000180001cf0     exported.obj
 0001:00000cf8       FMSG_ERRORTYPE             0000000180001cf8     exported.obj
 0001:00000d00       FMSG_KEEPBACKGROUND        0000000180001d00     exported.obj
 0001:00000d08       FMSG_LEFTALIGN             0000000180001d08     exported.obj
 0001:00000d10       FMSG_ALLINONE              0000000180001d10     exported.obj
 0001:00000d18       FMSG_MB_OK                 0000000180001d18     exported.obj
 0001:00000d20       FMSG_MB_OKCANCEL           0000000180001d20     exported.obj
 0001:00000d28       FMSG_MB_ABORTRETRYIGNORE   0000000180001d28     exported.obj
 0001:00000d30       FMSG_MB_YESNO              0000000180001d30     exported.obj
 0001:00000d38       FMSG_MB_YESNOCANCEL        0000000180001d38     exported.obj
 0001:00000d40       FMSG_MB_RETRYCANCEL        0000000180001d40     exported.obj
 0001:00000d48       FMSG_NONE                  0000000180001d48     exported.obj
 0001:00000d50       FOSF_ACTIVE                0000000180001d50     exported.obj
 0001:00000d58       FOSF_NONE                  0000000180001d58     exported.obj
 0001:00000d60       DIF_BOXCOLOR               0000000180001d60     exported.obj
 0001:00000d68       DIF_GROUP                  0000000180001d68     exported.obj
 0001:00000d70       DIF_LEFTTEXT               0000000180001d70     exported.obj
 0001:00000d78       DIF_MOVESELECT             0000000180001d78     exported.obj
 0001:00000d80       DIF_SHOWAMPERSAND          0000000180001d80     exported.obj
 0001:00000d88       DIF_CENTERGROUP            0000000180001d88     exported.obj
 0001:00000d90       DIF_NOBRACKETS             0000000180001d90     exported.obj
 0001:00000d98       DIF_MANUALADDHISTORY       0000000180001d98     exported.obj
 0001:00000da0       DIF_SEPARATOR              0000000180001da0     exported.obj
 0001:00000da8       DIF_SEPARATOR2             0000000180001da8     exported.obj
 0001:00000db0       DIF_EDITOR                 0000000180001db0     exported.obj
 0001:00000db8       DIF_LISTNOAMPERSAND        0000000180001db8     exported.obj
 0001:00000dc0       DIF_LISTNOBOX              0000000180001dc0     exported.obj
 0001:00000dc8       DIF_HISTORY                0000000180001dc8     exported.obj
 0001:00000dd0       DIF_BTNNOCLOSE             0000000180001dd0     exported.obj
 0001:00000dd8       DIF_CENTERTEXT             0000000180001dd8     exported.obj
 0001:00000de0       DIF_SEPARATORUSER          0000000180001de0     exported.obj
 0001:00000de8       DIF_SETSHIELD              0000000180001de8     exported.obj
 0001:00000df0       DIF_EDITEXPAND             0000000180001df0     exported.obj
 0001:00000df8       DIF_DROPDOWNLIST           0000000180001df8     exported.obj
 0001:00000e00       DIF_USELASTHISTORY         0000000180001e00     exported.obj
 0001:00000e08       DIF_MASKEDIT               0000000180001e08     exported.obj
 0001:00000e10       DIF_LISTTRACKMOUSE         0000000180001e10     exported.obj
 0001:00000e18       DIF_LISTTRACKMOUSEINFOCUS  0000000180001e18     exported.obj
 0001:00000e20       DIF_SELECTONENTRY          0000000180001e20     exported.obj
 0001:00000e28       DIF_3STATE                 0000000180001e28     exported.obj
 0001:00000e30       DIF_EDITPATH               0000000180001e30     exported.obj
 0001:00000e38       DIF_LISTWRAPMODE           0000000180001e38     exported.obj
 0001:00000e40       DIF_NOAUTOCOMPLETE         0000000180001e40     exported.obj
 0001:00000e48       DIF_LISTAUTOHIGHLIGHT      0000000180001e48     exported.obj
 0001:00000e50       DIF_LISTNOCLOSE            0000000180001e50     exported.obj
 0001:00000e58       DIF_EDITPATHEXEC           0000000180001e58     exported.obj
 0001:00000e60       DIF_HIDDEN                 0000000180001e60     exported.obj
 0001:00000e68       DIF_READONLY               0000000180001e68     exported.obj
 0001:00000e70       DIF_NOFOCUS                0000000180001e70     exported.obj
 0001:00000e78       DIF_DISABLE                0000000180001e78     exported.obj
 0001:00000e80       DIF_DEFAULTBUTTON          0000000180001e80     exported.obj
 0001:00000e88       DIF_FOCUS                  0000000180001e88     exported.obj
 0001:00000e90       DIF_RIGHTTEXT              0000000180001e90     exported.obj
 0001:00000e98       DIF_WORDWRAP               0000000180001e98     exported.obj
 0001:00000ea0       DIF_NONE                   0000000180001ea0     exported.obj
 0001:00000ea8       ECF_TABMARKFIRST           0000000180001ea8     exported.obj
 0001:00000eb0       ECF_TABMARKCURRENT         0000000180001eb0     exported.obj
 0001:00000eb8       FIB_ENABLEEMPTY            0000000180001eb8     exported.obj
 0001:00000ec0       FIB_PASSWORD               0000000180001ec0     exported.obj
 0001:00000ec8       FIB_EXPANDENV              0000000180001ec8     exported.obj
 0001:00000ed0       FIB_NOUSELASTHISTORY       0000000180001ed0     exported.obj
 0001:00000ed8       FIB_BUTTONS                0000000180001ed8     exported.obj
 0001:00000ee0       FIB_NOAMPERSAND            0000000180001ee0     exported.obj
 0001:00000ee8       FIB_EDITPATH               0000000180001ee8     exported.obj
 0001:00000ef0       PCIF_FROMMAIN              0000000180001ef0     exported.obj
 0001:00000ef8       FIB_EDITPATHEXEC           0000000180001ef8     exported.obj
 0001:00000f00       FIB_NONE                   0000000180001f00     exported.obj
 0001:00000f08       PCIF_NONE                  0000000180001f08     exported.obj
 0001:00000f10       LIF_SELECTED               0000000180001f10     exported.obj
 0001:00000f18       LIF_CHECKED                0000000180001f18     exported.obj
 0001:00000f20       LIF_SEPARATOR              0000000180001f20     exported.obj
 0001:00000f28       LIF_DISABLE                0000000180001f28     exported.obj
 0001:00000f30       LIF_GRAYED                 0000000180001f30     exported.obj
 0001:00000f38       LIF_HIDDEN                 0000000180001f38     exported.obj
 0001:00000f40       LIF_DELETEUSERDATA         0000000180001f40     exported.obj
 0001:00000f48       LIF_NONE                   0000000180001f48     exported.obj
 0001:00000f50       FPF_LOADED                 0000000180001f50     exported.obj
 0001:00000f58       FPF_ANSI                   0000000180001f58     exported.obj
 0001:00000f60       FPF_NONE                   0000000180001f60     exported.obj
 0001:00000f68       FarGuid                    0000000180001f68     exported.obj
 0001:00000f78       LIFIND_EXACTMATCH          0000000180001f78     exported.obj
 0001:00000f80       LIFIND_NONE                0000000180001f80     exported.obj
 0001:00000f88       LINFO_SHOWNOBOX            0000000180001f88     exported.obj
 0001:00000f90       LINFO_AUTOHIGHLIGHT        0000000180001f90     exported.obj
 0001:00000f98       LINFO_REVERSEHIGHLIGHT     0000000180001f98     exported.obj
 0001:00000fa0       LINFO_WRAPMODE             0000000180001fa0     exported.obj
 0001:00000fa8       LINFO_SHOWAMPERSAND        0000000180001fa8     exported.obj
 0001:00000fb0       LINFO_NONE                 0000000180001fb0     exported.obj
 0001:00001008       FDLG_WARNING               0000000180002008     exported.obj
 0001:00001010       FDLG_SMALLDIALOG           0000000180002010     exported.obj
 0001:00001018       FDLG_NODRAWSHADOW          0000000180002018     exported.obj
 0001:00001020       FDLG_NODRAWPANEL           0000000180002020     exported.obj
 0001:00001028       FDLG_KEEPCONSOLETITLE      0000000180002028     exported.obj
 0001:00001030       FDLG_NONE                  0000000180002030     exported.obj
 0001:00001038       MIF_SELECTED               0000000180002038     exported.obj
 0001:00001040       MIF_CHECKED                0000000180002040     exported.obj
 0001:00001048       MIF_SEPARATOR              0000000180002048     exported.obj
 0001:00001050       MIF_DISABLE                0000000180002050     exported.obj
 0001:00001058       MIF_GRAYED                 0000000180002058     exported.obj
 0001:00001060       MIF_HIDDEN                 0000000180002060     exported.obj
 0001:00001068       MIF_NONE                   0000000180002068     exported.obj
 0001:00001070       FMENU_SHOWAMPERSAND        0000000180002070     exported.obj
 0001:00001078       FMENU_WRAPMODE             0000000180002078     exported.obj
 0001:00001080       FMENU_AUTOHIGHLIGHT        0000000180002080     exported.obj
 0001:00001088       FMENU_REVERSEAUTOHIGHLIGHT 0000000180002088     exported.obj
 0001:00001090       FMENU_CHANGECONSOLETITLE   0000000180002090     exported.obj
 0001:00001098       FMENU_NONE                 0000000180002098     exported.obj
 0001:000010a0       PPIF_SELECTED              00000001800020a0     exported.obj
 0001:000010a8       PPIF_PROCESSDESCR          00000001800020a8     exported.obj
 0001:000010b0       PPIF_NONE                  00000001800020b0     exported.obj
 0001:000010b8       PFLAGS_SHOWHIDDEN          00000001800020b8     exported.obj
 0001:000010c0       PFLAGS_HIGHLIGHT           00000001800020c0     exported.obj
 0001:000010c8       PFLAGS_REVERSESORTORDER    00000001800020c8     exported.obj
 0001:000010d0       PFLAGS_USESORTGROUPS       00000001800020d0     exported.obj
 0001:000010d8       PFLAGS_SELECTEDFIRST       00000001800020d8     exported.obj
 0001:000010e0       PFLAGS_REALNAMES           00000001800020e0     exported.obj
 0001:000010e8       PFLAGS_NUMERICSORT         00000001800020e8     exported.obj
 0001:000010f0       PFLAGS_PANELLEFT           00000001800020f0     exported.obj
 0001:000010f8       PFLAGS_DIRECTORIESFIRST    00000001800020f8     exported.obj
 0001:00001100       PFLAGS_USECRC32            0000000180002100     exported.obj
 0001:00001108       PFLAGS_CASESENSITIVESORT   0000000180002108     exported.obj
 0001:00001110       PFLAGS_PLUGIN              0000000180002110     exported.obj
 0001:00001118       PFLAGS_VISIBLE             0000000180002118     exported.obj
 0001:00001120       PFLAGS_FOCUS               0000000180002120     exported.obj
 0001:00001128       PFLAGS_ALTERNATIVENAMES    0000000180002128     exported.obj
 0001:00001130       PFLAGS_SHORTCUT            0000000180002130     exported.obj
 0001:00001138       PFLAGS_NONE                0000000180002138     exported.obj
 0001:00001140       PN_CMPNAME                 0000000180002140     exported.obj
 0001:00001148       PN_CMPNAMELIST             0000000180002148     exported.obj
 0001:00001150       PN_GENERATENAME            0000000180002150     exported.obj
 0001:00001158       PN_CHECKMASK               0000000180002158     exported.obj
 0001:00001160       PN_SKIPPATH                0000000180002160     exported.obj
 0001:00001168       PN_SHOWERRORMESSAGE        0000000180002168     exported.obj
 0001:00001170       XLAT_SWITCHKEYBLAYOUT      0000000180002170     exported.obj
 0001:00001178       XLAT_SWITCHKEYBBEEP        0000000180002178     exported.obj
 0001:00001180       XLAT_USEKEYBLAYOUTNAME     0000000180002180     exported.obj
 0001:00001188       XLAT_CONVERTALLCMDLINE     0000000180002188     exported.obj
 0001:00001190       XLAT_NONE                  0000000180002190     exported.obj
 0001:00001198       FRS_RETUPDIR               0000000180002198     exported.obj
 0001:000011a0       FRS_RECUR                  00000001800021a0     exported.obj
 0001:000011a8       FRS_SCANSYMLINK            00000001800021a8     exported.obj
 0001:000011b0       VF_NONMODAL                00000001800021b0     exported.obj
 0001:000011b8       VF_DELETEONCLOSE           00000001800021b8     exported.obj
 0001:000011c0       VF_ENABLE_F6               00000001800021c0     exported.obj
 0001:000011c8       VF_DISABLEHISTORY          00000001800021c8     exported.obj
 0001:000011d0       VF_IMMEDIATERETURN         00000001800021d0     exported.obj
 0001:000011d8       VF_DELETEONLYFILEONCLOSE   00000001800021d8     exported.obj
 0001:000011e0       VF_NONE                    00000001800021e0     exported.obj
 0001:000011e8       MLF_SHOWERRMSG             00000001800021e8     exported.obj
 0001:000011f0       MLF_DONOTUPDATEPANEL       00000001800021f0     exported.obj
 0001:000011f8       MLF_NONE                   00000001800021f8     exported.obj
 0001:00001200       EF_NONMODAL                0000000180002200     exported.obj
 0001:00001208       EF_CREATENEW               0000000180002208     exported.obj
 0001:00001210       EF_ENABLE_F6               0000000180002210     exported.obj
 0001:00001218       EF_DISABLEHISTORY          0000000180002218     exported.obj
 0001:00001220       EF_DELETEONCLOSE           0000000180002220     exported.obj
 0001:00001228       EF_IMMEDIATERETURN         0000000180002228     exported.obj
 0001:00001230       EF_DELETEONLYFILEONCLOSE   0000000180002230     exported.obj
 0001:00001238       EF_LOCKED                  0000000180002238     exported.obj
 0001:00001240       EF_DISABLESAVEPOS          0000000180002240     exported.obj
 0001:00001248       EN_NONE                    0000000180002248     exported.obj
 0001:00001250       FFFS_COMMAS                0000000180002250     exported.obj
 0001:00001258       FFFS_FLOATSIZE             0000000180002258     exported.obj
 0001:00001260       FFFS_SHOWBYTESINDEX        0000000180002260     exported.obj
 0001:00001268       FFFS_ECONOMIC              0000000180002268     exported.obj
 0001:00001270       FFFS_THOUSAND              0000000180002270     exported.obj
 0001:00001278       FFFS_MINSIZEINDEX          0000000180002278     exported.obj
 0001:00001280       FFFS_MINSIZEINDEX_MASK     0000000180002280     exported.obj
 0001:00001910       LINFO_SHOWNOBOX            0000000180002910     flags.obj
 0001:00001918       LINFO_AUTOHIGHLIGHT        0000000180002918     flags.obj
 0001:00001920       LINFO_REVERSEHIGHLIGHT     0000000180002920     flags.obj
 0001:00001928       LINFO_WRAPMODE             0000000180002928     flags.obj
 0001:00001930       LINFO_SHOWAMPERSAND        0000000180002930     flags.obj
 0001:00001938       LINFO_NONE                 0000000180002938     flags.obj
 0001:00001940       FDLG_WARNING               0000000180002940     flags.obj
 0001:00001948       FDLG_SMALLDIALOG           0000000180002948     flags.obj
 0001:00001950       FDLG_NODRAWSHADOW          0000000180002950     flags.obj
 0001:00001958       FDLG_NODRAWPANEL           0000000180002958     flags.obj
 0001:00001960       FDLG_KEEPCONSOLETITLE      0000000180002960     flags.obj
 0001:00001968       FDLG_NONE                  0000000180002968     flags.obj
 0001:00001970       MIF_SELECTED               0000000180002970     flags.obj
 0001:00001978       MIF_CHECKED                0000000180002978     flags.obj
 0001:00001980       MIF_SEPARATOR              0000000180002980     flags.obj
 0001:00001988       MIF_DISABLE                0000000180002988     flags.obj
 0001:00001990       MIF_GRAYED                 0000000180002990     flags.obj
 0001:00001998       MIF_HIDDEN                 0000000180002998     flags.obj
 0001:000019a0       MIF_NONE                   00000001800029a0     flags.obj
 0001:000019a8       FMENU_SHOWAMPERSAND        00000001800029a8     flags.obj
 0001:000019b0       FMENU_WRAPMODE             00000001800029b0     flags.obj
 0001:000019b8       FMENU_AUTOHIGHLIGHT        00000001800029b8     flags.obj
 0001:000019c0       FMENU_REVERSEAUTOHIGHLIGHT 00000001800029c0     flags.obj
 0001:000019c8       FMENU_CHANGECONSOLETITLE   00000001800029c8     flags.obj
 0001:000019d0       FMENU_NONE                 00000001800029d0     flags.obj
 0001:000019d8       PPIF_SELECTED              00000001800029d8     flags.obj
 0001:000019e0       PPIF_PROCESSDESCR          00000001800029e0     flags.obj
 0001:000019e8       PPIF_NONE                  00000001800029e8     flags.obj
 0001:000019f0       PFLAGS_SHOWHIDDEN          00000001800029f0     flags.obj
 0001:000019f8       PFLAGS_HIGHLIGHT           00000001800029f8     flags.obj
 0001:00001a00       PFLAGS_REVERSESORTORDER    0000000180002a00     flags.obj
 0001:00001a08       PFLAGS_USESORTGROUPS       0000000180002a08     flags.obj
 0001:00001a10       PFLAGS_SELECTEDFIRST       0000000180002a10     flags.obj
 0001:00001a18       PFLAGS_REALNAMES           0000000180002a18     flags.obj
 0001:00001a20       PFLAGS_NUMERICSORT         0000000180002a20     flags.obj
 0001:00001a28       PFLAGS_PANELLEFT           0000000180002a28     flags.obj
 0001:00001a30       PFLAGS_DIRECTORIESFIRST    0000000180002a30     flags.obj
 0001:00001a38       PFLAGS_USECRC32            0000000180002a38     flags.obj
 0001:00001a40       PFLAGS_CASESENSITIVESORT   0000000180002a40     flags.obj
 0001:00001a48       PFLAGS_PLUGIN              0000000180002a48     flags.obj
 0001:00001a50       PFLAGS_VISIBLE             0000000180002a50     flags.obj
 0001:00001a58       PFLAGS_FOCUS               0000000180002a58     flags.obj
 0001:00001a60       PFLAGS_ALTERNATIVENAMES    0000000180002a60     flags.obj
 0001:00001a68       PFLAGS_SHORTCUT            0000000180002a68     flags.obj
 0001:00001a70       PFLAGS_NONE                0000000180002a70     flags.obj
 0001:00001a78       PN_CMPNAME                 0000000180002a78     flags.obj
 0001:00001a80       PN_CMPNAMELIST             0000000180002a80     flags.obj
 0001:00001a88       PN_GENERATENAME            0000000180002a88     flags.obj
 0001:00001a90       PN_CHECKMASK               0000000180002a90     flags.obj
 0001:00001a98       PN_SKIPPATH                0000000180002a98     flags.obj
 0001:00001aa0       PN_SHOWERRORMESSAGE        0000000180002aa0     flags.obj
 0001:00001aa8       XLAT_SWITCHKEYBLAYOUT      0000000180002aa8     flags.obj
 0001:00001ab0       XLAT_SWITCHKEYBBEEP        0000000180002ab0     flags.obj
 0001:00001ab8       XLAT_USEKEYBLAYOUTNAME     0000000180002ab8     flags.obj
 0001:00001ac0       XLAT_CONVERTALLCMDLINE     0000000180002ac0     flags.obj
 0001:00001ac8       XLAT_NONE                  0000000180002ac8     flags.obj
 0001:00001ad0       FRS_RETUPDIR               0000000180002ad0     flags.obj
 0001:00001ad8       FRS_RECUR                  0000000180002ad8     flags.obj
 0001:00001ae0       FRS_SCANSYMLINK            0000000180002ae0     flags.obj
 0001:00001ae8       VF_NONMODAL                0000000180002ae8     flags.obj
 0001:00001af0       VF_DELETEONCLOSE           0000000180002af0     flags.obj
 0001:00001af8       VF_ENABLE_F6               0000000180002af8     flags.obj
 0001:00001b00       VF_DISABLEHISTORY          0000000180002b00     flags.obj
 0001:00001b08       VF_IMMEDIATERETURN         0000000180002b08     flags.obj
 0001:00001b10       VF_DELETEONLYFILEONCLOSE   0000000180002b10     flags.obj
 0001:00001b18       VF_NONE                    0000000180002b18     flags.obj
 0001:00001b20       MLF_SHOWERRMSG             0000000180002b20     flags.obj
 0001:00001b28       MLF_DONOTUPDATEPANEL       0000000180002b28     flags.obj
 0001:00001b30       MLF_NONE                   0000000180002b30     flags.obj
 0001:00001b38       EF_NONMODAL                0000000180002b38     flags.obj
 0001:00001b40       EF_CREATENEW               0000000180002b40     flags.obj
 0001:00001b48       EF_ENABLE_F6               0000000180002b48     flags.obj
 0001:00001b50       EF_DISABLEHISTORY          0000000180002b50     flags.obj
 0001:00001b58       EF_DELETEONCLOSE           0000000180002b58     flags.obj
 0001:00001b60       EF_IMMEDIATERETURN         0000000180002b60     flags.obj
 0001:00001b68       EF_DELETEONLYFILEONCLOSE   0000000180002b68     flags.obj
 0001:00001b70       EF_LOCKED                  0000000180002b70     flags.obj
 0001:00001b78       EF_DISABLESAVEPOS          0000000180002b78     flags.obj
 0001:00001b80       EN_NONE                    0000000180002b80     flags.obj
 0001:00001b88       FFFS_COMMAS                0000000180002b88     flags.obj
 0001:00001b90       FFFS_FLOATSIZE             0000000180002b90     flags.obj
 0001:00001b98       FFFS_SHOWBYTESINDEX        0000000180002b98     flags.obj
 0001:00001ba0       FFFS_ECONOMIC              0000000180002ba0     flags.obj
 0001:00001ba8       FFFS_THOUSAND              0000000180002ba8     flags.obj
 0001:00001bb0       FFFS_MINSIZEINDEX          0000000180002bb0     flags.obj
 0001:00001bb8       FFFS_MINSIZEINDEX_MASK     0000000180002bb8     flags.obj
 0001:00001bc0       FHELP_NOSHOWERROR          0000000180002bc0     flags.obj
 0001:00001bc8       FHELP_SELFHELP             0000000180002bc8     flags.obj
 0001:00001bd0       FHELP_FARHELP              0000000180002bd0     flags.obj
 0001:00001bd8       FHELP_CUSTOMFILE           0000000180002bd8     flags.obj
 0001:00001be0       FHELP_CUSTOMPATH           0000000180002be0     flags.obj
 0001:00001be8       FHELP_GUID                 0000000180002be8     flags.obj
 0001:00001bf0       FHELP_USECONTENTS          0000000180002bf0     flags.obj
 0001:00001bf8       FHELP_NONE                 0000000180002bf8     flags.obj
 0001:00001c00       KMFLAGS_SILENTCHECK        0000000180002c00     flags.obj
 0001:00001c08       KMFLAGS_DISABLEOUTPUT      0000000180002c08     flags.obj
 0001:00001c10       KMFLAGS_NOSENDKEYSTOPLUGINS 0000000180002c10     flags.obj
 0001:00001c18       KMFLAGS_ENABLEOUTPUT       0000000180002c18     flags.obj
 0001:00001c20       KMFLAGS_NONE               0000000180002c20     flags.obj
 0001:00001c28       AKMFLAGS_NONE              0000000180002c28     flags.obj
 0001:00001c30       FSETCLR_REDRAW             0000000180002c30     flags.obj
 0001:00001c38       FSETCLR_NONE               0000000180002c38     flags.obj
 0001:00001c40       PF_PRELOAD                 0000000180002c40     flags.obj
 0001:00001c48       PF_DISABLEPANELS           0000000180002c48     flags.obj
 0001:00001c50       PF_EDITOR                  0000000180002c50     flags.obj
 0001:00001c58       PF_VIEWER                  0000000180002c58     flags.obj
 0001:00001c60       PF_FULLCMDLINE             0000000180002c60     flags.obj
 0001:00001c68       PF_DIALOG                  0000000180002c68     flags.obj
 0001:00001c70       PF_NONE                    0000000180002c70     flags.obj
 0001:00001c78       WIF_MODIFIED               0000000180002c78     flags.obj
 0001:00001c80       WIF_CURRENT                0000000180002c80     flags.obj
 0001:00001c88       WIF_MODAL                  0000000180002c88     flags.obj
 0001:00001c90       VOPT_SAVEFILEPOSITION      0000000180002c90     flags.obj
 0001:00001c98       VOPT_AUTODETECTCODEPAGE    0000000180002c98     flags.obj
 0001:00001ca0       VOPT_NONE                  0000000180002ca0     flags.obj
 0001:00001ca8       VSMFL_REDRAW               0000000180002ca8     flags.obj
 0001:00001cb0       IPLFLAGS_SEPARATOR         0000000180002cb0     flags.obj
 0001:00001cb8       VSP_NOREDRAW               0000000180002cb8     flags.obj
 0001:00001cc0       VSP_PERCENT                0000000180002cc0     flags.obj
 0001:00001cc8       VSP_RELATIVE               0000000180002cc8     flags.obj
 0001:00001cd0       VSP_NORETNEWPOS            0000000180002cd0     flags.obj
 0001:00001cd8       PMFLAGS_FULLSCREEN         0000000180002cd8     flags.obj
 0001:00001ce0       PMFLAGS_DETAILEDSTATUS     0000000180002ce0     flags.obj
 0001:00001ce8       PMFLAGS_ALIGNEXTENSIONS    0000000180002ce8     flags.obj
 0001:00001cf0       PMFLAGS_CASECONVERSION     0000000180002cf0     flags.obj
 0001:00001cf8       VMF_WRAP                   0000000180002cf8     flags.obj
 0001:00001d00       VMF_WORDWRAP               0000000180002d00     flags.obj
 0001:00001d08       OPIF_DISABLEFILTER         0000000180002d08     flags.obj
 0001:00001d10       OPIF_DISABLESORTGROUPS     0000000180002d10     flags.obj
 0001:00001d18       OPIF_DISABLEHIGHLIGHTING   0000000180002d18     flags.obj
 0001:00001d20       OPIF_ADDDOTS               0000000180002d20     flags.obj
 0001:00001d28       OPIF_RAWSELECTION          0000000180002d28     flags.obj
 0001:00001d30       OPIF_REALNAMES             0000000180002d30     flags.obj
 0001:00001d38       OPIF_SHOWNAMESONLY         0000000180002d38     flags.obj
 0001:00001d40       OPIF_SHOWRIGHTALIGNNAMES   0000000180002d40     flags.obj
 0001:00001d48       OPIF_SHOWPRESERVECASE      0000000180002d48     flags.obj
 0001:00001d50       OPIF_COMPAREFATTIME        0000000180002d50     flags.obj
 0001:00001d58       OPIF_EXTERNALGET           0000000180002d58     flags.obj
 0001:00001d60       OPIF_EXTERNALPUT           0000000180002d60     flags.obj
 0001:00001d68       OPIF_EXTERNALDELETE        0000000180002d68     flags.obj
 0001:00001d70       OPIF_EXTERNALMKDIR         0000000180002d70     flags.obj
 0001:00001d78       OPIF_USEATTRHIGHLIGHTING   0000000180002d78     flags.obj
 0001:00001d80       OPIF_USECRC32              0000000180002d80     flags.obj
 0001:00001d88       OPIF_USEFREESIZE           0000000180002d88     flags.obj
 0001:00001d90       OPIF_SHORTCUT              0000000180002d90     flags.obj
 0001:00001d98       OPIF_NONE                  0000000180002d98     flags.obj
 0001:000032a0       OPM_SILENT                 00000001800042a0     flags.obj
 0001:000032a8       OPM_FIND                   00000001800042a8     flags.obj
 0001:000032b0       OPM_VIEW                   00000001800042b0     flags.obj
 0001:000032b8       OPM_EDIT                   00000001800042b8     flags.obj
 0001:000032c0       OPM_TOPLEVEL               00000001800042c0     flags.obj
 0001:000032c8       OPM_DESCR                  00000001800042c8     flags.obj
 0001:000032d0       OPM_QUICKVIEW              00000001800042d0     flags.obj
 0001:000032d8       OPM_PGDN                   00000001800042d8     flags.obj
 0001:000032e0       FCF_FG_4BIT                00000001800042e0     flags.obj
 0001:000032e8       OPM_COMMANDS               00000001800042e8     flags.obj
 0001:000032f0       FCF_BG_4BIT                00000001800042f0     flags.obj
 0001:000032f8       OPM_NONE                   00000001800042f8     flags.obj
 0001:00003300       FCF_4BITMASK               0000000180004300     flags.obj
 0001:00003308       FCF_EXTENDEDFLAGS          0000000180004308     flags.obj
 0001:00003310       FCF_FG_BOLD                0000000180004310     flags.obj
 0001:00003318       FCF_FG_ITALIC              0000000180004318     flags.obj
 0001:00003320       FCF_FG_UNDERLINE           0000000180004320     flags.obj
 0001:00003328       FCF_STYLEMASK              0000000180004328     flags.obj
 0001:00003330       FCF_NONE                   0000000180004330     flags.obj
 0001:00003338       CDF_NONE                   0000000180004338     flags.obj
 0001:00003340       FMSG_WARNING               0000000180004340     flags.obj
 0001:00003348       FMSG_ERRORTYPE             0000000180004348     flags.obj
 0001:00003350       FMSG_KEEPBACKGROUND        0000000180004350     flags.obj
 0001:00003358       FMSG_LEFTALIGN             0000000180004358     flags.obj
 0001:00003360       FMSG_ALLINONE              0000000180004360     flags.obj
 0001:00003368       FMSG_MB_OK                 0000000180004368     flags.obj
 0001:00003370       FMSG_MB_OKCANCEL           0000000180004370     flags.obj
 0001:00003378       FMSG_MB_ABORTRETRYIGNORE   0000000180004378     flags.obj
 0001:00003380       FMSG_MB_YESNO              0000000180004380     flags.obj
 0001:00003388       FMSG_MB_YESNOCANCEL        0000000180004388     flags.obj
 0001:00003390       FMSG_MB_RETRYCANCEL        0000000180004390     flags.obj
 0001:00003398       FMSG_NONE                  0000000180004398     flags.obj
 0001:000033a0       FOSF_ACTIVE                00000001800043a0     flags.obj
 0001:000033a8       FOSF_NONE                  00000001800043a8     flags.obj
 0001:000033b0       DIF_BOXCOLOR               00000001800043b0     flags.obj
 0001:000033b8       DIF_GROUP                  00000001800043b8     flags.obj
 0001:000033c0       DIF_LEFTTEXT               00000001800043c0     flags.obj
 0001:000033c8       DIF_MOVESELECT             00000001800043c8     flags.obj
 0001:000033d0       DIF_SHOWAMPERSAND          00000001800043d0     flags.obj
 0001:000033d8       DIF_CENTERGROUP            00000001800043d8     flags.obj
 0001:000033e0       DIF_NOBRACKETS             00000001800043e0     flags.obj
 0001:000033e8       DIF_MANUALADDHISTORY       00000001800043e8     flags.obj
 0001:000033f0       DIF_SEPARATOR              00000001800043f0     flags.obj
 0001:000033f8       DIF_SEPARATOR2             00000001800043f8     flags.obj
 0001:00003400       DIF_EDITOR                 0000000180004400     flags.obj
 0001:00003408       DIF_LISTNOAMPERSAND        0000000180004408     flags.obj
 0001:00003410       DIF_LISTNOBOX              0000000180004410     flags.obj
 0001:00003418       DIF_HISTORY                0000000180004418     flags.obj
 0001:00003420       DIF_BTNNOCLOSE             0000000180004420     flags.obj
 0001:00003428       DIF_CENTERTEXT             0000000180004428     flags.obj
 0001:00003430       DIF_SEPARATORUSER          0000000180004430     flags.obj
 0001:00003438       DIF_SETSHIELD              0000000180004438     flags.obj
 0001:00003440       DIF_EDITEXPAND             0000000180004440     flags.obj
 0001:00003448       DIF_DROPDOWNLIST           0000000180004448     flags.obj
 0001:00003450       DIF_USELASTHISTORY         0000000180004450     flags.obj
 0001:00003458       DIF_MASKEDIT               0000000180004458     flags.obj
 0001:00003460       DIF_LISTTRACKMOUSE         0000000180004460     flags.obj
 0001:00003468       DIF_LISTTRACKMOUSEINFOCUS  0000000180004468     flags.obj
 0001:00003470       DIF_SELECTONENTRY          0000000180004470     flags.obj
 0001:00003478       DIF_3STATE                 0000000180004478     flags.obj
 0001:00003480       DIF_EDITPATH               0000000180004480     flags.obj
 0001:00003488       DIF_LISTWRAPMODE           0000000180004488     flags.obj
 0001:00003490       DIF_NOAUTOCOMPLETE         0000000180004490     flags.obj
 0001:00003498       DIF_LISTAUTOHIGHLIGHT      0000000180004498     flags.obj
 0001:000034a0       DIF_LISTNOCLOSE            00000001800044a0     flags.obj
 0001:000034a8       DIF_EDITPATHEXEC           00000001800044a8     flags.obj
 0001:000034b0       DIF_HIDDEN                 00000001800044b0     flags.obj
 0001:000034b8       DIF_READONLY               00000001800044b8     flags.obj
 0001:000034c0       DIF_NOFOCUS                00000001800044c0     flags.obj
 0001:000034c8       DIF_DISABLE                00000001800044c8     flags.obj
 0001:000034d0       DIF_DEFAULTBUTTON          00000001800044d0     flags.obj
 0001:000034d8       DIF_FOCUS                  00000001800044d8     flags.obj
 0001:000034e0       DIF_RIGHTTEXT              00000001800044e0     flags.obj
 0001:000034e8       DIF_WORDWRAP               00000001800044e8     flags.obj
 0001:000034f0       DIF_NONE                   00000001800044f0     flags.obj
 0001:000034f8       ECF_TABMARKFIRST           00000001800044f8     flags.obj
 0001:00003500       ECF_TABMARKCURRENT         0000000180004500     flags.obj
 0001:00003508       FIB_ENABLEEMPTY            0000000180004508     flags.obj
 0001:00003510       FIB_PASSWORD               0000000180004510     flags.obj
 0001:00003518       FIB_EXPANDENV              0000000180004518     flags.obj
 0001:00003520       FIB_NOUSELASTHISTORY       0000000180004520     flags.obj
 0001:00003528       FIB_BUTTONS                0000000180004528     flags.obj
 0001:00003530       FIB_NOAMPERSAND            0000000180004530     flags.obj
 0001:00003538       FIB_EDITPATH               0000000180004538     flags.obj
 0001:00003540       PCIF_FROMMAIN              0000000180004540     flags.obj
 0001:00003548       FIB_EDITPATHEXEC           0000000180004548     flags.obj
 0001:00003550       FIB_NONE                   0000000180004550     flags.obj
 0001:00003558       PCIF_NONE                  0000000180004558     flags.obj
 0001:00003560       LIF_SELECTED               0000000180004560     flags.obj
 0001:00003568       LIF_CHECKED                0000000180004568     flags.obj
 0001:00003570       LIF_SEPARATOR              0000000180004570     flags.obj
 0001:00003578       LIF_DISABLE                0000000180004578     flags.obj
 0001:00003580       LIF_GRAYED                 0000000180004580     flags.obj
 0001:00003588       LIF_HIDDEN                 0000000180004588     flags.obj
 0001:00003590       LIF_DELETEUSERDATA         0000000180004590     flags.obj
 0001:00003598       LIF_NONE                   0000000180004598     flags.obj
 0001:000035a0       FPF_LOADED                 00000001800045a0     flags.obj
 0001:000035a8       FPF_ANSI                   00000001800045a8     flags.obj
 0001:000035b0       FPF_NONE                   00000001800045b0     flags.obj
 0001:000035b8       FarGuid                    00000001800045b8     flags.obj
 0001:000035c8       LIFIND_EXACTMATCH          00000001800045c8     flags.obj
 0001:000035d0       LIFIND_NONE                00000001800045d0     flags.obj
 0001:000067a0       colors                     00000001800077a0     keysandcolors.obj
 0001:00007798       FDLG_WARNING               0000000180008798     lflua.obj
 0001:000077a0       FDLG_SMALLDIALOG           00000001800087a0     lflua.obj
 0001:000077a8       FDLG_NODRAWSHADOW          00000001800087a8     lflua.obj
 0001:000077b0       FDLG_NODRAWPANEL           00000001800087b0     lflua.obj
 0001:000077b8       FDLG_KEEPCONSOLETITLE      00000001800087b8     lflua.obj
 0001:000077c0       FDLG_NONE                  00000001800087c0     lflua.obj
 0001:000077c8       MIF_SELECTED               00000001800087c8     lflua.obj
 0001:000077d0       MIF_CHECKED                00000001800087d0     lflua.obj
 0001:000077d8       MIF_SEPARATOR              00000001800087d8     lflua.obj
 0001:000077e0       MIF_DISABLE                00000001800087e0     lflua.obj
 0001:000077e8       MIF_GRAYED                 00000001800087e8     lflua.obj
 0001:000077f0       MIF_HIDDEN                 00000001800087f0     lflua.obj
 0001:000077f8       MIF_NONE                   00000001800087f8     lflua.obj
 0001:00007800       FMENU_SHOWAMPERSAND        0000000180008800     lflua.obj
 0001:00007808       FMENU_WRAPMODE             0000000180008808     lflua.obj
 0001:00007810       FMENU_AUTOHIGHLIGHT        0000000180008810     lflua.obj
 0001:00007818       FMENU_REVERSEAUTOHIGHLIGHT 0000000180008818     lflua.obj
 0001:00007820       FMENU_CHANGECONSOLETITLE   0000000180008820     lflua.obj
 0001:00007828       FMENU_NONE                 0000000180008828     lflua.obj
 0001:00007830       PPIF_SELECTED              0000000180008830     lflua.obj
 0001:00007838       PPIF_PROCESSDESCR          0000000180008838     lflua.obj
 0001:00007840       PPIF_NONE                  0000000180008840     lflua.obj
 0001:00007848       PFLAGS_SHOWHIDDEN          0000000180008848     lflua.obj
 0001:00007850       PFLAGS_HIGHLIGHT           0000000180008850     lflua.obj
 0001:00007858       PFLAGS_REVERSESORTORDER    0000000180008858     lflua.obj
 0001:00007860       PFLAGS_USESORTGROUPS       0000000180008860     lflua.obj
 0001:00007868       PFLAGS_SELECTEDFIRST       0000000180008868     lflua.obj
 0001:00007870       PFLAGS_REALNAMES           0000000180008870     lflua.obj
 0001:00007878       PFLAGS_NUMERICSORT         0000000180008878     lflua.obj
 0001:00007880       PFLAGS_PANELLEFT           0000000180008880     lflua.obj
 0001:00007888       PFLAGS_DIRECTORIESFIRST    0000000180008888     lflua.obj
 0001:00007890       PFLAGS_USECRC32            0000000180008890     lflua.obj
 0001:00007898       PFLAGS_CASESENSITIVESORT   0000000180008898     lflua.obj
 0001:000078a0       PFLAGS_PLUGIN              00000001800088a0     lflua.obj
 0001:000078a8       PFLAGS_VISIBLE             00000001800088a8     lflua.obj
 0001:000078b0       PFLAGS_FOCUS               00000001800088b0     lflua.obj
 0001:000078b8       PFLAGS_ALTERNATIVENAMES    00000001800088b8     lflua.obj
 0001:000078c0       PFLAGS_SHORTCUT            00000001800088c0     lflua.obj
 0001:000078c8       PFLAGS_NONE                00000001800088c8     lflua.obj
 0001:000078d0       PN_CMPNAME                 00000001800088d0     lflua.obj
 0001:000078d8       PN_CMPNAMELIST             00000001800088d8     lflua.obj
 0001:000078e0       PN_GENERATENAME            00000001800088e0     lflua.obj
 0001:000078e8       PN_CHECKMASK               00000001800088e8     lflua.obj
 0001:000078f0       PN_SKIPPATH                00000001800088f0     lflua.obj
 0001:000078f8       PN_SHOWERRORMESSAGE        00000001800088f8     lflua.obj
 0001:00007900       XLAT_SWITCHKEYBLAYOUT      0000000180008900     lflua.obj
 0001:00007908       XLAT_SWITCHKEYBBEEP        0000000180008908     lflua.obj
 0001:00007910       XLAT_USEKEYBLAYOUTNAME     0000000180008910     lflua.obj
 0001:00007918       XLAT_CONVERTALLCMDLINE     0000000180008918     lflua.obj
 0001:00007920       XLAT_NONE                  0000000180008920     lflua.obj
 0001:00007928       FRS_RETUPDIR               0000000180008928     lflua.obj
 0001:00007930       FRS_RECUR                  0000000180008930     lflua.obj
 0001:00007938       FRS_SCANSYMLINK            0000000180008938     lflua.obj
 0001:00007940       VF_NONMODAL                0000000180008940     lflua.obj
 0001:00007948       VF_DELETEONCLOSE           0000000180008948     lflua.obj
 0001:00007950       VF_ENABLE_F6               0000000180008950     lflua.obj
 0001:00007958       VF_DISABLEHISTORY          0000000180008958     lflua.obj
 0001:00007960       VF_IMMEDIATERETURN         0000000180008960     lflua.obj
 0001:00007968       VF_DELETEONLYFILEONCLOSE   0000000180008968     lflua.obj
 0001:00007970       VF_NONE                    0000000180008970     lflua.obj
 0001:00007978       MLF_SHOWERRMSG             0000000180008978     lflua.obj
 0001:00007980       MLF_DONOTUPDATEPANEL       0000000180008980     lflua.obj
 0001:00007988       MLF_NONE                   0000000180008988     lflua.obj
 0001:00007990       EF_NONMODAL                0000000180008990     lflua.obj
 0001:00007998       EF_CREATENEW               0000000180008998     lflua.obj
 0001:000079a0       EF_ENABLE_F6               00000001800089a0     lflua.obj
 0001:000079a8       EF_DISABLEHISTORY          00000001800089a8     lflua.obj
 0001:000079b0       EF_DELETEONCLOSE           00000001800089b0     lflua.obj
 0001:000079b8       EF_IMMEDIATERETURN         00000001800089b8     lflua.obj
 0001:000079c0       EF_DELETEONLYFILEONCLOSE   00000001800089c0     lflua.obj
 0001:000079c8       EF_LOCKED                  00000001800089c8     lflua.obj
 0001:000079d0       EF_DISABLESAVEPOS          00000001800089d0     lflua.obj
 0001:000079d8       EN_NONE                    00000001800089d8     lflua.obj
 0001:000079e0       FFFS_COMMAS                00000001800089e0     lflua.obj
 0001:000079e8       FFFS_FLOATSIZE             00000001800089e8     lflua.obj
 0001:000079f0       FFFS_SHOWBYTESINDEX        00000001800089f0     lflua.obj
 0001:000079f8       FFFS_ECONOMIC              00000001800089f8     lflua.obj
 0001:00007a00       FFFS_THOUSAND              0000000180008a00     lflua.obj
 0001:00007a08       FFFS_MINSIZEINDEX          0000000180008a08     lflua.obj
 0001:00007a10       FFFS_MINSIZEINDEX_MASK     0000000180008a10     lflua.obj
 0001:00007a18       FHELP_NOSHOWERROR          0000000180008a18     lflua.obj
 0001:00007a20       FHELP_SELFHELP             0000000180008a20     lflua.obj
 0001:00007a28       FHELP_FARHELP              0000000180008a28     lflua.obj
 0001:00007a30       FHELP_CUSTOMFILE           0000000180008a30     lflua.obj
 0001:00007a38       FHELP_CUSTOMPATH           0000000180008a38     lflua.obj
 0001:00007a40       FHELP_GUID                 0000000180008a40     lflua.obj
 0001:00007a48       FHELP_USECONTENTS          0000000180008a48     lflua.obj
 0001:00007a50       FHELP_NONE                 0000000180008a50     lflua.obj
 0001:00007a58       KMFLAGS_SILENTCHECK        0000000180008a58     lflua.obj
 0001:00007a60       KMFLAGS_DISABLEOUTPUT      0000000180008a60     lflua.obj
 0001:00007a68       KMFLAGS_NOSENDKEYSTOPLUGINS 0000000180008a68     lflua.obj
 0001:00007a70       KMFLAGS_ENABLEOUTPUT       0000000180008a70     lflua.obj
 0001:00007a78       KMFLAGS_NONE               0000000180008a78     lflua.obj
 0001:00007a80       AKMFLAGS_NONE              0000000180008a80     lflua.obj
 0001:00007a88       FSETCLR_REDRAW             0000000180008a88     lflua.obj
 0001:00007a90       FSETCLR_NONE               0000000180008a90     lflua.obj
 0001:00007a98       PF_PRELOAD                 0000000180008a98     lflua.obj
 0001:00007aa0       PF_DISABLEPANELS           0000000180008aa0     lflua.obj
 0001:00007aa8       PF_EDITOR                  0000000180008aa8     lflua.obj
 0001:00007ab0       PF_VIEWER                  0000000180008ab0     lflua.obj
 0001:00007ab8       PF_FULLCMDLINE             0000000180008ab8     lflua.obj
 0001:00007ac0       PF_DIALOG                  0000000180008ac0     lflua.obj
 0001:00007ac8       PF_NONE                    0000000180008ac8     lflua.obj
 0001:00007ad0       WIF_MODIFIED               0000000180008ad0     lflua.obj
 0001:00007ad8       WIF_CURRENT                0000000180008ad8     lflua.obj
 0001:00007ae0       WIF_MODAL                  0000000180008ae0     lflua.obj
 0001:00007ae8       VOPT_SAVEFILEPOSITION      0000000180008ae8     lflua.obj
 0001:00007af0       VOPT_AUTODETECTCODEPAGE    0000000180008af0     lflua.obj
 0001:00007af8       VOPT_NONE                  0000000180008af8     lflua.obj
 0001:00007b00       VSMFL_REDRAW               0000000180008b00     lflua.obj
 0001:00007b08       IPLFLAGS_SEPARATOR         0000000180008b08     lflua.obj
 0001:00007b10       VSP_NOREDRAW               0000000180008b10     lflua.obj
 0001:00007b18       VSP_PERCENT                0000000180008b18     lflua.obj
 0001:00007b20       VSP_RELATIVE               0000000180008b20     lflua.obj
 0001:00007b28       VSP_NORETNEWPOS            0000000180008b28     lflua.obj
 0001:00007b30       PMFLAGS_FULLSCREEN         0000000180008b30     lflua.obj
 0001:00007b38       PMFLAGS_DETAILEDSTATUS     0000000180008b38     lflua.obj
 0001:00007b40       PMFLAGS_ALIGNEXTENSIONS    0000000180008b40     lflua.obj
 0001:00007b48       PMFLAGS_CASECONVERSION     0000000180008b48     lflua.obj
 0001:00007b50       VMF_WRAP                   0000000180008b50     lflua.obj
 0001:00007b58       VMF_WORDWRAP               0000000180008b58     lflua.obj
 0001:00007b60       OPIF_DISABLEFILTER         0000000180008b60     lflua.obj
 0001:00007b68       OPIF_DISABLESORTGROUPS     0000000180008b68     lflua.obj
 0001:00007b70       OPIF_DISABLEHIGHLIGHTING   0000000180008b70     lflua.obj
 0001:00007b78       OPIF_ADDDOTS               0000000180008b78     lflua.obj
 0001:00007b80       OPIF_RAWSELECTION          0000000180008b80     lflua.obj
 0001:00007b88       OPIF_REALNAMES             0000000180008b88     lflua.obj
 0001:00007b90       OPIF_SHOWNAMESONLY         0000000180008b90     lflua.obj
 0001:00007b98       OPIF_SHOWRIGHTALIGNNAMES   0000000180008b98     lflua.obj
 0001:00007ba0       OPIF_SHOWPRESERVECASE      0000000180008ba0     lflua.obj
 0001:00007ba8       OPIF_COMPAREFATTIME        0000000180008ba8     lflua.obj
 0001:00007bb0       OPIF_EXTERNALGET           0000000180008bb0     lflua.obj
 0001:00007bb8       OPIF_EXTERNALPUT           0000000180008bb8     lflua.obj
 0001:00007bc0       OPIF_EXTERNALDELETE        0000000180008bc0     lflua.obj
 0001:00007bc8       OPIF_EXTERNALMKDIR         0000000180008bc8     lflua.obj
 0001:00007bd0       OPIF_USEATTRHIGHLIGHTING   0000000180008bd0     lflua.obj
 0001:00007bd8       OPIF_USECRC32              0000000180008bd8     lflua.obj
 0001:00007be0       OPIF_USEFREESIZE           0000000180008be0     lflua.obj
 0001:00007be8       OPIF_SHORTCUT              0000000180008be8     lflua.obj
 0001:00007bf0       OPIF_NONE                  0000000180008bf0     lflua.obj
 0001:00007bf8       OPM_SILENT                 0000000180008bf8     lflua.obj
 0001:00007c00       OPM_FIND                   0000000180008c00     lflua.obj
 0001:00007c08       OPM_VIEW                   0000000180008c08     lflua.obj
 0001:00007c10       OPM_EDIT                   0000000180008c10     lflua.obj
 0001:00007c18       OPM_TOPLEVEL               0000000180008c18     lflua.obj
 0001:00007c20       OPM_DESCR                  0000000180008c20     lflua.obj
 0001:00007c28       OPM_QUICKVIEW              0000000180008c28     lflua.obj
 0001:00007c30       OPM_PGDN                   0000000180008c30     lflua.obj
 0001:00007c38       FCF_FG_4BIT                0000000180008c38     lflua.obj
 0001:00007c40       OPM_COMMANDS               0000000180008c40     lflua.obj
 0001:00007c48       FCF_BG_4BIT                0000000180008c48     lflua.obj
 0001:00007c50       OPM_NONE                   0000000180008c50     lflua.obj
 0001:00007c58       FCF_4BITMASK               0000000180008c58     lflua.obj
 0001:00007c60       FCF_EXTENDEDFLAGS          0000000180008c60     lflua.obj
 0001:00007c68       FCF_FG_BOLD                0000000180008c68     lflua.obj
 0001:00007c70       FCF_FG_ITALIC              0000000180008c70     lflua.obj
 0001:00007c78       FCF_FG_UNDERLINE           0000000180008c78     lflua.obj
 0001:00007c80       FCF_STYLEMASK              0000000180008c80     lflua.obj
 0001:00007c88       FCF_NONE                   0000000180008c88     lflua.obj
 0001:00007c90       CDF_NONE                   0000000180008c90     lflua.obj
 0001:00007c98       FMSG_WARNING               0000000180008c98     lflua.obj
 0001:00007ca0       FMSG_ERRORTYPE             0000000180008ca0     lflua.obj
 0001:00007ca8       FMSG_KEEPBACKGROUND        0000000180008ca8     lflua.obj
 0001:00007cb0       FMSG_LEFTALIGN             0000000180008cb0     lflua.obj
 0001:00007cb8       FMSG_ALLINONE              0000000180008cb8     lflua.obj
 0001:00007cc0       FMSG_MB_OK                 0000000180008cc0     lflua.obj
 0001:00007cc8       FMSG_MB_OKCANCEL           0000000180008cc8     lflua.obj
 0001:00007cd0       FMSG_MB_ABORTRETRYIGNORE   0000000180008cd0     lflua.obj
 0001:00007cd8       FMSG_MB_YESNO              0000000180008cd8     lflua.obj
 0001:00007ce0       FMSG_MB_YESNOCANCEL        0000000180008ce0     lflua.obj
 0001:00007ce8       FMSG_MB_RETRYCANCEL        0000000180008ce8     lflua.obj
 0001:00007cf0       FMSG_NONE                  0000000180008cf0     lflua.obj
 0001:00007cf8       FOSF_ACTIVE                0000000180008cf8     lflua.obj
 0001:00007d00       FOSF_NONE                  0000000180008d00     lflua.obj
 0001:00007d08       DIF_BOXCOLOR               0000000180008d08     lflua.obj
 0001:00007d10       DIF_GROUP                  0000000180008d10     lflua.obj
 0001:00007d18       DIF_LEFTTEXT               0000000180008d18     lflua.obj
 0001:00007d20       DIF_MOVESELECT             0000000180008d20     lflua.obj
 0001:00007d28       DIF_SHOWAMPERSAND          0000000180008d28     lflua.obj
 0001:00007d30       DIF_CENTERGROUP            0000000180008d30     lflua.obj
 0001:00007d38       DIF_NOBRACKETS             0000000180008d38     lflua.obj
 0001:00007d40       DIF_MANUALADDHISTORY       0000000180008d40     lflua.obj
 0001:00007d48       DIF_SEPARATOR              0000000180008d48     lflua.obj
 0001:00007d50       DIF_SEPARATOR2             0000000180008d50     lflua.obj
 0001:00007d58       DIF_EDITOR                 0000000180008d58     lflua.obj
 0001:00007d60       DIF_LISTNOAMPERSAND        0000000180008d60     lflua.obj
 0001:00007d68       DIF_LISTNOBOX              0000000180008d68     lflua.obj
 0001:00007d70       DIF_HISTORY                0000000180008d70     lflua.obj
 0001:00007d78       DIF_BTNNOCLOSE             0000000180008d78     lflua.obj
 0001:00007d80       DIF_CENTERTEXT             0000000180008d80     lflua.obj
 0001:00007d88       DIF_SEPARATORUSER          0000000180008d88     lflua.obj
 0001:00007d90       DIF_SETSHIELD              0000000180008d90     lflua.obj
 0001:00007d98       DIF_EDITEXPAND             0000000180008d98     lflua.obj
 0001:00007da0       DIF_DROPDOWNLIST           0000000180008da0     lflua.obj
 0001:00007da8       DIF_USELASTHISTORY         0000000180008da8     lflua.obj
 0001:00007db0       DIF_MASKEDIT               0000000180008db0     lflua.obj
 0001:00007db8       DIF_LISTTRACKMOUSE         0000000180008db8     lflua.obj
 0001:00007dc0       DIF_LISTTRACKMOUSEINFOCUS  0000000180008dc0     lflua.obj
 0001:00007dc8       DIF_SELECTONENTRY          0000000180008dc8     lflua.obj
 0001:00007dd0       DIF_3STATE                 0000000180008dd0     lflua.obj
 0001:00007dd8       DIF_EDITPATH               0000000180008dd8     lflua.obj
 0001:00007de0       DIF_LISTWRAPMODE           0000000180008de0     lflua.obj
 0001:00007de8       DIF_NOAUTOCOMPLETE         0000000180008de8     lflua.obj
 0001:00007df0       DIF_LISTAUTOHIGHLIGHT      0000000180008df0     lflua.obj
 0001:00007df8       DIF_LISTNOCLOSE            0000000180008df8     lflua.obj
 0001:00007e00       DIF_EDITPATHEXEC           0000000180008e00     lflua.obj
 0001:00007e08       DIF_HIDDEN                 0000000180008e08     lflua.obj
 0001:00007e10       DIF_READONLY               0000000180008e10     lflua.obj
 0001:00007e18       DIF_NOFOCUS                0000000180008e18     lflua.obj
 0001:00007e20       DIF_DISABLE                0000000180008e20     lflua.obj
 0001:00007e28       DIF_DEFAULTBUTTON          0000000180008e28     lflua.obj
 0001:00007e30       DIF_FOCUS                  0000000180008e30     lflua.obj
 0001:00007e38       DIF_RIGHTTEXT              0000000180008e38     lflua.obj
 0001:00007e40       DIF_WORDWRAP               0000000180008e40     lflua.obj
 0001:00007e48       DIF_NONE                   0000000180008e48     lflua.obj
 0001:00007e50       ECF_TABMARKFIRST           0000000180008e50     lflua.obj
 0001:00007e58       ECF_TABMARKCURRENT         0000000180008e58     lflua.obj
 0001:00007e60       FIB_ENABLEEMPTY            0000000180008e60     lflua.obj
 0001:00007e68       FIB_PASSWORD               0000000180008e68     lflua.obj
 0001:00007e70       FIB_EXPANDENV              0000000180008e70     lflua.obj
 0001:00007e78       FIB_NOUSELASTHISTORY       0000000180008e78     lflua.obj
 0001:00007e80       FIB_BUTTONS                0000000180008e80     lflua.obj
 0001:00007e88       FIB_NOAMPERSAND            0000000180008e88     lflua.obj
 0001:00007e90       FIB_EDITPATH               0000000180008e90     lflua.obj
 0001:00007e98       PCIF_FROMMAIN              0000000180008e98     lflua.obj
 0001:00007ea0       FIB_EDITPATHEXEC           0000000180008ea0     lflua.obj
 0001:00007ea8       FIB_NONE                   0000000180008ea8     lflua.obj
 0001:00007eb0       PCIF_NONE                  0000000180008eb0     lflua.obj
 0001:00007eb8       LIF_SELECTED               0000000180008eb8     lflua.obj
 0001:00007ec0       LIF_CHECKED                0000000180008ec0     lflua.obj
 0001:00007ec8       LIF_SEPARATOR              0000000180008ec8     lflua.obj
 0001:00007ed0       LIF_DISABLE                0000000180008ed0     lflua.obj
 0001:00007ed8       LIF_GRAYED                 0000000180008ed8     lflua.obj
 0001:00007ee0       LIF_HIDDEN                 0000000180008ee0     lflua.obj
 0001:00007ee8       LIF_DELETEUSERDATA         0000000180008ee8     lflua.obj
 0001:00007ef0       LIF_NONE                   0000000180008ef0     lflua.obj
 0001:00007ef8       FPF_LOADED                 0000000180008ef8     lflua.obj
 0001:00007f00       FPF_ANSI                   0000000180008f00     lflua.obj
 0001:00007f08       FPF_NONE                   0000000180008f08     lflua.obj
 0001:00007f10       FarGuid                    0000000180008f10     lflua.obj
 0001:00007f20       LIFIND_EXACTMATCH          0000000180008f20     lflua.obj
 0001:00007f28       LIFIND_NONE                0000000180008f28     lflua.obj
 0001:00007f30       LINFO_SHOWNOBOX            0000000180008f30     lflua.obj
 0001:00007f38       LINFO_AUTOHIGHLIGHT        0000000180008f38     lflua.obj
 0001:00007f40       LINFO_REVERSEHIGHLIGHT     0000000180008f40     lflua.obj
 0001:00007f48       LINFO_WRAPMODE             0000000180008f48     lflua.obj
 0001:00007f50       LINFO_SHOWAMPERSAND        0000000180008f50     lflua.obj
 0001:00007f58       LINFO_NONE                 0000000180008f58     lflua.obj
 0001:00007fc0       KMFLAGS_SILENTCHECK        0000000180008fc0     lregex.obj
 0001:00007fc8       KMFLAGS_DISABLEOUTPUT      0000000180008fc8     lregex.obj
 0001:00007fd0       KMFLAGS_NOSENDKEYSTOPLUGINS 0000000180008fd0     lregex.obj
 0001:00007fd8       KMFLAGS_ENABLEOUTPUT       0000000180008fd8     lregex.obj
 0001:00007fe0       KMFLAGS_NONE               0000000180008fe0     lregex.obj
 0001:00007fe8       AKMFLAGS_NONE              0000000180008fe8     lregex.obj
 0001:00007ff0       FSETCLR_REDRAW             0000000180008ff0     lregex.obj
 0001:00007ff8       FSETCLR_NONE               0000000180008ff8     lregex.obj
 0001:00008000       PF_PRELOAD                 0000000180009000     lregex.obj
 0001:00008008       PF_DISABLEPANELS           0000000180009008     lregex.obj
 0001:00008010       PF_EDITOR                  0000000180009010     lregex.obj
 0001:00008018       PF_VIEWER                  0000000180009018     lregex.obj
 0001:00008020       PF_FULLCMDLINE             0000000180009020     lregex.obj
 0001:00008028       PF_DIALOG                  0000000180009028     lregex.obj
 0001:00008030       PF_NONE                    0000000180009030     lregex.obj
 0001:00008038       WIF_MODIFIED               0000000180009038     lregex.obj
 0001:00008040       WIF_CURRENT                0000000180009040     lregex.obj
 0001:00008048       WIF_MODAL                  0000000180009048     lregex.obj
 0001:00008050       VOPT_SAVEFILEPOSITION      0000000180009050     lregex.obj
 0001:00008058       VOPT_AUTODETECTCODEPAGE    0000000180009058     lregex.obj
 0001:00008060       VOPT_NONE                  0000000180009060     lregex.obj
 0001:00008068       VSMFL_REDRAW               0000000180009068     lregex.obj
 0001:00008070       IPLFLAGS_SEPARATOR         0000000180009070     lregex.obj
 0001:00008078       VSP_NOREDRAW               0000000180009078     lregex.obj
 0001:00008080       VSP_PERCENT                0000000180009080     lregex.obj
 0001:00008088       VSP_RELATIVE               0000000180009088     lregex.obj
 0001:00008090       VSP_NORETNEWPOS            0000000180009090     lregex.obj
 0001:00008098       PMFLAGS_FULLSCREEN         0000000180009098     lregex.obj
 0001:000080a0       PMFLAGS_DETAILEDSTATUS     00000001800090a0     lregex.obj
 0001:000080a8       PMFLAGS_ALIGNEXTENSIONS    00000001800090a8     lregex.obj
 0001:000080b0       PMFLAGS_CASECONVERSION     00000001800090b0     lregex.obj
 0001:000080b8       VMF_WRAP                   00000001800090b8     lregex.obj
 0001:000080c0       VMF_WORDWRAP               00000001800090c0     lregex.obj
 0001:000080c8       OPIF_DISABLEFILTER         00000001800090c8     lregex.obj
 0001:000080d0       OPIF_DISABLESORTGROUPS     00000001800090d0     lregex.obj
 0001:000080d8       OPIF_DISABLEHIGHLIGHTING   00000001800090d8     lregex.obj
 0001:000080e0       OPIF_ADDDOTS               00000001800090e0     lregex.obj
 0001:000080e8       OPIF_RAWSELECTION          00000001800090e8     lregex.obj
 0001:000080f0       OPIF_REALNAMES             00000001800090f0     lregex.obj
 0001:000080f8       OPIF_SHOWNAMESONLY         00000001800090f8     lregex.obj
 0001:00008100       OPIF_SHOWRIGHTALIGNNAMES   0000000180009100     lregex.obj
 0001:00008108       OPIF_SHOWPRESERVECASE      0000000180009108     lregex.obj
 0001:00008110       OPIF_COMPAREFATTIME        0000000180009110     lregex.obj
 0001:00008118       OPIF_EXTERNALGET           0000000180009118     lregex.obj
 0001:00008120       OPIF_EXTERNALPUT           0000000180009120     lregex.obj
 0001:00008128       OPIF_EXTERNALDELETE        0000000180009128     lregex.obj
 0001:00008130       OPIF_EXTERNALMKDIR         0000000180009130     lregex.obj
 0001:00008138       OPIF_USEATTRHIGHLIGHTING   0000000180009138     lregex.obj
 0001:00008140       OPIF_USECRC32              0000000180009140     lregex.obj
 0001:00008148       OPIF_USEFREESIZE           0000000180009148     lregex.obj
 0001:00008150       OPIF_SHORTCUT              0000000180009150     lregex.obj
 0001:00008158       OPIF_NONE                  0000000180009158     lregex.obj
 0001:00008160       OPM_SILENT                 0000000180009160     lregex.obj
 0001:00008168       OPM_FIND                   0000000180009168     lregex.obj
 0001:00008170       OPM_VIEW                   0000000180009170     lregex.obj
 0001:00008178       OPM_EDIT                   0000000180009178     lregex.obj
 0001:00008180       OPM_TOPLEVEL               0000000180009180     lregex.obj
 0001:00008188       OPM_DESCR                  0000000180009188     lregex.obj
 0001:00008190       OPM_QUICKVIEW              0000000180009190     lregex.obj
 0001:00008198       OPM_PGDN                   0000000180009198     lregex.obj
 0001:000081a0       FCF_FG_4BIT                00000001800091a0     lregex.obj
 0001:000081a8       OPM_COMMANDS               00000001800091a8     lregex.obj
 0001:000081b0       FCF_BG_4BIT                00000001800091b0     lregex.obj
 0001:000081b8       OPM_NONE                   00000001800091b8     lregex.obj
 0001:000081c0       FCF_4BITMASK               00000001800091c0     lregex.obj
 0001:000081c8       FCF_EXTENDEDFLAGS          00000001800091c8     lregex.obj
 0001:000081d0       FCF_FG_BOLD                00000001800091d0     lregex.obj
 0001:000081d8       FCF_FG_ITALIC              00000001800091d8     lregex.obj
 0001:000081e0       FCF_FG_UNDERLINE           00000001800091e0     lregex.obj
 0001:000081e8       FCF_STYLEMASK              00000001800091e8     lregex.obj
 0001:000081f0       FCF_NONE                   00000001800091f0     lregex.obj
 0001:000081f8       CDF_NONE                   00000001800091f8     lregex.obj
 0001:00008200       FMSG_WARNING               0000000180009200     lregex.obj
 0001:00008208       FMSG_ERRORTYPE             0000000180009208     lregex.obj
 0001:00008210       FMSG_KEEPBACKGROUND        0000000180009210     lregex.obj
 0001:00008218       FMSG_LEFTALIGN             0000000180009218     lregex.obj
 0001:00008220       FMSG_ALLINONE              0000000180009220     lregex.obj
 0001:00008228       FMSG_MB_OK                 0000000180009228     lregex.obj
 0001:00008230       FMSG_MB_OKCANCEL           0000000180009230     lregex.obj
 0001:00008238       FMSG_MB_ABORTRETRYIGNORE   0000000180009238     lregex.obj
 0001:00008240       FMSG_MB_YESNO              0000000180009240     lregex.obj
 0001:00008248       FMSG_MB_YESNOCANCEL        0000000180009248     lregex.obj
 0001:00008250       FMSG_MB_RETRYCANCEL        0000000180009250     lregex.obj
 0001:00008258       FMSG_NONE                  0000000180009258     lregex.obj
 0001:00008260       FOSF_ACTIVE                0000000180009260     lregex.obj
 0001:00008268       FOSF_NONE                  0000000180009268     lregex.obj
 0001:00008270       DIF_BOXCOLOR               0000000180009270     lregex.obj
 0001:00008278       DIF_GROUP                  0000000180009278     lregex.obj
 0001:00008280       DIF_LEFTTEXT               0000000180009280     lregex.obj
 0001:00008288       DIF_MOVESELECT             0000000180009288     lregex.obj
 0001:00008290       DIF_SHOWAMPERSAND          0000000180009290     lregex.obj
 0001:00008298       DIF_CENTERGROUP            0000000180009298     lregex.obj
 0001:000082a0       DIF_NOBRACKETS             00000001800092a0     lregex.obj
 0001:000082a8       DIF_MANUALADDHISTORY       00000001800092a8     lregex.obj
 0001:000082b0       DIF_SEPARATOR              00000001800092b0     lregex.obj
 0001:000082b8       DIF_SEPARATOR2             00000001800092b8     lregex.obj
 0001:000082c0       DIF_EDITOR                 00000001800092c0     lregex.obj
 0001:000082c8       DIF_LISTNOAMPERSAND        00000001800092c8     lregex.obj
 0001:000082d0       DIF_LISTNOBOX              00000001800092d0     lregex.obj
 0001:000082d8       DIF_HISTORY                00000001800092d8     lregex.obj
 0001:000082e0       DIF_BTNNOCLOSE             00000001800092e0     lregex.obj
 0001:000082e8       DIF_CENTERTEXT             00000001800092e8     lregex.obj
 0001:000082f0       DIF_SEPARATORUSER          00000001800092f0     lregex.obj
 0001:000082f8       DIF_SETSHIELD              00000001800092f8     lregex.obj
 0001:00008300       DIF_EDITEXPAND             0000000180009300     lregex.obj
 0001:00008308       DIF_DROPDOWNLIST           0000000180009308     lregex.obj
 0001:00008310       DIF_USELASTHISTORY         0000000180009310     lregex.obj
 0001:00008318       DIF_MASKEDIT               0000000180009318     lregex.obj
 0001:00008320       DIF_LISTTRACKMOUSE         0000000180009320     lregex.obj
 0001:00008328       DIF_LISTTRACKMOUSEINFOCUS  0000000180009328     lregex.obj
 0001:00008330       DIF_SELECTONENTRY          0000000180009330     lregex.obj
 0001:00008338       DIF_3STATE                 0000000180009338     lregex.obj
 0001:00008340       DIF_EDITPATH               0000000180009340     lregex.obj
 0001:00008348       DIF_LISTWRAPMODE           0000000180009348     lregex.obj
 0001:00008350       DIF_NOAUTOCOMPLETE         0000000180009350     lregex.obj
 0001:00008358       DIF_LISTAUTOHIGHLIGHT      0000000180009358     lregex.obj
 0001:00008360       DIF_LISTNOCLOSE            0000000180009360     lregex.obj
 0001:00008368       DIF_EDITPATHEXEC           0000000180009368     lregex.obj
 0001:00008370       DIF_HIDDEN                 0000000180009370     lregex.obj
 0001:00008378       DIF_READONLY               0000000180009378     lregex.obj
 0001:00008380       DIF_NOFOCUS                0000000180009380     lregex.obj
 0001:00008388       DIF_DISABLE                0000000180009388     lregex.obj
 0001:00008390       DIF_DEFAULTBUTTON          0000000180009390     lregex.obj
 0001:00008398       DIF_FOCUS                  0000000180009398     lregex.obj
 0001:000083a0       DIF_RIGHTTEXT              00000001800093a0     lregex.obj
 0001:000083a8       DIF_WORDWRAP               00000001800093a8     lregex.obj
 0001:000083b0       DIF_NONE                   00000001800093b0     lregex.obj
 0001:000083b8       ECF_TABMARKFIRST           00000001800093b8     lregex.obj
 0001:000083c0       ECF_TABMARKCURRENT         00000001800093c0     lregex.obj
 0001:000083c8       FIB_ENABLEEMPTY            00000001800093c8     lregex.obj
 0001:000083d0       FIB_PASSWORD               00000001800093d0     lregex.obj
 0001:000083d8       FIB_EXPANDENV              00000001800093d8     lregex.obj
 0001:000083e0       FIB_NOUSELASTHISTORY       00000001800093e0     lregex.obj
 0001:000083e8       FIB_BUTTONS                00000001800093e8     lregex.obj
 0001:000083f0       FIB_NOAMPERSAND            00000001800093f0     lregex.obj
 0001:000083f8       FIB_EDITPATH               00000001800093f8     lregex.obj
 0001:00008400       PCIF_FROMMAIN              0000000180009400     lregex.obj
 0001:00008408       FIB_EDITPATHEXEC           0000000180009408     lregex.obj
 0001:00008410       FIB_NONE                   0000000180009410     lregex.obj
 0001:00008418       PCIF_NONE                  0000000180009418     lregex.obj
 0001:00008420       LIF_SELECTED               0000000180009420     lregex.obj
 0001:00008428       LIF_CHECKED                0000000180009428     lregex.obj
 0001:00008430       LIF_SEPARATOR              0000000180009430     lregex.obj
 0001:00008438       LIF_DISABLE                0000000180009438     lregex.obj
 0001:00008440       LIF_GRAYED                 0000000180009440     lregex.obj
 0001:00008448       LIF_HIDDEN                 0000000180009448     lregex.obj
 0001:00008450       LIF_DELETEUSERDATA         0000000180009450     lregex.obj
 0001:00008458       LIF_NONE                   0000000180009458     lregex.obj
 0001:00008460       FPF_LOADED                 0000000180009460     lregex.obj
 0001:00008468       FPF_ANSI                   0000000180009468     lregex.obj
 0001:00008470       FPF_NONE                   0000000180009470     lregex.obj
 0001:00008478       FarGuid                    0000000180009478     lregex.obj
 0001:00008488       LIFIND_EXACTMATCH          0000000180009488     lregex.obj
 0001:00008490       LIFIND_NONE                0000000180009490     lregex.obj
 0001:00008498       LINFO_SHOWNOBOX            0000000180009498     lregex.obj
 0001:000084a0       LINFO_AUTOHIGHLIGHT        00000001800094a0     lregex.obj
 0001:000084a8       LINFO_REVERSEHIGHLIGHT     00000001800094a8     lregex.obj
 0001:000084b0       LINFO_WRAPMODE             00000001800094b0     lregex.obj
 0001:000084b8       LINFO_SHOWAMPERSAND        00000001800094b8     lregex.obj
 0001:000084c0       LINFO_NONE                 00000001800094c0     lregex.obj
 0001:000084c8       FDLG_WARNING               00000001800094c8     lregex.obj
 0001:000084d0       FDLG_SMALLDIALOG           00000001800094d0     lregex.obj
 0001:000084d8       FDLG_NODRAWSHADOW          00000001800094d8     lregex.obj
 0001:000084e0       FDLG_NODRAWPANEL           00000001800094e0     lregex.obj
 0001:000084e8       FDLG_KEEPCONSOLETITLE      00000001800094e8     lregex.obj
 0001:000084f0       FDLG_NONE                  00000001800094f0     lregex.obj
 0001:000084f8       MIF_SELECTED               00000001800094f8     lregex.obj
 0001:00008500       MIF_CHECKED                0000000180009500     lregex.obj
 0001:00008508       MIF_SEPARATOR              0000000180009508     lregex.obj
 0001:00008510       MIF_DISABLE                0000000180009510     lregex.obj
 0001:00008518       MIF_GRAYED                 0000000180009518     lregex.obj
 0001:00008520       MIF_HIDDEN                 0000000180009520     lregex.obj
 0001:00008528       MIF_NONE                   0000000180009528     lregex.obj
 0001:00008530       FMENU_SHOWAMPERSAND        0000000180009530     lregex.obj
 0001:00008538       FMENU_WRAPMODE             0000000180009538     lregex.obj
 0001:00008540       FMENU_AUTOHIGHLIGHT        0000000180009540     lregex.obj
 0001:00008548       FMENU_REVERSEAUTOHIGHLIGHT 0000000180009548     lregex.obj
 0001:00008550       FMENU_CHANGECONSOLETITLE   0000000180009550     lregex.obj
 0001:00008558       FMENU_NONE                 0000000180009558     lregex.obj
 0001:00008560       PPIF_SELECTED              0000000180009560     lregex.obj
 0001:00008568       PPIF_PROCESSDESCR          0000000180009568     lregex.obj
 0001:00008570       PPIF_NONE                  0000000180009570     lregex.obj
 0001:00008578       PFLAGS_SHOWHIDDEN          0000000180009578     lregex.obj
 0001:000086c0       PFLAGS_HIGHLIGHT           00000001800096c0     lregex.obj
 0001:000086c8       PFLAGS_REVERSESORTORDER    00000001800096c8     lregex.obj
 0001:000086d0       PFLAGS_USESORTGROUPS       00000001800096d0     lregex.obj
 0001:000086d8       PFLAGS_SELECTEDFIRST       00000001800096d8     lregex.obj
 0001:000086e0       PFLAGS_REALNAMES           00000001800096e0     lregex.obj
 0001:000086e8       PFLAGS_NUMERICSORT         00000001800096e8     lregex.obj
 0001:000086f0       PFLAGS_PANELLEFT           00000001800096f0     lregex.obj
 0001:000086f8       PFLAGS_DIRECTORIESFIRST    00000001800096f8     lregex.obj
 0001:00008700       PFLAGS_USECRC32            0000000180009700     lregex.obj
 0001:00008708       PFLAGS_CASESENSITIVESORT   0000000180009708     lregex.obj
 0001:00008710       PFLAGS_PLUGIN              0000000180009710     lregex.obj
 0001:00008718       PFLAGS_VISIBLE             0000000180009718     lregex.obj
 0001:00008720       PFLAGS_FOCUS               0000000180009720     lregex.obj
 0001:00008728       PFLAGS_ALTERNATIVENAMES    0000000180009728     lregex.obj
 0001:00008730       PFLAGS_SHORTCUT            0000000180009730     lregex.obj
 0001:00008738       PFLAGS_NONE                0000000180009738     lregex.obj
 0001:00008740       PN_CMPNAME                 0000000180009740     lregex.obj
 0001:00008748       PN_CMPNAMELIST             0000000180009748     lregex.obj
 0001:00008750       PN_GENERATENAME            0000000180009750     lregex.obj
 0001:00008758       PN_CHECKMASK               0000000180009758     lregex.obj
 0001:00008760       PN_SKIPPATH                0000000180009760     lregex.obj
 0001:00008768       PN_SHOWERRORMESSAGE        0000000180009768     lregex.obj
 0001:00008770       XLAT_SWITCHKEYBLAYOUT      0000000180009770     lregex.obj
 0001:00008778       XLAT_SWITCHKEYBBEEP        0000000180009778     lregex.obj
 0001:00008780       XLAT_USEKEYBLAYOUTNAME     0000000180009780     lregex.obj
 0001:00008788       XLAT_CONVERTALLCMDLINE     0000000180009788     lregex.obj
 0001:00008790       XLAT_NONE                  0000000180009790     lregex.obj
 0001:00008798       FRS_RETUPDIR               0000000180009798     lregex.obj
 0001:000087a0       FRS_RECUR                  00000001800097a0     lregex.obj
 0001:000087a8       FRS_SCANSYMLINK            00000001800097a8     lregex.obj
 0001:000087b0       VF_NONMODAL                00000001800097b0     lregex.obj
 0001:000087b8       VF_DELETEONCLOSE           00000001800097b8     lregex.obj
 0001:000087c0       VF_ENABLE_F6               00000001800097c0     lregex.obj
 0001:000087c8       VF_DISABLEHISTORY          00000001800097c8     lregex.obj
 0001:000087d0       VF_IMMEDIATERETURN         00000001800097d0     lregex.obj
 0001:000087d8       VF_DELETEONLYFILEONCLOSE   00000001800097d8     lregex.obj
 0001:000087e0       VF_NONE                    00000001800097e0     lregex.obj
 0001:000087e8       MLF_SHOWERRMSG             00000001800097e8     lregex.obj
 0001:000087f0       MLF_DONOTUPDATEPANEL       00000001800097f0     lregex.obj
 0001:000087f8       MLF_NONE                   00000001800097f8     lregex.obj
 0001:00008800       EF_NONMODAL                0000000180009800     lregex.obj
 0001:00008808       EF_CREATENEW               0000000180009808     lregex.obj
 0001:00008810       EF_ENABLE_F6               0000000180009810     lregex.obj
 0001:00008818       EF_DISABLEHISTORY          0000000180009818     lregex.obj
 0001:00008820       EF_DELETEONCLOSE           0000000180009820     lregex.obj
 0001:00008828       EF_IMMEDIATERETURN         0000000180009828     lregex.obj
 0001:00008830       EF_DELETEONLYFILEONCLOSE   0000000180009830     lregex.obj
 0001:00008838       EF_LOCKED                  0000000180009838     lregex.obj
 0001:00008840       EF_DISABLESAVEPOS          0000000180009840     lregex.obj
 0001:00008848       EN_NONE                    0000000180009848     lregex.obj
 0001:00008850       FFFS_COMMAS                0000000180009850     lregex.obj
 0001:00008858       FFFS_FLOATSIZE             0000000180009858     lregex.obj
 0001:00008860       FFFS_SHOWBYTESINDEX        0000000180009860     lregex.obj
 0001:00008868       FFFS_ECONOMIC              0000000180009868     lregex.obj
 0001:00008870       FFFS_THOUSAND              0000000180009870     lregex.obj
 0001:00008878       FFFS_MINSIZEINDEX          0000000180009878     lregex.obj
 0001:00008880       FFFS_MINSIZEINDEX_MASK     0000000180009880     lregex.obj
 0001:00008888       FHELP_NOSHOWERROR          0000000180009888     lregex.obj
 0001:00008890       FHELP_SELFHELP             0000000180009890     lregex.obj
 0001:00008898       FHELP_FARHELP              0000000180009898     lregex.obj
 0001:000088a0       FHELP_CUSTOMFILE           00000001800098a0     lregex.obj
 0001:000088a8       FHELP_CUSTOMPATH           00000001800098a8     lregex.obj
 0001:000088b0       FHELP_GUID                 00000001800098b0     lregex.obj
 0001:000088b8       FHELP_USECONTENTS          00000001800098b8     lregex.obj
 0001:000088c0       FHELP_NONE                 00000001800098c0     lregex.obj
 0001:00008a28       KMFLAGS_SILENTCHECK        0000000180009a28     luamacro.obj
 0001:00008a30       KMFLAGS_DISABLEOUTPUT      0000000180009a30     luamacro.obj
 0001:00008a38       KMFLAGS_NOSENDKEYSTOPLUGINS 0000000180009a38     luamacro.obj
 0001:00008a40       KMFLAGS_ENABLEOUTPUT       0000000180009a40     luamacro.obj
 0001:00008a48       KMFLAGS_NONE               0000000180009a48     luamacro.obj
 0001:00008a50       AKMFLAGS_NONE              0000000180009a50     luamacro.obj
 0001:00008a58       FSETCLR_REDRAW             0000000180009a58     luamacro.obj
 0001:00008a60       FSETCLR_NONE               0000000180009a60     luamacro.obj
 0001:00008a68       PF_PRELOAD                 0000000180009a68     luamacro.obj
 0001:00008a70       PF_DISABLEPANELS           0000000180009a70     luamacro.obj
 0001:00008a78       PF_EDITOR                  0000000180009a78     luamacro.obj
 0001:00008a80       PF_VIEWER                  0000000180009a80     luamacro.obj
 0001:00008a88       PF_FULLCMDLINE             0000000180009a88     luamacro.obj
 0001:00008a90       PF_DIALOG                  0000000180009a90     luamacro.obj
 0001:00008a98       PF_NONE                    0000000180009a98     luamacro.obj
 0001:00008aa0       WIF_MODIFIED               0000000180009aa0     luamacro.obj
 0001:00008aa8       WIF_CURRENT                0000000180009aa8     luamacro.obj
 0001:00008ab0       WIF_MODAL                  0000000180009ab0     luamacro.obj
 0001:00008ab8       VOPT_SAVEFILEPOSITION      0000000180009ab8     luamacro.obj
 0001:00008ac0       VOPT_AUTODETECTCODEPAGE    0000000180009ac0     luamacro.obj
 0001:00008ac8       VOPT_NONE                  0000000180009ac8     luamacro.obj
 0001:00008ad0       VSMFL_REDRAW               0000000180009ad0     luamacro.obj
 0001:00008ad8       IPLFLAGS_SEPARATOR         0000000180009ad8     luamacro.obj
 0001:00008ae0       VSP_NOREDRAW               0000000180009ae0     luamacro.obj
 0001:00008ae8       VSP_PERCENT                0000000180009ae8     luamacro.obj
 0001:00008af0       VSP_RELATIVE               0000000180009af0     luamacro.obj
 0001:00008af8       VSP_NORETNEWPOS            0000000180009af8     luamacro.obj
 0001:00008b00       PMFLAGS_FULLSCREEN         0000000180009b00     luamacro.obj
 0001:00008b08       PMFLAGS_DETAILEDSTATUS     0000000180009b08     luamacro.obj
 0001:00008b10       PMFLAGS_ALIGNEXTENSIONS    0000000180009b10     luamacro.obj
 0001:00008b18       PMFLAGS_CASECONVERSION     0000000180009b18     luamacro.obj
 0001:00008b20       VMF_WRAP                   0000000180009b20     luamacro.obj
 0001:00008b28       VMF_WORDWRAP               0000000180009b28     luamacro.obj
 0001:00008b30       OPIF_DISABLEFILTER         0000000180009b30     luamacro.obj
 0001:00008b38       OPIF_DISABLESORTGROUPS     0000000180009b38     luamacro.obj
 0001:00008b40       OPIF_DISABLEHIGHLIGHTING   0000000180009b40     luamacro.obj
 0001:00008b48       OPIF_ADDDOTS               0000000180009b48     luamacro.obj
 0001:00008b50       OPIF_RAWSELECTION          0000000180009b50     luamacro.obj
 0001:00008b58       OPIF_REALNAMES             0000000180009b58     luamacro.obj
 0001:00008b60       OPIF_SHOWNAMESONLY         0000000180009b60     luamacro.obj
 0001:00008b68       OPIF_SHOWRIGHTALIGNNAMES   0000000180009b68     luamacro.obj
 0001:00008b70       OPIF_SHOWPRESERVECASE      0000000180009b70     luamacro.obj
 0001:00008b78       OPIF_COMPAREFATTIME        0000000180009b78     luamacro.obj
 0001:00008b80       OPIF_EXTERNALGET           0000000180009b80     luamacro.obj
 0001:00008b88       OPIF_EXTERNALPUT           0000000180009b88     luamacro.obj
 0001:00008b90       OPIF_EXTERNALDELETE        0000000180009b90     luamacro.obj
 0001:00008b98       OPIF_EXTERNALMKDIR         0000000180009b98     luamacro.obj
 0001:00008ba0       OPIF_USEATTRHIGHLIGHTING   0000000180009ba0     luamacro.obj
 0001:00008ba8       OPIF_USECRC32              0000000180009ba8     luamacro.obj
 0001:00008bb0       OPIF_USEFREESIZE           0000000180009bb0     luamacro.obj
 0001:00008bb8       OPIF_SHORTCUT              0000000180009bb8     luamacro.obj
 0001:00008bc0       OPIF_NONE                  0000000180009bc0     luamacro.obj
 0001:00008bc8       OPM_SILENT                 0000000180009bc8     luamacro.obj
 0001:00008bd0       OPM_FIND                   0000000180009bd0     luamacro.obj
 0001:00008bd8       OPM_VIEW                   0000000180009bd8     luamacro.obj
 0001:00008be0       OPM_EDIT                   0000000180009be0     luamacro.obj
 0001:00008be8       OPM_TOPLEVEL               0000000180009be8     luamacro.obj
 0001:00008bf0       OPM_DESCR                  0000000180009bf0     luamacro.obj
 0001:00008bf8       OPM_QUICKVIEW              0000000180009bf8     luamacro.obj
 0001:00008c00       OPM_PGDN                   0000000180009c00     luamacro.obj
 0001:00008c08       FCF_FG_4BIT                0000000180009c08     luamacro.obj
 0001:00008c10       OPM_COMMANDS               0000000180009c10     luamacro.obj
 0001:00008c18       FCF_BG_4BIT                0000000180009c18     luamacro.obj
 0001:00008c20       OPM_NONE                   0000000180009c20     luamacro.obj
 0001:00008c28       FCF_4BITMASK               0000000180009c28     luamacro.obj
 0001:00008c30       FCF_EXTENDEDFLAGS          0000000180009c30     luamacro.obj
 0001:00008c38       FCF_FG_BOLD                0000000180009c38     luamacro.obj
 0001:00008c40       FCF_FG_ITALIC              0000000180009c40     luamacro.obj
 0001:00008c48       FCF_FG_UNDERLINE           0000000180009c48     luamacro.obj
 0001:00008c50       FCF_STYLEMASK              0000000180009c50     luamacro.obj
 0001:00008c58       FCF_NONE                   0000000180009c58     luamacro.obj
 0001:00008c60       CDF_NONE                   0000000180009c60     luamacro.obj
 0001:00008c68       FMSG_WARNING               0000000180009c68     luamacro.obj
 0001:00008c70       FMSG_ERRORTYPE             0000000180009c70     luamacro.obj
 0001:00008c78       FMSG_KEEPBACKGROUND        0000000180009c78     luamacro.obj
 0001:00008c80       FMSG_LEFTALIGN             0000000180009c80     luamacro.obj
 0001:00008c88       FMSG_ALLINONE              0000000180009c88     luamacro.obj
 0001:00008c90       FMSG_MB_OK                 0000000180009c90     luamacro.obj
 0001:00008c98       FMSG_MB_OKCANCEL           0000000180009c98     luamacro.obj
 0001:00008ca0       FMSG_MB_ABORTRETRYIGNORE   0000000180009ca0     luamacro.obj
 0001:00008ca8       FMSG_MB_YESNO              0000000180009ca8     luamacro.obj
 0001:00008cb0       FMSG_MB_YESNOCANCEL        0000000180009cb0     luamacro.obj
 0001:00008cb8       FMSG_MB_RETRYCANCEL        0000000180009cb8     luamacro.obj
 0001:00008cc0       FMSG_NONE                  0000000180009cc0     luamacro.obj
 0001:00008cc8       FOSF_ACTIVE                0000000180009cc8     luamacro.obj
 0001:00008cd0       FOSF_NONE                  0000000180009cd0     luamacro.obj
 0001:00008cd8       DIF_BOXCOLOR               0000000180009cd8     luamacro.obj
 0001:00008ce0       DIF_GROUP                  0000000180009ce0     luamacro.obj
 0001:00008ce8       DIF_LEFTTEXT               0000000180009ce8     luamacro.obj
 0001:00008cf0       DIF_MOVESELECT             0000000180009cf0     luamacro.obj
 0001:00008cf8       DIF_SHOWAMPERSAND          0000000180009cf8     luamacro.obj
 0001:00008d00       DIF_CENTERGROUP            0000000180009d00     luamacro.obj
 0001:00008d08       DIF_NOBRACKETS             0000000180009d08     luamacro.obj
 0001:00008d10       DIF_MANUALADDHISTORY       0000000180009d10     luamacro.obj
 0001:00008d18       DIF_SEPARATOR              0000000180009d18     luamacro.obj
 0001:00008d20       DIF_SEPARATOR2             0000000180009d20     luamacro.obj
 0001:00008d28       DIF_EDITOR                 0000000180009d28     luamacro.obj
 0001:00008d30       DIF_LISTNOAMPERSAND        0000000180009d30     luamacro.obj
 0001:00008d38       DIF_LISTNOBOX              0000000180009d38     luamacro.obj
 0001:00008d40       DIF_HISTORY                0000000180009d40     luamacro.obj
 0001:00008d48       DIF_BTNNOCLOSE             0000000180009d48     luamacro.obj
 0001:00008d50       DIF_CENTERTEXT             0000000180009d50     luamacro.obj
 0001:00008d58       DIF_SEPARATORUSER          0000000180009d58     luamacro.obj
 0001:00008d60       DIF_SETSHIELD              0000000180009d60     luamacro.obj
 0001:00008d68       DIF_EDITEXPAND             0000000180009d68     luamacro.obj
 0001:00008d70       DIF_DROPDOWNLIST           0000000180009d70     luamacro.obj
 0001:00008d78       DIF_USELASTHISTORY         0000000180009d78     luamacro.obj
 0001:00008d80       DIF_MASKEDIT               0000000180009d80     luamacro.obj
 0001:00008d88       DIF_LISTTRACKMOUSE         0000000180009d88     luamacro.obj
 0001:00008d90       DIF_LISTTRACKMOUSEINFOCUS  0000000180009d90     luamacro.obj
 0001:00008d98       DIF_SELECTONENTRY          0000000180009d98     luamacro.obj
 0001:00008da0       DIF_3STATE                 0000000180009da0     luamacro.obj
 0001:00008da8       DIF_EDITPATH               0000000180009da8     luamacro.obj
 0001:00008db0       DIF_LISTWRAPMODE           0000000180009db0     luamacro.obj
 0001:00008db8       DIF_NOAUTOCOMPLETE         0000000180009db8     luamacro.obj
 0001:00008dc0       DIF_LISTAUTOHIGHLIGHT      0000000180009dc0     luamacro.obj
 0001:00008dc8       DIF_LISTNOCLOSE            0000000180009dc8     luamacro.obj
 0001:00008dd0       DIF_EDITPATHEXEC           0000000180009dd0     luamacro.obj
 0001:00008dd8       DIF_HIDDEN                 0000000180009dd8     luamacro.obj
 0001:00008de0       DIF_READONLY               0000000180009de0     luamacro.obj
 0001:00008de8       DIF_NOFOCUS                0000000180009de8     luamacro.obj
 0001:00008df0       DIF_DISABLE                0000000180009df0     luamacro.obj
 0001:00008df8       DIF_DEFAULTBUTTON          0000000180009df8     luamacro.obj
 0001:00008e00       DIF_FOCUS                  0000000180009e00     luamacro.obj
 0001:00008e08       DIF_RIGHTTEXT              0000000180009e08     luamacro.obj
 0001:00008e10       DIF_WORDWRAP               0000000180009e10     luamacro.obj
 0001:00008e18       DIF_NONE                   0000000180009e18     luamacro.obj
 0001:00008e20       LuamacroGuid               0000000180009e20     luamacro.obj
 0001:00008e30       ECF_TABMARKFIRST           0000000180009e30     luamacro.obj
 0001:00008e38       ECF_TABMARKCURRENT         0000000180009e38     luamacro.obj
 0001:00008e40       FIB_ENABLEEMPTY            0000000180009e40     luamacro.obj
 0001:00008e48       FIB_PASSWORD               0000000180009e48     luamacro.obj
 0001:00008e50       FIB_EXPANDENV              0000000180009e50     luamacro.obj
 0001:00008e58       FIB_NOUSELASTHISTORY       0000000180009e58     luamacro.obj
 0001:00008e60       FIB_BUTTONS                0000000180009e60     luamacro.obj
 0001:00008e68       FIB_NOAMPERSAND            0000000180009e68     luamacro.obj
 0001:00008e70       FIB_EDITPATH               0000000180009e70     luamacro.obj
 0001:00008e78       PCIF_FROMMAIN              0000000180009e78     luamacro.obj
 0001:00008e80       FIB_EDITPATHEXEC           0000000180009e80     luamacro.obj
 0001:00008e88       FIB_NONE                   0000000180009e88     luamacro.obj
 0001:00008e90       PCIF_NONE                  0000000180009e90     luamacro.obj
 0001:00008e98       LIF_SELECTED               0000000180009e98     luamacro.obj
 0001:00008ea0       LIF_CHECKED                0000000180009ea0     luamacro.obj
 0001:00008ea8       LIF_SEPARATOR              0000000180009ea8     luamacro.obj
 0001:00008eb0       LIF_DISABLE                0000000180009eb0     luamacro.obj
 0001:00008eb8       LIF_GRAYED                 0000000180009eb8     luamacro.obj
 0001:00008ec0       LIF_HIDDEN                 0000000180009ec0     luamacro.obj
 0001:00008ec8       LIF_DELETEUSERDATA         0000000180009ec8     luamacro.obj
 0001:00008ed0       LIF_NONE                   0000000180009ed0     luamacro.obj
 0001:00008ed8       FPF_LOADED                 0000000180009ed8     luamacro.obj
 0001:00008ee0       FPF_ANSI                   0000000180009ee0     luamacro.obj
 0001:00008ee8       FPF_NONE                   0000000180009ee8     luamacro.obj
 0001:00008ef0       FarGuid                    0000000180009ef0     luamacro.obj
 0001:00008f00       LIFIND_EXACTMATCH          0000000180009f00     luamacro.obj
 0001:00008f08       LIFIND_NONE                0000000180009f08     luamacro.obj
 0001:00008f10       LINFO_SHOWNOBOX            0000000180009f10     luamacro.obj
 0001:00008f18       LINFO_AUTOHIGHLIGHT        0000000180009f18     luamacro.obj
 0001:00008f20       LINFO_REVERSEHIGHLIGHT     0000000180009f20     luamacro.obj
 0001:00008f28       LINFO_WRAPMODE             0000000180009f28     luamacro.obj
 0001:00008f30       LINFO_SHOWAMPERSAND        0000000180009f30     luamacro.obj
 0001:00008f38       LINFO_NONE                 0000000180009f38     luamacro.obj
 0001:00008f40       FDLG_WARNING               0000000180009f40     luamacro.obj
 0001:00008f48       FDLG_SMALLDIALOG           0000000180009f48     luamacro.obj
 0001:00008f50       FDLG_NODRAWSHADOW          0000000180009f50     luamacro.obj
 0001:00008f58       FDLG_NODRAWPANEL           0000000180009f58     luamacro.obj
 0001:00008f60       FDLG_KEEPCONSOLETITLE      0000000180009f60     luamacro.obj
 0001:00008f68       FDLG_NONE                  0000000180009f68     luamacro.obj
 0001:00008f70       MIF_SELECTED               0000000180009f70     luamacro.obj
 0001:00008f78       MIF_CHECKED                0000000180009f78     luamacro.obj
 0001:00008f80       MIF_SEPARATOR              0000000180009f80     luamacro.obj
 0001:00008f88       MIF_DISABLE                0000000180009f88     luamacro.obj
 0001:00008f90       MIF_GRAYED                 0000000180009f90     luamacro.obj
 0001:00008f98       MIF_HIDDEN                 0000000180009f98     luamacro.obj
 0001:00008fa0       MIF_NONE                   0000000180009fa0     luamacro.obj
 0001:00008fa8       FMENU_SHOWAMPERSAND        0000000180009fa8     luamacro.obj
 0001:00008fb0       FMENU_WRAPMODE             0000000180009fb0     luamacro.obj
 0001:00008fb8       FMENU_AUTOHIGHLIGHT        0000000180009fb8     luamacro.obj
 0001:00008fc0       FMENU_REVERSEAUTOHIGHLIGHT 0000000180009fc0     luamacro.obj
 0001:00008fc8       FMENU_CHANGECONSOLETITLE   0000000180009fc8     luamacro.obj
 0001:00008fd0       FMENU_NONE                 0000000180009fd0     luamacro.obj
 0001:00008fd8       PPIF_SELECTED              0000000180009fd8     luamacro.obj
 0001:00008fe0       PPIF_PROCESSDESCR          0000000180009fe0     luamacro.obj
 0001:00008fe8       PPIF_NONE                  0000000180009fe8     luamacro.obj
 0001:00008ff0       PFLAGS_SHOWHIDDEN          0000000180009ff0     luamacro.obj
 0001:00008ff8       PFLAGS_HIGHLIGHT           0000000180009ff8     luamacro.obj
 0001:00009000       PFLAGS_REVERSESORTORDER    000000018000a000     luamacro.obj
 0001:00009008       PFLAGS_USESORTGROUPS       000000018000a008     luamacro.obj
 0001:00009010       PFLAGS_SELECTEDFIRST       000000018000a010     luamacro.obj
 0001:00009018       PFLAGS_REALNAMES           000000018000a018     luamacro.obj
 0001:00009020       PFLAGS_NUMERICSORT         000000018000a020     luamacro.obj
 0001:00009028       PFLAGS_PANELLEFT           000000018000a028     luamacro.obj
 0001:00009030       PFLAGS_DIRECTORIESFIRST    000000018000a030     luamacro.obj
 0001:00009038       PFLAGS_USECRC32            000000018000a038     luamacro.obj
 0001:00009040       PFLAGS_CASESENSITIVESORT   000000018000a040     luamacro.obj
 0001:00009048       PFLAGS_PLUGIN              000000018000a048     luamacro.obj
 0001:00009050       PFLAGS_VISIBLE             000000018000a050     luamacro.obj
 0001:00009058       PFLAGS_FOCUS               000000018000a058     luamacro.obj
 0001:00009060       PFLAGS_ALTERNATIVENAMES    000000018000a060     luamacro.obj
 0001:00009068       PFLAGS_SHORTCUT            000000018000a068     luamacro.obj
 0001:00009070       PFLAGS_NONE                000000018000a070     luamacro.obj
 0001:00009078       PN_CMPNAME                 000000018000a078     luamacro.obj
 0001:00009080       PN_CMPNAMELIST             000000018000a080     luamacro.obj
 0001:00009088       PN_GENERATENAME            000000018000a088     luamacro.obj
 0001:00009090       PN_CHECKMASK               000000018000a090     luamacro.obj
 0001:00009098       PN_SKIPPATH                000000018000a098     luamacro.obj
 0001:000090a0       PN_SHOWERRORMESSAGE        000000018000a0a0     luamacro.obj
 0001:000090a8       XLAT_SWITCHKEYBLAYOUT      000000018000a0a8     luamacro.obj
 0001:000090b0       XLAT_SWITCHKEYBBEEP        000000018000a0b0     luamacro.obj
 0001:000090b8       XLAT_USEKEYBLAYOUTNAME     000000018000a0b8     luamacro.obj
 0001:000090c0       XLAT_CONVERTALLCMDLINE     000000018000a0c0     luamacro.obj
 0001:000090c8       XLAT_NONE                  000000018000a0c8     luamacro.obj
 0001:000090d0       FRS_RETUPDIR               000000018000a0d0     luamacro.obj
 0001:000090d8       FRS_RECUR                  000000018000a0d8     luamacro.obj
 0001:000090e0       FRS_SCANSYMLINK            000000018000a0e0     luamacro.obj
 0001:000090e8       VF_NONMODAL                000000018000a0e8     luamacro.obj
 0001:000090f0       VF_DELETEONCLOSE           000000018000a0f0     luamacro.obj
 0001:000090f8       VF_ENABLE_F6               000000018000a0f8     luamacro.obj
 0001:00009100       VF_DISABLEHISTORY          000000018000a100     luamacro.obj
 0001:00009108       VF_IMMEDIATERETURN         000000018000a108     luamacro.obj
 0001:00009110       VF_DELETEONLYFILEONCLOSE   000000018000a110     luamacro.obj
 0001:00009118       VF_NONE                    000000018000a118     luamacro.obj
 0001:00009120       MLF_SHOWERRMSG             000000018000a120     luamacro.obj
 0001:00009128       MLF_DONOTUPDATEPANEL       000000018000a128     luamacro.obj
 0001:00009130       MLF_NONE                   000000018000a130     luamacro.obj
 0001:00009138       EF_NONMODAL                000000018000a138     luamacro.obj
 0001:00009140       EF_CREATENEW               000000018000a140     luamacro.obj
 0001:00009148       EF_ENABLE_F6               000000018000a148     luamacro.obj
 0001:00009150       EF_DISABLEHISTORY          000000018000a150     luamacro.obj
 0001:00009158       EF_DELETEONCLOSE           000000018000a158     luamacro.obj
 0001:00009160       EF_IMMEDIATERETURN         000000018000a160     luamacro.obj
 0001:00009168       EF_DELETEONLYFILEONCLOSE   000000018000a168     luamacro.obj
 0001:00009170       EF_LOCKED                  000000018000a170     luamacro.obj
 0001:00009178       EF_DISABLESAVEPOS          000000018000a178     luamacro.obj
 0001:00009180       EN_NONE                    000000018000a180     luamacro.obj
 0001:00009188       FFFS_COMMAS                000000018000a188     luamacro.obj
 0001:00009190       FFFS_FLOATSIZE             000000018000a190     luamacro.obj
 0001:00009198       FFFS_SHOWBYTESINDEX        000000018000a198     luamacro.obj
 0001:000091a0       FFFS_ECONOMIC              000000018000a1a0     luamacro.obj
 0001:000091a8       FFFS_THOUSAND              000000018000a1a8     luamacro.obj
 0001:000091b0       FFFS_MINSIZEINDEX          000000018000a1b0     luamacro.obj
 0001:000091b8       FFFS_MINSIZEINDEX_MASK     000000018000a1b8     luamacro.obj
 0001:000091c0       FHELP_NOSHOWERROR          000000018000a1c0     luamacro.obj
 0001:000091c8       FHELP_SELFHELP             000000018000a1c8     luamacro.obj
 0001:000091d0       FHELP_FARHELP              000000018000a1d0     luamacro.obj
 0001:000091d8       FHELP_CUSTOMFILE           000000018000a1d8     luamacro.obj
 0001:000091e0       FHELP_CUSTOMPATH           000000018000a1e0     luamacro.obj
 0001:000091e8       FHELP_GUID                 000000018000a1e8     luamacro.obj
 0001:000091f0       FHELP_USECONTENTS          000000018000a1f0     luamacro.obj
 0001:000091f8       FHELP_NONE                 000000018000a1f8     luamacro.obj
 0001:00009310       FDLG_WARNING               000000018000a310     lusercontrol.obj
 0001:00009318       FDLG_SMALLDIALOG           000000018000a318     lusercontrol.obj
 0001:00009320       FDLG_NODRAWSHADOW          000000018000a320     lusercontrol.obj
 0001:00009328       FDLG_NODRAWPANEL           000000018000a328     lusercontrol.obj
 0001:00009330       FDLG_KEEPCONSOLETITLE      000000018000a330     lusercontrol.obj
 0001:00009338       FDLG_NONE                  000000018000a338     lusercontrol.obj
 0001:00009340       MIF_SELECTED               000000018000a340     lusercontrol.obj
 0001:00009348       MIF_CHECKED                000000018000a348     lusercontrol.obj
 0001:00009350       MIF_SEPARATOR              000000018000a350     lusercontrol.obj
 0001:00009358       MIF_DISABLE                000000018000a358     lusercontrol.obj
 0001:00009360       MIF_GRAYED                 000000018000a360     lusercontrol.obj
 0001:00009368       MIF_HIDDEN                 000000018000a368     lusercontrol.obj
 0001:00009370       MIF_NONE                   000000018000a370     lusercontrol.obj
 0001:00009378       FMENU_SHOWAMPERSAND        000000018000a378     lusercontrol.obj
 0001:00009380       FMENU_WRAPMODE             000000018000a380     lusercontrol.obj
 0001:00009388       FMENU_AUTOHIGHLIGHT        000000018000a388     lusercontrol.obj
 0001:00009390       FMENU_REVERSEAUTOHIGHLIGHT 000000018000a390     lusercontrol.obj
 0001:00009398       FMENU_CHANGECONSOLETITLE   000000018000a398     lusercontrol.obj
 0001:000093a0       FMENU_NONE                 000000018000a3a0     lusercontrol.obj
 0001:000093a8       PPIF_SELECTED              000000018000a3a8     lusercontrol.obj
 0001:000093b0       PPIF_PROCESSDESCR          000000018000a3b0     lusercontrol.obj
 0001:000093b8       PPIF_NONE                  000000018000a3b8     lusercontrol.obj
 0001:000093c0       PFLAGS_SHOWHIDDEN          000000018000a3c0     lusercontrol.obj
 0001:000093c8       PFLAGS_HIGHLIGHT           000000018000a3c8     lusercontrol.obj
 0001:000093d0       PFLAGS_REVERSESORTORDER    000000018000a3d0     lusercontrol.obj
 0001:000093d8       PFLAGS_USESORTGROUPS       000000018000a3d8     lusercontrol.obj
 0001:000093e0       PFLAGS_SELECTEDFIRST       000000018000a3e0     lusercontrol.obj
 0001:000093e8       PFLAGS_REALNAMES           000000018000a3e8     lusercontrol.obj
 0001:000093f0       PFLAGS_NUMERICSORT         000000018000a3f0     lusercontrol.obj
 0001:000093f8       PFLAGS_PANELLEFT           000000018000a3f8     lusercontrol.obj
 0001:00009400       PFLAGS_DIRECTORIESFIRST    000000018000a400     lusercontrol.obj
 0001:00009408       PFLAGS_USECRC32            000000018000a408     lusercontrol.obj
 0001:00009410       PFLAGS_CASESENSITIVESORT   000000018000a410     lusercontrol.obj
 0001:00009418       PFLAGS_PLUGIN              000000018000a418     lusercontrol.obj
 0001:00009420       PFLAGS_VISIBLE             000000018000a420     lusercontrol.obj
 0001:00009428       PFLAGS_FOCUS               000000018000a428     lusercontrol.obj
 0001:00009430       PFLAGS_ALTERNATIVENAMES    000000018000a430     lusercontrol.obj
 0001:00009438       PFLAGS_SHORTCUT            000000018000a438     lusercontrol.obj
 0001:00009440       PFLAGS_NONE                000000018000a440     lusercontrol.obj
 0001:00009448       PN_CMPNAME                 000000018000a448     lusercontrol.obj
 0001:000094c0       PN_CMPNAMELIST             000000018000a4c0     lusercontrol.obj
 0001:000094c8       PN_GENERATENAME            000000018000a4c8     lusercontrol.obj
 0001:000094d0       PN_CHECKMASK               000000018000a4d0     lusercontrol.obj
 0001:000094d8       PN_SKIPPATH                000000018000a4d8     lusercontrol.obj
 0001:000094e0       PN_SHOWERRORMESSAGE        000000018000a4e0     lusercontrol.obj
 0001:000094e8       XLAT_SWITCHKEYBLAYOUT      000000018000a4e8     lusercontrol.obj
 0001:000094f0       XLAT_SWITCHKEYBBEEP        000000018000a4f0     lusercontrol.obj
 0001:000094f8       XLAT_USEKEYBLAYOUTNAME     000000018000a4f8     lusercontrol.obj
 0001:00009500       XLAT_CONVERTALLCMDLINE     000000018000a500     lusercontrol.obj
 0001:00009508       XLAT_NONE                  000000018000a508     lusercontrol.obj
 0001:00009510       FRS_RETUPDIR               000000018000a510     lusercontrol.obj
 0001:00009518       FRS_RECUR                  000000018000a518     lusercontrol.obj
 0001:00009520       FRS_SCANSYMLINK            000000018000a520     lusercontrol.obj
 0001:00009528       VF_NONMODAL                000000018000a528     lusercontrol.obj
 0001:00009530       VF_DELETEONCLOSE           000000018000a530     lusercontrol.obj
 0001:00009538       VF_ENABLE_F6               000000018000a538     lusercontrol.obj
 0001:00009540       VF_DISABLEHISTORY          000000018000a540     lusercontrol.obj
 0001:00009548       VF_IMMEDIATERETURN         000000018000a548     lusercontrol.obj
 0001:00009550       VF_DELETEONLYFILEONCLOSE   000000018000a550     lusercontrol.obj
 0001:00009558       VF_NONE                    000000018000a558     lusercontrol.obj
 0001:00009560       MLF_SHOWERRMSG             000000018000a560     lusercontrol.obj
 0001:00009568       MLF_DONOTUPDATEPANEL       000000018000a568     lusercontrol.obj
 0001:00009570       MLF_NONE                   000000018000a570     lusercontrol.obj
 0001:00009578       EF_NONMODAL                000000018000a578     lusercontrol.obj
 0001:00009580       EF_CREATENEW               000000018000a580     lusercontrol.obj
 0001:00009588       EF_ENABLE_F6               000000018000a588     lusercontrol.obj
 0001:00009590       EF_DISABLEHISTORY          000000018000a590     lusercontrol.obj
 0001:00009598       EF_DELETEONCLOSE           000000018000a598     lusercontrol.obj
 0001:000095a0       EF_IMMEDIATERETURN         000000018000a5a0     lusercontrol.obj
 0001:000095a8       EF_DELETEONLYFILEONCLOSE   000000018000a5a8     lusercontrol.obj
 0001:000095b0       EF_LOCKED                  000000018000a5b0     lusercontrol.obj
 0001:000095b8       EF_DISABLESAVEPOS          000000018000a5b8     lusercontrol.obj
 0001:000095c0       EN_NONE                    000000018000a5c0     lusercontrol.obj
 0001:000095c8       FFFS_COMMAS                000000018000a5c8     lusercontrol.obj
 0001:000095d0       FFFS_FLOATSIZE             000000018000a5d0     lusercontrol.obj
 0001:000095d8       FFFS_SHOWBYTESINDEX        000000018000a5d8     lusercontrol.obj
 0001:000095e0       FFFS_ECONOMIC              000000018000a5e0     lusercontrol.obj
 0001:000095e8       FFFS_THOUSAND              000000018000a5e8     lusercontrol.obj
 0001:000095f0       FFFS_MINSIZEINDEX          000000018000a5f0     lusercontrol.obj
 0001:000095f8       FFFS_MINSIZEINDEX_MASK     000000018000a5f8     lusercontrol.obj
 0001:00009600       FHELP_NOSHOWERROR          000000018000a600     lusercontrol.obj
 0001:00009608       FHELP_SELFHELP             000000018000a608     lusercontrol.obj
 0001:00009610       FHELP_FARHELP              000000018000a610     lusercontrol.obj
 0001:00009618       FHELP_CUSTOMFILE           000000018000a618     lusercontrol.obj
 0001:00009620       FHELP_CUSTOMPATH           000000018000a620     lusercontrol.obj
 0001:00009628       FHELP_GUID                 000000018000a628     lusercontrol.obj
 0001:00009630       FHELP_USECONTENTS          000000018000a630     lusercontrol.obj
 0001:00009638       FHELP_NONE                 000000018000a638     lusercontrol.obj
 0001:00009640       KMFLAGS_SILENTCHECK        000000018000a640     lusercontrol.obj
 0001:00009648       KMFLAGS_DISABLEOUTPUT      000000018000a648     lusercontrol.obj
 0001:00009650       KMFLAGS_NOSENDKEYSTOPLUGINS 000000018000a650     lusercontrol.obj
 0001:00009658       KMFLAGS_ENABLEOUTPUT       000000018000a658     lusercontrol.obj
 0001:00009660       KMFLAGS_NONE               000000018000a660     lusercontrol.obj
 0001:00009668       AKMFLAGS_NONE              000000018000a668     lusercontrol.obj
 0001:00009670       FSETCLR_REDRAW             000000018000a670     lusercontrol.obj
 0001:00009678       FSETCLR_NONE               000000018000a678     lusercontrol.obj
 0001:00009680       PF_PRELOAD                 000000018000a680     lusercontrol.obj
 0001:00009688       PF_DISABLEPANELS           000000018000a688     lusercontrol.obj
 0001:00009690       PF_EDITOR                  000000018000a690     lusercontrol.obj
 0001:00009698       PF_VIEWER                  000000018000a698     lusercontrol.obj
 0001:000096a0       PF_FULLCMDLINE             000000018000a6a0     lusercontrol.obj
 0001:000096a8       PF_DIALOG                  000000018000a6a8     lusercontrol.obj
 0001:000096b0       PF_NONE                    000000018000a6b0     lusercontrol.obj
 0001:000096b8       WIF_MODIFIED               000000018000a6b8     lusercontrol.obj
 0001:000096c0       WIF_CURRENT                000000018000a6c0     lusercontrol.obj
 0001:000096c8       WIF_MODAL                  000000018000a6c8     lusercontrol.obj
 0001:000096d0       VOPT_SAVEFILEPOSITION      000000018000a6d0     lusercontrol.obj
 0001:000096d8       VOPT_AUTODETECTCODEPAGE    000000018000a6d8     lusercontrol.obj
 0001:000096e0       VOPT_NONE                  000000018000a6e0     lusercontrol.obj
 0001:000096e8       VSMFL_REDRAW               000000018000a6e8     lusercontrol.obj
 0001:000096f0       IPLFLAGS_SEPARATOR         000000018000a6f0     lusercontrol.obj
 0001:000096f8       VSP_NOREDRAW               000000018000a6f8     lusercontrol.obj
 0001:00009700       VSP_PERCENT                000000018000a700     lusercontrol.obj
 0001:00009708       VSP_RELATIVE               000000018000a708     lusercontrol.obj
 0001:00009710       VSP_NORETNEWPOS            000000018000a710     lusercontrol.obj
 0001:00009718       PMFLAGS_FULLSCREEN         000000018000a718     lusercontrol.obj
 0001:00009720       PMFLAGS_DETAILEDSTATUS     000000018000a720     lusercontrol.obj
 0001:00009728       PMFLAGS_ALIGNEXTENSIONS    000000018000a728     lusercontrol.obj
 0001:00009730       PMFLAGS_CASECONVERSION     000000018000a730     lusercontrol.obj
 0001:00009738       VMF_WRAP                   000000018000a738     lusercontrol.obj
 0001:00009740       VMF_WORDWRAP               000000018000a740     lusercontrol.obj
 0001:00009748       OPIF_DISABLEFILTER         000000018000a748     lusercontrol.obj
 0001:00009750       OPIF_DISABLESORTGROUPS     000000018000a750     lusercontrol.obj
 0001:00009758       OPIF_DISABLEHIGHLIGHTING   000000018000a758     lusercontrol.obj
 0001:00009760       OPIF_ADDDOTS               000000018000a760     lusercontrol.obj
 0001:00009768       OPIF_RAWSELECTION          000000018000a768     lusercontrol.obj
 0001:00009770       OPIF_REALNAMES             000000018000a770     lusercontrol.obj
 0001:00009778       OPIF_SHOWNAMESONLY         000000018000a778     lusercontrol.obj
 0001:00009780       OPIF_SHOWRIGHTALIGNNAMES   000000018000a780     lusercontrol.obj
 0001:00009788       OPIF_SHOWPRESERVECASE      000000018000a788     lusercontrol.obj
 0001:00009790       OPIF_COMPAREFATTIME        000000018000a790     lusercontrol.obj
 0001:00009798       OPIF_EXTERNALGET           000000018000a798     lusercontrol.obj
 0001:000097a0       OPIF_EXTERNALPUT           000000018000a7a0     lusercontrol.obj
 0001:000097a8       OPIF_EXTERNALDELETE        000000018000a7a8     lusercontrol.obj
 0001:000097b0       OPIF_EXTERNALMKDIR         000000018000a7b0     lusercontrol.obj
 0001:000097b8       OPIF_USEATTRHIGHLIGHTING   000000018000a7b8     lusercontrol.obj
 0001:000097c0       OPIF_USECRC32              000000018000a7c0     lusercontrol.obj
 0001:000097c8       OPIF_USEFREESIZE           000000018000a7c8     lusercontrol.obj
 0001:000097d0       OPIF_SHORTCUT              000000018000a7d0     lusercontrol.obj
 0001:000097d8       OPIF_NONE                  000000018000a7d8     lusercontrol.obj
 0001:000097e0       OPM_SILENT                 000000018000a7e0     lusercontrol.obj
 0001:000097e8       OPM_FIND                   000000018000a7e8     lusercontrol.obj
 0001:000097f0       OPM_VIEW                   000000018000a7f0     lusercontrol.obj
 0001:000097f8       OPM_EDIT                   000000018000a7f8     lusercontrol.obj
 0001:00009800       OPM_TOPLEVEL               000000018000a800     lusercontrol.obj
 0001:00009808       OPM_DESCR                  000000018000a808     lusercontrol.obj
 0001:00009810       OPM_QUICKVIEW              000000018000a810     lusercontrol.obj
 0001:00009818       OPM_PGDN                   000000018000a818     lusercontrol.obj
 0001:00009820       FCF_FG_4BIT                000000018000a820     lusercontrol.obj
 0001:00009828       OPM_COMMANDS               000000018000a828     lusercontrol.obj
 0001:00009830       FCF_BG_4BIT                000000018000a830     lusercontrol.obj
 0001:00009838       OPM_NONE                   000000018000a838     lusercontrol.obj
 0001:00009840       FCF_4BITMASK               000000018000a840     lusercontrol.obj
 0001:00009848       FCF_EXTENDEDFLAGS          000000018000a848     lusercontrol.obj
 0001:00009850       FCF_FG_BOLD                000000018000a850     lusercontrol.obj
 0001:00009858       FCF_FG_ITALIC              000000018000a858     lusercontrol.obj
 0001:00009860       FCF_FG_UNDERLINE           000000018000a860     lusercontrol.obj
 0001:00009868       FCF_STYLEMASK              000000018000a868     lusercontrol.obj
 0001:00009870       FCF_NONE                   000000018000a870     lusercontrol.obj
 0001:00009878       CDF_NONE                   000000018000a878     lusercontrol.obj
 0001:00009880       FMSG_WARNING               000000018000a880     lusercontrol.obj
 0001:00009888       FMSG_ERRORTYPE             000000018000a888     lusercontrol.obj
 0001:00009890       FMSG_KEEPBACKGROUND        000000018000a890     lusercontrol.obj
 0001:00009898       FMSG_LEFTALIGN             000000018000a898     lusercontrol.obj
 0001:000098a0       FMSG_ALLINONE              000000018000a8a0     lusercontrol.obj
 0001:000098a8       FMSG_MB_OK                 000000018000a8a8     lusercontrol.obj
 0001:000098b0       FMSG_MB_OKCANCEL           000000018000a8b0     lusercontrol.obj
 0001:000098b8       FMSG_MB_ABORTRETRYIGNORE   000000018000a8b8     lusercontrol.obj
 0001:000098c0       FMSG_MB_YESNO              000000018000a8c0     lusercontrol.obj
 0001:000098c8       FMSG_MB_YESNOCANCEL        000000018000a8c8     lusercontrol.obj
 0001:000098d0       FMSG_MB_RETRYCANCEL        000000018000a8d0     lusercontrol.obj
 0001:000098d8       FMSG_NONE                  000000018000a8d8     lusercontrol.obj
 0001:000098e0       FOSF_ACTIVE                000000018000a8e0     lusercontrol.obj
 0001:000098e8       FOSF_NONE                  000000018000a8e8     lusercontrol.obj
 0001:000098f0       DIF_BOXCOLOR               000000018000a8f0     lusercontrol.obj
 0001:000098f8       DIF_GROUP                  000000018000a8f8     lusercontrol.obj
 0001:00009900       DIF_LEFTTEXT               000000018000a900     lusercontrol.obj
 0001:00009908       DIF_MOVESELECT             000000018000a908     lusercontrol.obj
 0001:00009910       DIF_SHOWAMPERSAND          000000018000a910     lusercontrol.obj
 0001:00009918       DIF_CENTERGROUP            000000018000a918     lusercontrol.obj
 0001:00009920       DIF_NOBRACKETS             000000018000a920     lusercontrol.obj
 0001:00009928       DIF_MANUALADDHISTORY       000000018000a928     lusercontrol.obj
 0001:00009930       DIF_SEPARATOR              000000018000a930     lusercontrol.obj
 0001:00009938       DIF_SEPARATOR2             000000018000a938     lusercontrol.obj
 0001:00009940       DIF_EDITOR                 000000018000a940     lusercontrol.obj
 0001:00009948       DIF_LISTNOAMPERSAND        000000018000a948     lusercontrol.obj
 0001:00009950       DIF_LISTNOBOX              000000018000a950     lusercontrol.obj
 0001:00009958       DIF_HISTORY                000000018000a958     lusercontrol.obj
 0001:00009960       DIF_BTNNOCLOSE             000000018000a960     lusercontrol.obj
 0001:00009968       DIF_CENTERTEXT             000000018000a968     lusercontrol.obj
 0001:00009970       DIF_SEPARATORUSER          000000018000a970     lusercontrol.obj
 0001:00009978       DIF_SETSHIELD              000000018000a978     lusercontrol.obj
 0001:00009980       DIF_EDITEXPAND             000000018000a980     lusercontrol.obj
 0001:00009988       DIF_DROPDOWNLIST           000000018000a988     lusercontrol.obj
 0001:00009990       DIF_USELASTHISTORY         000000018000a990     lusercontrol.obj
 0001:00009998       DIF_MASKEDIT               000000018000a998     lusercontrol.obj
 0001:000099a0       DIF_LISTTRACKMOUSE         000000018000a9a0     lusercontrol.obj
 0001:000099a8       DIF_LISTTRACKMOUSEINFOCUS  000000018000a9a8     lusercontrol.obj
 0001:000099b0       DIF_SELECTONENTRY          000000018000a9b0     lusercontrol.obj
 0001:000099b8       DIF_3STATE                 000000018000a9b8     lusercontrol.obj
 0001:000099c0       DIF_EDITPATH               000000018000a9c0     lusercontrol.obj
 0001:000099c8       DIF_LISTWRAPMODE           000000018000a9c8     lusercontrol.obj
 0001:000099d0       DIF_NOAUTOCOMPLETE         000000018000a9d0     lusercontrol.obj
 0001:000099d8       DIF_LISTAUTOHIGHLIGHT      000000018000a9d8     lusercontrol.obj
 0001:000099e0       DIF_LISTNOCLOSE            000000018000a9e0     lusercontrol.obj
 0001:000099e8       DIF_EDITPATHEXEC           000000018000a9e8     lusercontrol.obj
 0001:000099f0       DIF_HIDDEN                 000000018000a9f0     lusercontrol.obj
 0001:000099f8       DIF_READONLY               000000018000a9f8     lusercontrol.obj
 0001:00009a00       DIF_NOFOCUS                000000018000aa00     lusercontrol.obj
 0001:00009a08       DIF_DISABLE                000000018000aa08     lusercontrol.obj
 0001:00009a10       DIF_DEFAULTBUTTON          000000018000aa10     lusercontrol.obj
 0001:00009a18       DIF_FOCUS                  000000018000aa18     lusercontrol.obj
 0001:00009a20       DIF_RIGHTTEXT              000000018000aa20     lusercontrol.obj
 0001:00009a28       DIF_WORDWRAP               000000018000aa28     lusercontrol.obj
 0001:00009a30       DIF_NONE                   000000018000aa30     lusercontrol.obj
 0001:00009a38       ECF_TABMARKFIRST           000000018000aa38     lusercontrol.obj
 0001:00009a40       ECF_TABMARKCURRENT         000000018000aa40     lusercontrol.obj
 0001:00009a48       FIB_ENABLEEMPTY            000000018000aa48     lusercontrol.obj
 0001:00009a50       FIB_PASSWORD               000000018000aa50     lusercontrol.obj
 0001:00009a58       FIB_EXPANDENV              000000018000aa58     lusercontrol.obj
 0001:00009a60       FIB_NOUSELASTHISTORY       000000018000aa60     lusercontrol.obj
 0001:00009a68       FIB_BUTTONS                000000018000aa68     lusercontrol.obj
 0001:00009a70       FIB_NOAMPERSAND            000000018000aa70     lusercontrol.obj
 0001:00009a78       FIB_EDITPATH               000000018000aa78     lusercontrol.obj
 0001:00009a80       PCIF_FROMMAIN              000000018000aa80     lusercontrol.obj
 0001:00009a88       FIB_EDITPATHEXEC           000000018000aa88     lusercontrol.obj
 0001:00009a90       FIB_NONE                   000000018000aa90     lusercontrol.obj
 0001:00009a98       PCIF_NONE                  000000018000aa98     lusercontrol.obj
 0001:00009aa0       LIF_SELECTED               000000018000aaa0     lusercontrol.obj
 0001:00009aa8       LIF_CHECKED                000000018000aaa8     lusercontrol.obj
 0001:00009ab0       LIF_SEPARATOR              000000018000aab0     lusercontrol.obj
 0001:00009ab8       LIF_DISABLE                000000018000aab8     lusercontrol.obj
 0001:00009ac0       LIF_GRAYED                 000000018000aac0     lusercontrol.obj
 0001:00009ac8       LIF_HIDDEN                 000000018000aac8     lusercontrol.obj
 0001:00009ad0       LIF_DELETEUSERDATA         000000018000aad0     lusercontrol.obj
 0001:00009ad8       LIF_NONE                   000000018000aad8     lusercontrol.obj
 0001:00009ae0       FPF_LOADED                 000000018000aae0     lusercontrol.obj
 0001:00009ae8       FPF_ANSI                   000000018000aae8     lusercontrol.obj
 0001:00009af0       FPF_NONE                   000000018000aaf0     lusercontrol.obj
 0001:00009af8       FarGuid                    000000018000aaf8     lusercontrol.obj
 0001:00009b08       LIFIND_EXACTMATCH          000000018000ab08     lusercontrol.obj
 0001:00009b10       LIFIND_NONE                000000018000ab10     lusercontrol.obj
 0001:00009b18       LINFO_SHOWNOBOX            000000018000ab18     lusercontrol.obj
 0001:00009b20       LINFO_AUTOHIGHLIGHT        000000018000ab20     lusercontrol.obj
 0001:00009b28       LINFO_REVERSEHIGHLIGHT     000000018000ab28     lusercontrol.obj
 0001:00009b30       LINFO_WRAPMODE             000000018000ab30     lusercontrol.obj
 0001:00009b38       LINFO_SHOWAMPERSAND        000000018000ab38     lusercontrol.obj
 0001:00009b40       LINFO_NONE                 000000018000ab40     lusercontrol.obj
 0001:00009bf0       PFLAGS_USECRC32            000000018000abf0     service.obj
 0001:00009bf8       PFLAGS_CASESENSITIVESORT   000000018000abf8     service.obj
 0001:00009c00       PFLAGS_PLUGIN              000000018000ac00     service.obj
 0001:00009c08       PFLAGS_VISIBLE             000000018000ac08     service.obj
 0001:00009c10       PFLAGS_FOCUS               000000018000ac10     service.obj
 0001:00009c18       PFLAGS_ALTERNATIVENAMES    000000018000ac18     service.obj
 0001:00009c20       PFLAGS_SHORTCUT            000000018000ac20     service.obj
 0001:00009c28       PFLAGS_NONE                000000018000ac28     service.obj
 0001:00009c30       ?key@?2??far_Menu@@9@9     000000018000ac30     service.obj
 0001:00009c38       PN_CMPNAME                 000000018000ac38     service.obj
 0001:00009c40       PN_CMPNAMELIST             000000018000ac40     service.obj
 0001:00009c48       PN_GENERATENAME            000000018000ac48     service.obj
 0001:00009c50       PN_CHECKMASK               000000018000ac50     service.obj
 0001:00009c58       PN_SKIPPATH                000000018000ac58     service.obj
 0001:00009c60       PN_SHOWERRORMESSAGE        000000018000ac60     service.obj
 0001:00009c68       XLAT_SWITCHKEYBLAYOUT      000000018000ac68     service.obj
 0001:00009c70       XLAT_SWITCHKEYBBEEP        000000018000ac70     service.obj
 0001:00009c78       XLAT_USEKEYBLAYOUTNAME     000000018000ac78     service.obj
 0001:00009c80       XLAT_CONVERTALLCMDLINE     000000018000ac80     service.obj
 0001:00009c88       XLAT_NONE                  000000018000ac88     service.obj
 0001:00009c90       FRS_RETUPDIR               000000018000ac90     service.obj
 0001:00009c98       FRS_RECUR                  000000018000ac98     service.obj
 0001:00009ca0       FRS_SCANSYMLINK            000000018000aca0     service.obj
 0001:00009ca8       VF_NONMODAL                000000018000aca8     service.obj
 0001:00009cb0       VF_DELETEONCLOSE           000000018000acb0     service.obj
 0001:00009cb8       VF_ENABLE_F6               000000018000acb8     service.obj
 0001:00009cc0       VF_DISABLEHISTORY          000000018000acc0     service.obj
 0001:00009cc8       VF_IMMEDIATERETURN         000000018000acc8     service.obj
 0001:00009cd0       VF_DELETEONLYFILEONCLOSE   000000018000acd0     service.obj
 0001:00009cd8       VF_NONE                    000000018000acd8     service.obj
 0001:00009ce0       MLF_SHOWERRMSG             000000018000ace0     service.obj
 0001:00009ce8       MLF_DONOTUPDATEPANEL       000000018000ace8     service.obj
 0001:00009cf0       MLF_NONE                   000000018000acf0     service.obj
 0001:00009cf8       EF_NONMODAL                000000018000acf8     service.obj
 0001:00009d00       EF_CREATENEW               000000018000ad00     service.obj
 0001:00009d08       EF_ENABLE_F6               000000018000ad08     service.obj
 0001:00009d10       EF_DISABLEHISTORY          000000018000ad10     service.obj
 0001:00009d18       EF_DELETEONCLOSE           000000018000ad18     service.obj
 0001:00009d20       EF_IMMEDIATERETURN         000000018000ad20     service.obj
 0001:00009d28       EF_DELETEONLYFILEONCLOSE   000000018000ad28     service.obj
 0001:00009d30       EF_LOCKED                  000000018000ad30     service.obj
 0001:00009d38       EF_DISABLESAVEPOS          000000018000ad38     service.obj
 0001:00009d40       EN_NONE                    000000018000ad40     service.obj
 0001:00009d48       FFFS_COMMAS                000000018000ad48     service.obj
 0001:00009d50       FFFS_FLOATSIZE             000000018000ad50     service.obj
 0001:00009d58       FFFS_SHOWBYTESINDEX        000000018000ad58     service.obj
 0001:00009d60       FFFS_ECONOMIC              000000018000ad60     service.obj
 0001:00009d68       FFFS_THOUSAND              000000018000ad68     service.obj
 0001:00009d70       FFFS_MINSIZEINDEX          000000018000ad70     service.obj
 0001:00009d78       FFFS_MINSIZEINDEX_MASK     000000018000ad78     service.obj
 0001:00009d80       FHELP_NOSHOWERROR          000000018000ad80     service.obj
 0001:00009d88       FHELP_SELFHELP             000000018000ad88     service.obj
 0001:00009d90       FHELP_FARHELP              000000018000ad90     service.obj
 0001:00009d98       FHELP_CUSTOMFILE           000000018000ad98     service.obj
 0001:00009da0       FHELP_CUSTOMPATH           000000018000ada0     service.obj
 0001:00009da8       FHELP_GUID                 000000018000ada8     service.obj
 0001:00009db0       FHELP_USECONTENTS          000000018000adb0     service.obj
 0001:00009db8       FHELP_NONE                 000000018000adb8     service.obj
 0001:00009dc0       ?FarGuid@?1??far_CreateSettings@@9@9 000000018000adc0     service.obj
 0001:00009dd0       KMFLAGS_SILENTCHECK        000000018000add0     service.obj
 0001:00009dd8       KMFLAGS_DISABLEOUTPUT      000000018000add8     service.obj
 0001:00009de0       KMFLAGS_NOSENDKEYSTOPLUGINS 000000018000ade0     service.obj
 0001:00009de8       KMFLAGS_ENABLEOUTPUT       000000018000ade8     service.obj
 0001:00009df0       KMFLAGS_NONE               000000018000adf0     service.obj
 0001:00009df8       AKMFLAGS_NONE              000000018000adf8     service.obj
 0001:00009e00       ?C@?3??far_InputRecordToName@@9@9 000000018000ae00     service.obj
 0001:00009e08       ?A@?3??far_InputRecordToName@@9@9 000000018000ae08     service.obj
 0001:00009e10       ?S@?3??far_InputRecordToName@@9@9 000000018000ae10     service.obj
 0001:00009e18       FSETCLR_REDRAW             000000018000ae18     service.obj
 0001:00009e20       FSETCLR_NONE               000000018000ae20     service.obj
 0001:00009e28       PF_PRELOAD                 000000018000ae28     service.obj
 0001:00009e30       PF_DISABLEPANELS           000000018000ae30     service.obj
 0001:00009e38       PF_EDITOR                  000000018000ae38     service.obj
 0001:00009e40       PF_VIEWER                  000000018000ae40     service.obj
 0001:00009e48       PF_FULLCMDLINE             000000018000ae48     service.obj
 0001:00009e50       PF_DIALOG                  000000018000ae50     service.obj
 0001:00009e58       PF_NONE                    000000018000ae58     service.obj
 0001:00009e60       WIF_MODIFIED               000000018000ae60     service.obj
 0001:00009e68       WIF_CURRENT                000000018000ae68     service.obj
 0001:00009e70       WIF_MODAL                  000000018000ae70     service.obj
 0001:00009e78       VOPT_SAVEFILEPOSITION      000000018000ae78     service.obj
 0001:00009ed0       VOPT_AUTODETECTCODEPAGE    000000018000aed0     service.obj
 0001:00009ed8       VOPT_NONE                  000000018000aed8     service.obj
 0001:00009f50       VSMFL_REDRAW               000000018000af50     service.obj
 0001:00009f88       IPLFLAGS_SEPARATOR         000000018000af88     service.obj
 0001:0000a030       VSP_NOREDRAW               000000018000b030     service.obj
 0001:0000a038       VSP_PERCENT                000000018000b038     service.obj
 0001:0000a040       VSP_RELATIVE               000000018000b040     service.obj
 0001:0000a048       VSP_NORETNEWPOS            000000018000b048     service.obj
 0001:0000a050       PMFLAGS_FULLSCREEN         000000018000b050     service.obj
 0001:0000a058       PMFLAGS_DETAILEDSTATUS     000000018000b058     service.obj
 0001:0000a2e0       PMFLAGS_ALIGNEXTENSIONS    000000018000b2e0     service.obj
 0001:0000a2e8       PMFLAGS_CASECONVERSION     000000018000b2e8     service.obj
 0001:0000a2f0       VMF_WRAP                   000000018000b2f0     service.obj
 0001:0000a2f8       VMF_WORDWRAP               000000018000b2f8     service.obj
 0001:0000a300       OPIF_DISABLEFILTER         000000018000b300     service.obj
 0001:0000a308       OPIF_DISABLESORTGROUPS     000000018000b308     service.obj
 0001:0000a310       OPIF_DISABLEHIGHLIGHTING   000000018000b310     service.obj
 0001:0000a318       OPIF_ADDDOTS               000000018000b318     service.obj
 0001:0000a320       OPIF_RAWSELECTION          000000018000b320     service.obj
 0001:0000a328       OPIF_REALNAMES             000000018000b328     service.obj
 0001:0000a330       OPIF_SHOWNAMESONLY         000000018000b330     service.obj
 0001:0000a338       OPIF_SHOWRIGHTALIGNNAMES   000000018000b338     service.obj
 0001:0000a340       OPIF_SHOWPRESERVECASE      000000018000b340     service.obj
 0001:0000a348       OPIF_COMPAREFATTIME        000000018000b348     service.obj
 0001:0000a350       OPIF_EXTERNALGET           000000018000b350     service.obj
 0001:0000a358       OPIF_EXTERNALPUT           000000018000b358     service.obj
 0001:0000a360       OPIF_EXTERNALDELETE        000000018000b360     service.obj
 0001:0000a368       OPIF_EXTERNALMKDIR         000000018000b368     service.obj
 0001:0000a370       OPIF_USEATTRHIGHLIGHTING   000000018000b370     service.obj
 0001:0000a378       OPIF_USECRC32              000000018000b378     service.obj
 0001:0000a380       OPIF_USEFREESIZE           000000018000b380     service.obj
 0001:0000a388       OPIF_SHORTCUT              000000018000b388     service.obj
 0001:0000a390       OPIF_NONE                  000000018000b390     service.obj
 0001:0000a398       OPM_SILENT                 000000018000b398     service.obj
 0001:0000a440       OPM_FIND                   000000018000b440     service.obj
 0001:0000a448       OPM_VIEW                   000000018000b448     service.obj
 0001:0000a450       OPM_EDIT                   000000018000b450     service.obj
 0001:0000a458       OPM_TOPLEVEL               000000018000b458     service.obj
 0001:0000a460       OPM_DESCR                  000000018000b460     service.obj
 0001:0000a468       OPM_QUICKVIEW              000000018000b468     service.obj
 0001:0000a6a0       OPM_PGDN                   000000018000b6a0     service.obj
 0001:0000a6a8       FCF_FG_4BIT                000000018000b6a8     service.obj
 0001:0000a6b0       OPM_COMMANDS               000000018000b6b0     service.obj
 0001:0000a6b8       FCF_BG_4BIT                000000018000b6b8     service.obj
 0001:0000a6c0       OPM_NONE                   000000018000b6c0     service.obj
 0001:0000a6c8       FCF_4BITMASK               000000018000b6c8     service.obj
 0001:0000a6d0       FCF_EXTENDEDFLAGS          000000018000b6d0     service.obj
 0001:0000a6d8       FCF_FG_BOLD                000000018000b6d8     service.obj
 0001:0000a6e0       FCF_FG_ITALIC              000000018000b6e0     service.obj
 0001:0000a6e8       FCF_FG_UNDERLINE           000000018000b6e8     service.obj
 0001:0000a6f0       FCF_STYLEMASK              000000018000b6f0     service.obj
 0001:0000a6f8       FCF_NONE                   000000018000b6f8     service.obj
 0001:0000a700       CDF_NONE                   000000018000b700     service.obj
 0001:0000a708       FMSG_WARNING               000000018000b708     service.obj
 0001:0000a710       FMSG_ERRORTYPE             000000018000b710     service.obj
 0001:0000a718       FMSG_KEEPBACKGROUND        000000018000b718     service.obj
 0001:0000a720       FMSG_LEFTALIGN             000000018000b720     service.obj
 0001:0000a728       FMSG_ALLINONE              000000018000b728     service.obj
 0001:0000a730       FMSG_MB_OK                 000000018000b730     service.obj
 0001:0000a738       FMSG_MB_OKCANCEL           000000018000b738     service.obj
 0001:0000a740       FMSG_MB_ABORTRETRYIGNORE   000000018000b740     service.obj
 0001:0000a748       FMSG_MB_YESNO              000000018000b748     service.obj
 0001:0000a750       FMSG_MB_YESNOCANCEL        000000018000b750     service.obj
 0001:0000a758       FMSG_MB_RETRYCANCEL        000000018000b758     service.obj
 0001:0000abd0       FMSG_NONE                  000000018000bbd0     service.obj
 0001:0000abd8       FOSF_ACTIVE                000000018000bbd8     service.obj
 0001:0000abe0       FOSF_NONE                  000000018000bbe0     service.obj
 0001:0000abe8       DIF_BOXCOLOR               000000018000bbe8     service.obj
 0001:0000abf0       DIF_GROUP                  000000018000bbf0     service.obj
 0001:0000abf8       DIF_LEFTTEXT               000000018000bbf8     service.obj
 0001:0000ac00       DIF_MOVESELECT             000000018000bc00     service.obj
 0001:0000ac08       DIF_SHOWAMPERSAND          000000018000bc08     service.obj
 0001:0000ac10       DIF_CENTERGROUP            000000018000bc10     service.obj
 0001:0000ac18       DIF_NOBRACKETS             000000018000bc18     service.obj
 0001:0000ac20       DIF_MANUALADDHISTORY       000000018000bc20     service.obj
 0001:0000ac28       DIF_SEPARATOR              000000018000bc28     service.obj
 0001:0000ac30       DIF_SEPARATOR2             000000018000bc30     service.obj
 0001:0000ac38       DIF_EDITOR                 000000018000bc38     service.obj
 0001:0000ac40       DIF_LISTNOAMPERSAND        000000018000bc40     service.obj
 0001:0000ac48       DIF_LISTNOBOX              000000018000bc48     service.obj
 0001:0000ac50       DIF_HISTORY                000000018000bc50     service.obj
 0001:0000ac58       DIF_BTNNOCLOSE             000000018000bc58     service.obj
 0001:0000ac60       DIF_CENTERTEXT             000000018000bc60     service.obj
 0001:0000ac68       DIF_SEPARATORUSER          000000018000bc68     service.obj
 0001:0000ac70       DIF_SETSHIELD              000000018000bc70     service.obj
 0001:0000ac78       DIF_EDITEXPAND             000000018000bc78     service.obj
 0001:0000ac80       DIF_DROPDOWNLIST           000000018000bc80     service.obj
 0001:0000ac88       DIF_USELASTHISTORY         000000018000bc88     service.obj
 0001:0000ac90       DIF_MASKEDIT               000000018000bc90     service.obj
 0001:0000ac98       DIF_LISTTRACKMOUSE         000000018000bc98     service.obj
 0001:0000aca0       DIF_LISTTRACKMOUSEINFOCUS  000000018000bca0     service.obj
 0001:0000aca8       DIF_SELECTONENTRY          000000018000bca8     service.obj
 0001:0000acb0       DIF_3STATE                 000000018000bcb0     service.obj
 0001:0000acb8       DIF_EDITPATH               000000018000bcb8     service.obj
 0001:0000acc0       DIF_LISTWRAPMODE           000000018000bcc0     service.obj
 0001:0000acc8       DIF_NOAUTOCOMPLETE         000000018000bcc8     service.obj
 0001:0000acd0       DIF_LISTAUTOHIGHLIGHT      000000018000bcd0     service.obj
 0001:0000acd8       DIF_LISTNOCLOSE            000000018000bcd8     service.obj
 0001:0000af10       DIF_EDITPATHEXEC           000000018000bf10     service.obj
 0001:0000af18       DIF_HIDDEN                 000000018000bf18     service.obj
 0001:0000af20       DIF_READONLY               000000018000bf20     service.obj
 0001:0000af28       DIF_NOFOCUS                000000018000bf28     service.obj
 0001:0000af30       DIF_DISABLE                000000018000bf30     service.obj
 0001:0000af38       DIF_DEFAULTBUTTON          000000018000bf38     service.obj
 0001:0000af40       DIF_FOCUS                  000000018000bf40     service.obj
 0001:0000af48       DIF_RIGHTTEXT              000000018000bf48     service.obj
 0001:0000af50       DIF_WORDWRAP               000000018000bf50     service.obj
 0001:0000af58       DIF_NONE                   000000018000bf58     service.obj
 0001:0000af60       ECF_TABMARKFIRST           000000018000bf60     service.obj
 0001:0000af68       ECF_TABMARKCURRENT         000000018000bf68     service.obj
 0001:0000af70       FIB_ENABLEEMPTY            000000018000bf70     service.obj
 0001:0000af78       FIB_PASSWORD               000000018000bf78     service.obj
 0001:0000af80       FIB_EXPANDENV              000000018000bf80     service.obj
 0001:0000af88       FIB_NOUSELASTHISTORY       000000018000bf88     service.obj
 0001:0000af90       FIB_BUTTONS                000000018000bf90     service.obj
 0001:0000af98       FIB_NOAMPERSAND            000000018000bf98     service.obj
 0001:0000afa0       FIB_EDITPATH               000000018000bfa0     service.obj
 0001:0000afa8       PCIF_FROMMAIN              000000018000bfa8     service.obj
 0001:0000afb0       FIB_EDITPATHEXEC           000000018000bfb0     service.obj
 0001:0000afb8       FIB_NONE                   000000018000bfb8     service.obj
 0001:0000afc0       PCIF_NONE                  000000018000bfc0     service.obj
 0001:0000afc8       LIF_SELECTED               000000018000bfc8     service.obj
 0001:0000afd0       lualibs                    000000018000bfd0     service.obj
 0001:0000b090       LIF_CHECKED                000000018000c090     service.obj
 0001:0000b098       LIF_SEPARATOR              000000018000c098     service.obj
 0001:0000b0a0       LIF_DISABLE                000000018000c0a0     service.obj
 0001:0000b0a8       LIF_GRAYED                 000000018000c0a8     service.obj
 0001:0000b0b0       LIF_HIDDEN                 000000018000c0b0     service.obj
 0001:0000b0b8       LIF_DELETEUSERDATA         000000018000c0b8     service.obj
 0001:0000b0c0       LIF_NONE                   000000018000c0c0     service.obj
 0001:0000b0c8       FPF_LOADED                 000000018000c0c8     service.obj
 0001:0000b0d0       FPF_ANSI                   000000018000c0d0     service.obj
 0001:0000b0d8       FPF_NONE                   000000018000c0d8     service.obj
 0001:0000b0e0       FarGuid                    000000018000c0e0     service.obj
 0001:0000b0f0       LIFIND_EXACTMATCH          000000018000c0f0     service.obj
 0001:0000b0f8       LIFIND_NONE                000000018000c0f8     service.obj
 0001:0000b100       LINFO_SHOWNOBOX            000000018000c100     service.obj
 0001:0000b108       LINFO_AUTOHIGHLIGHT        000000018000c108     service.obj
 0001:0000b110       LINFO_REVERSEHIGHLIGHT     000000018000c110     service.obj
 0001:0000b118       LINFO_WRAPMODE             000000018000c118     service.obj
 0001:0000b120       LINFO_SHOWAMPERSAND        000000018000c120     service.obj
 0001:0000b128       LINFO_NONE                 000000018000c128     service.obj
 0001:0000b1b8       FDLG_WARNING               000000018000c1b8     service.obj
 0001:0000b1c0       FDLG_SMALLDIALOG           000000018000c1c0     service.obj
 0001:0000b1c8       FDLG_NODRAWSHADOW          000000018000c1c8     service.obj
 0001:0000b1d0       FDLG_NODRAWPANEL           000000018000c1d0     service.obj
 0001:0000b1d8       FDLG_KEEPCONSOLETITLE      000000018000c1d8     service.obj
 0001:0000b1e0       FDLG_NONE                  000000018000c1e0     service.obj
 0001:0000b1e8       MIF_SELECTED               000000018000c1e8     service.obj
 0001:0000b1f0       MIF_CHECKED                000000018000c1f0     service.obj
 0001:0000b1f8       MIF_SEPARATOR              000000018000c1f8     service.obj
 0001:0000b200       MIF_DISABLE                000000018000c200     service.obj
 0001:0000b208       MIF_GRAYED                 000000018000c208     service.obj
 0001:0000b210       MIF_HIDDEN                 000000018000c210     service.obj
 0001:0000b218       MIF_NONE                   000000018000c218     service.obj
 0001:0000b220       FMENU_SHOWAMPERSAND        000000018000c220     service.obj
 0001:0000b228       FMENU_WRAPMODE             000000018000c228     service.obj
 0001:0000b230       FMENU_AUTOHIGHLIGHT        000000018000c230     service.obj
 0001:0000b238       FMENU_REVERSEAUTOHIGHLIGHT 000000018000c238     service.obj
 0001:0000b240       FMENU_CHANGECONSOLETITLE   000000018000c240     service.obj
 0001:0000b248       FMENU_NONE                 000000018000c248     service.obj
 0001:0000b250       PPIF_SELECTED              000000018000c250     service.obj
 0001:0000b258       PPIF_PROCESSDESCR          000000018000c258     service.obj
 0001:0000b260       PPIF_NONE                  000000018000c260     service.obj
 0001:0000b268       PFLAGS_SHOWHIDDEN          000000018000c268     service.obj
 0001:0000b270       PFLAGS_HIGHLIGHT           000000018000c270     service.obj
 0001:0000b278       PFLAGS_REVERSESORTORDER    000000018000c278     service.obj
 0001:0000b280       PFLAGS_USESORTGROUPS       000000018000c280     service.obj
 0001:0000b288       PFLAGS_SELECTEDFIRST       000000018000c288     service.obj
 0001:0000b290       PFLAGS_REALNAMES           000000018000c290     service.obj
 0001:0000b298       PFLAGS_NUMERICSORT         000000018000c298     service.obj
 0001:0000b2a0       PFLAGS_PANELLEFT           000000018000c2a0     service.obj
 0001:0000b2a8       PFLAGS_DIRECTORIESFIRST    000000018000c2a8     service.obj
 0001:0000cfb0       uniclib                    000000018000dfb0     slnunico.obj
 0001:0000d380       ?mode@?1??f_seek@@9@9      000000018000e380     uliolib51.obj
 0001:0000d390       ?modenames@?1??f_seek@@9@9 000000018000e390     uliolib51.obj
 0001:0000d3b0       ?mode@?1??f_setvbuf@@9@9   000000018000e3b0     uliolib51.obj
 0001:0000d3c0       ?modenames@?1??f_setvbuf@@9@9 000000018000e3c0     uliolib51.obj
 0001:0000d3e0       iolib                      000000018000e3e0     uliolib51.obj
 0001:0000d4a0       flib                       000000018000e4a0     uliolib51.obj
 0001:0000d540       fnames                     000000018000e540     uliolib51.obj
 0001:0000d6d8       pk_funcs                   000000018000e6d8     uloadlib51.obj
 0001:0000d708       ll_funcs                   000000018000e708     uloadlib51.obj
 0001:0000d738       loaders                    000000018000e738     uloadlib51.obj
 0001:0000d760       sentinel_                  000000018000e760     uloadlib51.obj
 0001:0000df60       FDLG_WARNING               000000018000ef60     util.obj
 0001:0000df68       FDLG_SMALLDIALOG           000000018000ef68     util.obj
 0001:0000df70       FDLG_NODRAWSHADOW          000000018000ef70     util.obj
 0001:0000df78       FDLG_NODRAWPANEL           000000018000ef78     util.obj
 0001:0000df80       FDLG_KEEPCONSOLETITLE      000000018000ef80     util.obj
 0001:0000df88       FDLG_NONE                  000000018000ef88     util.obj
 0001:0000df90       MIF_SELECTED               000000018000ef90     util.obj
 0001:0000df98       MIF_CHECKED                000000018000ef98     util.obj
 0001:0000dfa0       MIF_SEPARATOR              000000018000efa0     util.obj
 0001:0000dfa8       MIF_DISABLE                000000018000efa8     util.obj
 0001:0000dfb0       MIF_GRAYED                 000000018000efb0     util.obj
 0001:0000dfb8       MIF_HIDDEN                 000000018000efb8     util.obj
 0001:0000dfc0       MIF_NONE                   000000018000efc0     util.obj
 0001:0000dfc8       FMENU_SHOWAMPERSAND        000000018000efc8     util.obj
 0001:0000dfd0       FMENU_WRAPMODE             000000018000efd0     util.obj
 0001:0000dfd8       FMENU_AUTOHIGHLIGHT        000000018000efd8     util.obj
 0001:0000dfe0       FMENU_REVERSEAUTOHIGHLIGHT 000000018000efe0     util.obj
 0001:0000dfe8       FMENU_CHANGECONSOLETITLE   000000018000efe8     util.obj
 0001:0000dff0       FMENU_NONE                 000000018000eff0     util.obj
 0001:0000dff8       PPIF_SELECTED              000000018000eff8     util.obj
 0001:0000e000       PPIF_PROCESSDESCR          000000018000f000     util.obj
 0001:0000e008       PPIF_NONE                  000000018000f008     util.obj
 0001:0000e010       PFLAGS_SHOWHIDDEN          000000018000f010     util.obj
 0001:0000e018       PFLAGS_HIGHLIGHT           000000018000f018     util.obj
 0001:0000e020       PFLAGS_REVERSESORTORDER    000000018000f020     util.obj
 0001:0000e028       PFLAGS_USESORTGROUPS       000000018000f028     util.obj
 0001:0000e030       PFLAGS_SELECTEDFIRST       000000018000f030     util.obj
 0001:0000e038       PFLAGS_REALNAMES           000000018000f038     util.obj
 0001:0000e040       PFLAGS_NUMERICSORT         000000018000f040     util.obj
 0001:0000e048       PFLAGS_PANELLEFT           000000018000f048     util.obj
 0001:0000e050       PFLAGS_DIRECTORIESFIRST    000000018000f050     util.obj
 0001:0000e058       PFLAGS_USECRC32            000000018000f058     util.obj
 0001:0000e060       PFLAGS_CASESENSITIVESORT   000000018000f060     util.obj
 0001:0000e068       PFLAGS_PLUGIN              000000018000f068     util.obj
 0001:0000e070       PFLAGS_VISIBLE             000000018000f070     util.obj
 0001:0000e078       PFLAGS_FOCUS               000000018000f078     util.obj
 0001:0000e080       PFLAGS_ALTERNATIVENAMES    000000018000f080     util.obj
 0001:0000e088       PFLAGS_SHORTCUT            000000018000f088     util.obj
 0001:0000e090       PFLAGS_NONE                000000018000f090     util.obj
 0001:0000e098       PN_CMPNAME                 000000018000f098     util.obj
 0001:0000e0a0       PN_CMPNAMELIST             000000018000f0a0     util.obj
 0001:0000e0a8       PN_GENERATENAME            000000018000f0a8     util.obj
 0001:0000e0b0       PN_CHECKMASK               000000018000f0b0     util.obj
 0001:0000e0b8       PN_SKIPPATH                000000018000f0b8     util.obj
 0001:0000e0c0       PN_SHOWERRORMESSAGE        000000018000f0c0     util.obj
 0001:0000e0c8       XLAT_SWITCHKEYBLAYOUT      000000018000f0c8     util.obj
 0001:0000e0d0       XLAT_SWITCHKEYBBEEP        000000018000f0d0     util.obj
 0001:0000e0d8       XLAT_USEKEYBLAYOUTNAME     000000018000f0d8     util.obj
 0001:0000e0e0       XLAT_CONVERTALLCMDLINE     000000018000f0e0     util.obj
 0001:0000e0e8       XLAT_NONE                  000000018000f0e8     util.obj
 0001:0000e0f0       FRS_RETUPDIR               000000018000f0f0     util.obj
 0001:0000e0f8       FRS_RECUR                  000000018000f0f8     util.obj
 0001:0000e100       FRS_SCANSYMLINK            000000018000f100     util.obj
 0001:0000e108       VF_NONMODAL                000000018000f108     util.obj
 0001:0000e110       VF_DELETEONCLOSE           000000018000f110     util.obj
 0001:0000e118       VF_ENABLE_F6               000000018000f118     util.obj
 0001:0000e120       VF_DISABLEHISTORY          000000018000f120     util.obj
 0001:0000e128       VF_IMMEDIATERETURN         000000018000f128     util.obj
 0001:0000e130       VF_DELETEONLYFILEONCLOSE   000000018000f130     util.obj
 0001:0000e138       VF_NONE                    000000018000f138     util.obj
 0001:0000e140       MLF_SHOWERRMSG             000000018000f140     util.obj
 0001:0000e148       MLF_DONOTUPDATEPANEL       000000018000f148     util.obj
 0001:0000e150       MLF_NONE                   000000018000f150     util.obj
 0001:0000e158       EF_NONMODAL                000000018000f158     util.obj
 0001:0000e160       EF_CREATENEW               000000018000f160     util.obj
 0001:0000e168       EF_ENABLE_F6               000000018000f168     util.obj
 0001:0000e170       EF_DISABLEHISTORY          000000018000f170     util.obj
 0001:0000e178       EF_DELETEONCLOSE           000000018000f178     util.obj
 0001:0000e180       EF_IMMEDIATERETURN         000000018000f180     util.obj
 0001:0000e188       EF_DELETEONLYFILEONCLOSE   000000018000f188     util.obj
 0001:0000e190       EF_LOCKED                  000000018000f190     util.obj
 0001:0000e198       EF_DISABLESAVEPOS          000000018000f198     util.obj
 0001:0000e1a0       EN_NONE                    000000018000f1a0     util.obj
 0001:0000e1a8       FFFS_COMMAS                000000018000f1a8     util.obj
 0001:0000e1b0       FFFS_FLOATSIZE             000000018000f1b0     util.obj
 0001:0000e1b8       FFFS_SHOWBYTESINDEX        000000018000f1b8     util.obj
 0001:0000e1c0       FFFS_ECONOMIC              000000018000f1c0     util.obj
 0001:0000e1c8       FFFS_THOUSAND              000000018000f1c8     util.obj
 0001:0000e1d0       FFFS_MINSIZEINDEX          000000018000f1d0     util.obj
 0001:0000e1d8       FFFS_MINSIZEINDEX_MASK     000000018000f1d8     util.obj
 0001:0000e1e0       FHELP_NOSHOWERROR          000000018000f1e0     util.obj
 0001:0000e1e8       FHELP_SELFHELP             000000018000f1e8     util.obj
 0001:0000e1f0       FHELP_FARHELP              000000018000f1f0     util.obj
 0001:0000e1f8       FHELP_CUSTOMFILE           000000018000f1f8     util.obj
 0001:0000e200       FHELP_CUSTOMPATH           000000018000f200     util.obj
 0001:0000e208       FHELP_GUID                 000000018000f208     util.obj
 0001:0000e210       FHELP_USECONTENTS          000000018000f210     util.obj
 0001:0000e218       FHELP_NONE                 000000018000f218     util.obj
 0001:0000e220       KMFLAGS_SILENTCHECK        000000018000f220     util.obj
 0001:0000e228       KMFLAGS_DISABLEOUTPUT      000000018000f228     util.obj
 0001:0000e230       KMFLAGS_NOSENDKEYSTOPLUGINS 000000018000f230     util.obj
 0001:0000e238       KMFLAGS_ENABLEOUTPUT       000000018000f238     util.obj
 0001:0000e240       KMFLAGS_NONE               000000018000f240     util.obj
 0001:0000e248       AKMFLAGS_NONE              000000018000f248     util.obj
 0001:0000e250       FSETCLR_REDRAW             000000018000f250     util.obj
 0001:0000e258       FSETCLR_NONE               000000018000f258     util.obj
 0001:0000e260       PF_PRELOAD                 000000018000f260     util.obj
 0001:0000e268       PF_DISABLEPANELS           000000018000f268     util.obj
 0001:0000e270       PF_EDITOR                  000000018000f270     util.obj
 0001:0000e278       PF_VIEWER                  000000018000f278     util.obj
 0001:0000e280       PF_FULLCMDLINE             000000018000f280     util.obj
 0001:0000e288       PF_DIALOG                  000000018000f288     util.obj
 0001:0000e290       PF_NONE                    000000018000f290     util.obj
 0001:0000e298       WIF_MODIFIED               000000018000f298     util.obj
 0001:0000e2a0       WIF_CURRENT                000000018000f2a0     util.obj
 0001:0000e2a8       WIF_MODAL                  000000018000f2a8     util.obj
 0001:0000e2b0       VOPT_SAVEFILEPOSITION      000000018000f2b0     util.obj
 0001:0000e2b8       VOPT_AUTODETECTCODEPAGE    000000018000f2b8     util.obj
 0001:0000e2c0       VOPT_NONE                  000000018000f2c0     util.obj
 0001:0000e2c8       VSMFL_REDRAW               000000018000f2c8     util.obj
 0001:0000e2d0       IPLFLAGS_SEPARATOR         000000018000f2d0     util.obj
 0001:0000e2d8       VSP_NOREDRAW               000000018000f2d8     util.obj
 0001:0000e2e0       VSP_PERCENT                000000018000f2e0     util.obj
 0001:0000e2e8       VSP_RELATIVE               000000018000f2e8     util.obj
 0001:0000e2f0       VSP_NORETNEWPOS            000000018000f2f0     util.obj
 0001:0000e2f8       PMFLAGS_FULLSCREEN         000000018000f2f8     util.obj
 0001:0000e300       PMFLAGS_DETAILEDSTATUS     000000018000f300     util.obj
 0001:0000e308       PMFLAGS_ALIGNEXTENSIONS    000000018000f308     util.obj
 0001:0000e310       PMFLAGS_CASECONVERSION     000000018000f310     util.obj
 0001:0000e318       VMF_WRAP                   000000018000f318     util.obj
 0001:0000e320       VMF_WORDWRAP               000000018000f320     util.obj
 0001:0000e328       OPIF_DISABLEFILTER         000000018000f328     util.obj
 0001:0000e330       OPIF_DISABLESORTGROUPS     000000018000f330     util.obj
 0001:0000e338       OPIF_DISABLEHIGHLIGHTING   000000018000f338     util.obj
 0001:0000e340       OPIF_ADDDOTS               000000018000f340     util.obj
 0001:0000e348       OPIF_RAWSELECTION          000000018000f348     util.obj
 0001:0000e350       OPIF_REALNAMES             000000018000f350     util.obj
 0001:0000e358       OPIF_SHOWNAMESONLY         000000018000f358     util.obj
 0001:0000e360       OPIF_SHOWRIGHTALIGNNAMES   000000018000f360     util.obj
 0001:0000e368       OPIF_SHOWPRESERVECASE      000000018000f368     util.obj
 0001:0000e370       OPIF_COMPAREFATTIME        000000018000f370     util.obj
 0001:0000e378       OPIF_EXTERNALGET           000000018000f378     util.obj
 0001:0000e380       OPIF_EXTERNALPUT           000000018000f380     util.obj
 0001:0000e388       OPIF_EXTERNALDELETE        000000018000f388     util.obj
 0001:0000e390       OPIF_EXTERNALMKDIR         000000018000f390     util.obj
 0001:0000e398       OPIF_USEATTRHIGHLIGHTING   000000018000f398     util.obj
 0001:0000e3a0       OPIF_USECRC32              000000018000f3a0     util.obj
 0001:0000e3a8       OPIF_USEFREESIZE           000000018000f3a8     util.obj
 0001:0000e3b0       OPIF_SHORTCUT              000000018000f3b0     util.obj
 0001:0000e3b8       OPIF_NONE                  000000018000f3b8     util.obj
 0001:0000e3c0       OPM_SILENT                 000000018000f3c0     util.obj
 0001:0000e3c8       OPM_FIND                   000000018000f3c8     util.obj
 0001:0000e3d0       OPM_VIEW                   000000018000f3d0     util.obj
 0001:0000e3d8       OPM_EDIT                   000000018000f3d8     util.obj
 0001:0000e3e0       OPM_TOPLEVEL               000000018000f3e0     util.obj
 0001:0000e3e8       OPM_DESCR                  000000018000f3e8     util.obj
 0001:0000e3f0       OPM_QUICKVIEW              000000018000f3f0     util.obj
 0001:0000e3f8       OPM_PGDN                   000000018000f3f8     util.obj
 0001:0000e400       FCF_FG_4BIT                000000018000f400     util.obj
 0001:0000e408       OPM_COMMANDS               000000018000f408     util.obj
 0001:0000e410       FCF_BG_4BIT                000000018000f410     util.obj
 0001:0000e418       OPM_NONE                   000000018000f418     util.obj
 0001:0000e420       FCF_4BITMASK               000000018000f420     util.obj
 0001:0000e428       FCF_EXTENDEDFLAGS          000000018000f428     util.obj
 0001:0000e430       FCF_FG_BOLD                000000018000f430     util.obj
 0001:0000e438       FCF_FG_ITALIC              000000018000f438     util.obj
 0001:0000e440       FCF_FG_UNDERLINE           000000018000f440     util.obj
 0001:0000e448       FCF_STYLEMASK              000000018000f448     util.obj
 0001:0000e450       FCF_NONE                   000000018000f450     util.obj
 0001:0000e458       CDF_NONE                   000000018000f458     util.obj
 0001:0000e460       FMSG_WARNING               000000018000f460     util.obj
 0001:0000e468       FMSG_ERRORTYPE             000000018000f468     util.obj
 0001:0000e470       FMSG_KEEPBACKGROUND        000000018000f470     util.obj
 0001:0000e478       FMSG_LEFTALIGN             000000018000f478     util.obj
 0001:0000e480       FMSG_ALLINONE              000000018000f480     util.obj
 0001:0000e488       FMSG_MB_OK                 000000018000f488     util.obj
 0001:0000e490       FMSG_MB_OKCANCEL           000000018000f490     util.obj
 0001:0000e498       FMSG_MB_ABORTRETRYIGNORE   000000018000f498     util.obj
 0001:0000e4a0       FMSG_MB_YESNO              000000018000f4a0     util.obj
 0001:0000e4a8       FMSG_MB_YESNOCANCEL        000000018000f4a8     util.obj
 0001:0000e4b0       FMSG_MB_RETRYCANCEL        000000018000f4b0     util.obj
 0001:0000e4b8       FMSG_NONE                  000000018000f4b8     util.obj
 0001:0000e4c0       FOSF_ACTIVE                000000018000f4c0     util.obj
 0001:0000e4c8       FOSF_NONE                  000000018000f4c8     util.obj
 0001:0000e4d0       DIF_BOXCOLOR               000000018000f4d0     util.obj
 0001:0000e4d8       DIF_GROUP                  000000018000f4d8     util.obj
 0001:0000e4e0       DIF_LEFTTEXT               000000018000f4e0     util.obj
 0001:0000e4e8       DIF_MOVESELECT             000000018000f4e8     util.obj
 0001:0000e4f0       DIF_SHOWAMPERSAND          000000018000f4f0     util.obj
 0001:0000e4f8       DIF_CENTERGROUP            000000018000f4f8     util.obj
 0001:0000e500       DIF_NOBRACKETS             000000018000f500     util.obj
 0001:0000e508       DIF_MANUALADDHISTORY       000000018000f508     util.obj
 0001:0000e510       DIF_SEPARATOR              000000018000f510     util.obj
 0001:0000e518       DIF_SEPARATOR2             000000018000f518     util.obj
 0001:0000e520       DIF_EDITOR                 000000018000f520     util.obj
 0001:0000e528       DIF_LISTNOAMPERSAND        000000018000f528     util.obj
 0001:0000e530       DIF_LISTNOBOX              000000018000f530     util.obj
 0001:0000e538       DIF_HISTORY                000000018000f538     util.obj
 0001:0000e540       DIF_BTNNOCLOSE             000000018000f540     util.obj
 0001:0000e548       DIF_CENTERTEXT             000000018000f548     util.obj
 0001:0000e550       DIF_SEPARATORUSER          000000018000f550     util.obj
 0001:0000e558       DIF_SETSHIELD              000000018000f558     util.obj
 0001:0000e560       DIF_EDITEXPAND             000000018000f560     util.obj
 0001:0000e568       DIF_DROPDOWNLIST           000000018000f568     util.obj
 0001:0000e570       DIF_USELASTHISTORY         000000018000f570     util.obj
 0001:0000e578       DIF_MASKEDIT               000000018000f578     util.obj
 0001:0000e580       DIF_LISTTRACKMOUSE         000000018000f580     util.obj
 0001:0000e588       DIF_LISTTRACKMOUSEINFOCUS  000000018000f588     util.obj
 0001:0000e590       DIF_SELECTONENTRY          000000018000f590     util.obj
 0001:0000e598       DIF_3STATE                 000000018000f598     util.obj
 0001:0000e5a0       DIF_EDITPATH               000000018000f5a0     util.obj
 0001:0000e5a8       DIF_LISTWRAPMODE           000000018000f5a8     util.obj
 0001:0000e5b0       DIF_NOAUTOCOMPLETE         000000018000f5b0     util.obj
 0001:0000e5b8       DIF_LISTAUTOHIGHLIGHT      000000018000f5b8     util.obj
 0001:0000e5c0       DIF_LISTNOCLOSE            000000018000f5c0     util.obj
 0001:0000e5c8       DIF_EDITPATHEXEC           000000018000f5c8     util.obj
 0001:0000e5d0       DIF_HIDDEN                 000000018000f5d0     util.obj
 0001:0000e5d8       DIF_READONLY               000000018000f5d8     util.obj
 0001:0000e5e0       DIF_NOFOCUS                000000018000f5e0     util.obj
 0001:0000e5e8       DIF_DISABLE                000000018000f5e8     util.obj
 0001:0000e5f0       DIF_DEFAULTBUTTON          000000018000f5f0     util.obj
 0001:0000e5f8       DIF_FOCUS                  000000018000f5f8     util.obj
 0001:0000e600       DIF_RIGHTTEXT              000000018000f600     util.obj
 0001:0000e608       DIF_WORDWRAP               000000018000f608     util.obj
 0001:0000e610       DIF_NONE                   000000018000f610     util.obj
 0001:0000e618       ECF_TABMARKFIRST           000000018000f618     util.obj
 0001:0000e620       ECF_TABMARKCURRENT         000000018000f620     util.obj
 0001:0000e628       FIB_ENABLEEMPTY            000000018000f628     util.obj
 0001:0000e630       FIB_PASSWORD               000000018000f630     util.obj
 0001:0000e638       FIB_EXPANDENV              000000018000f638     util.obj
 0001:0000e640       FIB_NOUSELASTHISTORY       000000018000f640     util.obj
 0001:0000e648       FIB_BUTTONS                000000018000f648     util.obj
 0001:0000e650       FIB_NOAMPERSAND            000000018000f650     util.obj
 0001:0000e658       FIB_EDITPATH               000000018000f658     util.obj
 0001:0000e660       PCIF_FROMMAIN              000000018000f660     util.obj
 0001:0000e668       FIB_EDITPATHEXEC           000000018000f668     util.obj
 0001:0000e670       FIB_NONE                   000000018000f670     util.obj
 0001:0000e678       PCIF_NONE                  000000018000f678     util.obj
 0001:0000e680       LIF_SELECTED               000000018000f680     util.obj
 0001:0000e688       LIF_CHECKED                000000018000f688     util.obj
 0001:0000e690       LIF_SEPARATOR              000000018000f690     util.obj
 0001:0000e698       LIF_DISABLE                000000018000f698     util.obj
 0001:0000e6a0       LIF_GRAYED                 000000018000f6a0     util.obj
 0001:0000e6a8       LIF_HIDDEN                 000000018000f6a8     util.obj
 0001:0000e6b0       LIF_DELETEUSERDATA         000000018000f6b0     util.obj
 0001:0000e6b8       LIF_NONE                   000000018000f6b8     util.obj
 0001:0000e6c0       FPF_LOADED                 000000018000f6c0     util.obj
 0001:0000e6c8       FPF_ANSI                   000000018000f6c8     util.obj
 0001:0000e6d0       FPF_NONE                   000000018000f6d0     util.obj
 0001:0000e6d8       FarGuid                    000000018000f6d8     util.obj
 0001:0000e6e8       LIFIND_EXACTMATCH          000000018000f6e8     util.obj
 0001:0000e6f0       LIFIND_NONE                000000018000f6f0     util.obj
 0001:0000e6f8       LINFO_SHOWNOBOX            000000018000f6f8     util.obj
 0001:0000e700       LINFO_AUTOHIGHLIGHT        000000018000f700     util.obj
 0001:0000e708       LINFO_REVERSEHIGHLIGHT     000000018000f708     util.obj
 0001:0000e710       LINFO_WRAPMODE             000000018000f710     util.obj
 0001:0000e718       LINFO_SHOWAMPERSAND        000000018000f718     util.obj
 0001:0000e720       LINFO_NONE                 000000018000f720     util.obj
 0001:0000e7b0       VF_NONMODAL                000000018000f7b0     win.obj
 0001:0000e7b8       VF_DELETEONCLOSE           000000018000f7b8     win.obj
 0001:0000e7c0       VF_ENABLE_F6               000000018000f7c0     win.obj
 0001:0000e7c8       VF_DISABLEHISTORY          000000018000f7c8     win.obj
 0001:0000e7d0       VF_IMMEDIATERETURN         000000018000f7d0     win.obj
 0001:0000e7d8       VF_DELETEONLYFILEONCLOSE   000000018000f7d8     win.obj
 0001:0000e7e0       VF_NONE                    000000018000f7e0     win.obj
 0001:0000e7e8       MLF_SHOWERRMSG             000000018000f7e8     win.obj
 0001:0000e7f0       MLF_DONOTUPDATEPANEL       000000018000f7f0     win.obj
 0001:0000e7f8       MLF_NONE                   000000018000f7f8     win.obj
 0001:0000e800       EF_NONMODAL                000000018000f800     win.obj
 0001:0000e808       EF_CREATENEW               000000018000f808     win.obj
 0001:0000e810       EF_ENABLE_F6               000000018000f810     win.obj
 0001:0000e818       EF_DISABLEHISTORY          000000018000f818     win.obj
 0001:0000e820       EF_DELETEONCLOSE           000000018000f820     win.obj
 0001:0000e828       EF_IMMEDIATERETURN         000000018000f828     win.obj
 0001:0000e830       EF_DELETEONLYFILEONCLOSE   000000018000f830     win.obj
 0001:0000e838       EF_LOCKED                  000000018000f838     win.obj
 0001:0000e840       EF_DISABLESAVEPOS          000000018000f840     win.obj
 0001:0000e848       EN_NONE                    000000018000f848     win.obj
 0001:0000e850       FFFS_COMMAS                000000018000f850     win.obj
 0001:0000e858       FFFS_FLOATSIZE             000000018000f858     win.obj
 0001:0000e860       FFFS_SHOWBYTESINDEX        000000018000f860     win.obj
 0001:0000e868       FFFS_ECONOMIC              000000018000f868     win.obj
 0001:0000e870       FFFS_THOUSAND              000000018000f870     win.obj
 0001:0000e878       FFFS_MINSIZEINDEX          000000018000f878     win.obj
 0001:0000e880       FFFS_MINSIZEINDEX_MASK     000000018000f880     win.obj
 0001:0000e888       FHELP_NOSHOWERROR          000000018000f888     win.obj
 0001:0000e890       FHELP_SELFHELP             000000018000f890     win.obj
 0001:0000e898       FHELP_FARHELP              000000018000f898     win.obj
 0001:0000e8a0       FHELP_CUSTOMFILE           000000018000f8a0     win.obj
 0001:0000e8a8       FHELP_CUSTOMPATH           000000018000f8a8     win.obj
 0001:0000e8b0       FHELP_GUID                 000000018000f8b0     win.obj
 0001:0000e8b8       FHELP_USECONTENTS          000000018000f8b8     win.obj
 0001:0000e8c0       FHELP_NONE                 000000018000f8c0     win.obj
 0001:0000e8c8       KMFLAGS_SILENTCHECK        000000018000f8c8     win.obj
 0001:0000e8d0       KMFLAGS_DISABLEOUTPUT      000000018000f8d0     win.obj
 0001:0000e8d8       KMFLAGS_NOSENDKEYSTOPLUGINS 000000018000f8d8     win.obj
 0001:0000e8e0       KMFLAGS_ENABLEOUTPUT       000000018000f8e0     win.obj
 0001:0000e8e8       KMFLAGS_NONE               000000018000f8e8     win.obj
 0001:0000e8f0       AKMFLAGS_NONE              000000018000f8f0     win.obj
 0001:0000e8f8       FSETCLR_REDRAW             000000018000f8f8     win.obj
 0001:0000e900       FSETCLR_NONE               000000018000f900     win.obj
 0001:0000e908       PF_PRELOAD                 000000018000f908     win.obj
 0001:0000e910       PF_DISABLEPANELS           000000018000f910     win.obj
 0001:0000e918       PF_EDITOR                  000000018000f918     win.obj
 0001:0000e920       PF_VIEWER                  000000018000f920     win.obj
 0001:0000e928       PF_FULLCMDLINE             000000018000f928     win.obj
 0001:0000e930       PF_DIALOG                  000000018000f930     win.obj
 0001:0000e938       PF_NONE                    000000018000f938     win.obj
 0001:0000e940       WIF_MODIFIED               000000018000f940     win.obj
 0001:0000e948       WIF_CURRENT                000000018000f948     win.obj
 0001:0000e950       WIF_MODAL                  000000018000f950     win.obj
 0001:0000e958       VOPT_SAVEFILEPOSITION      000000018000f958     win.obj
 0001:0000e960       VOPT_AUTODETECTCODEPAGE    000000018000f960     win.obj
 0001:0000e968       VOPT_NONE                  000000018000f968     win.obj
 0001:0000e970       VSMFL_REDRAW               000000018000f970     win.obj
 0001:0000e978       IPLFLAGS_SEPARATOR         000000018000f978     win.obj
 0001:0000e980       VSP_NOREDRAW               000000018000f980     win.obj
 0001:0000e988       VSP_PERCENT                000000018000f988     win.obj
 0001:0000e990       VSP_RELATIVE               000000018000f990     win.obj
 0001:0000e998       VSP_NORETNEWPOS            000000018000f998     win.obj
 0001:0000e9a0       PMFLAGS_FULLSCREEN         000000018000f9a0     win.obj
 0001:0000e9a8       PMFLAGS_DETAILEDSTATUS     000000018000f9a8     win.obj
 0001:0000e9b0       PMFLAGS_ALIGNEXTENSIONS    000000018000f9b0     win.obj
 0001:0000e9b8       PMFLAGS_CASECONVERSION     000000018000f9b8     win.obj
 0001:0000e9c0       VMF_WRAP                   000000018000f9c0     win.obj
 0001:0000e9c8       VMF_WORDWRAP               000000018000f9c8     win.obj
 0001:0000e9d0       OPIF_DISABLEFILTER         000000018000f9d0     win.obj
 0001:0000e9d8       OPIF_DISABLESORTGROUPS     000000018000f9d8     win.obj
 0001:0000e9e0       OPIF_DISABLEHIGHLIGHTING   000000018000f9e0     win.obj
 0001:0000e9e8       OPIF_ADDDOTS               000000018000f9e8     win.obj
 0001:0000e9f0       OPIF_RAWSELECTION          000000018000f9f0     win.obj
 0001:0000e9f8       OPIF_REALNAMES             000000018000f9f8     win.obj
 0001:0000ea00       OPIF_SHOWNAMESONLY         000000018000fa00     win.obj
 0001:0000ea08       OPIF_SHOWRIGHTALIGNNAMES   000000018000fa08     win.obj
 0001:0000ea10       OPIF_SHOWPRESERVECASE      000000018000fa10     win.obj
 0001:0000ea18       OPIF_COMPAREFATTIME        000000018000fa18     win.obj
 0001:0000ea20       OPIF_EXTERNALGET           000000018000fa20     win.obj
 0001:0000ea28       OPIF_EXTERNALPUT           000000018000fa28     win.obj
 0001:0000ea30       OPIF_EXTERNALDELETE        000000018000fa30     win.obj
 0001:0000ea38       OPIF_EXTERNALMKDIR         000000018000fa38     win.obj
 0001:0000ea40       OPIF_USEATTRHIGHLIGHTING   000000018000fa40     win.obj
 0001:0000ea48       OPIF_USECRC32              000000018000fa48     win.obj
 0001:0000ea50       OPIF_USEFREESIZE           000000018000fa50     win.obj
 0001:0000ea58       OPIF_SHORTCUT              000000018000fa58     win.obj
 0001:0000ea60       OPIF_NONE                  000000018000fa60     win.obj
 0001:0000ea68       OPM_SILENT                 000000018000fa68     win.obj
 0001:0000ea70       OPM_FIND                   000000018000fa70     win.obj
 0001:0000ea78       OPM_VIEW                   000000018000fa78     win.obj
 0001:0000ea80       OPM_EDIT                   000000018000fa80     win.obj
 0001:0000ea88       OPM_TOPLEVEL               000000018000fa88     win.obj
 0001:0000ea90       OPM_DESCR                  000000018000fa90     win.obj
 0001:0000ea98       OPM_QUICKVIEW              000000018000fa98     win.obj
 0001:0000eaa0       OPM_PGDN                   000000018000faa0     win.obj
 0001:0000eaa8       FCF_FG_4BIT                000000018000faa8     win.obj
 0001:0000eab0       OPM_COMMANDS               000000018000fab0     win.obj
 0001:0000eab8       FCF_BG_4BIT                000000018000fab8     win.obj
 0001:0000eac0       OPM_NONE                   000000018000fac0     win.obj
 0001:0000eac8       FCF_4BITMASK               000000018000fac8     win.obj
 0001:0000ead0       FCF_EXTENDEDFLAGS          000000018000fad0     win.obj
 0001:0000ead8       FCF_FG_BOLD                000000018000fad8     win.obj
 0001:0000eae0       FCF_FG_ITALIC              000000018000fae0     win.obj
 0001:0000eae8       FCF_FG_UNDERLINE           000000018000fae8     win.obj
 0001:0000eaf0       FCF_STYLEMASK              000000018000faf0     win.obj
 0001:0000eaf8       FCF_NONE                   000000018000faf8     win.obj
 0001:0000eb00       CDF_NONE                   000000018000fb00     win.obj
 0001:0000eb08       FMSG_WARNING               000000018000fb08     win.obj
 0001:0000eb10       FMSG_ERRORTYPE             000000018000fb10     win.obj
 0001:0000eb18       FMSG_KEEPBACKGROUND        000000018000fb18     win.obj
 0001:0000eb20       FMSG_LEFTALIGN             000000018000fb20     win.obj
 0001:0000eb28       FMSG_ALLINONE              000000018000fb28     win.obj
 0001:0000eb30       FMSG_MB_OK                 000000018000fb30     win.obj
 0001:0000eb38       FMSG_MB_OKCANCEL           000000018000fb38     win.obj
 0001:0000eb40       FMSG_MB_ABORTRETRYIGNORE   000000018000fb40     win.obj
 0001:0000eb48       FMSG_MB_YESNO              000000018000fb48     win.obj
 0001:0000eb50       FMSG_MB_YESNOCANCEL        000000018000fb50     win.obj
 0001:0000eb58       FMSG_MB_RETRYCANCEL        000000018000fb58     win.obj
 0001:0000eb60       FMSG_NONE                  000000018000fb60     win.obj
 0001:0000eb68       FOSF_ACTIVE                000000018000fb68     win.obj
 0001:0000eb70       FOSF_NONE                  000000018000fb70     win.obj
 0001:0000eb78       DIF_BOXCOLOR               000000018000fb78     win.obj
 0001:0000eb80       DIF_GROUP                  000000018000fb80     win.obj
 0001:0000eb88       DIF_LEFTTEXT               000000018000fb88     win.obj
 0001:0000eb90       DIF_MOVESELECT             000000018000fb90     win.obj
 0001:0000eb98       DIF_SHOWAMPERSAND          000000018000fb98     win.obj
 0001:0000eba0       DIF_CENTERGROUP            000000018000fba0     win.obj
 0001:0000eba8       DIF_NOBRACKETS             000000018000fba8     win.obj
 0001:0000ebb0       DIF_MANUALADDHISTORY       000000018000fbb0     win.obj
 0001:0000ebb8       DIF_SEPARATOR              000000018000fbb8     win.obj
 0001:0000ebc0       DIF_SEPARATOR2             000000018000fbc0     win.obj
 0001:0000ebc8       DIF_EDITOR                 000000018000fbc8     win.obj
 0001:0000ebd0       DIF_LISTNOAMPERSAND        000000018000fbd0     win.obj
 0001:0000ebd8       DIF_LISTNOBOX              000000018000fbd8     win.obj
 0001:0000ebe0       DIF_HISTORY                000000018000fbe0     win.obj
 0001:0000ebe8       DIF_BTNNOCLOSE             000000018000fbe8     win.obj
 0001:0000ebf0       DIF_CENTERTEXT             000000018000fbf0     win.obj
 0001:0000ebf8       DIF_SEPARATORUSER          000000018000fbf8     win.obj
 0001:0000ec00       DIF_SETSHIELD              000000018000fc00     win.obj
 0001:0000ec08       DIF_EDITEXPAND             000000018000fc08     win.obj
 0001:0000ec10       DIF_DROPDOWNLIST           000000018000fc10     win.obj
 0001:0000ec18       DIF_USELASTHISTORY         000000018000fc18     win.obj
 0001:0000ec20       DIF_MASKEDIT               000000018000fc20     win.obj
 0001:0000ec28       DIF_LISTTRACKMOUSE         000000018000fc28     win.obj
 0001:0000ec30       DIF_LISTTRACKMOUSEINFOCUS  000000018000fc30     win.obj
 0001:0000ec38       DIF_SELECTONENTRY          000000018000fc38     win.obj
 0001:0000ec40       DIF_3STATE                 000000018000fc40     win.obj
 0001:0000ec48       DIF_EDITPATH               000000018000fc48     win.obj
 0001:0000ec50       DIF_LISTWRAPMODE           000000018000fc50     win.obj
 0001:0000ec58       DIF_NOAUTOCOMPLETE         000000018000fc58     win.obj
 0001:0000ec60       DIF_LISTAUTOHIGHLIGHT      000000018000fc60     win.obj
 0001:0000ec68       DIF_LISTNOCLOSE            000000018000fc68     win.obj
 0001:0000ec70       DIF_EDITPATHEXEC           000000018000fc70     win.obj
 0001:0000ec78       DIF_HIDDEN                 000000018000fc78     win.obj
 0001:0000ec80       DIF_READONLY               000000018000fc80     win.obj
 0001:0000ec88       DIF_NOFOCUS                000000018000fc88     win.obj
 0001:0000ec90       DIF_DISABLE                000000018000fc90     win.obj
 0001:0000ec98       DIF_DEFAULTBUTTON          000000018000fc98     win.obj
 0001:0000eca0       DIF_FOCUS                  000000018000fca0     win.obj
 0001:0000eca8       DIF_RIGHTTEXT              000000018000fca8     win.obj
 0001:0000ecb0       DIF_WORDWRAP               000000018000fcb0     win.obj
 0001:0000ecb8       DIF_NONE                   000000018000fcb8     win.obj
 0001:0000ecc0       ECF_TABMARKFIRST           000000018000fcc0     win.obj
 0001:0000ecc8       ECF_TABMARKCURRENT         000000018000fcc8     win.obj
 0001:0000ecd0       FIB_ENABLEEMPTY            000000018000fcd0     win.obj
 0001:0000ecd8       FIB_PASSWORD               000000018000fcd8     win.obj
 0001:0000ece0       FIB_EXPANDENV              000000018000fce0     win.obj
 0001:0000ece8       FIB_NOUSELASTHISTORY       000000018000fce8     win.obj
 0001:0000ecf0       FIB_BUTTONS                000000018000fcf0     win.obj
 0001:0000ecf8       FIB_NOAMPERSAND            000000018000fcf8     win.obj
 0001:0000ed00       FIB_EDITPATH               000000018000fd00     win.obj
 0001:0000ed08       PCIF_FROMMAIN              000000018000fd08     win.obj
 0001:0000ed10       FIB_EDITPATHEXEC           000000018000fd10     win.obj
 0001:0000ed18       FIB_NONE                   000000018000fd18     win.obj
 0001:0000ed20       PCIF_NONE                  000000018000fd20     win.obj
 0001:0000ed28       LIF_SELECTED               000000018000fd28     win.obj
 0001:0000ed30       LIF_CHECKED                000000018000fd30     win.obj
 0001:0000ed38       LIF_SEPARATOR              000000018000fd38     win.obj
 0001:0000ed40       LIF_DISABLE                000000018000fd40     win.obj
 0001:0000ed48       LIF_GRAYED                 000000018000fd48     win.obj
 0001:0000ed50       LIF_HIDDEN                 000000018000fd50     win.obj
 0001:0000ed58       LIF_DELETEUSERDATA         000000018000fd58     win.obj
 0001:0000ed60       LIF_NONE                   000000018000fd60     win.obj
 0001:0000ed68       FPF_LOADED                 000000018000fd68     win.obj
 0001:0000ed70       FPF_ANSI                   000000018000fd70     win.obj
 0001:0000ed78       FPF_NONE                   000000018000fd78     win.obj
 0001:0000ed80       FarGuid                    000000018000fd80     win.obj
 0001:0000ed90       LIFIND_EXACTMATCH          000000018000fd90     win.obj
 0001:0000ed98       LIFIND_NONE                000000018000fd98     win.obj
 0001:0000eda0       LINFO_SHOWNOBOX            000000018000fda0     win.obj
 0001:0000eda8       LINFO_AUTOHIGHLIGHT        000000018000fda8     win.obj
 0001:0000edb0       LINFO_REVERSEHIGHLIGHT     000000018000fdb0     win.obj
 0001:0000edb8       LINFO_WRAPMODE             000000018000fdb8     win.obj
 0001:0000edc0       LINFO_SHOWAMPERSAND        000000018000fdc0     win.obj
 0001:0000edc8       LINFO_NONE                 000000018000fdc8     win.obj
 0001:0000edd0       FDLG_WARNING               000000018000fdd0     win.obj
 0001:0000edd8       FDLG_SMALLDIALOG           000000018000fdd8     win.obj
 0001:0000ede0       FDLG_NODRAWSHADOW          000000018000fde0     win.obj
 0001:0000ede8       FDLG_NODRAWPANEL           000000018000fde8     win.obj
 0001:0000edf0       FDLG_KEEPCONSOLETITLE      000000018000fdf0     win.obj
 0001:0000edf8       FDLG_NONE                  000000018000fdf8     win.obj
 0001:0000ef90       MIF_SELECTED               000000018000ff90     win.obj
 0001:0000ef98       MIF_CHECKED                000000018000ff98     win.obj
 0001:0000efa0       MIF_SEPARATOR              000000018000ffa0     win.obj
 0001:0000efa8       MIF_DISABLE                000000018000ffa8     win.obj
 0001:0000efb0       MIF_GRAYED                 000000018000ffb0     win.obj
 0001:0000efb8       MIF_HIDDEN                 000000018000ffb8     win.obj
 0001:0000efc0       MIF_NONE                   000000018000ffc0     win.obj
 0001:0000efc8       FMENU_SHOWAMPERSAND        000000018000ffc8     win.obj
 0001:0000efd0       FMENU_WRAPMODE             000000018000ffd0     win.obj
 0001:0000efd8       FMENU_AUTOHIGHLIGHT        000000018000ffd8     win.obj
 0001:0000efe0       FMENU_REVERSEAUTOHIGHLIGHT 000000018000ffe0     win.obj
 0001:0000efe8       FMENU_CHANGECONSOLETITLE   000000018000ffe8     win.obj
 0001:0000eff0       FMENU_NONE                 000000018000fff0     win.obj
 0001:0000eff8       PPIF_SELECTED              000000018000fff8     win.obj
 0001:0000f000       PPIF_PROCESSDESCR          0000000180010000     win.obj
 0001:0000f008       PPIF_NONE                  0000000180010008     win.obj
 0001:0000f010       PFLAGS_SHOWHIDDEN          0000000180010010     win.obj
 0001:0000f018       PFLAGS_HIGHLIGHT           0000000180010018     win.obj
 0001:0000f020       PFLAGS_REVERSESORTORDER    0000000180010020     win.obj
 0001:0000f028       PFLAGS_USESORTGROUPS       0000000180010028     win.obj
 0001:0000f030       PFLAGS_SELECTEDFIRST       0000000180010030     win.obj
 0001:0000f038       PFLAGS_REALNAMES           0000000180010038     win.obj
 0001:0000f040       PFLAGS_NUMERICSORT         0000000180010040     win.obj
 0001:0000f048       PFLAGS_PANELLEFT           0000000180010048     win.obj
 0001:0000f050       PFLAGS_DIRECTORIESFIRST    0000000180010050     win.obj
 0001:0000f058       PFLAGS_USECRC32            0000000180010058     win.obj
 0001:0000f060       PFLAGS_CASESENSITIVESORT   0000000180010060     win.obj
 0001:0000f068       PFLAGS_PLUGIN              0000000180010068     win.obj
 0001:0000f070       PFLAGS_VISIBLE             0000000180010070     win.obj
 0001:0000f078       PFLAGS_FOCUS               0000000180010078     win.obj
 0001:0000f080       PFLAGS_ALTERNATIVENAMES    0000000180010080     win.obj
 0001:0000f088       PFLAGS_SHORTCUT            0000000180010088     win.obj
 0001:0000f090       PFLAGS_NONE                0000000180010090     win.obj
 0001:0000f098       PN_CMPNAME                 0000000180010098     win.obj
 0001:0000f0a0       PN_CMPNAMELIST             00000001800100a0     win.obj
 0001:0000f0a8       PN_GENERATENAME            00000001800100a8     win.obj
 0001:0000f0b0       PN_CHECKMASK               00000001800100b0     win.obj
 0001:0000f0b8       PN_SKIPPATH                00000001800100b8     win.obj
 0001:0000f0c0       PN_SHOWERRORMESSAGE        00000001800100c0     win.obj
 0001:0000f0c8       XLAT_SWITCHKEYBLAYOUT      00000001800100c8     win.obj
 0001:0000f0d0       XLAT_SWITCHKEYBBEEP        00000001800100d0     win.obj
 0001:0000f0d8       XLAT_USEKEYBLAYOUTNAME     00000001800100d8     win.obj
 0001:0000f0e0       XLAT_CONVERTALLCMDLINE     00000001800100e0     win.obj
 0001:0000f0e8       XLAT_NONE                  00000001800100e8     win.obj
 0001:0000f0f0       FRS_RETUPDIR               00000001800100f0     win.obj
 0001:0000f0f8       FRS_RECUR                  00000001800100f8     win.obj
 0001:0000f100       FRS_SCANSYMLINK            0000000180010100     win.obj
 0001:0000f4f0       __flag_x_zero              00000001800104f0     LIBCMT:log10.obj
 0001:0000f4f4       __flag_x_neg               00000001800104f4     LIBCMT:log10.obj
 0001:0000f4f8       __flag_x_nan               00000001800104f8     LIBCMT:log10.obj
 0001:0000f500       __real_ninf                0000000180010500     LIBCMT:log10.obj
 0001:0000f510       __real_inf                 0000000180010510     LIBCMT:log10.obj
 0001:0000f520       __real_neg_qnan            0000000180010520     LIBCMT:log10.obj
 0001:0000f530       __real_qnanbit             0000000180010530     LIBCMT:log10.obj
 0001:0000f540       __real_mant                0000000180010540     LIBCMT:log10.obj
 0001:0000f550       __mask_1023                0000000180010550     LIBCMT:log10.obj
 0001:0000f560       __mask_001                 0000000180010560     LIBCMT:log10.obj
 0001:0000f570       __mask_mant_all8           0000000180010570     LIBCMT:log10.obj
 0001:0000f580       __mask_mant9               0000000180010580     LIBCMT:log10.obj
 0001:0000f590       __real_log10_e             0000000180010590     LIBCMT:log10.obj
 0001:0000f5a0       __real_log10_e_lead        00000001800105a0     LIBCMT:log10.obj
 0001:0000f5b0       __real_log10_e_tail        00000001800105b0     LIBCMT:log10.obj
 0001:0000f5c0       __real_log10_2_lead        00000001800105c0     LIBCMT:log10.obj
 0001:0000f5d0       __real_log10_2_tail        00000001800105d0     LIBCMT:log10.obj
 0001:0000f5e0       __real_two                 00000001800105e0     LIBCMT:log10.obj
 0001:0000f5f0       __real_one                 00000001800105f0     LIBCMT:log10.obj
 0001:0000f600       __real_half                0000000180010600     LIBCMT:log10.obj
 0001:0000f610       __mask_100                 0000000180010610     LIBCMT:log10.obj
 0001:0000f620       __real_1_over_512          0000000180010620     LIBCMT:log10.obj
 0001:0000f630       __real_1_over_2            0000000180010630     LIBCMT:log10.obj
 0001:0000f640       __real_1_over_3            0000000180010640     LIBCMT:log10.obj
 0001:0000f650       __real_1_over_4            0000000180010650     LIBCMT:log10.obj
 0001:0000f660       __real_1_over_5            0000000180010660     LIBCMT:log10.obj
 0001:0000f670       __real_1_over_6            0000000180010670     LIBCMT:log10.obj
 0001:0000f680       __mask_1023_f              0000000180010680     LIBCMT:log10.obj
 0001:0000f690       __mask_2045                0000000180010690     LIBCMT:log10.obj
 0001:0000f6a0       __real_threshold           00000001800106a0     LIBCMT:log10.obj
 0001:0000f6b0       __real_notsign             00000001800106b0     LIBCMT:log10.obj
 0001:0000f6c0       __real_ca1                 00000001800106c0     LIBCMT:log10.obj
 0001:0000f6d0       __real_ca2                 00000001800106d0     LIBCMT:log10.obj
 0001:0000f6e0       __real_ca3                 00000001800106e0     LIBCMT:log10.obj
 0001:0000f6f0       __real_ca4                 00000001800106f0     LIBCMT:log10.obj
 0001:0000f700       __mask_lower               0000000180010700     LIBCMT:log10.obj
 0001:0000f710       __log_256_lead_special     0000000180010710     LIBCMT:log10.obj
 0001:0000ff20       __log_256_tail_special     0000000180010f20     LIBCMT:log10.obj
 0001:00010830       rterrs                     0000000180011830     LIBCMT:crt0msg.obj
 0001:000113a0       __real@433fffffffffffff    00000001800123a0     LIBCMT:fpsr.obj
 0001:000113a8       __real@c33fffffffffffff    00000001800123a8     LIBCMT:fpsr.obj
 0001:000118a8       ?ccsField@?P@??_wopenfile@@9@9 00000001800128a8     LIBCMT:_wopen.obj
 0001:000118b0       ?utf8encoding@?P@??_wopenfile@@9@9 00000001800128b0     LIBCMT:_wopen.obj
 0001:000118c0       ?utf16encoding@?P@??_wopenfile@@9@9 00000001800128c0     LIBCMT:_wopen.obj
 0001:000118d8       ?unicodeencoding@?P@??_wopenfile@@9@9 00000001800128d8     LIBCMT:_wopen.obj
 0001:000118e8       _mb_locale_names           00000001800128e8     LIBCMT:mbctype.obj
 0001:00011d00       _first_127char             0000000180012d00     LIBCMT:wsetloca.obj
 0001:000125a0       GS_ExceptionPointers       00000001800135a0     LIBCMT:gs_report.obj
 0001:00016760       $$000000                   0000000180017760     chkstk.obj
 0001:000167c0       band                       00000001800177c0 f   bit64.obj
 0001:000169d0       bor                        00000001800179d0 f   bit64.obj
 0001:00016be0       bxor                       0000000180017be0 f   bit64.obj
 0001:00016df0       bnot                       0000000180017df0 f   bit64.obj
 0001:00016f00       lshift                     0000000180017f00 f   bit64.obj
 0001:00017000       rshift                     0000000180018000 f   bit64.obj
 0001:00017100       arshift                    0000000180018100 f   bit64.obj
 0001:00017200       f_new                      0000000180018200 f   bit64.obj
 0001:00017410       f_tostring                 0000000180018410 f   bit64.obj
 0001:00017520       f_type                     0000000180018520 f   bit64.obj
 0001:000175c0       f_add                      00000001800185c0 f   bit64.obj
 0001:000177d0       f_sub                      00000001800187d0 f   bit64.obj
 0001:000179a0       f_mul                      00000001800189a0 f   bit64.obj
 0001:00017bb0       f_div                      0000000180018bb0 f   bit64.obj
 0001:00017df0       f_mod                      0000000180018df0 f   bit64.obj
 0001:00017fd0       f_unm                      0000000180018fd0 f   bit64.obj
 0001:000180e0       f_eq                       00000001800190e0 f   bit64.obj
 0001:000182c0       f_lt                       00000001800192c0 f   bit64.obj
 0001:000184a0       f_le                       00000001800194a0 f   bit64.obj
 0001:00018ad0       FillFarMacroCall           0000000180019ad0 f   exported.obj
 0001:00018d00       FillFarMacroCall_Callback  0000000180019d00 f   exported.obj
 0001:0001bee0       PushAnalyseInfo            000000018001cee0 f   exported.obj
 0001:0001c9a0       errfile                    000000018001d9a0 f   lflua.obj
 0001:0001ca20       getF                       000000018001da20 f   lflua.obj
 0001:0001e1f0       FL_PushParams              000000018001f1f0 f   luamacro.obj
 0001:0001e290       InitMPR                    000000018001f290 f   luamacro.obj
 0001:0001e300       MacroCallFarCallback       000000018001f300 f   luamacro.obj
 0001:0001ea60       uc_tostring                000000018001fa60 f   lusercontrol.obj
 0001:0001eae0       uc_index                   000000018001fae0 f   lusercontrol.obj
 0001:0001eba0       uc_newindex                000000018001fba0 f   lusercontrol.obj
 0001:0001ecb0       uc_New                     000000018001fcb0 f   lusercontrol.obj
 0001:0001eda0       push_far_usercontrol       000000018001fda0 f   lusercontrol.obj
 0001:0001f080       far_GetPluginInformation   0000000180020080 f   service.obj
 0001:0001f310       far_GetPlugins             0000000180020310 f   service.obj
 0001:0001f420       far_DialogInit             0000000180020420 f   service.obj
 0001:0001f7d0       far_IsPluginLoaded         00000001800207d0 f   service.obj
 0001:0001f8f0       far_XLat                   00000001800208f0 f   service.obj
 0001:0001f9f0       far_FormatFileSize         00000001800209f0 f   service.obj
 0001:0001fb20       far_DialogRun              0000000180020b20 f   service.obj
 0001:0001fbc0       far_DialogFree             0000000180020bc0 f   service.obj
 0001:0001fc30       dialog_tostring            0000000180020c30 f   service.obj
 0001:0001fc90       far_GetDlgItem             0000000180020c90 f   service.obj
 0001:0001fd30       far_Timer                  0000000180020d30 f   service.obj
 0001:0001fe90       far_SetDlgItem             0000000180020e90 f   service.obj
 0001:0001ff30       editor_Editor              0000000180020f30 f   service.obj
 0001:000200c0       timer_Close                00000001800210c0 f   service.obj
 0001:000200f0       viewer_Viewer              00000001800210f0 f   service.obj
 0001:00020240       timer_tostring             0000000180021240 f   service.obj
 0001:000202a0       timer_index                00000001800212a0 f   service.obj
 0001:00020410       viewer_GetFileName         0000000180021410 f   service.obj
 0001:000204e0       viewer_GetInfo             00000001800214e0 f   service.obj
 0001:00020790       far_Message                0000000180021790 f   service.obj
 0001:00020950       timer_newindex             0000000180021950 f   service.obj
 0001:00020aa0       viewer_Quit                0000000180021aa0 f   service.obj
 0001:00020b00       far_GetFileOwner           0000000180021b00 f   service.obj
 0001:00020bb0       viewer_Redraw              0000000180021bb0 f   service.obj
 0001:00020c10       viewer_Select              0000000180021c10 f   service.obj
 0001:00020cc0       far_GetNumberOfLinks       0000000180021cc0 f   service.obj
 0001:00020d20       far_LuafarVersion          0000000180021d20 f   service.obj
 0001:00020d90       viewer_SetPosition         0000000180021d90 f   service.obj
 0001:00020f50       far_CreateSettings         0000000180021f50 f   service.obj
 0001:00021130       panel_CheckPanelsExist     0000000180022130 f   service.obj
 0001:000211a0       panel_ClosePanel           00000001800221a0 f   service.obj
 0001:00021230       viewer_SetMode             0000000180022230 f   service.obj
 0001:00021370       panel_GetPanelInfo         0000000180022370 f   service.obj
 0001:000215c0       far_ShowHelp               00000001800225c0 f   service.obj
 0001:00021680       far_InputBox               0000000180022680 f   service.obj
 0001:00021860       Settings_set               0000000180022860 f   service.obj
 0001:00021a50       panel_GetPanelItem         0000000180022a50 f   service.obj
 0001:00021b60       panel_GetSelectedPanelItem 0000000180022b60 f   service.obj
 0001:00021c70       far_GetMsg                 0000000180022c70 f   service.obj
 0001:00021cf0       panel_GetCurrentPanelItem  0000000180022cf0 f   service.obj
 0001:00021d00       Settings_get               0000000180022d00 f   service.obj
 0001:00021e60       far_Text                   0000000180022e60 f   service.obj
 0001:00021f50       Settings_delete            0000000180022f50 f   service.obj
 0001:00022020       panel_GetPanelFormat       0000000180023020 f   service.obj
 0001:00022030       panel_GetPanelHostFile     0000000180023030 f   service.obj
 0001:00022040       Settings_createsubkey      0000000180023040 f   service.obj
 0001:00022180       far_CopyToClipboard        0000000180023180 f   service.obj
 0001:00022270       panel_GetColumnTypes       0000000180023270 f   service.obj
 0001:00022280       panel_GetColumnWidths      0000000180023280 f   service.obj
 0001:00022290       panel_GetPanelPrefix       0000000180023290 f   service.obj
 0001:000222a0       far_PasteFromClipboard     00000001800232a0 f   service.obj
 0001:00022380       panel_RedrawPanel          0000000180023380 f   service.obj
 0001:00022490       far_PluginStartupInfo      0000000180023490 f   service.obj
 0001:00022560       Settings_opensubkey        0000000180023560 f   service.obj
 0001:00022640       Settings_enum              0000000180023640 f   service.obj
 0001:00022960       far_InputRecordToName      0000000180023960 f   service.obj
 0001:00022b60       far_GetCurrentDirectory    0000000180023b60 f   service.obj
 0001:00022be0       panel_SetCaseSensitiveSort 0000000180023be0 f   service.obj
 0001:00022bf0       panel_SetNumericSort       0000000180023bf0 f   service.obj
 0001:00022c00       panel_SetSortOrder         0000000180023c00 f   service.obj
 0001:00022c10       editor_GetFileName         0000000180023c10 f   service.obj
 0001:00022ce0       panel_SetDirectoriesFirst  0000000180023ce0 f   service.obj
 0001:00022cf0       far_NameToInputRecord      0000000180023cf0 f   service.obj
 0001:00022d70       panel_UpdatePanel          0000000180023d70 f   service.obj
 0001:00022d80       Settings_free              0000000180023d80 f   service.obj
 0001:00022e20       editor_GetInfo             0000000180023e20 f   service.obj
 0001:00023190       panel_SetSortMode          0000000180024190 f   service.obj
 0001:000231a0       far_LStricmp               00000001800241a0 f   service.obj
 0001:00023220       panel_SetViewMode          0000000180024220 f   service.obj
 0001:00023230       far_FreeSettings           0000000180024230 f   service.obj
 0001:000232d0       panel_GetPanelDirectory    00000001800242d0 f   service.obj
 0001:00023430       far_LStrnicmp              0000000180024430 f   service.obj
 0001:000234d0       Settings_tostring          00000001800244d0 f   service.obj
 0001:00023530       far_ProcessName            0000000180024530 f   service.obj
 0001:00023740       far_ColorDialog            0000000180024740 f   service.obj
 0001:000238b0       panel_SetPanelDirectory    00000001800248b0 f   service.obj
 0001:00023ab0       far_GetReparsePointInfo    0000000180024ab0 f   service.obj
 0001:00023b50       panel_GetCmdLine           0000000180024b50 f   service.obj
 0001:00023c00       panel_SetCmdLine           0000000180024c00 f   service.obj
 0001:00023c90       far_LIsAlpha               0000000180024c90 f   service.obj
 0001:00023cf0       panel_GetCmdLinePos        0000000180024cf0 f   service.obj
 0001:00023d90       far_LIsAlphanum            0000000180024d90 f   service.obj
 0001:00023df0       far_LIsLower               0000000180024df0 f   service.obj
 0001:00023e50       panel_SetCmdLinePos        0000000180024e50 f   service.obj
 0001:00023ee0       far_LIsUpper               0000000180024ee0 f   service.obj
 0001:00023f40       panel_InsertCmdLine        0000000180024f40 f   service.obj
 0001:00023fd0       editor_GetString           0000000180024fd0 f   service.obj
 0001:00023fe0       editor_GetStringW          0000000180024fe0 f   service.obj
 0001:00023ff0       panel_GetCmdLineSelection  0000000180024ff0 f   service.obj
 0001:000240c0       far_LLowerBuf              00000001800250c0 f   service.obj
 0001:00024130       panel_SetCmdLineSelection  0000000180025130 f   service.obj
 0001:00024210       far_LUpperBuf              0000000180025210 f   service.obj
 0001:00024280       far_MkTemp                 0000000180025280 f   service.obj
 0001:00024310       editor_SetString           0000000180025310 f   service.obj
 0001:00024320       editor_SetStringW          0000000180025320 f   service.obj
 0001:00024330       far_MkLink                 0000000180025330 f   service.obj
 0001:00024410       editor_InsertString        0000000180025410 f   service.obj
 0001:00024490       far_GetPathRoot            0000000180025490 f   service.obj
 0001:00024530       editor_DeleteString        0000000180025530 f   service.obj
 0001:00024590       panel_SetSelection         0000000180025590 f   service.obj
 0001:000245a0       panel_ClearSelection       00000001800255a0 f   service.obj
 0001:000245b0       editor_InsertText          00000001800255b0 f   service.obj
 0001:00024630       panel_SetUserScreen        0000000180025630 f   service.obj
 0001:000246b0       editor_InsertTextW         00000001800256b0 f   service.obj
 0001:00024730       editor_DeleteChar          0000000180025730 f   service.obj
 0001:000247a0       panel_GetUserScreen        00000001800257a0 f   service.obj
 0001:00024820       far_TruncPathStr           0000000180025820 f   service.obj
 0001:00024830       editor_DeleteBlock         0000000180025830 f   service.obj
 0001:000248a0       far_TruncStr               00000001800258a0 f   service.obj
 0001:000248b0       panel_IsActivePanel        00000001800258b0 f   service.obj
 0001:00024930       editor_UndoRedo            0000000180025930 f   service.obj
 0001:00024a00       panel_SetActivePanel       0000000180025a00 f   service.obj
 0001:00024aa0       far_GetDirList             0000000180025aa0 f   service.obj
 0001:00024de0       far_RecursiveSearch        0000000180025de0 f   service.obj
 0001:00024f00       far_GetPluginDirList       0000000180025f00 f   service.obj
 0001:00024fb0       far_ConvertPath            0000000180025fb0 f   service.obj
 0001:00025090       far_RestoreScreen          0000000180026090 f   service.obj
 0001:00025100       far_SaveScreen             0000000180026100 f   service.obj
 0001:000251b0       far_AdvControl             00000001800261b0 f   service.obj
 0001:00025a54       $LN76                      0000000180026a54     service.obj
 0001:00025ad0       editor_SetKeyBar           0000000180026ad0 f   service.obj
 0001:00025ae0       viewer_SetKeyBar           0000000180026ae0 f   service.obj
 0001:00025af0       editor_SetParam            0000000180026af0 f   service.obj
 0001:00025d00       editor_SetPosition         0000000180026d00 f   service.obj
 0001:00025e30       editor_Redraw              0000000180026e30 f   service.obj
 0001:00025e90       editor_ExpandTabs          0000000180026e90 f   service.obj
 0001:00025f10       editor_GetBookmarks        0000000180026f10 f   service.obj
 0001:00025f20       editor_GetSessionBookmarks 0000000180026f20 f   service.obj
 0001:00025f30       editor_AddSessionBookmark  0000000180026f30 f   service.obj
 0001:00025fa0       far_MacroLoadAll           0000000180026fa0 f   service.obj
 0001:00025ff0       editor_ClearSessionBookmarks 0000000180026ff0 f   service.obj
 0001:00026050       far_MacroSaveAll           0000000180027050 f   service.obj
 0001:000260a0       far_MacroGetState          00000001800270a0 f   service.obj
 0001:000260f0       editor_DeleteSessionBookmark 00000001800270f0 f   service.obj
 0001:00026170       far_MacroGetArea           0000000180027170 f   service.obj
 0001:000261c0       editor_NextSessionBookmark 00000001800271c0 f   service.obj
 0001:00026230       editor_PrevSessionBookmark 0000000180027230 f   service.obj
 0001:000262a0       far_MacroPost              00000001800272a0 f   service.obj
 0001:000262b0       editor_SetTitle            00000001800272b0 f   service.obj
 0001:00026330       far_MacroCheck             0000000180027330 f   service.obj
 0001:00026340       far_MacroGetLastError      0000000180027340 f   service.obj
 0001:00026440       editor_Quit                0000000180027440 f   service.obj
 0001:000264a0       editor_Select              00000001800274a0 f   service.obj
 0001:000265d0       far_MacroAdd               00000001800275d0 f   service.obj
 0001:00026810       editor_GetSelection        0000000180027810 f   service.obj
 0001:00026c30       far_MacroDelete            0000000180027c30 f   service.obj
 0001:00026cc0       far_MacroExecute           0000000180027cc0 f   service.obj
 0001:00026e40       far_SendDlgMessage         0000000180027e40 f   service.obj
 0001:00027f94       $LN146                     0000000180028f94     service.obj
 0001:00027fa0       $LN145                     0000000180028fa0     service.obj
 0001:00027fe4       $LN144                     0000000180028fe4     service.obj
 0001:00028068       $LN143                     0000000180029068     service.obj
 0001:000280b0       far_CPluginStartupInfo     00000001800290b0 f   service.obj
 0001:000280e0       editor_TabToReal           00000001800290e0 f   service.obj
 0001:000280f0       far_MakeMenuItems          00000001800290f0 f   service.obj
 0001:000283e0       editor_RealToTab           00000001800293e0 f   service.obj
 0001:000283f0       far_Show                   00000001800293f0 f   service.obj
 0001:00028490       editor_AddColor            0000000180029490 f   service.obj
 0001:00028660       editor_DelColor            0000000180029660 f   service.obj
 0001:000287b0       editor_GetColor            00000001800297b0 f   service.obj
 0001:000289a0       editor_SaveFile            00000001800299a0 f   service.obj
 0001:00028a50       far_CreateFileFilter       0000000180029a50 f   service.obj
 0001:00028b30       filefilter_Free            0000000180029b30 f   service.obj
 0001:00028bc0       editor_ReadInput           0000000180029bc0 f   service.obj
 0001:00028c30       filefilter_gc              0000000180029c30 f   service.obj
 0001:00028c40       filefilter_tostring        0000000180029c40 f   service.obj
 0001:00028ca0       filefilter_OpenMenu        0000000180029ca0 f   service.obj
 0001:00028d30       filefilter_Starting        0000000180029d30 f   service.obj
 0001:00028dc0       filefilter_IsFileInFilter  0000000180029dc0 f   service.obj
 0001:00028e90       editor_ProcessInput        0000000180029e90 f   service.obj
 0001:00028f20       far_LoadPlugin             0000000180029f20 f   service.obj
 0001:00028f30       editor_SubscribeChangeEvent 0000000180029f30 f   service.obj
 0001:00028fd0       far_ForcedLoadPlugin       0000000180029fd0 f   service.obj
 0001:00028fe0       far_UnloadPlugin           0000000180029fe0 f   service.obj
 0001:00029050       far_Menu                   000000018002a050 f   service.obj
 0001:00029910       far_FindPlugin             000000018002a910 f   service.obj
 0001:00029a10       ChangePanelSelection       000000018002aa10 f   service.obj
 0001:00029c60       CheckFlags                 000000018002ac60 f   service.obj
 0001:00029cb0       CheckFlagsFromTable        000000018002acb0 f   service.obj
 0001:0002a020       CustomAllocator            000000018002b020 f   service.obj
 0001:0002a090       FastGetString              000000018002b090 f   service.obj
 0001:0002a130       FillEditorSelect           000000018002b130 f   service.obj
 0001:0002a230       FillEditorSetPosition      000000018002b230 f   service.obj
 0001:0002a500       FillKeyBarTitles           000000018002b500 f   service.obj
 0001:0002a6e0       FrsUserFunc                000000018002b6e0 f   service.obj
 0001:0002a7b0       GetDialogItemType          000000018002b7b0 f   service.obj
 0001:0002abf0       GetItemFlags               000000018002bbf0 f   service.obj
 0001:0002ac80       GetMouseEvent              000000018002bc80 f   service.obj
 0001:0002c040       MacroSendString            000000018002d040 f   service.obj
 0001:0002c320       OptInputRecord             000000018002d320 f   service.obj
 0001:0002c3d0       PushBookmarks              000000018002d3d0 f   service.obj
 0001:0002c650       $LN15                      000000018002d650     service.obj
 0001:0002c65c       $LN14                      000000018002d65c     service.obj
 0001:0002c94c       $LN47                      000000018002d94c     service.obj
 0001:0002c958       $LN46                      000000018002d958     service.obj
 0001:0002c970       PushDlgItem                000000018002d970 f   service.obj
 0001:0002cab0       PushDlgItemNum             000000018002dab0 f   service.obj
 0001:0002d220       PutPluginMenuItemToTable   000000018002e220 f   service.obj
 0001:0002d340       PutVersionInfoToTable      000000018002e340 f   service.obj
 0001:0002d3e0       SetDlgItem                 000000018002e3e0 f   service.obj
 0001:0002d4a0       SetFarDialogItem           000000018002e4a0 f   service.obj
 0001:0002d780       SetKeyBar                  000000018002e780 f   service.obj
 0001:0002d8d0       SetPanelBooleanProperty    000000018002e8d0 f   service.obj
 0001:0002d980       SetPanelIntegerProperty    000000018002e980 f   service.obj
 0001:0002dbc0       _EditorGetString           000000018002ebc0 f   service.obj
 0001:0002de10       _EditorSetString           000000018002ee10 f   service.obj
 0001:0002df50       _EditorTabConvert          000000018002ef50 f   service.obj
 0001:0002e010       check_env_flag             000000018002f010 f   service.obj
 0001:0002e0a0       free_dialog                000000018002f0a0 f   service.obj
 0001:0002e100       get_env_flag               000000018002f100 f   service.obj
 0001:0002e220       get_panel_item             000000018002f220 f   service.obj
 0001:0002e330       get_string_info            000000018002f330 f   service.obj
 0001:0002e420       luaopen_far                000000018002f420 f   service.obj
 0001:0002e750       plugin_load                000000018002f750 f   service.obj
 0001:0002ea40       truncstring                000000018002fa40 f   service.obj
 0001:0002eb20       str_rep                    000000018002fb20 f   slnunico.obj
 0001:0002ebb0       unic_byte                  000000018002fbb0 f   slnunico.obj
 0001:0002ed70       unic_char                  000000018002fd70 f   slnunico.obj
 0001:0002ee90       str_dump                   000000018002fe90 f   slnunico.obj
 0001:0002ef10       unic_find                  000000018002ff10 f   slnunico.obj
 0001:0002ef20       unic_match                 000000018002ff20 f   slnunico.obj
 0001:0002ef30       gmatch                     000000018002ff30 f   slnunico.obj
 0001:0002f010       gfind_nodef                0000000180030010 f   slnunico.obj
 0001:0002f020       unic_gsub                  0000000180030020 f   slnunico.obj
 0001:0002f280       str_format                 0000000180030280 f   slnunico.obj
 0001:0002f588       $LN36                      0000000180030588     slnunico.obj
 0001:0002f5a4       $LN35                      00000001800305a4     slnunico.obj
 0001:0002f5e0       utf8_valid                 00000001800305e0 f   slnunico.obj
 0001:0002f6f0       unic_len                   00000001800306f0 f   slnunico.obj
 0001:0002f790       unic_sub                   0000000180030790 f   slnunico.obj
 0001:0002f910       str_reverse                0000000180030910 f   slnunico.obj
 0001:0002fc50       unic_lower                 0000000180030c50 f   slnunico.obj
 0001:0002fde0       unic_upper                 0000000180030de0 f   slnunico.obj
 0001:0002ff70       add_s                      0000000180030f70 f   slnunico.obj
 0001:00030070       add_value                  0000000180031070 f   slnunico.obj
 0001:000301d0       addquoted                  00000001800311d0 f   slnunico.obj
 0001:000302f0       classend                   00000001800312f0 f   slnunico.obj
 0001:000303d0       end_capture                00000001800313d0 f   slnunico.obj
 0001:00030480       gmatch_aux                 0000000180031480 f   slnunico.obj
 0001:00030590       grab_one_utf8              0000000180031590 f   slnunico.obj
 0001:00030640       lmemfind                   0000000180031640 f   slnunico.obj
 0001:000308b0       match                      00000001800318b0 f   slnunico.obj
 0001:00030a90       match_capture              0000000180031a90 f   slnunico.obj
 0001:00030b30       match_class                0000000180031b30 f   slnunico.obj
 0001:00030c9c       $LN26                      0000000180031c9c     slnunico.obj
 0001:00030d10       matchbalance               0000000180031d10 f   slnunico.obj
 0001:00030db0       max_expand                 0000000180031db0 f   slnunico.obj
 0001:00031060       min_expand                 0000000180032060 f   slnunico.obj
 0001:00031330       push_captures              0000000180032330 f   slnunico.obj
 0001:00031440       push_onecapture            0000000180032440 f   slnunico.obj
 0001:00031500       scanformat                 0000000180032500 f   slnunico.obj
 0001:00031630       singlematch                0000000180032630 f   slnunico.obj
 0001:000318c0       start_capture              00000001800328c0 f   slnunico.obj
 0001:00031950       unic_find_aux              0000000180032950 f   slnunico.obj
 0001:00031c30       utf8_count                 0000000180032c30 f   slnunico.obj
 0001:00031d10       utf8_deco                  0000000180032d10 f   slnunico.obj
 0001:00031df0       utf8_enco                  0000000180032df0 f   slnunico.obj
 0001:00031f00       utf8_graphext              0000000180032f00 f   slnunico.obj
 0001:00032050       writer                     0000000180033050 f   slnunico.obj
 0001:00032070       io_read                    0000000180033070 f   uliolib51.obj
 0001:000320e0       f_read                     00000001800330e0 f   uliolib51.obj
 0001:00032140       io_write                   0000000180033140 f   uliolib51.obj
 0001:000321b0       f_write                    00000001800331b0 f   uliolib51.obj
 0001:00032210       f_seek                     0000000180033210 f   uliolib51.obj
 0001:00032310       f_setvbuf                  0000000180033310 f   uliolib51.obj
 0001:00032400       io_flush                   0000000180033400 f   uliolib51.obj
 0001:000324d0       f_flush                    00000001800334d0 f   uliolib51.obj
 0001:00032590       io_type                    0000000180033590 f   uliolib51.obj
 0001:00032660       io_close                   0000000180033660 f   uliolib51.obj
 0001:000326f0       io_gc                      00000001800336f0 f   uliolib51.obj
 0001:00032750       io_tostring                0000000180033750 f   uliolib51.obj
 0001:000327b0       io_open                    00000001800337b0 f   uliolib51.obj
 0001:00032870       io_popen                   0000000180033870 f   uliolib51.obj
 0001:00032930       io_tmpfile                 0000000180033930 f   uliolib51.obj
 0001:000329e0       io_input                   00000001800339e0 f   uliolib51.obj
 0001:00032a00       io_output                  0000000180033a00 f   uliolib51.obj
 0001:00032a20       f_lines                    0000000180033a20 f   uliolib51.obj
 0001:00032a90       io_lines                   0000000180033a90 f   uliolib51.obj
 0001:00032b90       fileerror                  0000000180033b90 f   uliolib51.obj
 0001:00032c10       g_iofile                   0000000180033c10 f   uliolib51.obj
 0001:00032d00       g_read                     0000000180033d00 f   uliolib51.obj
 0001:00032f00       g_write                    0000000180033f00 f   uliolib51.obj
 0001:00033010       io_fclose                  0000000180034010 f   uliolib51.obj
 0001:000330c0       io_noclose                 00000001800340c0 f   uliolib51.obj
 0001:000330f0       io_pclose                  00000001800340f0 f   uliolib51.obj
 0001:000331a0       io_readline                00000001800341a0 f   uliolib51.obj
 0001:00033590       newfile                    0000000180034590 f   uliolib51.obj
 0001:000335e0       pushresult                 00000001800345e0 f   uliolib51.obj
 0001:000336b0       read_chars                 00000001800346b0 f   uliolib51.obj
 0001:00033750       read_line                  0000000180034750 f   uliolib51.obj
 0001:00033840       tofile                     0000000180034840 f   uliolib51.obj
 0001:000338a0       ll_module                  00000001800348a0 f   uloadlib51.obj
 0001:00033a00       ll_seeall                  0000000180034a00 f   uloadlib51.obj
 0001:00033a80       ll_loadlib                 0000000180034a80 f   uloadlib51.obj
 0001:00033b10       loader_Lua                 0000000180034b10 f   uloadlib51.obj
 0001:00033b70       loader_C                   0000000180034b70 f   uloadlib51.obj
 0001:00033bf0       loader_Croot               0000000180034bf0 f   uloadlib51.obj
 0001:00033cc0       loader_preload             0000000180034cc0 f   uloadlib51.obj
 0001:00033d50       ll_require                 0000000180034d50 f   uloadlib51.obj
 0001:00033f90       findfile                   0000000180034f90 f   uloadlib51.obj
 0001:00034140       gctm                       0000000180035140 f   uloadlib51.obj
 0001:00034190       ll_loadfunc                0000000180035190 f   uloadlib51.obj
 0001:00034230       ll_register                0000000180035230 f   uloadlib51.obj
 0001:00034320       loaderror                  0000000180035320 f   uloadlib51.obj
 0001:00034680       mkfuncname                 0000000180035680 f   uloadlib51.obj
 0001:000346f0       modinit                    00000001800356f0 f   uloadlib51.obj
 0001:00034790       pushnexttemplate           0000000180035790 f   uloadlib51.obj
 0001:00034840       setfenv                    0000000180035840 f   uloadlib51.obj
 0001:000348d0       setprogdir                 00000001800358d0 f   uloadlib51.obj
 0001:00035e34       $LN12                      0000000180036e34     ustring.obj
 0001:00036f00       win_GetEnv                 0000000180037f00 f   win.obj
 0001:00036ff0       win_SetEnv                 0000000180037ff0 f   win.obj
 0001:00037050       win_SetRegKey              0000000180038050 f   win.obj
 0001:00037270       win_GetRegKey              0000000180038270 f   win.obj
 0001:00037420       win_DeleteRegKey           0000000180038420 f   win.obj
 0001:00037480       win_EnumRegKey             0000000180038480 f   win.obj
 0001:000375a0       win_EnumRegValue           00000001800385a0 f   win.obj
 0001:000376c0       win_ExtractKey             00000001800386c0 f   win.obj
 0001:00037720       win_GetFileInfo            0000000180038720 f   win.obj
 0001:00037790       win_GetSystemTimeAsFileTime 0000000180038790 f   win.obj
 0001:000377c0       win_FileTimeToSystemTime   00000001800387c0 f   win.obj
 0001:00037830       win_SystemTimeToFileTime   0000000180038830 f   win.obj
 0001:00037950       win_FileTimeToLocalFileTime 0000000180038950 f   win.obj
 0001:000379c0       win_CompareString          00000001800389c0 f   win.obj
 0001:00037b50       win_wcscmp                 0000000180038b50 f   win.obj
 0001:00037bd0       win_GetVirtualKeys         0000000180038bd0 f   win.obj
 0001:00037bf0       win_GetConsoleScreenBufferInfo 0000000180038bf0 f   win.obj
 0001:00037d30       win_CopyFile               0000000180038d30 f   win.obj
 0001:00037dd0       win_MoveFile               0000000180038dd0 f   win.obj
 0001:00037ee0       win_DeleteFile             0000000180038ee0 f   win.obj
 0001:00037f30       win_CreateDir              0000000180038f30 f   win.obj
 0001:00038050       win_RemoveDir              0000000180039050 f   win.obj
 0001:000380a0       win_ShellExecute           00000001800390a0 f   win.obj
 0001:00038180       CheckHKey                  0000000180039180 f   win.obj
 0001:000382c0       ExtractKey                 00000001800392c0 f   win.obj
 0001:00038360       PushWinFindData            0000000180039360 f   win.obj
 0001:000384c0       mkdir                      00000001800394c0 f   win.obj
 0001:000386c0       pushSystemTime             00000001800396c0 f   win.obj
 0001:00038ed0       $$000000                   0000000180039ed0     LIBCMT:memcpy.obj
 0001:00038fb3       MoveSmall                  0000000180039fb3     LIBCMT:memcpy.obj
 0001:000393d0       $$000000                   000000018003a3d0     LIBCMT:memset.obj
 0001:0003a6c0       $$000000                   000000018003b6c0     LIBCMT:strncmp.obj
 0001:0003ac70       $$000000                   000000018003bc70     LIBCMT:log10.obj
 0001:0003af90       $$000000                   000000018003bf90     LIBCMT:strcmp.obj
 0001:0003b110       $$000000                   000000018003c110     LIBCMT:strncpy.obj
 0001:0003b330       $$000000                   000000018003c330     LIBCMT:memcmp.obj
 0001:0003b5dc       flsall                     000000018003c5dc f   LIBCMT:fflush.obj
 0001:0003c0e4       idtab                      000000018003d0e4 f   LIBCMT:popen.obj
 0001:0003c458       genfname                   000000018003d458 f   LIBCMT:tmpfile.obj
 0001:0003c530       init_namebuf               000000018003d530 f   LIBCMT:tmpfile.obj
 0001:0003d374       __DllMainCRTStartup        000000018003e374 f   LIBCMT:dllcrt0.obj
 0001:0003e200       write_char                 000000018003f200 f   LIBCMT:output.obj
 0001:0003e248       write_multi_char           000000018003f248 f   LIBCMT:output.obj
 0001:0003e29c       write_string               000000018003f29c f   LIBCMT:output.obj
 0001:0003e784       _cftoe2_l                  000000018003f784 f   LIBCMT:cvt.obj
 0001:0003ea78       _cftof2_l                  000000018003fa78 f   LIBCMT:cvt.obj
 0001:0003f4bc       _initterm                  00000001800404bc f   LIBCMT:crt0dat.obj
 0001:0003f544       doexit                     0000000180040544 f   LIBCMT:crt0dat.obj
 0001:0003f9c0       $$000000                   00000001800409c0     LIBCMT:fpsr.obj
 0001:00041c60       $$000000                   0000000180042c60     LIBCMT:jmpuwind.obj
 0001:000420a0       ?getSystemCP@@YAHH@Z       00000001800430a0 f   LIBCMT:mbctype.obj
 0001:00042120       ?setSBCS@@YAXPEAUthreadmbcinfostruct@@@Z 0000000180043120 f   LIBCMT:mbctype.obj
 0001:000421b0       ?setSBUpLow@@YAXPEAUthreadmbcinfostruct@@@Z 00000001800431b0 f   LIBCMT:mbctype.obj
 0001:00042c54       _call_matherr              0000000180043c54 f   LIBCMT:libm_error.obj
 0001:00042cbc       _exception_enabled         0000000180043cbc f   LIBCMT:libm_error.obj
 0001:00042ec0       _log_special_common        0000000180043ec0 f   LIBCMT:log_special.obj
 0001:00043a30       write_char                 0000000180044a30 f   LIBCMT:woutput.obj
 0001:00043a68       write_multi_char           0000000180044a68 f   LIBCMT:woutput.obj
 0001:00043abc       write_string               0000000180044abc f   LIBCMT:woutput.obj
 0001:00043db0       $$000000                   0000000180044db0     LIBCMT:amdsecgs.obj
 0001:000446d4       __check_float_string       00000001800456d4 f   LIBCMT:input.obj
 0001:0004476c       _inc                       000000018004576c f   LIBCMT:input.obj
 0001:00045cf0       $$000000                   0000000180046cf0     LIBCMT:strlen.obj
 0001:0004607c       ?strtoxl@@YAKPEAUlocaleinfo_struct@@PEBDPEAPEBDHH@Z 000000018004707c f   LIBCMT:strtol.obj
 0001:00046300       xtoa_s                     0000000180047300 f   LIBCMT:xtoas.obj
 0001:0004703c       parse_cmdline              000000018004803c f   LIBCMT:stdargv.obj
 0001:000491a0       __createFile               000000018004a1a0 f   LIBCMT:wopen.obj
 0001:0004a2b0       ?__crtLCMapStringA_stat@@YAHPEAUlocaleinfo_struct@@PEB_WKPEBDHPEADHHH@Z 000000018004b2b0 f   LIBCMT:a_map.obj
 0001:0004a618       ?__crtGetStringTypeA_stat@@YAHPEAUlocaleinfo_struct@@KPEBDHPEAGHH@Z 000000018004b618 f   LIBCMT:a_str.obj
 0001:0004b854       ?x_ismbbtype_l@@YAHPEAUlocaleinfo_struct@@IHH@Z 000000018004c854 f   LIBCMT:ismbbyte.obj
 0001:0004ddb4       ?_strupr_s_l_stat@@YAHPEAD_KPEAUlocaleinfo_struct@@@Z 000000018004edb4 f   LIBCMT:strupr.obj
 0001:0004e060       fread_s$fin$0              000000018004f060 f   LIBCMT:fread.obj
 0001:0004e078       ungetc$fin$0               000000018004f078 f   LIBCMT:ungetc.obj
 0001:0004e090       _wfsopen$fin$0             000000018004f090 f   LIBCMT:wfopen.obj
 0001:0004e090       fprintf$fin$0              000000018004f090 f   LIBCMT:wfopen.obj
 0001:0004e0aa       _wfreopen_helper$fin$0     000000018004f0aa f   LIBCMT:wfreopen.obj
 0001:0004e0c2       ftell$fin$0                000000018004f0c2 f   LIBCMT:fflush.obj
 0001:0004e0c2       fflush$fin$0               000000018004f0c2 f   LIBCMT:fflush.obj
 0001:0004e0c2       rewind$fin$0               000000018004f0c2 f   LIBCMT:fflush.obj
 0001:0004e0c2       fclose$fin$0               000000018004f0c2 f   LIBCMT:fflush.obj
 0001:0004e0c2       fseek$fin$0                000000018004f0c2 f   LIBCMT:fflush.obj
 0001:0004e0c2       clearerr_s$fin$0           000000018004f0c2 f   LIBCMT:fflush.obj
 0001:0004e0c2       getc$fin$0                 000000018004f0c2 f   LIBCMT:fflush.obj
 0001:0004e0da       _rmtmp$fin$0               000000018004f0da f   LIBCMT:fflush.obj
 0001:0004e0da       flsall$fin$0               000000018004f0da f   LIBCMT:fflush.obj
 0001:0004e102       flsall$fin$1               000000018004f102 f   LIBCMT:fflush.obj
 0001:0004e102       _rmtmp$fin$1               000000018004f102 f   LIBCMT:fflush.obj
 0001:0004e11b       fgets$fin$0                000000018004f11b f   LIBCMT:fgets.obj
 0001:0004e133       _wfdopen$fin$0             000000018004f133 f   LIBCMT:fwrite.obj
 0001:0004e133       vfscanf$fin$0              000000018004f133 f   LIBCMT:fwrite.obj
 0001:0004e133       fwrite$fin$0               000000018004f133 f   LIBCMT:fwrite.obj
 0001:0004e14b       _pclose$fin$0              000000018004f14b f   LIBCMT:popen.obj
 0001:0004e166       setvbuf$fin$0              000000018004f166 f   LIBCMT:setvbuf.obj
 0001:0004e17e       _tmpfile_helper$fin$0      000000018004f17e f   LIBCMT:tmpfile.obj
 0001:0004e1a9       _wpopen$fin$0              000000018004f1a9 f   LIBCMT:wpopen.obj
 0001:0004e1c4       _wdupenv_s$fin$0           000000018004f1c4 f   LIBCMT:wgetenv.obj
 0001:0004e1dd       _wgetenv$fin$0             000000018004f1dd f   LIBCMT:wgetenv.obj
 0001:0004e1f6       _CRT_INIT$fin$0            000000018004f1f6 f   LIBCMT:dllcrt0.obj
 0001:0004e21c       __DllMainCRTStartup$filt$0 000000018004f21c f   LIBCMT:dllcrt0.obj
 0001:0004e265       doexit$fin$0               000000018004f265 f   LIBCMT:crt0dat.obj
 0001:0004e289       _freefls$fin$1             000000018004f289 f   LIBCMT:tidtable.obj
 0001:0004e289       _initptd$fin$1             000000018004f289 f   LIBCMT:tidtable.obj
 0001:0004e2a2       _initptd$fin$0             000000018004f2a2 f   LIBCMT:tidtable.obj
 0001:0004e2a2       _freefls$fin$0             000000018004f2a2 f   LIBCMT:tidtable.obj
 0001:0004e2bb       _mtinitlocknum$fin$0       000000018004f2bb f   LIBCMT:mlock.obj
 0001:0004e2d8       _commit$fin$0              000000018004f2d8 f   LIBCMT:close.obj
 0001:0004e2d8       _close$fin$0               000000018004f2d8 f   LIBCMT:close.obj
 0001:0004e2ef       _ioinit$fin$0              000000018004f2ef f   LIBCMT:ioinit.obj
 0001:0004e30a       _lseek$fin$0               000000018004f30a f   LIBCMT:lseek.obj
 0001:0004e30a       _read$fin$0                000000018004f30a f   LIBCMT:lseek.obj
 0001:0004e30a       _lseeki64$fin$0            000000018004f30a f   LIBCMT:lseek.obj
 0001:0004e30a       _write$fin$0               000000018004f30a f   LIBCMT:lseek.obj
 0001:0004e321       _fcloseall$fin$0           000000018004f321 f   LIBCMT:stream.obj
 0001:0004e321       _getstream$fin$0           000000018004f321 f   LIBCMT:stream.obj
 0001:0004e33a       __updatetlocinfo$fin$0     000000018004f33a f   LIBCMT:localref.obj
 0001:0004e33a       _locterm$fin$0             000000018004f33a f   LIBCMT:localref.obj
 0001:0004e353       __updatetmbcinfo$fin$0     000000018004f353 f   LIBCMT:mbctype.obj
 0001:0004e353       _setmbcp$fin$0             000000018004f353 f   LIBCMT:mbctype.obj
 0001:0004e36c       _pipe$fin$1                000000018004f36c f   LIBCMT:pipe.obj
 0001:0004e388       _pipe$fin$0                000000018004f388 f   LIBCMT:pipe.obj
 0001:0004e3a4       _sopen_helper$fin$0        000000018004f3a4 f   LIBCMT:open.obj
 0001:0004e3a4       _wsopen_helper$fin$0       000000018004f3a4 f   LIBCMT:open.obj
 0001:0004e400       _IsNonwritableInCurrentImage$filt$0 000000018004f400 f   LIBCMT:pesect.obj
 0001:0004e420       _onexit$fin$0              000000018004f420 f   LIBCMT:onexit.obj
 0001:0004e434       raise$fin$0                000000018004f434 f   LIBCMT:winsig.obj
 0001:0004e452       __lock_fhandle$fin$0       000000018004f452 f   LIBCMT:osfinfo.obj
 0001:0004e46b       _alloc_osfhnd$fin$0        000000018004f46b f   LIBCMT:osfinfo.obj
 0001:0004e486       _alloc_osfhnd$fin$1        000000018004f486 f   LIBCMT:osfinfo.obj
 0001:0004e49f       _ctrlfp$filt$0             000000018004f49f f   LIBCMT:fpctrl.obj
 0001:0004e49f       _control87$filt$0          000000018004f49f f   LIBCMT:fpctrl.obj
 0001:0004e4d0       $xdatasym                  000000018004f4d0     chkstk.obj
 0001:0004e4d8       $unwind$bit64_getvalue     000000018004f4d8     bit64.obj
 0001:0004e4e8       $chain$0$bit64_getvalue    000000018004f4e8     bit64.obj
 0001:0004e4fc       $chain$1$bit64_getvalue    000000018004f4fc     bit64.obj
 0001:0004e50c       $unwind$bor                000000018004f50c     bit64.obj
 0001:0004e50c       $unwind$band               000000018004f50c     bit64.obj
 0001:0004e50c       $unwind$f_add              000000018004f50c     bit64.obj
 0001:0004e50c       $unwind$bxor               000000018004f50c     bit64.obj
 0001:0004e50c       $unwind$f_mul              000000018004f50c     bit64.obj
 0001:0004e530       $chain$0$bnot              000000018004f530     bit64.obj
 0001:0004e544       $chain$1$bnot              000000018004f544     bit64.obj
 0001:0004e554       $unwind$f_new              000000018004f554     bit64.obj
 0001:0004e554       $unwind$far_SetDlgItem     000000018004f554     bit64.obj
 0001:0004e554       $unwind$far_GetDlgItem     000000018004f554     bit64.obj
 0001:0004e564       $chain$0$f_new             000000018004f564     bit64.obj
 0001:0004e578       $chain$1$f_new             000000018004f578     bit64.obj
 0001:0004e588       $chain$0$f_tostring        000000018004f588     bit64.obj
 0001:0004e59c       $chain$1$f_tostring        000000018004f59c     bit64.obj
 0001:0004e5ac       $unwind$f_type             000000018004f5ac     bit64.obj
 0001:0004e5ac       $unwind$far_RestoreScreen  000000018004f5ac     bit64.obj
 0001:0004e5ac       $unwind$io_lines           000000018004f5ac     bit64.obj
 0001:0004e5ac       $unwind$f_unm              000000018004f5ac     bit64.obj
 0001:0004e5ac       $unwind$bnot               000000018004f5ac     bit64.obj
 0001:0004e5b4       $chain$0$f_type            000000018004f5b4     bit64.obj
 0001:0004e5c8       $chain$1$f_type            000000018004f5c8     bit64.obj
 0001:0004e5d8       $unwind$f_div              000000018004f5d8     bit64.obj
 0001:0004e5f4       $unwind$f_mod              000000018004f5f4     bit64.obj
 0001:0004e60c       $chain$0$f_unm             000000018004f60c     bit64.obj
 0001:0004e620       $chain$1$f_unm             000000018004f620     bit64.obj
 0001:0004e630       $unwind$f_sub              000000018004f630     bit64.obj
 0001:0004e630       $unwind$f_lt               000000018004f630     bit64.obj
 0001:0004e630       $unwind$f_eq               000000018004f630     bit64.obj
 0001:0004e630       $unwind$f_le               000000018004f630     bit64.obj
 0001:0004e64c       $chain$0$LF_ClosePanel     000000018004f64c     exported.obj
 0001:0004e660       $chain$1$LF_ClosePanel     000000018004f660     exported.obj
 0001:0004e674       $chain$2$LF_ClosePanel     000000018004f674     exported.obj
 0001:0004e684       $chain$3$LF_ClosePanel     000000018004f684     exported.obj
 0001:0004e694       $unwind$LF_Compare         000000018004f694     exported.obj
 0001:0004e694       $unwind$_AddStringToCollector 000000018004f694     exported.obj
 0001:0004e694       $unwind$LF_GetFiles        000000018004f694     exported.obj
 0001:0004e6a0       $chain$0$LF_Compare        000000018004f6a0     exported.obj
 0001:0004e6b4       $chain$2$LF_Compare        000000018004f6b4     exported.obj
 0001:0004e6c8       $chain$3$LF_Compare        000000018004f6c8     exported.obj
 0001:0004e6d8       $chain$0$LF_DeleteFiles    000000018004f6d8     exported.obj
 0001:0004e6ec       $chain$2$LF_DeleteFiles    000000018004f6ec     exported.obj
 0001:0004e700       $chain$3$LF_DeleteFiles    000000018004f700     exported.obj
 0001:0004e710       $chain$0$LF_GetFiles       000000018004f710     exported.obj
 0001:0004e724       $chain$2$LF_GetFiles       000000018004f724     exported.obj
 0001:0004e738       $chain$3$LF_GetFiles       000000018004f738     exported.obj
 0001:0004e748       $chain$0$LF_GetFindData    000000018004f748     exported.obj
 0001:0004e75c       $chain$1$LF_GetFindData    000000018004f75c     exported.obj
 0001:0004e76c       $unwind$LF_GetGlobalInfo   000000018004f76c     exported.obj
 0001:0004e780       $chain$2$LF_GetGlobalInfo  000000018004f780     exported.obj
 0001:0004e79c       $chain$3$LF_GetGlobalInfo  000000018004f79c     exported.obj
 0001:0004e7b0       $chain$4$LF_GetGlobalInfo  000000018004f7b0     exported.obj
 0001:0004e7c0       $unwind$LF_GetOpenPanelInfo 000000018004f7c0     exported.obj
 0001:0004e7cc       $chain$1$LF_GetOpenPanelInfo 000000018004f7cc     exported.obj
 0001:0004e7e4       $chain$7$LF_GetOpenPanelInfo 000000018004f7e4     exported.obj
 0001:0004e7e4       $chain$3$LF_GetOpenPanelInfo 000000018004f7e4     exported.obj
 0001:0004e7e4       $chain$5$LF_GetOpenPanelInfo 000000018004f7e4     exported.obj
 0001:0004e7e4       $chain$9$LF_GetOpenPanelInfo 000000018004f7e4     exported.obj
 0001:0004e7fc       $chain$11$LF_GetOpenPanelInfo 000000018004f7fc     exported.obj
 0001:0004e814       $chain$13$LF_GetOpenPanelInfo 000000018004f814     exported.obj
 0001:0004e82c       $chain$14$LF_GetOpenPanelInfo 000000018004f82c     exported.obj
 0001:0004e840       $chain$15$LF_GetOpenPanelInfo 000000018004f840     exported.obj
 0001:0004e850       $chain$16$LF_GetOpenPanelInfo 000000018004f850     exported.obj
 0001:0004e860       $unwind$LF_GetPluginInfo   000000018004f860     exported.obj
 0001:0004e86c       $chain$0$LF_GetPluginInfo  000000018004f86c     exported.obj
 0001:0004e880       $chain$1$LF_GetPluginInfo  000000018004f880     exported.obj
 0001:0004e890       $chain$0$LF_MakeDirectory  000000018004f890     exported.obj
 0001:0004e8a4       $chain$2$LF_MakeDirectory  000000018004f8a4     exported.obj
 0001:0004e8b8       $chain$3$LF_MakeDirectory  000000018004f8b8     exported.obj
 0001:0004e8c8       $unwind$LF_Open            000000018004f8c8     exported.obj
 0001:0004e8d4       $chain$1$LF_Open           000000018004f8d4     exported.obj
 0001:0004e8ec       $chain$3$LF_Open           000000018004f8ec     exported.obj
 0001:0004e904       $chain$4$LF_Open           000000018004f904     exported.obj
 0001:0004e914       $unwind$LF_ProcessPanelEvent 000000018004f914     exported.obj
 0001:0004e914       $unwind$LF_DeleteFiles     000000018004f914     exported.obj
 0001:0004e924       $chain$0$LF_ProcessPanelEvent 000000018004f924     exported.obj
 0001:0004e938       $chain$2$LF_ProcessPanelEvent 000000018004f938     exported.obj
 0001:0004e94c       $chain$3$LF_ProcessPanelEvent 000000018004f94c     exported.obj
 0001:0004e95c       $unwind$LF_ProcessConsoleInput 000000018004f95c     exported.obj
 0001:0004e95c       $unwind$utf8_enco          000000018004f95c     exported.obj
 0001:0004e95c       $unwind$LF_GetFindData     000000018004f95c     exported.obj
 0001:0004e968       $chain$0$LF_ProcessConsoleInput 000000018004f968     exported.obj
 0001:0004e97c       $chain$2$LF_ProcessConsoleInput 000000018004f97c     exported.obj
 0001:0004e990       $chain$3$LF_ProcessConsoleInput 000000018004f990     exported.obj
 0001:0004e9a0       $chain$3$LF_ProcessSynchroEvent 000000018004f9a0     exported.obj
 0001:0004e9c0       $chain$4$LF_ProcessSynchroEvent 000000018004f9c0     exported.obj
 0001:0004e9d0       $unwind$GetFlagsFromTable  000000018004f9d0     exported.obj
 0001:0004e9d0       $unwind$LF_Configure       000000018004f9d0     exported.obj
 0001:0004e9d0       $unwind$_ioterm            000000018004f9d0     exported.obj
 0001:0004e9d0       $unwind$LF_PutFiles        000000018004f9d0     exported.obj
 0001:0004e9d0       $unwind$LF_ProcessViewerEvent 000000018004f9d0     exported.obj
 0001:0004e9d0       $unwind$io_readline        000000018004f9d0     exported.obj
 0001:0004e9d0       $unwind$LF_SetDirectory    000000018004f9d0     exported.obj
 0001:0004e9d0       $unwind$_filbuf            000000018004f9d0     exported.obj
 0001:0004e9d0       $unwind$check_env_flag     000000018004f9d0     exported.obj
 0001:0004e9d0       $unwind$f_seek             000000018004f9d0     exported.obj
 0001:0004e9d0       $unwind$win_wcscmp         000000018004f9d0     exported.obj
 0001:0004e9d0       $unwind$LF_SetFindList     000000018004f9d0     exported.obj
 0001:0004e9d0       $unwind$LF_ProcessPanelInput 000000018004f9d0     exported.obj
 0001:0004e9d0       $unwind$LF_GetCustomData   000000018004f9d0     exported.obj
 0001:0004e9d0       $unwind$PushDMParams       000000018004f9d0     exported.obj
 0001:0004e9d0       $unwind$f_setvbuf          000000018004f9d0     exported.obj
 0001:0004e9d0       $unwind$memcpy_s           000000018004f9d0     exported.obj
 0001:0004e9d0       $unwind$LF_ProcessHostFile 000000018004f9d0     exported.obj
 0001:0004e9d0       $unwind$LF_ProcessEditorEvent 000000018004f9d0     exported.obj
 0001:0004e9d0       $unwind$io_flush           000000018004f9d0     exported.obj
 0001:0004e9d0       $unwind$xtoa_s             000000018004f9d0     exported.obj
 0001:0004e9d0       $unwind$io_fclose          000000018004f9d0     exported.obj
 0001:0004e9d0       $unwind$_exception_enabled 000000018004f9d0     exported.obj
 0001:0004e9d0       $unwind$io_pclose          000000018004f9d0     exported.obj
 0001:0004e9d0       $unwind$f_flush            000000018004f9d0     exported.obj
 0001:0004e9d0       $unwind$far_DialogRun      000000018004f9d0     exported.obj
 0001:0004e9d0       $unwind$loader_C           000000018004f9d0     exported.obj
 0001:0004e9d0       $unwind$ll_require         000000018004f9d0     exported.obj
 0001:0004e9d0       $unwind$luaopen_uio        000000018004f9d0     exported.obj
 0001:0004e9d0       $unwind$FillEditorSelect   000000018004f9d0     exported.obj
 0001:0004e9d0       $unwind$ll_module          000000018004f9d0     exported.obj
 0001:0004e9d0       $unwind$_wgetenv_helper_nolock 000000018004f9d0     exported.obj
 0001:0004e9d0       $unwind$_flush             000000018004f9d0     exported.obj
 0001:0004e9d0       $unwind$fileerror          000000018004f9d0     exported.obj
 0001:0004e9d0       $unwind$PutVersionInfoToTable 000000018004f9d0     exported.obj
 0001:0004e9d0       $unwind$luaB_dofileW       000000018004f9d0     exported.obj
 0001:0004e9d0       $unwind$matchbalance       000000018004f9d0     exported.obj
 0001:0004e9d0       $unwind$push_flags_table   000000018004f9d0     exported.obj
 0001:0004e9d0       $unwind$_recalloc          000000018004f9d0     exported.obj
 0001:0004e9d0       $unwind$malloc             000000018004f9d0     exported.obj
 0001:0004e9d0       $unwind$_lseek_nolock      000000018004f9d0     exported.obj
 0001:0004e9d0       $unwind$uc_New             000000018004f9d0     exported.obj
 0001:0004e9d0       $unwind$_lseeki64_nolock   000000018004f9d0     exported.obj
 0001:0004e9d0       $unwind$realloc            000000018004f9d0     exported.obj
 0001:0004e9d0       $unwind$GetFarColorFromTable 000000018004f9d0     exported.obj
 0001:0004e9d0       $unwind$_mtinitlocks       000000018004f9d0     exported.obj
 0001:0004e9d0       $unwind$uc_newindex        000000018004f9d0     exported.obj
 0001:0004e9d0       $unwind$uc_index           000000018004f9d0     exported.obj
 0001:0004e9d0       $unwind$__check_float_string 000000018004f9d0     exported.obj
 0001:0004e9d0       $unwind$_DllMainCRTStartup 000000018004f9d0     exported.obj
 0001:0004e9d0       $unwind$match_capture      000000018004f9d0     exported.obj
 0001:0004e9e0       $chain$0$_AddStringToCollector 000000018004f9e0     exported.obj
 0001:0004e9f4       $chain$1$_AddStringToCollector 000000018004f9f4     exported.obj
 0001:0004ea04       $unwind$CreateStringsArray 000000018004fa04     exported.obj
 0001:0004ea14       $chain$0$CreateStringsArray 000000018004fa14     exported.obj
 0001:0004ea28       $chain$1$CreateStringsArray 000000018004fa28     exported.obj
 0001:0004ea3c       $chain$2$CreateStringsArray 000000018004fa3c     exported.obj
 0001:0004ea50       $chain$3$CreateStringsArray 000000018004fa50     exported.obj
 0001:0004ea60       $chain$4$CreateStringsArray 000000018004fa60     exported.obj
 0001:0004ea70       $chain$5$CreateStringsArray 000000018004fa70     exported.obj
 0001:0004ea80       $unwind$FillFindData       000000018004fa80     exported.obj
 0001:0004ea94       $chain$1$FillFindData      000000018004fa94     exported.obj
 0001:0004eaac       $chain$2$FillFindData      000000018004faac     exported.obj
 0001:0004eabc       $unwind$UpdateFileSelection 000000018004fabc     exported.obj
 0001:0004eacc       $chain$0$UpdateFileSelection 000000018004facc     exported.obj
 0001:0004eae0       $chain$1$UpdateFileSelection 000000018004fae0     exported.obj
 0001:0004eaf0       $unwind$LF_MakeDirectory   000000018004faf0     exported.obj
 0001:0004eaf0       $unwind$FillFarMacroCall_Callback 000000018004faf0     exported.obj
 0001:0004eafc       $chain$0$FillFarMacroCall_Callback 000000018004fafc     exported.obj
 0001:0004eb10       $chain$1$FillFarMacroCall_Callback 000000018004fb10     exported.obj
 0001:0004eb20       $unwind$FillFarMacroCall   000000018004fb20     exported.obj
 0001:0004eb30       $chain$3$FillFarMacroCall  000000018004fb30     exported.obj
 0001:0004eb50       $chain$4$FillFarMacroCall  000000018004fb50     exported.obj
 0001:0004eb60       $unwind$getPluginMenuItems 000000018004fb60     exported.obj
 0001:0004eb60       $unwind$scanformat         000000018004fb60     exported.obj
 0001:0004eb78       $unwind$LF_Gsub            000000018004fb78     lflua.obj
 0001:0004eb98       $unwind$LF_LoadFile        000000018004fb98     lflua.obj
 0001:0004ebb0       $chain$0$LF_LoadFile       000000018004fbb0     lflua.obj
 0001:0004ebc4       $chain$2$LF_LoadFile       000000018004fbc4     lflua.obj
 0001:0004ebd8       $chain$3$LF_LoadFile       000000018004fbd8     lflua.obj
 0001:0004ebd8       $chain$1$LF_LoadFile       000000018004fbd8     lflua.obj
 0001:0004ebe8       $unwind$getF               000000018004fbe8     lflua.obj
 0001:0004ebf8       $unwind$check_regex_pattern 000000018004fbf8     lregex.obj
 0001:0004ec08       $chain$1$check_regex_pattern 000000018004fc08     lregex.obj
 0001:0004ec20       $chain$2$check_regex_pattern 000000018004fc20     lregex.obj
 0001:0004ec30       $unwind$_regex_gmatch_closure 000000018004fc30     lregex.obj
 0001:0004ec40       $chain$1$_regex_gmatch_closure 000000018004fc40     lregex.obj
 0001:0004ec58       $chain$2$_regex_gmatch_closure 000000018004fc58     lregex.obj
 0001:0004ec58       $chain$4$_regex_gmatch_closure 000000018004fc58     lregex.obj
 0001:0004ec6c       $chain$5$_regex_gmatch_closure 000000018004fc6c     lregex.obj
 0001:0004ec7c       $unwind$_Gmatch            000000018004fc7c     lregex.obj
 0001:0004ec94       $unwind$rx_find_match      000000018004fc94     lregex.obj
 0001:0004ecb0       $unwind$rx_gsub            000000018004fcb0     lregex.obj
 0001:0004eccc       $unwind$func_match         000000018004fccc     lregex.obj
 0001:0004eccc       $unwind$method_match       000000018004fccc     lregex.obj
 0001:0004eccc       $unwind$method_matchW      000000018004fccc     lregex.obj
 0001:0004eccc       $unwind$editor_DelColor    000000018004fccc     lregex.obj
 0001:0004ece0       $unwind$FL_PushParams      000000018004fce0     luamacro.obj
 0001:0004ecec       $chain$0$FL_PushParams     000000018004fcec     luamacro.obj
 0001:0004ed00       $chain$1$FL_PushParams     000000018004fd00     luamacro.obj
 0001:0004ed14       $chain$2$FL_PushParams     000000018004fd14     luamacro.obj
 0001:0004ed28       $chain$3$FL_PushParams     000000018004fd28     luamacro.obj
 0001:0004ed38       $chain$4$FL_PushParams     000000018004fd38     luamacro.obj
 0001:0004ed48       $chain$5$FL_PushParams     000000018004fd48     luamacro.obj
 0001:0004ed58       $unwind$Open_Luamacro      000000018004fd58     luamacro.obj
 0001:0004ed6c       $chain$0$Open_Luamacro     000000018004fd6c     luamacro.obj
 0001:0004ed80       $chain$1$Open_Luamacro     000000018004fd80     luamacro.obj
 0001:0004ed90       $unwind$far_MacroCallFar   000000018004fd90     luamacro.obj
 0001:0004ed9c       $chain$1$far_MacroCallFar  000000018004fd9c     luamacro.obj
 0001:0004edb4       $chain$4$far_MacroCallFar  000000018004fdb4     luamacro.obj
 0001:0004edd0       $chain$5$far_MacroCallFar  000000018004fdd0     luamacro.obj
 0001:0004ede0       $chain$6$far_MacroCallFar  000000018004fde0     luamacro.obj
 0001:0004edf0       $unwind$far_MacroCallPlugin 000000018004fdf0     luamacro.obj
 0001:0004edf0       $unwind$far_MacroExecute   000000018004fdf0     luamacro.obj
 0001:0004edf8       $chain$2$far_MacroCallPlugin 000000018004fdf8     luamacro.obj
 0001:0004ee14       $chain$3$far_MacroCallPlugin 000000018004fe14     luamacro.obj
 0001:0004ee28       $chain$4$far_MacroCallPlugin 000000018004fe28     luamacro.obj
 0001:0004ee3c       $chain$5$far_MacroCallPlugin 000000018004fe3c     luamacro.obj
 0001:0004ee4c       $chain$6$far_MacroCallPlugin 000000018004fe4c     luamacro.obj
 0001:0004ee5c       $chain$7$far_MacroCallPlugin 000000018004fe5c     luamacro.obj
 0001:0004ee70       $chain$8$far_MacroCallPlugin 000000018004fe70     luamacro.obj
 0001:0004ee80       $unwind$SetRegKeyDword     000000018004fe80     reg.obj
 0001:0004ee8c       $unwind$SetRegKeyArr       000000018004fe8c     reg.obj
 0001:0004ee8c       $unwind$SetRegKeyStr       000000018004fe8c     reg.obj
 0001:0004ee9c       $unwind$LF_DlgProc         000000018004fe9c     service.obj
 0001:0004eeb4       $chain$0$LF_DlgProc        000000018004feb4     service.obj
 0001:0004eec8       $chain$1$LF_DlgProc        000000018004fec8     service.obj
 0001:0004eed8       $unwind$LF_Message         000000018004fed8     service.obj
 0001:0004eef4       $unwind$LF_ProcessEnvVars  000000018004fef4     service.obj
 0001:0004ef10       $unwind$LF_RunDefaultScript 000000018004ff10     service.obj
 0001:0004ef24       $chain$1$LF_RunDefaultScript 000000018004ff24     service.obj
 0001:0004ef3c       $chain$2$LF_RunDefaultScript 000000018004ff3c     service.obj
 0001:0004ef4c       $unwind$PushPanelItem      000000018004ff4c     service.obj
 0001:0004ef58       $chain$0$PushPanelItem     000000018004ff58     service.obj
 0001:0004ef6c       $chain$1$PushPanelItem     000000018004ff6c     service.obj
 0001:0004ef7c       $chain$3$PushPanelItem     000000018004ff7c     service.obj
 0001:0004ef94       $chain$4$PushPanelItem     000000018004ff94     service.obj
 0001:0004efa4       $unwind$PushPanelItems     000000018004ffa4     service.obj
 0001:0004efb4       $chain$3$PushPanelItems    000000018004ffb4     service.obj
 0001:0004efd4       $chain$4$PushPanelItems    000000018004ffd4     service.obj
 0001:0004efe4       $unwind$get_env_flag       000000018004ffe4     service.obj
 0001:0004eff4       $chain$0$get_env_flag      000000018004fff4     service.obj
 0001:0004f008       $chain$1$get_env_flag      0000000180050008     service.obj
 0001:0004f018       $unwind$ConvertLuaValue    0000000180050018     service.obj
 0001:0004f02c       $unwind$far_GetFileOwner   000000018005002c     service.obj
 0001:0004f040       $unwind$editor_GetInfo     0000000180050040     service.obj
 0001:0004f050       $chain$2$editor_GetInfo    0000000180050050     service.obj
 0001:0004f06c       $chain$3$editor_GetInfo    000000018005006c     service.obj
 0001:0004f080       $chain$4$editor_GetInfo    0000000180050080     service.obj
 0001:0004f090       $chain$5$editor_GetInfo    0000000180050090     service.obj
 0001:0004f0a4       $unwind$FastGetString      00000001800500a4     service.obj
 0001:0004f0b8       $unwind$_EditorGetString   00000001800500b8     service.obj
 0001:0004f0d0       $unwind$_EditorSetString   00000001800500d0     service.obj
 0001:0004f0e0       $unwind$panel_SetCmdLine   00000001800500e0     service.obj
 0001:0004f0e0       $unwind$editor_SetTitle    00000001800500e0     service.obj
 0001:0004f0e0       $unwind$editor_DeleteSessionBookmark 00000001800500e0     service.obj
 0001:0004f0e0       $unwind$panel_SetActivePanel 00000001800500e0     service.obj
 0001:0004f0e0       $unwind$addquoted          00000001800500e0     service.obj
 0001:0004f0e0       $unwind$editor_InsertText  00000001800500e0     service.obj
 0001:0004f0e0       $unwind$ustring_sub        00000001800500e0     service.obj
 0001:0004f0e0       $unwind$panel_InsertCmdLine 00000001800500e0     service.obj
 0001:0004f0e0       $unwind$editor_InsertTextW 00000001800500e0     service.obj
 0001:0004f0e0       $unwind$GetDialogItemType  00000001800500e0     service.obj
 0001:0004f0e0       $unwind$far_MacroDelete    00000001800500e0     service.obj
 0001:0004f0e0       $unwind$far_PluginStartupInfo 00000001800500e0     service.obj
 0001:0004f0e0       $unwind$panel_ClosePanel   00000001800500e0     service.obj
 0001:0004f0e0       $unwind$utf8_valid         00000001800500e0     service.obj
 0001:0004f0e0       $unwind$far_MkTemp         00000001800500e0     service.obj
 0001:0004f0e0       $unwind$panel_SetCmdLinePos 00000001800500e0     service.obj
 0001:0004f0e0       $unwind$far_LStricmp       00000001800500e0     service.obj
 0001:0004f0e0       $unwind$GetItemFlags       00000001800500e0     service.obj
 0001:0004f0e0       $unwind$_cwait             00000001800500e0     service.obj
 0001:0004f0f0       $unwind$editor_UndoRedo    00000001800500f0     service.obj
 0001:0004f104       $unwind$FillKeyBarTitles   0000000180050104     service.obj
 0001:0004f118       $chain$1$FillKeyBarTitles  0000000180050118     service.obj
 0001:0004f130       $chain$2$FillKeyBarTitles  0000000180050130     service.obj
 0001:0004f140       $unwind$SetKeyBar          0000000180050140     service.obj
 0001:0004f158       $unwind$editor_SetParam    0000000180050158     service.obj
 0001:0004f170       $unwind$editor_SetPosition 0000000180050170     service.obj
 0001:0004f180       $unwind$PushBookmarks      0000000180050180     service.obj
 0001:0004f194       $chain$0$PushBookmarks     0000000180050194     service.obj
 0001:0004f1a8       $chain$1$PushBookmarks     00000001800501a8     service.obj
 0001:0004f1b8       $unwind$panel_SetPanelDirectory 00000001800501b8     service.obj
 0001:0004f1b8       $unwind$editor_Select      00000001800501b8     service.obj
 0001:0004f1c8       $unwind$editor_GetSelection 00000001800501c8     service.obj
 0001:0004f1e0       $chain$1$editor_GetSelection 00000001800501e0     service.obj
 0001:0004f1f8       $chain$3$editor_GetSelection 00000001800501f8     service.obj
 0001:0004f210       $chain$4$editor_GetSelection 0000000180050210     service.obj
 0001:0004f210       $chain$2$editor_GetSelection 0000000180050210     service.obj
 0001:0004f220       $unwind$_EditorTabConvert  0000000180050220     service.obj
 0001:0004f234       $unwind$editor_AddColor    0000000180050234     service.obj
 0001:0004f248       $unwind$editor_GetColor    0000000180050248     service.obj
 0001:0004f258       $unwind$viewer_Select      0000000180050258     service.obj
 0001:0004f258       $unwind$editor_SaveFile    0000000180050258     service.obj
 0001:0004f268       $unwind$far_GetCurrentDirectory 0000000180050268     service.obj
 0001:0004f268       $unwind$far_LStrnicmp      0000000180050268     service.obj
 0001:0004f268       $unwind$FillInputRecord    0000000180050268     service.obj
 0001:0004f268       $unwind$far_ShowHelp       0000000180050268     service.obj
 0001:0004f27c       $unwind$far_Menu           000000018005027c     service.obj
 0001:0004f29c       $unwind$LF_Error           000000018005029c     service.obj
 0001:0004f2a8       $chain$0$LF_Error          00000001800502a8     service.obj
 0001:0004f2bc       $chain$1$LF_Error          00000001800502bc     service.obj
 0001:0004f2cc       $unwind$far_Message        00000001800502cc     service.obj
 0001:0004f2e8       $unwind$panel_GetPanelInfo 00000001800502e8     service.obj
 0001:0004f2f8       $unwind$get_panel_item     00000001800502f8     service.obj
 0001:0004f30c       $unwind$get_string_info    000000018005030c     service.obj
 0001:0004f324       $unwind$panel_RedrawPanel  0000000180050324     service.obj
 0001:0004f338       $unwind$truncstring        0000000180050338     service.obj
 0001:0004f338       $unwind$g_write            0000000180050338     service.obj
 0001:0004f338       $unwind$SetPanelBooleanProperty 0000000180050338     service.obj
 0001:0004f34c       $unwind$panel_GetPanelDirectory 000000018005034c     service.obj
 0001:0004f360       $unwind$panel_GetCmdLine   0000000180050360     service.obj
 0001:0004f360       $unwind$editor_GetFileName 0000000180050360     service.obj
 0001:0004f360       $unwind$far_SaveScreen     0000000180050360     service.obj
 0001:0004f360       $unwind$viewer_GetFileName 0000000180050360     service.obj
 0001:0004f360       $unwind$far_MkLink         0000000180050360     service.obj
 0001:0004f360       $unwind$_flswbuf           0000000180050360     service.obj
 0001:0004f360       $unwind$luaopen_far        0000000180050360     service.obj
 0001:0004f360       $unwind$far_GetPathRoot    0000000180050360     service.obj
 0001:0004f374       $unwind$panel_GetCmdLineSelection 0000000180050374     service.obj
 0001:0004f374       $unwind$viewer_SetMode     0000000180050374     service.obj
 0001:0004f374       $unwind$Settings_delete    0000000180050374     service.obj
 0001:0004f374       $unwind$editor_ReadInput   0000000180050374     service.obj
 0001:0004f374       $unwind$_strupr_s_l        0000000180050374     service.obj
 0001:0004f374       $unwind$editor_ProcessInput 0000000180050374     service.obj
 0001:0004f374       $unwind$Settings_opensubkey 0000000180050374     service.obj
 0001:0004f374       $unwind$far_NameToInputRecord 0000000180050374     service.obj
 0001:0004f374       $unwind$editor_SubscribeChangeEvent 0000000180050374     service.obj
 0001:0004f380       $unwind$panel_SetCmdLineSelection 0000000180050380     service.obj
 0001:0004f380       $unwind$panel_GetPanelItem 0000000180050380     service.obj
 0001:0004f380       $unwind$far_Text           0000000180050380     service.obj
 0001:0004f380       $unwind$panel_GetSelectedPanelItem 0000000180050380     service.obj
 0001:0004f394       $unwind$ChangePanelSelection 0000000180050394     service.obj
 0001:0004f3ac       $chain$0$ChangePanelSelection 00000001800503ac     service.obj
 0001:0004f3c0       $chain$1$ChangePanelSelection 00000001800503c0     service.obj
 0001:0004f3d4       $chain$2$ChangePanelSelection 00000001800503d4     service.obj
 0001:0004f3e4       $chain$3$ChangePanelSelection 00000001800503e4     service.obj
 0001:0004f3f4       $unwind$far_GetDirList     00000001800503f4     service.obj
 0001:0004f400       $chain$0$far_GetDirList    0000000180050400     service.obj
 0001:0004f414       $chain$6$far_GetDirList    0000000180050414     service.obj
 0001:0004f43c       $chain$7$far_GetDirList    000000018005043c     service.obj
 0001:0004f44c       $chain$8$far_GetDirList    000000018005044c     service.obj
 0001:0004f45c       $unwind$far_GetPluginDirList 000000018005045c     service.obj
 0001:0004f468       $chain$0$far_RestoreScreen 0000000180050468     service.obj
 0001:0004f47c       $chain$1$far_RestoreScreen 000000018005047c     service.obj
 0001:0004f48c       $unwind$CreateList         000000018005048c     service.obj
 0001:0004f49c       $chain$2$CreateList        000000018005049c     service.obj
 0001:0004f4b8       $chain$3$CreateList        00000001800504b8     service.obj
 0001:0004f4c8       $unwind$PushDlgItemNum     00000001800504c8     service.obj
 0001:0004f4e0       $unwind$SetDlgItem         00000001800504e0     service.obj
 0001:0004f4f8       $unwind$far_SendDlgMessage 00000001800504f8     service.obj
 0001:0004f514       $unwind$far_DialogInit     0000000180050514     service.obj
 0001:0004f52c       $chain$0$far_DialogInit    000000018005052c     service.obj
 0001:0004f540       $chain$1$far_DialogInit    0000000180050540     service.obj
 0001:0004f550       $unwind$far_InputBox       0000000180050550     service.obj
 0001:0004f550       $unwind$editor_Editor      0000000180050550     service.obj
 0001:0004f568       $unwind$viewer_Viewer      0000000180050568     service.obj
 0001:0004f580       $unwind$viewer_GetInfo     0000000180050580     service.obj
 0001:0004f58c       $chain$1$viewer_GetInfo    000000018005058c     service.obj
 0001:0004f5a4       $chain$2$viewer_GetInfo    00000001800505a4     service.obj
 0001:0004f5b8       $chain$3$viewer_GetInfo    00000001800505b8     service.obj
 0001:0004f5c8       $chain$4$viewer_GetInfo    00000001800505c8     service.obj
 0001:0004f5d8       $unwind$viewer_SetPosition 00000001800505d8     service.obj
 0001:0004f5e0       $chain$2$viewer_SetPosition 00000001800505e0     service.obj
 0001:0004f5fc       $chain$3$viewer_SetPosition 00000001800505fc     service.obj
 0001:0004f60c       $chain$1$far_CopyToClipboard 000000018005060c     service.obj
 0001:0004f624       $chain$2$far_CopyToClipboard 0000000180050624     service.obj
 0001:0004f634       $unwind$far_PasteFromClipboard 0000000180050634     service.obj
 0001:0004f648       $unwind$far_InputRecordToName 0000000180050648     service.obj
 0001:0004f654       $chain$0$far_InputRecordToName 0000000180050654     service.obj
 0001:0004f668       $chain$2$far_InputRecordToName 0000000180050668     service.obj
 0001:0004f67c       $chain$3$far_InputRecordToName 000000018005067c     service.obj
 0001:0004f68c       $unwind$far_ProcessName    000000018005068c     service.obj
 0001:0004f6a0       $chain$1$far_ProcessName   00000001800506a0     service.obj
 0001:0004f6b4       $chain$2$far_ProcessName   00000001800506b4     service.obj
 0001:0004f6c8       $chain$3$far_ProcessName   00000001800506c8     service.obj
 0001:0004f6d8       $chain$4$far_ProcessName   00000001800506d8     service.obj
 0001:0004f6d8       $chain$6$far_ProcessName   00000001800506d8     service.obj
 0001:0004f6e8       $chain$5$far_ProcessName   00000001800506e8     service.obj
 0001:0004f6fc       $unwind$far_GetReparsePointInfo 00000001800506fc     service.obj
 0001:0004f70c       $chain$0$far_GetReparsePointInfo 000000018005070c     service.obj
 0001:0004f720       $chain$1$far_GetReparsePointInfo 0000000180050720     service.obj
 0001:0004f730       $unwind$far_RecursiveSearch 0000000180050730     service.obj
 0001:0004f744       $unwind$far_AdvControl     0000000180050744     service.obj
 0001:0004f760       $chain$0$far_AdvControl    0000000180050760     service.obj
 0001:0004f774       $chain$1$far_AdvControl    0000000180050774     service.obj
 0001:0004f784       $unwind$MacroSendString    0000000180050784     service.obj
 0001:0004f798       $unwind$far_MacroGetLastError 0000000180050798     service.obj
 0001:0004f7a8       $chain$0$far_MacroGetLastError 00000001800507a8     service.obj
 0001:0004f7bc       $chain$1$far_MacroGetLastError 00000001800507bc     service.obj
 0001:0004f7cc       $unwind$far_MacroAdd       00000001800507cc     service.obj
 0001:0004f7e0       $chain$2$far_MacroExecute  00000001800507e0     service.obj
 0001:0004f7fc       $chain$3$far_MacroExecute  00000001800507fc     service.obj
 0001:0004f80c       $unwind$far_MakeMenuItems  000000018005080c     service.obj
 0001:0004f818       $chain$2$far_MakeMenuItems 0000000180050818     service.obj
 0001:0004f834       $chain$5$far_MakeMenuItems 0000000180050834     service.obj
 0001:0004f850       $chain$6$far_MakeMenuItems 0000000180050850     service.obj
 0001:0004f860       $chain$8$far_MakeMenuItems 0000000180050860     service.obj
 0001:0004f87c       $chain$9$far_MakeMenuItems 000000018005087c     service.obj
 0001:0004f88c       $unwind$far_CreateFileFilter 000000018005088c     service.obj
 0001:0004f88c       $unwind$plugin_load        000000018005088c     service.obj
 0001:0004f89c       $unwind$Settings_tostring  000000018005089c     service.obj
 0001:0004f89c       $unwind$pusherror          000000018005089c     service.obj
 0001:0004f89c       $unwind$win_ExtractKey     000000018005089c     service.obj
 0001:0004f89c       $unwind$__onexitinit       000000018005089c     service.obj
 0001:0004f89c       $unwind$ll_seeall          000000018005089c     service.obj
 0001:0004f89c       $unwind$luaopen_ustring    000000018005089c     service.obj
 0001:0004f89c       $unwind$timer_tostring     000000018005089c     service.obj
 0001:0004f89c       $unwind$_fflush_nolock     000000018005089c     service.obj
 0001:0004f89c       $unwind$??0_LocaleUpdate@@QEAA@PEAUlocaleinfo_struct@@@Z 000000018005089c     service.obj
 0001:0004f89c       $unwind$ReplacePluginInfoCollector 000000018005089c     service.obj
 0001:0004f89c       $unwind$GetFileTimeFromTable 000000018005089c     service.obj
 0001:0004f89c       $unwind$luaopen_upackage   000000018005089c     service.obj
 0001:0004f89c       $unwind$FarPanelItemFreeCallback 000000018005089c     service.obj
 0001:0004f89c       $unwind$luaB_loadfileW     000000018005089c     service.obj
 0001:0004f89c       $unwind$wcscpy_s           000000018005089c     service.obj
 0001:0004f89c       $unwind$luaopen_bit64      000000018005089c     service.obj
 0001:0004f89c       $unwind$traceback          000000018005089c     service.obj
 0001:0004f89c       $unwind$ustring_GetDriveType 000000018005089c     service.obj
 0001:0004f89c       $unwind$ustring_GetOEMCP   000000018005089c     service.obj
 0001:0004f89c       $unwind$write_char         000000018005089c     service.obj
 0001:0004f89c       $unwind$LF_ExitFAR         000000018005089c     service.obj
 0001:0004f89c       $unwind$luaopen_regex      000000018005089c     service.obj
 0001:0004f89c       $unwind$write_char         000000018005089c     service.obj
 0001:0004f89c       $unwind$far_FreeSettings   000000018005089c     service.obj
 0001:0004f89c       $unwind$_strupr            000000018005089c     service.obj
 0001:0004f89c       $unwind$win_GetSystemTimeAsFileTime 000000018005089c     service.obj
 0001:0004f89c       $unwind$luaopen_win        000000018005089c     service.obj
 0001:0004f89c       $unwind$SetFarColors       000000018005089c     service.obj
 0001:0004f89c       $unwind$wcscat_s           000000018005089c     service.obj
 0001:0004f89c       $unwind$ustring_len        000000018005089c     service.obj
 0001:0004f89c       $unwind$strcat_s           000000018005089c     service.obj
 0001:0004f89c       $unwind$wcsncpy_s          000000018005089c     service.obj
 0001:0004f89c       $unwind$calloc             000000018005089c     service.obj
 0001:0004f89c       $unwind$check_utf16_string 000000018005089c     service.obj
 0001:0004f89c       $unwind$__crtLoadWinApiPointers 000000018005089c     service.obj
 0001:0004f89c       $unwind$far_LuafarVersion  000000018005089c     service.obj
 0001:0004f89c       $unwind$_getptd            000000018005089c     service.obj
 0001:0004f89c       $unwind$PutAttrToTable     000000018005089c     service.obj
 0001:0004f89c       $unwind$io_noclose         000000018005089c     service.obj
 0001:0004f89c       $unwind$f_lines            000000018005089c     service.obj
 0001:0004f89c       $unwind$far_MacroLoadAll   000000018005089c     service.obj
 0001:0004f89c       $unwind$_freeptd           000000018005089c     service.obj
 0001:0004f89c       $unwind$far_MacroSaveAll   000000018005089c     service.obj
 0001:0004f89c       $unwind$_mtinit            000000018005089c     service.obj
 0001:0004f89c       $unwind$LF_ClosePanel      000000018005089c     service.obj
 0001:0004f89c       $unwind$far_MacroGetState  000000018005089c     service.obj
 0001:0004f89c       $unwind$uc_tostring        000000018005089c     service.obj
 0001:0004f89c       $unwind$uc_len             000000018005089c     service.obj
 0001:0004f89c       $unwind$__crtIsPackagedApp 000000018005089c     service.obj
 0001:0004f89c       $unwind$luaopen_usercontrol 000000018005089c     service.obj
 0001:0004f89c       $unwind$_amsg_exit         000000018005089c     service.obj
 0001:0004f89c       $unwind$far_MacroGetArea   000000018005089c     service.obj
 0001:0004f89c       $unwind$__crtExitProcess   000000018005089c     service.obj
 0001:0004f89c       $unwind$push_onecapture    000000018005089c     service.obj
 0001:0004f89c       $unwind$__crtCorExitProcess 000000018005089c     service.obj
 0001:0004f89c       $unwind$win_FileTimeToLocalFileTime 000000018005089c     service.obj
 0001:0004f89c       $unwind$_init_pointers     000000018005089c     service.obj
 0001:0004f89c       $unwind$far_CopyToClipboard 000000018005089c     service.obj
 0001:0004f89c       $unwind$filefilter_tostring 000000018005089c     service.obj
 0001:0004f89c       $unwind$win_DeleteFile     000000018005089c     service.obj
 0001:0004f89c       $unwind$__crtUnhandledException 000000018005089c     service.obj
 0001:0004f89c       $unwind$dialog_tostring    000000018005089c     service.obj
 0001:0004f89c       $unwind$_getbuf            000000018005089c     service.obj
 0001:0004f89c       $unwind$__crtTerminateProcess 000000018005089c     service.obj
 0001:0004f89c       $unwind$io_close           000000018005089c     service.obj
 0001:0004f89c       $unwind$strcpy_s           000000018005089c     service.obj
 0001:0004f89c       $unwind$_freebuf           000000018005089c     service.obj
 0001:0004f89c       $unwind$ustring_GetACP     000000018005089c     service.obj
 0001:0004f89c       $unwind$gctm               000000018005089c     service.obj
 0001:0004f89c       $unwind$__raise_securityfailure 000000018005089c     service.obj
 0001:0004f89c       $unwind$_lock_file         000000018005089c     service.obj
 0001:0004f89c       $unwind$io_gc              000000018005089c     service.obj
 0001:0004f89c       $unwind$far_CPluginStartupInfo 000000018005089c     service.obj
 0001:0004f89c       $unwind$win_RemoveDir      000000018005089c     service.obj
 0001:0004f89c       $unwind$_callnewh          000000018005089c     service.obj
 0001:0004f89c       $unwind$_set_statfp        000000018005089c     service.obj
 0001:0004f89c       $unwind$_lock_file2        000000018005089c     service.obj
 0001:0004f89c       $unwind$__GSHandlerCheckCommon 000000018005089c     service.obj
 0001:0004f89c       $unwind$io_tostring        000000018005089c     service.obj
 0001:0004f89c       $unwind$luaopen_unicode    000000018005089c     service.obj
 0001:0004f89c       $unwind$_clrfp             000000018005089c     service.obj
 0001:0004f8a4       $unwind$filefilter_IsFileInFilter 00000001800508a4     service.obj
 0001:0004f8b8       $unwind$far_LUpperBuf      00000001800508b8     service.obj
 0001:0004f8b8       $unwind$far_LLowerBuf      00000001800508b8     service.obj
 0001:0004f8b8       $unwind$editor_ExpandTabs  00000001800508b8     service.obj
 0001:0004f8b8       $unwind$far_FindPlugin     00000001800508b8     service.obj
 0001:0004f8b8       $unwind$editor_InsertString 00000001800508b8     service.obj
 0001:0004f8c8       $unwind$PutPluginMenuItemToTable 00000001800508c8     service.obj
 0001:0004f8dc       $chain$0$PutPluginMenuItemToTable 00000001800508dc     service.obj
 0001:0004f8f0       $chain$1$PutPluginMenuItemToTable 00000001800508f0     service.obj
 0001:0004f900       $unwind$far_GetPluginInformation 0000000180050900     service.obj
 0001:0004f910       $chain$0$far_GetPluginInformation 0000000180050910     service.obj
 0001:0004f924       $chain$1$far_GetPluginInformation 0000000180050924     service.obj
 0001:0004f934       $unwind$far_GetPlugins     0000000180050934     service.obj
 0001:0004f934       $unwind$LF_ProcessSynchroEvent 0000000180050934     service.obj
 0001:0004f940       $chain$1$far_GetPlugins    0000000180050940     service.obj
 0001:0004f958       $chain$2$far_GetPlugins    0000000180050958     service.obj
 0001:0004f96c       $chain$3$far_GetPlugins    000000018005096c     service.obj
 0001:0004f97c       $chain$4$far_GetPlugins    000000018005097c     service.obj
 0001:0004f98c       $unwind$far_IsPluginLoaded 000000018005098c     service.obj
 0001:0004f99c       $chain$0$far_IsPluginLoaded 000000018005099c     service.obj
 0001:0004f9b0       $chain$1$far_IsPluginLoaded 00000001800509b0     service.obj
 0001:0004f9c0       $unwind$far_ConvertPath    00000001800509c0     service.obj
 0001:0004f9c0       $unwind$SetPanelIntegerProperty 00000001800509c0     service.obj
 0001:0004f9c0       $unwind$far_XLat           00000001800509c0     service.obj
 0001:0004f9d4       $unwind$far_FormatFileSize 00000001800509d4     service.obj
 0001:0004f9ec       $unwind$TimerThreadFunc    00000001800509ec     service.obj
 0001:0004f9fc       $chain$1$TimerThreadFunc   00000001800509fc     service.obj
 0001:0004fa14       $chain$2$TimerThreadFunc   0000000180050a14     service.obj
 0001:0004fa24       $unwind$far_CreateSettings 0000000180050a24     service.obj
 0001:0004fa34       $unwind$Settings_set       0000000180050a34     service.obj
 0001:0004fa48       $unwind$Settings_get       0000000180050a48     service.obj
 0001:0004fa58       $unwind$Settings_createsubkey 0000000180050a58     service.obj
 0001:0004fa6c       $unwind$Settings_enum      0000000180050a6c     service.obj
 0001:0004fa84       $chain$0$Settings_enum     0000000180050a84     service.obj
 0001:0004fa98       $chain$1$Settings_enum     0000000180050a98     service.obj
 0001:0004faa8       $unwind$far_ColorDialog    0000000180050aa8     service.obj
 0001:0004fab8       $chain$0$utf8_enco         0000000180050ab8     slnunico.obj
 0001:0004facc       $chain$1$utf8_enco         0000000180050acc     slnunico.obj
 0001:0004fadc       $unwind$utf8_graphext      0000000180050adc     slnunico.obj
 0001:0004fae4       $chain$0$utf8_graphext     0000000180050ae4     slnunico.obj
 0001:0004faf8       $chain$1$utf8_graphext     0000000180050af8     slnunico.obj
 0001:0004fb08       $unwind$utf8_count         0000000180050b08     slnunico.obj
 0001:0004fb18       $chain$0$utf8_count        0000000180050b18     slnunico.obj
 0001:0004fb2c       $chain$1$utf8_count        0000000180050b2c     slnunico.obj
 0001:0004fb40       $chain$2$utf8_count        0000000180050b40     slnunico.obj
 0001:0004fb50       $chain$3$utf8_count        0000000180050b50     slnunico.obj
 0001:0004fb60       $unwind$unic_byte          0000000180050b60     slnunico.obj
 0001:0004fb60       $unwind$unic_sub           0000000180050b60     slnunico.obj
 0001:0004fb78       $unwind$str_reverse        0000000180050b78     slnunico.obj
 0001:0004fb8c       $chain$0$str_reverse       0000000180050b8c     slnunico.obj
 0001:0004fba0       $chain$1$str_reverse       0000000180050ba0     slnunico.obj
 0001:0004fbb0       $unwind$unic_upper         0000000180050bb0     slnunico.obj
 0001:0004fbb0       $unwind$unic_lower         0000000180050bb0     slnunico.obj
 0001:0004fbc4       $chain$0$unic_lower        0000000180050bc4     slnunico.obj
 0001:0004fbd8       $chain$1$unic_lower        0000000180050bd8     slnunico.obj
 0001:0004fbe8       $chain$0$unic_upper        0000000180050be8     slnunico.obj
 0001:0004fbfc       $chain$1$unic_upper        0000000180050bfc     slnunico.obj
 0001:0004fc0c       $unwind$str_rep            0000000180050c0c     slnunico.obj
 0001:0004fc20       $unwind$unic_char          0000000180050c20     slnunico.obj
 0001:0004fc3c       $unwind$str_dump           0000000180050c3c     slnunico.obj
 0001:0004fc48       $unwind$match_class        0000000180050c48     slnunico.obj
 0001:0004fc58       $unwind$singlematch        0000000180050c58     slnunico.obj
 0001:0004fc74       $unwind$match              0000000180050c74     slnunico.obj
 0001:0004fc88       $unwind$min_expand         0000000180050c88     slnunico.obj
 0001:0004fca0       $unwind$lmemfind           0000000180050ca0     slnunico.obj
 0001:0004fcb4       $chain$0$lmemfind          0000000180050cb4     slnunico.obj
 0001:0004fcc8       $chain$1$lmemfind          0000000180050cc8     slnunico.obj
 0001:0004fcd8       $chain$2$lmemfind          0000000180050cd8     slnunico.obj
 0001:0004fcec       $chain$1$push_onecapture   0000000180050cec     slnunico.obj
 0001:0004fd04       $chain$3$push_onecapture   0000000180050d04     slnunico.obj
 0001:0004fd1c       $unwind$push_captures      0000000180050d1c     slnunico.obj
 0001:0004fd34       $chain$0$push_captures     0000000180050d34     slnunico.obj
 0001:0004fd48       $chain$1$push_captures     0000000180050d48     slnunico.obj
 0001:0004fd58       $chain$2$push_captures     0000000180050d58     slnunico.obj
 0001:0004fd6c       $unwind$unic_find_aux      0000000180050d6c     slnunico.obj
 0001:0004fd88       $unwind$gmatch_aux         0000000180050d88     slnunico.obj
 0001:0004fda0       $unwind$gmatch             0000000180050da0     slnunico.obj
 0001:0004fdb0       $unwind$add_s              0000000180050db0     slnunico.obj
 0001:0004fdc8       $unwind$NewDialogData      0000000180050dc8     slnunico.obj
 0001:0004fdc8       $unwind$LF_DoFile          0000000180050dc8     slnunico.obj
 0001:0004fdc8       $unwind$start_capture      0000000180050dc8     slnunico.obj
 0001:0004fdc8       $unwind$add_value          0000000180050dc8     slnunico.obj
 0001:0004fdc8       $unwind$win_MoveFile       0000000180050dc8     slnunico.obj
 0001:0004fdc8       $unwind$push_far_usercontrol 0000000180050dc8     slnunico.obj
 0001:0004fdc8       $unwind$win_CreateDir      0000000180050dc8     slnunico.obj
 0001:0004fde0       $unwind$unic_gsub          0000000180050de0     slnunico.obj
 0001:0004fe00       $unwind$str_format         0000000180050e00     slnunico.obj
 0001:0004fe1c       $unwind$editor_Redraw      0000000180050e1c     uliolib51.obj
 0001:0004fe1c       $unwind$GetAttrFromTable   0000000180050e1c     uliolib51.obj
 0001:0004fe1c       $unwind$_RTC_Terminate     0000000180050e1c     uliolib51.obj
 0001:0004fe1c       $unwind$far_Show           0000000180050e1c     uliolib51.obj
 0001:0004fe1c       $unwind$editor_DeleteBlock 0000000180050e1c     uliolib51.obj
 0001:0004fe1c       $unwind$editor_DeleteChar  0000000180050e1c     uliolib51.obj
 0001:0004fe1c       $unwind$_close_nolock      0000000180050e1c     uliolib51.obj
 0001:0004fe1c       $unwind$editor_DeleteString 0000000180050e1c     uliolib51.obj
 0001:0004fe1c       $unwind$editor_AddSessionBookmark 0000000180050e1c     uliolib51.obj
 0001:0004fe1c       $unwind$filefilter_Free    0000000180050e1c     uliolib51.obj
 0001:0004fe1c       $unwind$editor_ClearSessionBookmarks 0000000180050e1c     uliolib51.obj
 0001:0004fe1c       $unwind$_fclose_nolock     0000000180050e1c     uliolib51.obj
 0001:0004fe1c       $unwind$editor_NextSessionBookmark 0000000180050e1c     uliolib51.obj
 0001:0004fe1c       $unwind$__freeCrtMemory    0000000180050e1c     uliolib51.obj
 0001:0004fe1c       $unwind$editor_PrevSessionBookmark 0000000180050e1c     uliolib51.obj
 0001:0004fe1c       $unwind$far_LIsUpper       0000000180050e1c     uliolib51.obj
 0001:0004fe1c       $unwind$editor_Quit        0000000180050e1c     uliolib51.obj
 0001:0004fe1c       $unwind$_dosmaperr         0000000180050e1c     uliolib51.obj
 0001:0004fe1c       $unwind$_cinit             0000000180050e1c     uliolib51.obj
 0001:0004fe1c       $unwind$far_LIsLower       0000000180050e1c     uliolib51.obj
 0001:0004fe1c       $unwind$SysErrorReturn     0000000180050e1c     uliolib51.obj
 0001:0004fe1c       $unwind$FillEditorSetPosition 0000000180050e1c     uliolib51.obj
 0001:0004fe1c       $unwind$GetMouseEvent      0000000180050e1c     uliolib51.obj
 0001:0004fe1c       $unwind$GetBoolFromTable   0000000180050e1c     uliolib51.obj
 0001:0004fe1c       $unwind$bit64_pushuserdata 0000000180050e1c     uliolib51.obj
 0001:0004fe1c       $unwind$_initp_misc_cfltcvt_tab 0000000180050e1c     uliolib51.obj
 0001:0004fe1c       $unwind$win_SetEnv         0000000180050e1c     uliolib51.obj
 0001:0004fe1c       $unwind$GetOptBoolFromTable 0000000180050e1c     uliolib51.obj
 0001:0004fe1c       $unwind$bit64_push         0000000180050e1c     uliolib51.obj
 0001:0004fe1c       $unwind$unic_len           0000000180050e1c     uliolib51.obj
 0001:0004fe1c       $unwind$GetOptIntFromArray 0000000180050e1c     uliolib51.obj
 0001:0004fe1c       $unwind$far_GetNumberOfLinks 0000000180050e1c     uliolib51.obj
 0001:0004fe1c       $unwind$GetOptIntFromTable 0000000180050e1c     uliolib51.obj
 0001:0004fe1c       $unwind$GetFileSizeFromTable 0000000180050e1c     uliolib51.obj
 0001:0004fe1c       $unwind$pushInputRecord    0000000180050e1c     uliolib51.obj
 0001:0004fe1c       $unwind$far_LIsAlphanum    0000000180050e1c     uliolib51.obj
 0001:0004fe1c       $unwind$CheckHKey          0000000180050e1c     uliolib51.obj
 0001:0004fe1c       $unwind$PutFlagsToTable    0000000180050e1c     uliolib51.obj
 0001:0004fe1c       $unwind$CheckFlagsFromTable 0000000180050e1c     uliolib51.obj
 0001:0004fe1c       $unwind$CheckFlags         0000000180050e1c     uliolib51.obj
 0001:0004fe1c       $unwind$PutBoolToTable     0000000180050e1c     uliolib51.obj
 0001:0004fe1c       $unwind$_updatetlocinfoEx_nolock 0000000180050e1c     uliolib51.obj
 0001:0004fe1c       $unwind$_calloc_impl       0000000180050e1c     uliolib51.obj
 0001:0004fe1c       $unwind$win_DeleteRegKey   0000000180050e1c     uliolib51.obj
 0001:0004fe1c       $unwind$filefilter_OpenMenu 0000000180050e1c     uliolib51.obj
 0001:0004fe1c       $unwind$Settings_free      0000000180050e1c     uliolib51.obj
 0001:0004fe1c       $unwind$PutIntToArray      0000000180050e1c     uliolib51.obj
 0001:0004fe1c       $unwind$LF_InitLuaState2   0000000180050e1c     uliolib51.obj
 0001:0004fe1c       $unwind$PutIntToTable      0000000180050e1c     uliolib51.obj
 0001:0004fe1c       $unwind$_lock              0000000180050e1c     uliolib51.obj
 0001:0004fe1c       $unwind$PutLStrToTable     0000000180050e1c     uliolib51.obj
 0001:0004fe1c       $unwind$PushFarColor       0000000180050e1c     uliolib51.obj
 0001:0004fe1c       $unwind$PutNumToTable      0000000180050e1c     uliolib51.obj
 0001:0004fe1c       $unwind$PutMouseEvent      0000000180050e1c     uliolib51.obj
 0001:0004fe1c       $unwind$panel_CheckPanelsExist 0000000180050e1c     uliolib51.obj
 0001:0004fe1c       $unwind$PushWinFindData    0000000180050e1c     uliolib51.obj
 0001:0004fe1c       $unwind$filefilter_Starting 0000000180050e1c     uliolib51.obj
 0001:0004fe1c       $unwind$_RTC_Initialize    0000000180050e1c     uliolib51.obj
 0001:0004fe1c       $unwind$lshift             0000000180050e1c     uliolib51.obj
 0001:0004fe1c       $unwind$_initterm_e        0000000180050e1c     uliolib51.obj
 0001:0004fe1c       $unwind$pushSystemTime     0000000180050e1c     uliolib51.obj
 0001:0004fe1c       $unwind$far_LIsAlpha       0000000180050e1c     uliolib51.obj
 0001:0004fe1c       $unwind$method_gc          0000000180050e1c     uliolib51.obj
 0001:0004fe1c       $unwind$rshift             0000000180050e1c     uliolib51.obj
 0001:0004fe1c       $unwind$method_tostring    0000000180050e1c     uliolib51.obj
 0001:0004fe1c       $unwind$method_bracketscount 0000000180050e1c     uliolib51.obj
 0001:0004fe1c       $unwind$func_New           0000000180050e1c     uliolib51.obj
 0001:0004fe1c       $unwind$f_write            0000000180050e1c     uliolib51.obj
 0001:0004fe1c       $unwind$_getptd_noexit     0000000180050e1c     uliolib51.obj
 0001:0004fe1c       $unwind$LF_FreeFindData    0000000180050e1c     uliolib51.obj
 0001:0004fe1c       $unwind$arshift            0000000180050e1c     uliolib51.obj
 0001:0004fe1c       $unwind$io_write           0000000180050e1c     uliolib51.obj
 0001:0004fe1c       $unwind$f_read             0000000180050e1c     uliolib51.obj
 0001:0004fe1c       $unwind$io_read            0000000180050e1c     uliolib51.obj
 0001:0004fe1c       $unwind$panel_GetCmdLinePos 0000000180050e1c     uliolib51.obj
 0001:0004fe1c       $unwind$PushFarMacroValue  0000000180050e1c     uliolib51.obj
 0001:0004fe1c       $unwind$PushAnalyseInfo    0000000180050e1c     uliolib51.obj
 0001:0004fe1c       $unwind$io_tmpfile         0000000180050e1c     uliolib51.obj
 0001:0004fe1c       $unwind$RegisterObject     0000000180050e1c     uliolib51.obj
 0001:0004fe1c       $unwind$CheckReloadDefaultScript 0000000180050e1c     uliolib51.obj
 0001:0004fe1c       $unwind$far_GetMsg         0000000180050e1c     uliolib51.obj
 0001:0004fe1c       $unwind$newfile            0000000180050e1c     uliolib51.obj
 0001:0004fe1c       $unwind$tofile             0000000180050e1c     uliolib51.obj
 0001:0004fe1c       $unwind$io_type            0000000180050e1c     uliolib51.obj
 0001:0004fe1c       $unwind$viewer_Redraw      0000000180050e1c     uliolib51.obj
 0001:0004fe1c       $unwind$viewer_Quit        0000000180050e1c     uliolib51.obj
 0001:0004fe1c       $unwind$modinit            0000000180050e1c     uliolib51.obj
 0001:0004fe1c       $unwind$loader_preload     0000000180050e1c     uliolib51.obj
 0001:0004fe1c       $unwind$mkfuncname         0000000180050e1c     uliolib51.obj
 0001:0004fe1c       $unwind$loader_Lua         0000000180050e1c     uliolib51.obj
 0001:0004fe1c       $unwind$panel_SetUserScreen 0000000180050e1c     uliolib51.obj
 0001:0004fe1c       $unwind$ll_loadlib         0000000180050e1c     uliolib51.obj
 0001:0004fe1c       $unwind$panel_GetUserScreen 0000000180050e1c     uliolib51.obj
 0001:0004fe1c       $unwind$far_DialogFree     0000000180050e1c     uliolib51.obj
 0001:0004fe1c       $unwind$panel_IsActivePanel 0000000180050e1c     uliolib51.obj
 0001:0004fe1c       $unwind$LF_Analyse         0000000180050e1c     uliolib51.obj
 0001:0004fe1c       $unwind$free_dialog        0000000180050e1c     uliolib51.obj
 0001:0004fe1c       $unwind$ustring_EnumSystemCodePages 0000000180050e1c     uliolib51.obj
 0001:0004fe1c       $unwind$LF_ProcessEditorInput 0000000180050e1c     uliolib51.obj
 0001:0004fe1c       $unwind$pcall_msg          0000000180050e1c     uliolib51.obj
 0001:0004fe1c       $unwind$_fptostr           0000000180050e1c     uliolib51.obj
 0001:0004fe1c       $unwind$GetExportFunction  0000000180050e1c     uliolib51.obj
 0001:0004fe1c       $unwind$DialogHandleEqual  0000000180050e1c     uliolib51.obj
 0001:0004fe1c       $unwind$_ungetc_nolock     0000000180050e1c     uliolib51.obj
 0001:0004fe1c       $unwind$PushDlgItem        0000000180050e1c     uliolib51.obj
 0001:0004fe1c       $unwind$far_UnloadPlugin   0000000180050e1c     uliolib51.obj
 0001:0004fe1c       $unwind$__initstdio        0000000180050e1c     uliolib51.obj
 0001:0004fe28       $unwind$g_iofile           0000000180050e28     uliolib51.obj
 0001:0004fe38       $chain$0$g_iofile          0000000180050e38     uliolib51.obj
 0001:0004fe4c       $chain$1$g_iofile          0000000180050e4c     uliolib51.obj
 0001:0004fe60       $chain$2$g_iofile          0000000180050e60     uliolib51.obj
 0001:0004fe70       $chain$3$g_iofile          0000000180050e70     uliolib51.obj
 0001:0004fe80       $chain$1$io_lines          0000000180050e80     uliolib51.obj
 0001:0004fe98       $chain$2$io_lines          0000000180050e98     uliolib51.obj
 0001:0004feac       $unwind$read_line          0000000180050eac     uliolib51.obj
 0001:0004fec0       $unwind$read_chars         0000000180050ec0     uliolib51.obj
 0001:0004fed8       $unwind$g_read             0000000180050ed8     uliolib51.obj
 0001:0004fef0       $unwind$setprogdir         0000000180050ef0     uloadlib51.obj
 0001:0004fefc       $unwind$ll_register        0000000180050efc     uloadlib51.obj
 0001:0004ff0c       $unwind$pushnexttemplate   0000000180050f0c     uloadlib51.obj
 0001:0004ff1c       $unwind$loader_Croot       0000000180050f1c     uloadlib51.obj
 0001:0004ff2c       $unwind$setfenv            0000000180050f2c     uloadlib51.obj
 0001:0004ff38       $chain$0$luaopen_upackage  0000000180050f38     uloadlib51.obj
 0001:0004ff4c       $chain$2$luaopen_upackage  0000000180050f4c     uloadlib51.obj
 0001:0004ff64       $chain$3$luaopen_upackage  0000000180050f64     uloadlib51.obj
 0001:0004ff74       $chain$4$luaopen_upackage  0000000180050f74     uloadlib51.obj
 0001:0004ff84       $unwind$pusherrorcode      0000000180050f84     ustring.obj
 0001:0004ff94       $unwind$GetOptNumFromTable 0000000180050f94     ustring.obj
 0001:0004ffa0       $chain$3$utf8_to_utf16     0000000180050fa0     ustring.obj
 0001:0004ffb4       $chain$4$utf8_to_utf16     0000000180050fb4     ustring.obj
 0001:0004ffc4       $unwind$opt_utf8_string    0000000180050fc4     ustring.obj
 0001:0004ffdc       $unwind$utf8_to_utf16      0000000180050fdc     ustring.obj
 0001:0004ffdc       $unwind$oem_to_utf16       0000000180050fdc     ustring.obj
 0001:0004fff4       $chain$3$oem_to_utf16      0000000180050ff4     ustring.obj
 0001:00050008       $chain$4$oem_to_utf16      0000000180051008     ustring.obj
 0001:00050018       $unwind$convert_multibyte_string 0000000180051018     ustring.obj
 0001:00050034       $unwind$push_multibyte_string 0000000180051034     ustring.obj
 0001:00050048       $chain$2$push_multibyte_string 0000000180051048     ustring.obj
 0001:00050060       $chain$3$push_multibyte_string 0000000180051060     ustring.obj
 0001:00050074       $unwind$ustring_WideCharToMultiByte 0000000180051074     ustring.obj
 0001:00050088       $chain$1$ustring_WideCharToMultiByte 0000000180051088     ustring.obj
 0001:000500a0       $chain$2$ustring_WideCharToMultiByte 00000001800510a0     ustring.obj
 0001:000500b0       $unwind$ustring_MultiByteToWideChar 00000001800510b0     ustring.obj
 0001:000500cc       $unwind$ustring_Utf8ToUtf16 00000001800510cc     ustring.obj
 0001:000500dc       $chain$0$ustring_Utf8ToUtf16 00000001800510dc     ustring.obj
 0001:000500f0       $chain$1$ustring_Utf8ToUtf16 00000001800510f0     ustring.obj
 0001:00050100       $unwind$ustring_GetCPInfo  0000000180051100     ustring.obj
 0001:00050118       $unwind$ustring_GetLogicalDriveStrings 0000000180051118     ustring.obj
 0001:00050128       $chain$0$ustring_GetLogicalDriveStrings 0000000180051128     ustring.obj
 0001:0005013c       $chain$1$ustring_GetLogicalDriveStrings 000000018005113c     ustring.obj
 0001:0005014c       $unwind$ustring_SearchPath 000000018005114c     ustring.obj
 0001:00050164       $unwind$ustring_GlobalMemoryStatus 0000000180051164     ustring.obj
 0001:0005016c       $chain$0$ustring_GlobalMemoryStatus 000000018005116c     ustring.obj
 0001:00050180       $chain$2$ustring_GlobalMemoryStatus 0000000180051180     ustring.obj
 0001:00050194       $unwind$ustring_SetFileAttr 0000000180051194     ustring.obj
 0001:000501a0       $chain$2$ustring_SetFileAttr 00000001800511a0     ustring.obj
 0001:000501bc       $chain$3$ustring_SetFileAttr 00000001800511bc     ustring.obj
 0001:000501cc       $unwind$ustring_GetFileAttr 00000001800511cc     ustring.obj
 0001:000501cc       $unwind$f_tostring         00000001800511cc     ustring.obj
 0001:000501d4       $chain$2$ustring_GetFileAttr 00000001800511d4     ustring.obj
 0001:000501f0       $chain$3$ustring_GetFileAttr 00000001800511f0     ustring.obj
 0001:00050204       $chain$4$ustring_GetFileAttr 0000000180051204     ustring.obj
 0001:00050214       $chain$5$ustring_GetFileAttr 0000000180051214     ustring.obj
 0001:00050224       $unwind$ustring_SHGetFolderPath 0000000180051224     ustring.obj
 0001:00050234       $chain$1$ustring_SHGetFolderPath 0000000180051234     ustring.obj
 0001:0005024c       $chain$2$ustring_SHGetFolderPath 000000018005124c     ustring.obj
 0001:0005025c       $unwind$win_GetEnv         000000018005125c     win.obj
 0001:00050274       $unwind$win_SetRegKey      0000000180051274     win.obj
 0001:00050274       $unwind$ustring_Utf8ToOem  0000000180051274     win.obj
 0001:00050288       $unwind$win_GetRegKey      0000000180051288     win.obj
 0001:0005029c       $unwind$win_EnumRegKey     000000018005129c     win.obj
 0001:0005029c       $unwind$win_EnumRegValue   000000018005129c     win.obj
 0001:000502b0       $unwind$win_GetFileInfo    00000001800512b0     win.obj
 0001:000502c0       $unwind$win_SystemTimeToFileTime 00000001800512c0     win.obj
 0001:000502c0       $unwind$win_FileTimeToSystemTime 00000001800512c0     win.obj
 0001:000502c0       $unwind$ustring_OemToUtf8  00000001800512c0     win.obj
 0001:000502c0       $unwind$_fassign_l         00000001800512c0     win.obj
 0001:000502c0       $unwind$ustring_Uuid       00000001800512c0     win.obj
 0001:000502c0       $unwind$ustring_Utf16ToUtf8 00000001800512c0     win.obj
 0001:000502c8       $unwind$win_CompareString  00000001800512c8     win.obj
 0001:000502e0       $unwind$mkdir              00000001800512e0     win.obj
 0001:000502fc       $unwind$win_ShellExecute   00000001800512fc     win.obj
 0001:00050314       $unwind$sprintf            0000000180051314     LIBCMT:sprintf.obj
 0001:00050320       $unwind$iswctype           0000000180051320     LIBCMT:free.obj
 0001:00050320       $unwind$free               0000000180051320     LIBCMT:free.obj
 0001:00050320       $unwind$__free_lconv_num   0000000180051320     LIBCMT:free.obj
 0001:00050328       $unwind$_control87         0000000180051328     LIBCMT:ieee.obj
 0001:00050358       $xdatasym                  0000000180051358     LIBCMT:memcpy.obj
 0001:00050360       $xdatasym                  0000000180051360     LIBCMT:memset.obj
 0001:00050364       $unwind$strerror           0000000180051364     LIBCMT:strerror.obj
 0001:00050364       $unwind$EnumCodePagesProc  0000000180051364     LIBCMT:strerror.obj
 0001:00050364       $unwind$PutWStrToTable     0000000180051364     LIBCMT:strerror.obj
 0001:00050364       $unwind$far_Timer          0000000180051364     LIBCMT:strerror.obj
 0001:00050370       $unwind$wcsstr             0000000180051370     LIBCMT:wcsstr.obj
 0001:00050380       $unwind$fclose             0000000180051380     LIBCMT:fclose.obj
 0001:000503a4       $unwind$fread_s            00000001800513a4     LIBCMT:fread.obj
 0001:000503d4       $unwind$fread_s$fin$0      00000001800513d4     LIBCMT:fread.obj
 0001:000503d4       $unwind$_tmpfile_helper$fin$0 00000001800513d4     LIBCMT:fread.obj
 0001:000503d4       $unwind$_pipe$fin$1        00000001800513d4     LIBCMT:fread.obj
 0001:000503d4       $unwind$_pipe$fin$0        00000001800513d4     LIBCMT:fread.obj
 0001:000503d4       $unwind$_wdupenv_s$fin$0   00000001800513d4     LIBCMT:fread.obj
 0001:000503dc       $unwind$_fread_nolock_s    00000001800513dc     LIBCMT:fread.obj
 0001:000503f4       $unwind$getc               00000001800513f4     LIBCMT:fgetc.obj
 0001:00050418       $unwind$rewind             0000000180051418     LIBCMT:rewind.obj
 0001:0005043c       $unwind$ungetc             000000018005143c     LIBCMT:ungetc.obj
 0001:00050460       $unwind$_wfsopen           0000000180051460     LIBCMT:wfopen.obj
 0001:0005049c       $unwind$_wfreopen_helper   000000018005149c     LIBCMT:wfreopen.obj
 0001:000504c8       $unwind$isleadbyte         00000001800514c8     LIBCMT:_ctype.obj
 0001:000504c8       $unwind$?getSystemCP@@YAHH@Z 00000001800514c8     LIBCMT:_ctype.obj
 0001:000504c8       $unwind$ExtractKey         00000001800514c8     LIBCMT:_ctype.obj
 0001:000504c8       $unwind$_isleadbyte_l      00000001800514c8     LIBCMT:_ctype.obj
 0001:000504c8       $unwind$isdigit            00000001800514c8     LIBCMT:_ctype.obj
 0001:000504c8       $unwind$isxdigit           00000001800514c8     LIBCMT:_ctype.obj
 0001:000504c8       $unwind$_forcdecpt_l       00000001800514c8     LIBCMT:_ctype.obj
 0001:000504c8       $unwind$_cropzeros_l       00000001800514c8     LIBCMT:_ctype.obj
 0001:000504c8       $unwind$win_GetConsoleScreenBufferInfo 00000001800514c8     LIBCMT:_ctype.obj
 0001:000504c8       $unwind$isspace            00000001800514c8     LIBCMT:_ctype.obj
 0001:000504c8       $unwind$isalnum            00000001800514c8     LIBCMT:_ctype.obj
 0001:000504d0       $xdatasym                  00000001800514d0     LIBCMT:strncmp.obj
 0001:000504d4       $unwind$wcsncpy            00000001800514d4     LIBCMT:wcsncpy.obj
 0001:000504dc       $unwind$_wcsicmp_l         00000001800514dc     LIBCMT:wcsicmp.obj
 0001:000504f0       $unwind$fprintf            00000001800514f0     LIBCMT:fprintf.obj
 0001:00050518       $unwind$floor              0000000180051518     LIBCMT:floor.obj
 0001:00050518       $unwind$CreateRegKey       0000000180051518     LIBCMT:floor.obj
 0001:00050520       $xdatasym                  0000000180051520     LIBCMT:log10.obj
 0001:00050530       $xdatasym                  0000000180051530     LIBCMT:strcmp.obj
 0001:00050534       $unwind$_snwprintf         0000000180051534     LIBCMT:snwprint.obj
 0001:00050548       $xdatasym                  0000000180051548     LIBCMT:strncpy.obj
 0001:0005054c       $unwind$strpbrk            000000018005154c     LIBCMT:strpbrk.obj
 0001:00050560       $xdatasym                  0000000180051560     LIBCMT:memcmp.obj
 0001:00050564       $unwind$clearerr_s         0000000180051564     LIBCMT:clearerr.obj
 0001:0005058c       $unwind$fflush             000000018005158c     LIBCMT:fflush.obj
 0001:000505b0       $unwind$flsall             00000001800515b0     LIBCMT:fflush.obj
 0001:000505f0       $unwind$fgets              00000001800515f0     LIBCMT:fgets.obj
 0001:00050618       $unwind$fscanf             0000000180051618     LIBCMT:fscanf.obj
 0001:00050620       $unwind$vfscanf            0000000180051620     LIBCMT:fscanf.obj
 0001:0005064c       $unwind$fseek              000000018005164c     LIBCMT:fseek.obj
 0001:00050674       $unwind$ftell              0000000180051674     LIBCMT:ftell.obj
 0001:00050698       $unwind$_ftell_nolock      0000000180051698     LIBCMT:ftell.obj
 0001:000506c0       $unwind$fwrite             00000001800516c0     LIBCMT:fwrite.obj
 0001:000506ec       $unwind$_fwrite_nolock     00000001800516ec     LIBCMT:fwrite.obj
 0001:00050708       $unwind$_pclose            0000000180051708     LIBCMT:popen.obj
 0001:00050730       $unwind$setvbuf            0000000180051730     LIBCMT:setvbuf.obj
 0001:0005075c       $unwind$init_namebuf       000000018005175c     LIBCMT:tmpfile.obj
 0001:0005077c       $unwind$genfname           000000018005177c     LIBCMT:tmpfile.obj
 0001:00050794       $unwind$_tmpfile_helper    0000000180051794     LIBCMT:tmpfile.obj
 0001:000507c4       $unwind$_wpopen            00000001800517c4     LIBCMT:wpopen.obj
 0001:000507fc       $unwind$_wpopen$fin$0      00000001800517fc     LIBCMT:wpopen.obj
 0001:00050804       $unwind$_wgetenv           0000000180051804     LIBCMT:wgetenv.obj
 0001:00050824       $unwind$_wdupenv_s         0000000180051824     LIBCMT:wgetenv.obj
 0001:00050864       $unwind$wcschr             0000000180051864     LIBCMT:strrchr.obj
 0001:00050864       $unwind$strrchr            0000000180051864     LIBCMT:strrchr.obj
 0001:00050864       $unwind$strchr             0000000180051864     LIBCMT:strrchr.obj
 0001:0005086c       $unwind$_CRT_INIT          000000018005186c     LIBCMT:dllcrt0.obj
 0001:0005088c       $unwind$__DllMainCRTStartup 000000018005188c     LIBCMT:dllcrt0.obj
 0001:000508b4       $unwind$_call_reportfault  00000001800518b4     LIBCMT:invarg.obj
 0001:000508d4       $unwind$_flsbuf            00000001800518d4     LIBCMT:_flsbuf.obj
 0001:000508e8       $unwind$_output_l          00000001800518e8     LIBCMT:output.obj
 0001:0005090c       $unwind$write_multi_char   000000018005190c     LIBCMT:output.obj
 0001:0005090c       $unwind$write_multi_char   000000018005190c     LIBCMT:output.obj
 0001:00050920       $unwind$write_string       0000000180051920     LIBCMT:output.obj
 0001:00050920       $unwind$FrsUserFunc        0000000180051920     LIBCMT:output.obj
 0001:00050920       $unwind$write_string       0000000180051920     LIBCMT:output.obj
 0001:00050920       $unwind$max_expand         0000000180051920     LIBCMT:output.obj
 0001:00050920       $unwind$NewVirtualKeyTable 0000000180051920     LIBCMT:output.obj
 0001:00050920       $unwind$_recalloc_crt      0000000180051920     LIBCMT:output.obj
 0001:00050920       $unwind$GetFlagCombination 0000000180051920     LIBCMT:output.obj
 0001:00050938       $unwind$__initconout       0000000180051938     LIBCMT:cvt.obj
 0001:00050938       $unwind$_cfltcvt           0000000180051938     LIBCMT:cvt.obj
 0001:00050938       $unwind$_raise_exc         0000000180051938     LIBCMT:cvt.obj
 0001:00050940       $unwind$_cftoe2_l          0000000180051940     LIBCMT:cvt.obj
 0001:0005095c       $unwind$_cftoe_l           000000018005195c     LIBCMT:cvt.obj
 0001:00050974       $unwind$_cftoa_l           0000000180051974     LIBCMT:cvt.obj
 0001:00050990       $unwind$_cftof_l           0000000180051990     LIBCMT:cvt.obj
 0001:000509a8       $unwind$_cftog_l           00000001800519a8     LIBCMT:cvt.obj
 0001:000509c0       $unwind$__copy_path_to_wide_string 00000001800519c0     LIBCMT:crt0dat.obj
 0001:000509d8       $unwind$classend           00000001800519d8     LIBCMT:crt0dat.obj
 0001:000509d8       $unwind$_initterm          00000001800519d8     LIBCMT:crt0dat.obj
 0001:000509e4       $unwind$doexit             00000001800519e4     LIBCMT:crt0dat.obj
 0001:00050a14       $unwind$_NMSG_WRITE        0000000180051a14     LIBCMT:crt0msg.obj
 0001:00050a38       $xdatasym                  0000000180051a38     LIBCMT:fpsr.obj
 0001:00050a40       $unwind$__C_specific_handler 0000000180051a40     LIBCMT:chandler.obj
 0001:00050a5c       $unwind$__isa_available_init 0000000180051a5c     LIBCMT:cpu_disp.obj
 0001:00050a64       $unwind$_freefls           0000000180051a64     LIBCMT:tidtable.obj
 0001:00050a98       $unwind$_initptd           0000000180051a98     LIBCMT:tidtable.obj
 0001:00050acc       $unwind$GetTableIndexFromLocaleName 0000000180051acc     LIBCMT:crtheap.obj
 0001:00050acc       $unwind$_calloc_crt        0000000180051acc     LIBCMT:crtheap.obj
 0001:00050acc       $unwind$_wgetpath          0000000180051acc     LIBCMT:crtheap.obj
 0001:00050acc       $unwind$__GSHandlerCheck_SEH 0000000180051acc     LIBCMT:crtheap.obj
 0001:00050acc       $unwind$_malloc_crt        0000000180051acc     LIBCMT:crtheap.obj
 0001:00050acc       $unwind$_realloc_crt       0000000180051acc     LIBCMT:crtheap.obj
 0001:00050ae4       $unwind$_fcloseall         0000000180051ae4     LIBCMT:closeall.obj
 0001:00050b0c       $unwind$_mtinitlocknum     0000000180051b0c     LIBCMT:mlock.obj
 0001:00050b34       $unwind$_close             0000000180051b34     LIBCMT:close.obj
 0001:00050b5c       $unwind$_read              0000000180051b5c     LIBCMT:read.obj
 0001:00050b8c       $unwind$_read_nolock       0000000180051b8c     LIBCMT:read.obj
 0001:00050ba4       $unwind$_ioinit            0000000180051ba4     LIBCMT:ioinit.obj
 0001:00050bec       $unwind$_lseek             0000000180051bec     LIBCMT:lseek.obj
 0001:00050c18       $unwind$_getstream         0000000180051c18     LIBCMT:stream.obj
 0001:00050c40       $unwind$_wopenfile         0000000180051c40     LIBCMT:_wopen.obj
 0001:00050c60       $xdatasym                  0000000180051c60     LIBCMT:jmpuwind.obj
 0001:00050c74       $unwind$__updatetlocinfo   0000000180051c74     LIBCMT:localref.obj
 0001:00050c94       $unwind$_fseek_nolock      0000000180051c94     LIBCMT:localref.obj
 0001:00050c94       $unwind$win_CopyFile       0000000180051c94     LIBCMT:localref.obj
 0001:00050c94       $unwind$SetFarDialogItem   0000000180051c94     LIBCMT:localref.obj
 0001:00050c94       $unwind$ll_loadfunc        0000000180051c94     LIBCMT:localref.obj
 0001:00050c94       $unwind$LF_MacroCallback   0000000180051c94     LIBCMT:localref.obj
 0001:00050c94       $unwind$__freetlocinfo     0000000180051c94     LIBCMT:localref.obj
 0001:00050c94       $unwind$_mtdeletelocks     0000000180051c94     LIBCMT:localref.obj
 0001:00050c94       $unwind$__crtGetEnvironmentStringsW 0000000180051c94     LIBCMT:localref.obj
 0001:00050c94       $unwind$docall             0000000180051c94     LIBCMT:localref.obj
 0001:00050c94       $unwind$OptInputRecord     0000000180051c94     LIBCMT:localref.obj
 0001:00050c94       $unwind$end_capture        0000000180051c94     LIBCMT:localref.obj
 0001:00050c94       $unwind$PushDNParams       0000000180051c94     LIBCMT:localref.obj
 0001:00050c94       $unwind$PackMacroValues    0000000180051c94     LIBCMT:localref.obj
 0001:00050c94       $unwind$timer_index        0000000180051c94     LIBCMT:localref.obj
 0001:00050c94       $unwind$io_popen           0000000180051c94     LIBCMT:localref.obj
 0001:00050c94       $unwind$_XcptFilter        0000000180051c94     LIBCMT:localref.obj
 0001:00050c94       $unwind$io_open            0000000180051c94     LIBCMT:localref.obj
 0001:00050c94       $unwind$FillPluginPanelItem 0000000180051c94     LIBCMT:localref.obj
 0001:00050c94       $unwind$LF_ProcessDialogEvent 0000000180051c94     LIBCMT:localref.obj
 0001:00050c94       $unwind$InitMPR            0000000180051c94     LIBCMT:localref.obj
 0001:00050c94       $unwind$timer_newindex     0000000180051c94     LIBCMT:localref.obj
 0001:00050c94       $unwind$?setSBCS@@YAXPEAUthreadmbcinfostruct@@@Z 0000000180051c94     LIBCMT:localref.obj
 0001:00050c94       $unwind$AddBufToCollector  0000000180051c94     LIBCMT:localref.obj
 0001:00050c94       $unwind$LF_InitLuaState1   0000000180051c94     LIBCMT:localref.obj
 0001:00050c94       $unwind$push_far_regex     0000000180051c94     LIBCMT:localref.obj
 0001:00050c94       $unwind$pushresult         0000000180051c94     LIBCMT:localref.obj
 0001:00050c94       $unwind$findfile           0000000180051c94     LIBCMT:localref.obj
 0001:00050ca8       $unwind$__updatetmbcinfo   0000000180051ca8     LIBCMT:mbctype.obj
 0001:00050ccc       $unwind$_setmbcp           0000000180051ccc     LIBCMT:mbctype.obj
 0001:00050cfc       $unwind$_setmbcp_nolock    0000000180051cfc     LIBCMT:mbctype.obj
 0001:00050d1c       $unwind$?setSBUpLow@@YAXPEAUthreadmbcinfostruct@@@Z 0000000180051d1c     LIBCMT:mbctype.obj
 0001:00050d38       $unwind$_isctype_l         0000000180051d38     LIBCMT:isctype.obj
 0001:00050d48       $unwind$_locterm           0000000180051d48     LIBCMT:wsetloca.obj
 0001:00050d68       $unwind$_towlower_l        0000000180051d68     LIBCMT:towlower.obj
 0001:00050d74       $unwind$_ftbuf             0000000180051d74     LIBCMT:_sftbuf.obj
 0001:00050d7c       $unwind$_call_matherr      0000000180051d7c     LIBCMT:libm_error.obj
 0001:00050d84       $unwind$_handle_error      0000000180051d84     LIBCMT:libm_error.obj
 0001:00050da4       $unwind$_log_special_common 0000000180051da4     LIBCMT:log_special.obj
 0001:00050db0       $unwind$_woutput_l         0000000180051db0     LIBCMT:woutput.obj
 0001:00050dd4       $unwind$__report_securityfailure 0000000180051dd4     LIBCMT:gs_report.obj
 0001:00050ddc       $unwind$_get_osfhandle     0000000180051ddc     LIBCMT:gs_report.obj
 0001:00050ddc       $unwind$dir_exist          0000000180051ddc     LIBCMT:gs_report.obj
 0001:00050ddc       $unwind$_invoke_watson     0000000180051ddc     LIBCMT:gs_report.obj
 0001:00050ddc       $unwind$_heap_init         0000000180051ddc     LIBCMT:gs_report.obj
 0001:00050ddc       $unwind$idtab              0000000180051ddc     LIBCMT:gs_report.obj
 0001:00050ddc       $unwind$_msize             0000000180051ddc     LIBCMT:gs_report.obj
 0001:00050ddc       $unwind$_fileno            0000000180051ddc     LIBCMT:gs_report.obj
 0001:00050ddc       $unwind$_wcsicmp           0000000180051ddc     LIBCMT:gs_report.obj
 0001:00050ddc       $unwind$tmpfile            0000000180051ddc     LIBCMT:gs_report.obj
 0001:00050ddc       $unwind$_wcsnicmp          0000000180051ddc     LIBCMT:gs_report.obj
 0001:00050ddc       $unwind$__initmbctable     0000000180051ddc     LIBCMT:gs_report.obj
 0001:00050ddc       $unwind$_wcsnicoll         0000000180051ddc     LIBCMT:gs_report.obj
 0001:00050ddc       $unwind$_set_errno_from_matherr 0000000180051ddc     LIBCMT:gs_report.obj
 0001:00050ddc       $unwind$_get_fmode         0000000180051ddc     LIBCMT:gs_report.obj
 0001:00050ddc       $unwind$_statfp            0000000180051ddc     LIBCMT:gs_report.obj
 0001:00050ddc       $unwind$__crtDownlevelLocaleNameToLCID 0000000180051ddc     LIBCMT:gs_report.obj
 0001:00050ddc       $unwind$__termconout       0000000180051ddc     LIBCMT:gs_report.obj
 0001:00050ddc       $unwind$_mtterm            0000000180051ddc     LIBCMT:gs_report.obj
 0001:00050ddc       $unwind$_errno             0000000180051ddc     LIBCMT:gs_report.obj
 0001:00050ddc       $unwind$_inc               0000000180051ddc     LIBCMT:gs_report.obj
 0001:00050ddc       $unwind$GetPluginData      0000000180051ddc     LIBCMT:gs_report.obj
 0001:00050ddc       $unwind$ferror             0000000180051ddc     LIBCMT:gs_report.obj
 0001:00050ddc       $unwind$__endstdio         0000000180051ddc     LIBCMT:gs_report.obj
 0001:00050ddc       $unwind$writer             0000000180051ddc     LIBCMT:gs_report.obj
 0001:00050ddc       $unwind$__doserrno         0000000180051ddc     LIBCMT:gs_report.obj
 0001:00050ddc       $unwind$filefilter_gc      0000000180051ddc     LIBCMT:gs_report.obj
 0001:00050ddc       $unwind$_set_error_mode    0000000180051ddc     LIBCMT:gs_report.obj
 0001:00050ddc       $unwind$__report_rangecheckfailure 0000000180051ddc     LIBCMT:gs_report.obj
 0001:00050ddc       $unwind$win_GetVirtualKeys 0000000180051ddc     LIBCMT:gs_report.obj
 0001:00050ddc       $unwind$atexit             0000000180051ddc     LIBCMT:gs_report.obj
 0001:00050ddc       $unwind$feof               0000000180051ddc     LIBCMT:gs_report.obj
 0001:00050ddc       $unwind$abort              0000000180051ddc     LIBCMT:gs_report.obj
 0001:00050ddc       $unwind$_initp_eh_hooks    0000000180051ddc     LIBCMT:gs_report.obj
 0001:00050ddc       $unwind$_FF_MSGBANNER      0000000180051ddc     LIBCMT:gs_report.obj
 0001:00050ddc       $unwind$__GSHandlerCheck   0000000180051ddc     LIBCMT:gs_report.obj
 0001:00050ddc       $unwind$timer_Close        0000000180051ddc     LIBCMT:gs_report.obj
 0001:00050ddc       $unwind$PutFileTimeToTable 0000000180051ddc     LIBCMT:gs_report.obj
 0001:00050ddc       $unwind$ustring_Sleep      0000000180051ddc     LIBCMT:gs_report.obj
 0001:00050ddc       $unwind$_isatty            0000000180051ddc     LIBCMT:gs_report.obj
 0001:00050de4       $unwind$__report_gsfailure 0000000180051de4     LIBCMT:gs_report.obj
 0001:00050de4       $unwind$_putwch_nolock     0000000180051de4     LIBCMT:gs_report.obj
 0001:00050df0       $xdatasym                  0000000180051df0     LIBCMT:amdsecgs.obj
 0001:00050df4       $unwind$_commit            0000000180051df4     LIBCMT:commit.obj
 0001:00050e1c       $unwind$_write             0000000180051e1c     LIBCMT:write.obj
 0001:00050e48       $unwind$_write_nolock      0000000180051e48     LIBCMT:write.obj
 0001:00050e6c       $unwind$_input_l           0000000180051e6c     LIBCMT:input.obj
 0001:00050e90       $unwind$_lseeki64          0000000180051e90     LIBCMT:lseeki64.obj
 0001:00050ebc       $unwind$_pipe              0000000180051ebc     LIBCMT:pipe.obj
 0001:00050ef8       $xdatasym                  0000000180051ef8     LIBCMT:strlen.obj
 0001:00050efc       $unwind$_mbsrchr_l         0000000180051efc     LIBCMT:mbsrchr.obj
 0001:00050efc       $unwind$?x_ismbbtype_l@@YAHPEAUlocaleinfo_struct@@IHH@Z 0000000180051efc     LIBCMT:mbsrchr.obj
 0001:00050f0c       $unwind$_sopen_helper      0000000180051f0c     LIBCMT:open.obj
 0001:00050f30       $unwind$_wsopen_helper$fin$0 0000000180051f30     LIBCMT:open.obj
 0001:00050f30       $unwind$_sopen_helper$fin$0 0000000180051f30     LIBCMT:open.obj
 0001:00050f38       $unwind$__crtCompareStringEx 0000000180051f38     LIBCMT:open.obj
 0001:00050f38       $unwind$__crtLCMapStringEx 0000000180051f38     LIBCMT:open.obj
 0001:00050f38       $unwind$_sopen_nolock      0000000180051f38     LIBCMT:open.obj
 0001:00050f48       $unwind$__crtLCMapStringW  0000000180051f48     LIBCMT:strdup.obj
 0001:00050f48       $unwind$PutWStrToArray     0000000180051f48     LIBCMT:strdup.obj
 0001:00050f48       $unwind$GetIntFromArray    0000000180051f48     LIBCMT:strdup.obj
 0001:00050f48       $unwind$loaderror          0000000180051f48     LIBCMT:strdup.obj
 0001:00050f48       $unwind$_wcsdup            0000000180051f48     LIBCMT:strdup.obj
 0001:00050f48       $unwind$_strdup            0000000180051f48     LIBCMT:strdup.obj
 0001:00050f58       $unwind$?strtoxl@@YAKPEAUlocaleinfo_struct@@PEBDPEAPEBDHH@Z 0000000180051f58     LIBCMT:strtol.obj
 0001:00050f70       $unwind$_rmtmp             0000000180051f70     LIBCMT:rmtmp.obj
 0001:00050fa8       $unwind$_wfdopen           0000000180051fa8     LIBCMT:wfdopen.obj
 0001:00050fd4       $unwind$_waccess_s         0000000180051fd4     LIBCMT:waccess.obj
 0001:00050fe4       $unwind$__mbtow_environ    0000000180051fe4     LIBCMT:mbtowenv.obj
 0001:00050ff4       $unwind$_setargv           0000000180051ff4     LIBCMT:stdargv.obj
 0001:00051004       $unwind$parse_cmdline      0000000180052004     LIBCMT:stdargv.obj
 0001:00051020       $unwind$_setenvp           0000000180052020     LIBCMT:stdenvp.obj
 0001:00051020       $unwind$_invalid_parameter 0000000180052020     LIBCMT:stdenvp.obj
 0001:00051020       $unwind$luaLF_SlotError    0000000180052020     LIBCMT:stdenvp.obj
 0001:00051020       $unwind$luaLF_FieldError   0000000180052020     LIBCMT:stdenvp.obj
 0001:00051020       $unwind$errfile            0000000180052020     LIBCMT:stdenvp.obj
 0001:00051034       $unwind$__security_init_cookie 0000000180052034     LIBCMT:gs_support.obj
 0001:00051040       $unwind$__crtGetEnvironmentStringsA 0000000180052040     LIBCMT:a_env.obj
 0001:00051040       $unwind$_cftof2_l          0000000180052040     LIBCMT:a_env.obj
 0001:00051040       $unwind$_wcsnicmp_l        0000000180052040     LIBCMT:a_env.obj
 0001:00051058       $unwind$__crtCaptureCurrentContext 0000000180052058     LIBCMT:winapisupp.obj
 0001:00051064       $unwind$__crtCapturePreviousContext 0000000180052064     LIBCMT:winapisupp.obj
 0001:00051070       $unwind$_wctomb_s_l        0000000180052070     LIBCMT:wctomb.obj
 0001:00051080       $unwind$_tolower_l         0000000180052080     LIBCMT:tolower.obj
 0001:00051090       $unwind$_atodbl_l          0000000180052090     LIBCMT:atodbl.obj
 0001:00051090       $unwind$_atoflt_l          0000000180052090     LIBCMT:atodbl.obj
 0001:000510a4       $unwind$_fltout2           00000001800520a4     LIBCMT:cfout.obj
 0001:000510bc       $unwind$__dtold            00000001800520bc     LIBCMT:cfout.obj
 0001:000510c4       $unwind$_IsNonwritableInCurrentImage 00000001800520c4     LIBCMT:pesect.obj
 0001:000510e8       $unwind$_onexit            00000001800520e8     LIBCMT:onexit.obj
 0001:00051118       $unwind$?terminate@@YAXXZ  0000000180052118     LIBCMT:hooks.obj
 0001:00051138       $unwind$raise              0000000180052138     LIBCMT:winsig.obj
 0001:00051164       $unwind$__crtMessageBoxW   0000000180052164     LIBCMT:crtmboxw.obj
 0001:00051180       $unwind$_alloc_osfhnd      0000000180052180     LIBCMT:osfinfo.obj
 0001:000511c4       $unwind$__lock_fhandle$fin$0 00000001800521c4     LIBCMT:osfinfo.obj
 0001:000511c4       $unwind$_setmbcp$fin$0     00000001800521c4     LIBCMT:osfinfo.obj
 0001:000511c4       $unwind$__DllMainCRTStartup$filt$0 00000001800521c4     LIBCMT:osfinfo.obj
 0001:000511c4       $unwind$raise$fin$0        00000001800521c4     LIBCMT:osfinfo.obj
 0001:000511c4       $unwind$_mtinitlocknum$fin$0 00000001800521c4     LIBCMT:osfinfo.obj
 0001:000511c4       $unwind$_initptd$fin$0     00000001800521c4     LIBCMT:osfinfo.obj
 0001:000511c4       $unwind$doexit$fin$0       00000001800521c4     LIBCMT:osfinfo.obj
 0001:000511c4       $unwind$_wgetenv$fin$0     00000001800521c4     LIBCMT:osfinfo.obj
 0001:000511c4       $unwind$_alloc_osfhnd$fin$1 00000001800521c4     LIBCMT:osfinfo.obj
 0001:000511c4       $unwind$_locterm$fin$0     00000001800521c4     LIBCMT:osfinfo.obj
 0001:000511c4       $unwind$getc$fin$0         00000001800521c4     LIBCMT:osfinfo.obj
 0001:000511c4       $unwind$fgets$fin$0        00000001800521c4     LIBCMT:osfinfo.obj
 0001:000511c4       $unwind$_CRT_INIT$fin$0    00000001800521c4     LIBCMT:osfinfo.obj
 0001:000511c4       $unwind$_freefls$fin$0     00000001800521c4     LIBCMT:osfinfo.obj
 0001:000511c4       $unwind$__updatetmbcinfo$fin$0 00000001800521c4     LIBCMT:osfinfo.obj
 0001:000511c4       $unwind$_IsNonwritableInCurrentImage$filt$0 00000001800521c4     LIBCMT:osfinfo.obj
 0001:000511c4       $unwind$clearerr_s$fin$0   00000001800521c4     LIBCMT:osfinfo.obj
 0001:000511c4       $unwind$_fcloseall$fin$0   00000001800521c4     LIBCMT:osfinfo.obj
 0001:000511c4       $unwind$fclose$fin$0       00000001800521c4     LIBCMT:osfinfo.obj
 0001:000511c4       $unwind$fflush$fin$0       00000001800521c4     LIBCMT:osfinfo.obj
 0001:000511c4       $unwind$flsall$fin$0       00000001800521c4     LIBCMT:osfinfo.obj
 0001:000511c4       $unwind$flsall$fin$1       00000001800521c4     LIBCMT:osfinfo.obj
 0001:000511c4       $unwind$fprintf$fin$0      00000001800521c4     LIBCMT:osfinfo.obj
 0001:000511c4       $unwind$_onexit$fin$0      00000001800521c4     LIBCMT:osfinfo.obj
 0001:000511c4       $unwind$vfscanf$fin$0      00000001800521c4     LIBCMT:osfinfo.obj
 0001:000511c4       $unwind$fseek$fin$0        00000001800521c4     LIBCMT:osfinfo.obj
 0001:000511c4       $unwind$ftell$fin$0        00000001800521c4     LIBCMT:osfinfo.obj
 0001:000511c4       $unwind$fwrite$fin$0       00000001800521c4     LIBCMT:osfinfo.obj
 0001:000511c4       $unwind$_commit$fin$0      00000001800521c4     LIBCMT:osfinfo.obj
 0001:000511c4       $unwind$_pclose$fin$0      00000001800521c4     LIBCMT:osfinfo.obj
 0001:000511c4       $unwind$_ioinit$fin$0      00000001800521c4     LIBCMT:osfinfo.obj
 0001:000511c4       $unwind$rewind$fin$0       00000001800521c4     LIBCMT:osfinfo.obj
 0001:000511c4       $unwind$_alloc_osfhnd$fin$0 00000001800521c4     LIBCMT:osfinfo.obj
 0001:000511c4       $unwind$_rmtmp$fin$0       00000001800521c4     LIBCMT:osfinfo.obj
 0001:000511c4       $unwind$_rmtmp$fin$1       00000001800521c4     LIBCMT:osfinfo.obj
 0001:000511c4       $unwind$setvbuf$fin$0      00000001800521c4     LIBCMT:osfinfo.obj
 0001:000511c4       $unwind$_getstream$fin$0   00000001800521c4     LIBCMT:osfinfo.obj
 0001:000511c4       $unwind$_close$fin$0       00000001800521c4     LIBCMT:osfinfo.obj
 0001:000511c4       $unwind$_lseek$fin$0       00000001800521c4     LIBCMT:osfinfo.obj
 0001:000511c4       $unwind$_control87$filt$0  00000001800521c4     LIBCMT:osfinfo.obj
 0001:000511c4       $unwind$__updatetlocinfo$fin$0 00000001800521c4     LIBCMT:osfinfo.obj
 0001:000511c4       $unwind$ungetc$fin$0       00000001800521c4     LIBCMT:osfinfo.obj
 0001:000511c4       $unwind$_write$fin$0       00000001800521c4     LIBCMT:osfinfo.obj
 0001:000511c4       $unwind$_wfdopen$fin$0     00000001800521c4     LIBCMT:osfinfo.obj
 0001:000511c4       $unwind$_wfsopen$fin$0     00000001800521c4     LIBCMT:osfinfo.obj
 0001:000511c4       $unwind$_lseeki64$fin$0    00000001800521c4     LIBCMT:osfinfo.obj
 0001:000511c4       $unwind$_wfreopen_helper$fin$0 00000001800521c4     LIBCMT:osfinfo.obj
 0001:000511c4       $unwind$_ctrlfp$filt$0     00000001800521c4     LIBCMT:osfinfo.obj
 0001:000511c4       $unwind$_freefls$fin$1     00000001800521c4     LIBCMT:osfinfo.obj
 0001:000511c4       $unwind$_read$fin$0        00000001800521c4     LIBCMT:osfinfo.obj
 0001:000511c4       $unwind$_initptd$fin$1     00000001800521c4     LIBCMT:osfinfo.obj
 0001:000511cc       $unwind$_free_osfhnd       00000001800521cc     LIBCMT:osfinfo.obj
 0001:000511cc       $unwind$_stbuf             00000001800521cc     LIBCMT:osfinfo.obj
 0001:000511dc       $unwind$_set_osfhnd        00000001800521dc     LIBCMT:osfinfo.obj
 0001:000511f0       $unwind$__lock_fhandle     00000001800521f0     LIBCMT:osfinfo.obj
 0001:0005121c       $unwind$_wsopen_helper     000000018005221c     LIBCMT:wopen.obj
 0001:00051240       $unwind$_wsopen_nolock     0000000180052240     LIBCMT:wopen.obj
 0001:0005125c       $unwind$push_utf8_string   000000018005225c     LIBCMT:wopen.obj
 0001:0005125c       $unwind$strtoul            000000018005225c     LIBCMT:wopen.obj
 0001:0005125c       $unwind$check_utf8_string  000000018005225c     LIBCMT:wopen.obj
 0001:0005125c       $unwind$fread              000000018005225c     LIBCMT:wopen.obj
 0001:0005125c       $unwind$_invalid_parameter_noinfo 000000018005225c     LIBCMT:wopen.obj
 0001:0005125c       $unwind$OpenRegKey         000000018005225c     LIBCMT:wopen.obj
 0001:0005125c       $unwind$_ultoa_s           000000018005225c     LIBCMT:wopen.obj
 0001:0005125c       $unwind$wctomb_s           000000018005225c     LIBCMT:wopen.obj
 0001:0005125c       $unwind$_wsopen_s          000000018005225c     LIBCMT:wopen.obj
 0001:0005125c       $unwind$_sopen_s           000000018005225c     LIBCMT:wopen.obj
 0001:0005125c       $unwind$_log10_special     000000018005225c     LIBCMT:wopen.obj
 0001:0005125c       $unwind$PushAttrString     000000018005225c     LIBCMT:wopen.obj
 0001:0005125c       $unwind$_cfltcvt_l         000000018005225c     LIBCMT:wopen.obj
 0001:0005125c       $unwind$_wfreopen          000000018005225c     LIBCMT:wopen.obj
 0001:00051264       $unwind$__createFile       0000000180052264     LIBCMT:wopen.obj
 0001:0005127c       $unwind$__free_lc_time     000000018005227c     LIBCMT:initmon.obj
 0001:0005127c       $unwind$__free_lconv_mon   000000018005227c     LIBCMT:initmon.obj
 0001:00051284       $unwind$__crtLCMapStringA  0000000180052284     LIBCMT:a_map.obj
 0001:00051294       $unwind$?__crtLCMapStringA_stat@@YAHPEAUlocaleinfo_struct@@PEB_WKPEBDHPEADHHH@Z 0000000180052294     LIBCMT:a_map.obj
 0001:000512bc       $unwind$__crtGetStringTypeA 00000001800522bc     LIBCMT:a_str.obj
 0001:000512cc       $unwind$?__crtGetStringTypeA_stat@@YAHPEAUlocaleinfo_struct@@KPEBDHPEAGHH@Z 00000001800522cc     LIBCMT:a_str.obj
 0001:000512f4       $unwind$_raise_exc_ex      00000001800522f4     LIBCMT:fpexcept.obj
 0001:00051308       $unwind$_ctrlfp            0000000180052308     LIBCMT:fpctrl.obj
 0001:00051330       $unwind$_fputwc_nolock     0000000180052330     LIBCMT:fputwc.obj
 0001:0005134c       $unwind$_wcsnicoll_l       000000018005234c     LIBCMT:mbtowc.obj
 0001:0005134c       $unwind$_mbtowc_l          000000018005234c     LIBCMT:mbtowc.obj
 0001:00051364       $unwind$_setmode_nolock    0000000180052364     LIBCMT:setmode.obj
 0001:00051370       $unwind$__crtCompareStringW 0000000180052370     LIBCMT:w_cmp.obj
 0001:00051370       $unwind$_wsetenvp          0000000180052370     LIBCMT:w_cmp.obj
 0001:00051388       $unwind$__crtwsetenv       0000000180052388     LIBCMT:wsetenv.obj
 0001:000513a0       $unwind$_ld12tof           00000001800523a0     LIBCMT:intrncvt.obj
 0001:000513a0       $unwind$_ld12tod           00000001800523a0     LIBCMT:intrncvt.obj
 0001:000513c4       $unwind$__strgtold12_l     00000001800523c4     LIBCMT:strgtold.obj
 0001:000513e8       $unwind$$I10_OUTPUT        00000001800523e8     LIBCMT:x10fout.obj
 0001:0005140c       $unwind$_chsize_nolock     000000018005240c     LIBCMT:chsize.obj
 0001:00051428       $unwind$__mtold12          0000000180052428     LIBCMT:mantold.obj
 0001:00051444       $unwind$?_strupr_s_l_stat@@YAHPEAD_KPEAUlocaleinfo_struct@@@Z 0000000180052444     LIBCMT:strupr.obj
 0001:00051eba       .idata$6                   0000000180052eba     kernel32:KERNEL32.dll
 0001:00051ed4       .idata$6                   0000000180052ed4     user32:USER32.dll
 0001:00051f66       .idata$6                   0000000180052f66     advapi32:ADVAPI32.dll
 0001:00051f98       .idata$6                   0000000180052f98     shell32:SHELL32.dll
 0001:0005254c       .idata$6                   000000018005354c     lua5.1:lua5.1.dll
 0001:0005259a       .idata$6                   000000018005359a     rpcrt4:RPCRT4.dll
 0001:00052a80       .edata                     0000000180053a80     luafar3.exp
 0001:00052aa8       rgpv                       0000000180053aa8     luafar3.exp
 0001:00052b4c       rgszName                   0000000180053b4c     luafar3.exp
 0001:00052bf0       rgwOrd                     0000000180053bf0     luafar3.exp
 0001:00052c42       szName                     0000000180053c42     luafar3.exp
 0001:00052c4e       $N00001                    0000000180053c4e     luafar3.exp
 0001:00052c59       $N00002                    0000000180053c59     luafar3.exp
 0001:00052c69       $N00003                    0000000180053c69     luafar3.exp
 0001:00052c77       $N00004                    0000000180053c77     luafar3.exp
 0001:00052c82       $N00005                    0000000180053c82     luafar3.exp
 0001:00052c8f       $N00006                    0000000180053c8f     luafar3.exp
 0001:00052c9e       $N00007                    0000000180053c9e     luafar3.exp
 0001:00052ca9       $N00008                    0000000180053ca9     luafar3.exp
 0001:00052cb3       $N00009                    0000000180053cb3     luafar3.exp
 0001:00052cbe       $N00010                    0000000180053cbe     luafar3.exp
 0001:00052cd0       $N00011                    0000000180053cd0     luafar3.exp
 0001:00052ce0       $N00012                    0000000180053ce0     luafar3.exp
 0001:00052cf1       $N00013                    0000000180053cf1     luafar3.exp
 0001:00052cfd       $N00014                    0000000180053cfd     luafar3.exp
 0001:00052d0c       $N00015                    0000000180053d0c     luafar3.exp
 0001:00052d1d       $N00016                    0000000180053d1d     luafar3.exp
 0001:00052d31       $N00017                    0000000180053d31     luafar3.exp
 0001:00052d42       $N00018                    0000000180053d42     luafar3.exp
 0001:00052d4a       $N00019                    0000000180053d4a     luafar3.exp
 0001:00052d5b       $N00020                    0000000180053d5b     luafar3.exp
 0001:00052d6c       $N00021                    0000000180053d6c     luafar3.exp
 0001:00052d78       $N00022                    0000000180053d78     luafar3.exp
 0001:00052d84       $N00023                    0000000180053d84     luafar3.exp
 0001:00052d8f       $N00024                    0000000180053d8f     luafar3.exp
 0001:00052da0       $N00025                    0000000180053da0     luafar3.exp
 0001:00052db1       $N00026                    0000000180053db1     luafar3.exp
 0001:00052dbc       $N00027                    0000000180053dbc     luafar3.exp
 0001:00052dc4       $N00028                    0000000180053dc4     luafar3.exp
 0001:00052ddb       $N00029                    0000000180053ddb     luafar3.exp
 0001:00052df1       $N00030                    0000000180053df1     luafar3.exp
 0001:00052e07       $N00031                    0000000180053e07     luafar3.exp
 0001:00052e1d       $N00032                    0000000180053e1d     luafar3.exp
 0001:00052e2f       $N00033                    0000000180053e2f     luafar3.exp
 0001:00052e42       $N00034                    0000000180053e42     luafar3.exp
 0001:00052e57       $N00035                    0000000180053e57     luafar3.exp
 0001:00052e6c       $N00036                    0000000180053e6c     luafar3.exp
 0001:00052e83       $N00037                    0000000180053e83     luafar3.exp
 0001:00052e99       $N00038                    0000000180053e99     luafar3.exp
 0001:00052ea5       $N00039                    0000000180053ea5     luafar3.exp
 0001:00052eb9       $N00040                    0000000180053eb9     luafar3.exp
 0001:00052ec9       $N00041                    0000000180053ec9     luafar3.exp
 0002:00001500       ?names@?4??LF_InitLuaState1@@9@9 0000000180055500     service.obj
 0002:00001d20       pageMap                    0000000180055d20     slnudata.obj
 0002:00003420       groupMap                   0000000180057420     slnudata.obj
 0002:000051d0       groups                     00000001800591d0     slnudata.obj
 0002:000053d0       pageMap                    00000001800593d0     slnunico.obj
 0002:00006ad0       groupMap                   000000018005aad0     slnunico.obj
 0002:00008880       groups                     000000018005c880     slnunico.obj
 0002:00008a90       errtable                   000000018005ca90     LIBCMT:dosmap.obj
 0002:00008bf8       ErrnoNoMem                 000000018005cbf8     LIBCMT:dosmap.obj
 0002:00008bfc       DoserrorNoMem              000000018005cbfc     LIBCMT:dosmap.obj
 0002:00009030       _locktable                 000000018005d030     LIBCMT:mlock.obj
 0002:000093d0       __rgctypeflag              000000018005d3d0     LIBCMT:mbctype.obj
 0002:000093e0       __rgcode_page_info         000000018005d3e0     LIBCMT:mbctype.obj
 0002:00009d50       _ctype_loc_style           000000018005dd50     LIBCMT:wsetloca.obj
 0002:00009d78       ?isPackaged@?1??__crtIsPackagedApp@@9@9 000000018005dd78     LIBCMT:winapisupp.obj
 0002:00009e40       ?_names@?1??_get_fname@@9@9 000000018005de40     LIBCMT:fpexcept.obj
 0002:0000a010       ?dazSupported@?1??_ctrlfp@@9@9 000000018005e010     LIBCMT:fpctrl.obj
 0002:0000a018       DoubleFormat               000000018005e018     LIBCMT:intrncvt.obj
 0002:0000a030       FloatFormat                000000018005e030     LIBCMT:intrncvt.obj
 0002:0000a360       tmpnam_buf                 000000018005e360     LIBCMT:tmpfile.obj
 0002:0000a370       tmpfile_buf                000000018005e370     LIBCMT:tmpfile.obj
 0002:0000a480       tmpnam_s_buf               000000018005e480     LIBCMT:tmpfile.obj
 0002:0000a4a8       __proc_attached            000000018005e4a8     LIBCMT:dllcrt0.obj
 0002:0000a530       ?outmsg@?8??_NMSG_WRITE@@9@9 000000018005e530     LIBCMT:crt0msg.obj
 0002:0000ab70       lclcritsects               000000018005eb70     LIBCMT:mlock.obj
 0002:0000afbc       fSystemSet                 000000018005efbc     LIBCMT:mbctype.obj
 0002:0000afe0       GS_ExceptionRecord         000000018005efe0     LIBCMT:gs_report.obj
 0002:0000b080       GS_ContextRecord           000000018005f080     LIBCMT:gs_report.obj
 0002:0000b550       DebuggerWasPresent         000000018005f550     LIBCMT:gs_report.obj
 0002:0000b560       ?_pgmname@?1??_setargv@@9@9 000000018005f560     LIBCMT:stdargv.obj
 0002:0000b668       __enable_percent_n         000000018005f668     LIBCMT:printf.obj
 0002:0000b688       g_pfnRtlGenRandom          000000018005f688     LIBCMT:rand_s.obj
 0002:0000b690       ctrlc_action               000000018005f690     LIBCMT:winsig.obj
 0002:0000b698       ctrlbreak_action           000000018005f698     LIBCMT:winsig.obj
 0002:0000b6a0       abort_action               000000018005f6a0     LIBCMT:winsig.obj
 0002:0000b6a8       term_action                000000018005f6a8     LIBCMT:winsig.obj
 0002:0000b6b0       ConsoleCtrlHandler_Installed 000000018005f6b0     LIBCMT:winsig.obj
 0002:0000b6b8       ?pfnMessageBox@?1??__crtMessageBoxW@@9@9 000000018005f6b8     LIBCMT:crtmboxw.obj
 0002:0000b6c0       ?pfnGetActiveWindow@?1??__crtMessageBoxW@@9@9 000000018005f6c0     LIBCMT:crtmboxw.obj
 0002:0000b6c8       ?pfnGetLastActivePopup@?1??__crtMessageBoxW@@9@9 000000018005f6c8     LIBCMT:crtmboxw.obj
 0002:0000b6d0       ?pfnGetProcessWindowStation@?1??__crtMessageBoxW@@9@9 000000018005f6d0     LIBCMT:crtmboxw.obj
 0002:0000b6d8       ?pfnGetUserObjectInformation@?1??__crtMessageBoxW@@9@9 000000018005f6d8     LIBCMT:crtmboxw.obj
 0002:0000b6e8       __crtCallProc              000000018005f6e8     LIBCMT:winapinls.obj
 0003:0000000c       $pdata$band                000000018006100c     bit64.obj
 0003:00000018       $pdata$bor                 0000000180061018     bit64.obj
 0003:00000024       $pdata$bxor                0000000180061024     bit64.obj
 0003:00000030       $pdata$bnot                0000000180061030     bit64.obj
 0003:0000003c       $pdata$0$bnot              000000018006103c     bit64.obj
 0003:00000048       $pdata$1$bnot              0000000180061048     bit64.obj
 0003:00000054       $pdata$lshift              0000000180061054     bit64.obj
 0003:00000060       $pdata$rshift              0000000180061060     bit64.obj
 0003:0000006c       $pdata$arshift             000000018006106c     bit64.obj
 0003:00000078       $pdata$f_new               0000000180061078     bit64.obj
 0003:00000084       $pdata$0$f_new             0000000180061084     bit64.obj
 0003:00000090       $pdata$1$f_new             0000000180061090     bit64.obj
 0003:0000009c       $pdata$f_tostring          000000018006109c     bit64.obj
 0003:000000a8       $pdata$0$f_tostring        00000001800610a8     bit64.obj
 0003:000000b4       $pdata$1$f_tostring        00000001800610b4     bit64.obj
 0003:000000c0       $pdata$f_type              00000001800610c0     bit64.obj
 0003:000000cc       $pdata$0$f_type            00000001800610cc     bit64.obj
 0003:000000d8       $pdata$1$f_type            00000001800610d8     bit64.obj
 0003:000000e4       $pdata$f_add               00000001800610e4     bit64.obj
 0003:000000f0       $pdata$f_sub               00000001800610f0     bit64.obj
 0003:000000fc       $pdata$f_mul               00000001800610fc     bit64.obj
 0003:00000108       $pdata$f_div               0000000180061108     bit64.obj
 0003:00000114       $pdata$f_mod               0000000180061114     bit64.obj
 0003:00000120       $pdata$f_unm               0000000180061120     bit64.obj
 0003:0000012c       $pdata$0$f_unm             000000018006112c     bit64.obj
 0003:00000138       $pdata$1$f_unm             0000000180061138     bit64.obj
 0003:00000144       $pdata$f_eq                0000000180061144     bit64.obj
 0003:00000150       $pdata$f_lt                0000000180061150     bit64.obj
 0003:0000015c       $pdata$f_le                000000018006115c     bit64.obj
 0003:00000168       $pdata$bit64_getvalue      0000000180061168     bit64.obj
 0003:00000174       $pdata$0$bit64_getvalue    0000000180061174     bit64.obj
 0003:00000180       $pdata$1$bit64_getvalue    0000000180061180     bit64.obj
 0003:0000018c       $pdata$bit64_push          000000018006118c     bit64.obj
 0003:00000198       $pdata$bit64_pushuserdata  0000000180061198     bit64.obj
 0003:000001a4       $pdata$luaopen_bit64       00000001800611a4     bit64.obj
 0003:000001b0       $pdata$AddBufToCollector   00000001800611b0     exported.obj
 0003:000001bc       $pdata$CheckReloadDefaultScript 00000001800611bc     exported.obj
 0003:000001c8       $pdata$CreateStringsArray  00000001800611c8     exported.obj
 0003:000001d4       $pdata$0$CreateStringsArray 00000001800611d4     exported.obj
 0003:000001e0       $pdata$1$CreateStringsArray 00000001800611e0     exported.obj
 0003:000001ec       $pdata$2$CreateStringsArray 00000001800611ec     exported.obj
 0003:000001f8       $pdata$3$CreateStringsArray 00000001800611f8     exported.obj
 0003:00000204       $pdata$4$CreateStringsArray 0000000180061204     exported.obj
 0003:00000210       $pdata$5$CreateStringsArray 0000000180061210     exported.obj
 0003:0000021c       $pdata$FarPanelItemFreeCallback 000000018006121c     exported.obj
 0003:00000228       $pdata$FillFarMacroCall    0000000180061228     exported.obj
 0003:00000234       $pdata$3$FillFarMacroCall  0000000180061234     exported.obj
 0003:00000240       $pdata$4$FillFarMacroCall  0000000180061240     exported.obj
 0003:0000024c       $pdata$FillFarMacroCall_Callback 000000018006124c     exported.obj
 0003:00000258       $pdata$0$FillFarMacroCall_Callback 0000000180061258     exported.obj
 0003:00000264       $pdata$1$FillFarMacroCall_Callback 0000000180061264     exported.obj
 0003:00000270       $pdata$FillFindData        0000000180061270     exported.obj
 0003:0000027c       $pdata$1$FillFindData      000000018006127c     exported.obj
 0003:00000288       $pdata$2$FillFindData      0000000180061288     exported.obj
 0003:00000294       $pdata$FillPluginPanelItem 0000000180061294     exported.obj
 0003:000002a0       $pdata$GetExportFunction   00000001800612a0     exported.obj
 0003:000002ac       $pdata$LF_Analyse          00000001800612ac     exported.obj
 0003:000002b8       $pdata$LF_ClosePanel       00000001800612b8     exported.obj
 0003:000002c4       $pdata$0$LF_ClosePanel     00000001800612c4     exported.obj
 0003:000002d0       $pdata$1$LF_ClosePanel     00000001800612d0     exported.obj
 0003:000002dc       $pdata$2$LF_ClosePanel     00000001800612dc     exported.obj
 0003:000002e8       $pdata$3$LF_ClosePanel     00000001800612e8     exported.obj
 0003:000002f4       $pdata$LF_Compare          00000001800612f4     exported.obj
 0003:00000300       $pdata$0$LF_Compare        0000000180061300     exported.obj
 0003:0000030c       $pdata$2$LF_Compare        000000018006130c     exported.obj
 0003:00000318       $pdata$3$LF_Compare        0000000180061318     exported.obj
 0003:00000324       $pdata$LF_Configure        0000000180061324     exported.obj
 0003:00000330       $pdata$LF_DeleteFiles      0000000180061330     exported.obj
 0003:0000033c       $pdata$0$LF_DeleteFiles    000000018006133c     exported.obj
 0003:00000348       $pdata$2$LF_DeleteFiles    0000000180061348     exported.obj
 0003:00000354       $pdata$3$LF_DeleteFiles    0000000180061354     exported.obj
 0003:00000360       $pdata$LF_ExitFAR          0000000180061360     exported.obj
 0003:0000036c       $pdata$LF_FreeFindData     000000018006136c     exported.obj
 0003:00000378       $pdata$LF_GetCustomData    0000000180061378     exported.obj
 0003:00000384       $pdata$LF_GetFiles         0000000180061384     exported.obj
 0003:00000390       $pdata$0$LF_GetFiles       0000000180061390     exported.obj
 0003:0000039c       $pdata$2$LF_GetFiles       000000018006139c     exported.obj
 0003:000003a8       $pdata$3$LF_GetFiles       00000001800613a8     exported.obj
 0003:000003b4       $pdata$LF_GetFindData      00000001800613b4     exported.obj
 0003:000003c0       $pdata$0$LF_GetFindData    00000001800613c0     exported.obj
 0003:000003cc       $pdata$1$LF_GetFindData    00000001800613cc     exported.obj
 0003:000003d8       $pdata$LF_GetGlobalInfo    00000001800613d8     exported.obj
 0003:000003e4       $pdata$2$LF_GetGlobalInfo  00000001800613e4     exported.obj
 0003:000003f0       $pdata$3$LF_GetGlobalInfo  00000001800613f0     exported.obj
 0003:000003fc       $pdata$4$LF_GetGlobalInfo  00000001800613fc     exported.obj
 0003:00000408       $pdata$LF_GetOpenPanelInfo 0000000180061408     exported.obj
 0003:00000414       $pdata$1$LF_GetOpenPanelInfo 0000000180061414     exported.obj
 0003:00000420       $pdata$3$LF_GetOpenPanelInfo 0000000180061420     exported.obj
 0003:0000042c       $pdata$5$LF_GetOpenPanelInfo 000000018006142c     exported.obj
 0003:00000438       $pdata$7$LF_GetOpenPanelInfo 0000000180061438     exported.obj
 0003:00000444       $pdata$9$LF_GetOpenPanelInfo 0000000180061444     exported.obj
 0003:00000450       $pdata$11$LF_GetOpenPanelInfo 0000000180061450     exported.obj
 0003:0000045c       $pdata$13$LF_GetOpenPanelInfo 000000018006145c     exported.obj
 0003:00000468       $pdata$14$LF_GetOpenPanelInfo 0000000180061468     exported.obj
 0003:00000474       $pdata$15$LF_GetOpenPanelInfo 0000000180061474     exported.obj
 0003:00000480       $pdata$16$LF_GetOpenPanelInfo 0000000180061480     exported.obj
 0003:0000048c       $pdata$LF_GetPluginInfo    000000018006148c     exported.obj
 0003:00000498       $pdata$0$LF_GetPluginInfo  0000000180061498     exported.obj
 0003:000004a4       $pdata$1$LF_GetPluginInfo  00000001800614a4     exported.obj
 0003:000004b0       $pdata$LF_MakeDirectory    00000001800614b0     exported.obj
 0003:000004bc       $pdata$0$LF_MakeDirectory  00000001800614bc     exported.obj
 0003:000004c8       $pdata$2$LF_MakeDirectory  00000001800614c8     exported.obj
 0003:000004d4       $pdata$3$LF_MakeDirectory  00000001800614d4     exported.obj
 0003:000004e0       $pdata$LF_Open             00000001800614e0     exported.obj
 0003:000004ec       $pdata$1$LF_Open           00000001800614ec     exported.obj
 0003:000004f8       $pdata$3$LF_Open           00000001800614f8     exported.obj
 0003:00000504       $pdata$4$LF_Open           0000000180061504     exported.obj
 0003:00000510       $pdata$LF_ProcessConsoleInput 0000000180061510     exported.obj
 0003:0000051c       $pdata$0$LF_ProcessConsoleInput 000000018006151c     exported.obj
 0003:00000528       $pdata$2$LF_ProcessConsoleInput 0000000180061528     exported.obj
 0003:00000534       $pdata$3$LF_ProcessConsoleInput 0000000180061534     exported.obj
 0003:00000540       $pdata$LF_ProcessDialogEvent 0000000180061540     exported.obj
 0003:0000054c       $pdata$LF_ProcessEditorEvent 000000018006154c     exported.obj
 0003:00000558       $pdata$LF_ProcessEditorInput 0000000180061558     exported.obj
 0003:00000564       $pdata$LF_ProcessHostFile  0000000180061564     exported.obj
 0003:00000570       $pdata$LF_ProcessPanelEvent 0000000180061570     exported.obj
 0003:0000057c       $pdata$0$LF_ProcessPanelEvent 000000018006157c     exported.obj
 0003:00000588       $pdata$2$LF_ProcessPanelEvent 0000000180061588     exported.obj
 0003:00000594       $pdata$3$LF_ProcessPanelEvent 0000000180061594     exported.obj
 0003:000005a0       $pdata$LF_ProcessPanelInput 00000001800615a0     exported.obj
 0003:000005ac       $pdata$LF_ProcessSynchroEvent 00000001800615ac     exported.obj
 0003:000005b8       $pdata$3$LF_ProcessSynchroEvent 00000001800615b8     exported.obj
 0003:000005c4       $pdata$4$LF_ProcessSynchroEvent 00000001800615c4     exported.obj
 0003:000005d0       $pdata$LF_ProcessViewerEvent 00000001800615d0     exported.obj
 0003:000005dc       $pdata$LF_PutFiles         00000001800615dc     exported.obj
 0003:000005e8       $pdata$LF_SetDirectory     00000001800615e8     exported.obj
 0003:000005f4       $pdata$LF_SetFindList      00000001800615f4     exported.obj
 0003:00000600       $pdata$PackMacroValues     0000000180061600     exported.obj
 0003:0000060c       $pdata$PushAnalyseInfo     000000018006160c     exported.obj
 0003:00000618       $pdata$PushFarMacroValue   0000000180061618     exported.obj
 0003:00000624       $pdata$RegisterObject      0000000180061624     exported.obj
 0003:00000630       $pdata$ReplacePluginInfoCollector 0000000180061630     exported.obj
 0003:0000063c       $pdata$UpdateFileSelection 000000018006163c     exported.obj
 0003:00000648       $pdata$0$UpdateFileSelection 0000000180061648     exported.obj
 0003:00000654       $pdata$1$UpdateFileSelection 0000000180061654     exported.obj
 0003:00000660       $pdata$_AddStringToCollector 0000000180061660     exported.obj
 0003:0000066c       $pdata$0$_AddStringToCollector 000000018006166c     exported.obj
 0003:00000678       $pdata$1$_AddStringToCollector 0000000180061678     exported.obj
 0003:00000684       $pdata$docall              0000000180061684     exported.obj
 0003:00000690       $pdata$getPluginMenuItems  0000000180061690     exported.obj
 0003:0000069c       $pdata$pcall_msg           000000018006169c     exported.obj
 0003:000006a8       $pdata$traceback           00000001800616a8     exported.obj
 0003:000006b4       $pdata$push_flags_table    00000001800616b4     flags.obj
 0003:000006c0       $pdata$SetFarColors        00000001800616c0     keysandcolors.obj
 0003:000006cc       $pdata$LF_Gsub             00000001800616cc     lflua.obj
 0003:000006d8       $pdata$LF_LoadFile         00000001800616d8     lflua.obj
 0003:000006e4       $pdata$0$LF_LoadFile       00000001800616e4     lflua.obj
 0003:000006f0       $pdata$1$LF_LoadFile       00000001800616f0     lflua.obj
 0003:000006fc       $pdata$2$LF_LoadFile       00000001800616fc     lflua.obj
 0003:00000708       $pdata$3$LF_LoadFile       0000000180061708     lflua.obj
 0003:00000714       $pdata$errfile             0000000180061714     lflua.obj
 0003:00000720       $pdata$getF                0000000180061720     lflua.obj
 0003:0000072c       $pdata$luaB_dofileW        000000018006172c     lflua.obj
 0003:00000738       $pdata$luaB_loadfileW      0000000180061738     lflua.obj
 0003:00000744       $pdata$method_gc           0000000180061744     lregex.obj
 0003:00000750       $pdata$method_tostring     0000000180061750     lregex.obj
 0003:0000075c       $pdata$method_bracketscount 000000018006175c     lregex.obj
 0003:00000768       $pdata$func_New            0000000180061768     lregex.obj
 0003:00000774       $pdata$method_match        0000000180061774     lregex.obj
 0003:00000780       $pdata$func_match          0000000180061780     lregex.obj
 0003:0000078c       $pdata$method_matchW       000000018006178c     lregex.obj
 0003:00000798       $pdata$_Gmatch             0000000180061798     lregex.obj
 0003:000007a4       $pdata$_regex_gmatch_closure 00000001800617a4     lregex.obj
 0003:000007b0       $pdata$1$_regex_gmatch_closure 00000001800617b0     lregex.obj
 0003:000007bc       $pdata$2$_regex_gmatch_closure 00000001800617bc     lregex.obj
 0003:000007c8       $pdata$4$_regex_gmatch_closure 00000001800617c8     lregex.obj
 0003:000007d4       $pdata$5$_regex_gmatch_closure 00000001800617d4     lregex.obj
 0003:000007e0       $pdata$check_regex_pattern 00000001800617e0     lregex.obj
 0003:000007ec       $pdata$1$check_regex_pattern 00000001800617ec     lregex.obj
 0003:000007f8       $pdata$2$check_regex_pattern 00000001800617f8     lregex.obj
 0003:00000804       $pdata$luaopen_regex       0000000180061804     lregex.obj
 0003:00000810       $pdata$push_far_regex      0000000180061810     lregex.obj
 0003:0000081c       $pdata$rx_find_match       000000018006181c     lregex.obj
 0003:00000828       $pdata$rx_gsub             0000000180061828     lregex.obj
 0003:00000834       $pdata$FL_PushParams       0000000180061834     luamacro.obj
 0003:00000840       $pdata$0$FL_PushParams     0000000180061840     luamacro.obj
 0003:0000084c       $pdata$1$FL_PushParams     000000018006184c     luamacro.obj
 0003:00000858       $pdata$2$FL_PushParams     0000000180061858     luamacro.obj
 0003:00000864       $pdata$3$FL_PushParams     0000000180061864     luamacro.obj
 0003:00000870       $pdata$4$FL_PushParams     0000000180061870     luamacro.obj
 0003:0000087c       $pdata$5$FL_PushParams     000000018006187c     luamacro.obj
 0003:00000888       $pdata$InitMPR             0000000180061888     luamacro.obj
 0003:00000894       $pdata$Open_Luamacro       0000000180061894     luamacro.obj
 0003:000008a0       $pdata$0$Open_Luamacro     00000001800618a0     luamacro.obj
 0003:000008ac       $pdata$1$Open_Luamacro     00000001800618ac     luamacro.obj
 0003:000008b8       $pdata$far_MacroCallFar    00000001800618b8     luamacro.obj
 0003:000008c4       $pdata$1$far_MacroCallFar  00000001800618c4     luamacro.obj
 0003:000008d0       $pdata$4$far_MacroCallFar  00000001800618d0     luamacro.obj
 0003:000008dc       $pdata$5$far_MacroCallFar  00000001800618dc     luamacro.obj
 0003:000008e8       $pdata$6$far_MacroCallFar  00000001800618e8     luamacro.obj
 0003:000008f4       $pdata$far_MacroCallPlugin 00000001800618f4     luamacro.obj
 0003:00000900       $pdata$2$far_MacroCallPlugin 0000000180061900     luamacro.obj
 0003:0000090c       $pdata$3$far_MacroCallPlugin 000000018006190c     luamacro.obj
 0003:00000918       $pdata$4$far_MacroCallPlugin 0000000180061918     luamacro.obj
 0003:00000924       $pdata$5$far_MacroCallPlugin 0000000180061924     luamacro.obj
 0003:00000930       $pdata$6$far_MacroCallPlugin 0000000180061930     luamacro.obj
 0003:0000093c       $pdata$7$far_MacroCallPlugin 000000018006193c     luamacro.obj
 0003:00000948       $pdata$8$far_MacroCallPlugin 0000000180061948     luamacro.obj
 0003:00000954       $pdata$uc_tostring         0000000180061954     lusercontrol.obj
 0003:00000960       $pdata$uc_len              0000000180061960     lusercontrol.obj
 0003:0000096c       $pdata$uc_index            000000018006196c     lusercontrol.obj
 0003:00000978       $pdata$uc_newindex         0000000180061978     lusercontrol.obj
 0003:00000984       $pdata$uc_New              0000000180061984     lusercontrol.obj
 0003:00000990       $pdata$luaopen_usercontrol 0000000180061990     lusercontrol.obj
 0003:0000099c       $pdata$push_far_usercontrol 000000018006199c     lusercontrol.obj
 0003:000009a8       $pdata$CreateRegKey        00000001800619a8     reg.obj
 0003:000009b4       $pdata$OpenRegKey          00000001800619b4     reg.obj
 0003:000009c0       $pdata$SetRegKeyArr        00000001800619c0     reg.obj
 0003:000009cc       $pdata$SetRegKeyDword      00000001800619cc     reg.obj
 0003:000009d8       $pdata$SetRegKeyStr        00000001800619d8     reg.obj
 0003:000009e4       $pdata$far_GetPluginInformation 00000001800619e4     service.obj
 0003:000009f0       $pdata$0$far_GetPluginInformation 00000001800619f0     service.obj
 0003:000009fc       $pdata$1$far_GetPluginInformation 00000001800619fc     service.obj
 0003:00000a08       $pdata$far_GetPlugins      0000000180061a08     service.obj
 0003:00000a14       $pdata$1$far_GetPlugins    0000000180061a14     service.obj
 0003:00000a20       $pdata$2$far_GetPlugins    0000000180061a20     service.obj
 0003:00000a2c       $pdata$3$far_GetPlugins    0000000180061a2c     service.obj
 0003:00000a38       $pdata$4$far_GetPlugins    0000000180061a38     service.obj
 0003:00000a44       $pdata$far_DialogInit      0000000180061a44     service.obj
 0003:00000a50       $pdata$0$far_DialogInit    0000000180061a50     service.obj
 0003:00000a5c       $pdata$1$far_DialogInit    0000000180061a5c     service.obj
 0003:00000a68       $pdata$far_IsPluginLoaded  0000000180061a68     service.obj
 0003:00000a74       $pdata$0$far_IsPluginLoaded 0000000180061a74     service.obj
 0003:00000a80       $pdata$1$far_IsPluginLoaded 0000000180061a80     service.obj
 0003:00000a8c       $pdata$far_XLat            0000000180061a8c     service.obj
 0003:00000a98       $pdata$far_FormatFileSize  0000000180061a98     service.obj
 0003:00000aa4       $pdata$far_DialogRun       0000000180061aa4     service.obj
 0003:00000ab0       $pdata$far_DialogFree      0000000180061ab0     service.obj
 0003:00000abc       $pdata$dialog_tostring     0000000180061abc     service.obj
 0003:00000ac8       $pdata$far_GetDlgItem      0000000180061ac8     service.obj
 0003:00000ad4       $pdata$far_Timer           0000000180061ad4     service.obj
 0003:00000ae0       $pdata$far_SetDlgItem      0000000180061ae0     service.obj
 0003:00000aec       $pdata$editor_Editor       0000000180061aec     service.obj
 0003:00000af8       $pdata$timer_Close         0000000180061af8     service.obj
 0003:00000b04       $pdata$viewer_Viewer       0000000180061b04     service.obj
 0003:00000b10       $pdata$timer_tostring      0000000180061b10     service.obj
 0003:00000b1c       $pdata$timer_index         0000000180061b1c     service.obj
 0003:00000b28       $pdata$viewer_GetFileName  0000000180061b28     service.obj
 0003:00000b34       $pdata$viewer_GetInfo      0000000180061b34     service.obj
 0003:00000b40       $pdata$1$viewer_GetInfo    0000000180061b40     service.obj
 0003:00000b4c       $pdata$2$viewer_GetInfo    0000000180061b4c     service.obj
 0003:00000b58       $pdata$3$viewer_GetInfo    0000000180061b58     service.obj
 0003:00000b64       $pdata$4$viewer_GetInfo    0000000180061b64     service.obj
 0003:00000b70       $pdata$far_Message         0000000180061b70     service.obj
 0003:00000b7c       $pdata$timer_newindex      0000000180061b7c     service.obj
 0003:00000b88       $pdata$viewer_Quit         0000000180061b88     service.obj
 0003:00000b94       $pdata$far_GetFileOwner    0000000180061b94     service.obj
 0003:00000ba0       $pdata$viewer_Redraw       0000000180061ba0     service.obj
 0003:00000bac       $pdata$viewer_Select       0000000180061bac     service.obj
 0003:00000bb8       $pdata$far_GetNumberOfLinks 0000000180061bb8     service.obj
 0003:00000bc4       $pdata$far_LuafarVersion   0000000180061bc4     service.obj
 0003:00000bd0       $pdata$viewer_SetPosition  0000000180061bd0     service.obj
 0003:00000bdc       $pdata$2$viewer_SetPosition 0000000180061bdc     service.obj
 0003:00000be8       $pdata$3$viewer_SetPosition 0000000180061be8     service.obj
 0003:00000bf4       $pdata$far_CreateSettings  0000000180061bf4     service.obj
 0003:00000c00       $pdata$panel_CheckPanelsExist 0000000180061c00     service.obj
 0003:00000c0c       $pdata$panel_ClosePanel    0000000180061c0c     service.obj
 0003:00000c18       $pdata$viewer_SetMode      0000000180061c18     service.obj
 0003:00000c24       $pdata$panel_GetPanelInfo  0000000180061c24     service.obj
 0003:00000c30       $pdata$far_ShowHelp        0000000180061c30     service.obj
 0003:00000c3c       $pdata$far_InputBox        0000000180061c3c     service.obj
 0003:00000c48       $pdata$Settings_set        0000000180061c48     service.obj
 0003:00000c54       $pdata$panel_GetPanelItem  0000000180061c54     service.obj
 0003:00000c60       $pdata$panel_GetSelectedPanelItem 0000000180061c60     service.obj
 0003:00000c6c       $pdata$far_GetMsg          0000000180061c6c     service.obj
 0003:00000c78       $pdata$Settings_get        0000000180061c78     service.obj
 0003:00000c84       $pdata$far_Text            0000000180061c84     service.obj
 0003:00000c90       $pdata$Settings_delete     0000000180061c90     service.obj
 0003:00000c9c       $pdata$Settings_createsubkey 0000000180061c9c     service.obj
 0003:00000ca8       $pdata$far_CopyToClipboard 0000000180061ca8     service.obj
 0003:00000cb4       $pdata$1$far_CopyToClipboard 0000000180061cb4     service.obj
 0003:00000cc0       $pdata$2$far_CopyToClipboard 0000000180061cc0     service.obj
 0003:00000ccc       $pdata$far_PasteFromClipboard 0000000180061ccc     service.obj
 0003:00000cd8       $pdata$panel_RedrawPanel   0000000180061cd8     service.obj
 0003:00000ce4       $pdata$far_PluginStartupInfo 0000000180061ce4     service.obj
 0003:00000cf0       $pdata$Settings_opensubkey 0000000180061cf0     service.obj
 0003:00000cfc       $pdata$Settings_enum       0000000180061cfc     service.obj
 0003:00000d08       $pdata$0$Settings_enum     0000000180061d08     service.obj
 0003:00000d14       $pdata$1$Settings_enum     0000000180061d14     service.obj
 0003:00000d20       $pdata$far_InputRecordToName 0000000180061d20     service.obj
 0003:00000d2c       $pdata$0$far_InputRecordToName 0000000180061d2c     service.obj
 0003:00000d38       $pdata$2$far_InputRecordToName 0000000180061d38     service.obj
 0003:00000d44       $pdata$3$far_InputRecordToName 0000000180061d44     service.obj
 0003:00000d50       $pdata$far_GetCurrentDirectory 0000000180061d50     service.obj
 0003:00000d5c       $pdata$editor_GetFileName  0000000180061d5c     service.obj
 0003:00000d68       $pdata$far_NameToInputRecord 0000000180061d68     service.obj
 0003:00000d74       $pdata$Settings_free       0000000180061d74     service.obj
 0003:00000d80       $pdata$editor_GetInfo      0000000180061d80     service.obj
 0003:00000d8c       $pdata$2$editor_GetInfo    0000000180061d8c     service.obj
 0003:00000d98       $pdata$3$editor_GetInfo    0000000180061d98     service.obj
 0003:00000da4       $pdata$4$editor_GetInfo    0000000180061da4     service.obj
 0003:00000db0       $pdata$5$editor_GetInfo    0000000180061db0     service.obj
 0003:00000dbc       $pdata$far_LStricmp        0000000180061dbc     service.obj
 0003:00000dc8       $pdata$far_FreeSettings    0000000180061dc8     service.obj
 0003:00000dd4       $pdata$panel_GetPanelDirectory 0000000180061dd4     service.obj
 0003:00000de0       $pdata$far_LStrnicmp       0000000180061de0     service.obj
 0003:00000dec       $pdata$Settings_tostring   0000000180061dec     service.obj
 0003:00000df8       $pdata$far_ProcessName     0000000180061df8     service.obj
 0003:00000e04       $pdata$1$far_ProcessName   0000000180061e04     service.obj
 0003:00000e10       $pdata$2$far_ProcessName   0000000180061e10     service.obj
 0003:00000e1c       $pdata$3$far_ProcessName   0000000180061e1c     service.obj
 0003:00000e28       $pdata$4$far_ProcessName   0000000180061e28     service.obj
 0003:00000e34       $pdata$5$far_ProcessName   0000000180061e34     service.obj
 0003:00000e40       $pdata$6$far_ProcessName   0000000180061e40     service.obj
 0003:00000e4c       $pdata$far_ColorDialog     0000000180061e4c     service.obj
 0003:00000e58       $pdata$panel_SetPanelDirectory 0000000180061e58     service.obj
 0003:00000e64       $pdata$far_GetReparsePointInfo 0000000180061e64     service.obj
 0003:00000e70       $pdata$0$far_GetReparsePointInfo 0000000180061e70     service.obj
 0003:00000e7c       $pdata$1$far_GetReparsePointInfo 0000000180061e7c     service.obj
 0003:00000e88       $pdata$panel_GetCmdLine    0000000180061e88     service.obj
 0003:00000e94       $pdata$panel_SetCmdLine    0000000180061e94     service.obj
 0003:00000ea0       $pdata$far_LIsAlpha        0000000180061ea0     service.obj
 0003:00000eac       $pdata$panel_GetCmdLinePos 0000000180061eac     service.obj
 0003:00000eb8       $pdata$far_LIsAlphanum     0000000180061eb8     service.obj
 0003:00000ec4       $pdata$far_LIsLower        0000000180061ec4     service.obj
 0003:00000ed0       $pdata$panel_SetCmdLinePos 0000000180061ed0     service.obj
 0003:00000edc       $pdata$far_LIsUpper        0000000180061edc     service.obj
 0003:00000ee8       $pdata$panel_InsertCmdLine 0000000180061ee8     service.obj
 0003:00000ef4       $pdata$panel_GetCmdLineSelection 0000000180061ef4     service.obj
 0003:00000f00       $pdata$far_LLowerBuf       0000000180061f00     service.obj
 0003:00000f0c       $pdata$panel_SetCmdLineSelection 0000000180061f0c     service.obj
 0003:00000f18       $pdata$far_LUpperBuf       0000000180061f18     service.obj
 0003:00000f24       $pdata$far_MkTemp          0000000180061f24     service.obj
 0003:00000f30       $pdata$far_MkLink          0000000180061f30     service.obj
 0003:00000f3c       $pdata$editor_InsertString 0000000180061f3c     service.obj
 0003:00000f48       $pdata$far_GetPathRoot     0000000180061f48     service.obj
 0003:00000f54       $pdata$editor_DeleteString 0000000180061f54     service.obj
 0003:00000f60       $pdata$editor_InsertText   0000000180061f60     service.obj
 0003:00000f6c       $pdata$panel_SetUserScreen 0000000180061f6c     service.obj
 0003:00000f78       $pdata$editor_InsertTextW  0000000180061f78     service.obj
 0003:00000f84       $pdata$editor_DeleteChar   0000000180061f84     service.obj
 0003:00000f90       $pdata$panel_GetUserScreen 0000000180061f90     service.obj
 0003:00000f9c       $pdata$editor_DeleteBlock  0000000180061f9c     service.obj
 0003:00000fa8       $pdata$panel_IsActivePanel 0000000180061fa8     service.obj
 0003:00000fb4       $pdata$editor_UndoRedo     0000000180061fb4     service.obj
 0003:00000fc0       $pdata$panel_SetActivePanel 0000000180061fc0     service.obj
 0003:00000fcc       $pdata$far_GetDirList      0000000180061fcc     service.obj
 0003:00000fd8       $pdata$0$far_GetDirList    0000000180061fd8     service.obj
 0003:00000fe4       $pdata$6$far_GetDirList    0000000180061fe4     service.obj
 0003:00000ff0       $pdata$7$far_GetDirList    0000000180061ff0     service.obj
 0003:00000ffc       $pdata$8$far_GetDirList    0000000180061ffc     service.obj
 0003:00001008       $pdata$far_RecursiveSearch 0000000180062008     service.obj
 0003:00001014       $pdata$far_GetPluginDirList 0000000180062014     service.obj
 0003:00001020       $pdata$far_ConvertPath     0000000180062020     service.obj
 0003:0000102c       $pdata$far_RestoreScreen   000000018006202c     service.obj
 0003:00001038       $pdata$0$far_RestoreScreen 0000000180062038     service.obj
 0003:00001044       $pdata$1$far_RestoreScreen 0000000180062044     service.obj
 0003:00001050       $pdata$far_SaveScreen      0000000180062050     service.obj
 0003:0000105c       $pdata$far_AdvControl      000000018006205c     service.obj
 0003:00001068       $pdata$0$far_AdvControl    0000000180062068     service.obj
 0003:00001074       $pdata$1$far_AdvControl    0000000180062074     service.obj
 0003:00001080       $pdata$editor_SetParam     0000000180062080     service.obj
 0003:0000108c       $pdata$editor_SetPosition  000000018006208c     service.obj
 0003:00001098       $pdata$editor_Redraw       0000000180062098     service.obj
 0003:000010a4       $pdata$editor_ExpandTabs   00000001800620a4     service.obj
 0003:000010b0       $pdata$editor_AddSessionBookmark 00000001800620b0     service.obj
 0003:000010bc       $pdata$far_MacroLoadAll    00000001800620bc     service.obj
 0003:000010c8       $pdata$editor_ClearSessionBookmarks 00000001800620c8     service.obj
 0003:000010d4       $pdata$far_MacroSaveAll    00000001800620d4     service.obj
 0003:000010e0       $pdata$far_MacroGetState   00000001800620e0     service.obj
 0003:000010ec       $pdata$editor_DeleteSessionBookmark 00000001800620ec     service.obj
 0003:000010f8       $pdata$far_MacroGetArea    00000001800620f8     service.obj
 0003:00001104       $pdata$editor_NextSessionBookmark 0000000180062104     service.obj
 0003:00001110       $pdata$editor_PrevSessionBookmark 0000000180062110     service.obj
 0003:0000111c       $pdata$editor_SetTitle     000000018006211c     service.obj
 0003:00001128       $pdata$far_MacroGetLastError 0000000180062128     service.obj
 0003:00001134       $pdata$0$far_MacroGetLastError 0000000180062134     service.obj
 0003:00001140       $pdata$1$far_MacroGetLastError 0000000180062140     service.obj
 0003:0000114c       $pdata$editor_Quit         000000018006214c     service.obj
 0003:00001158       $pdata$editor_Select       0000000180062158     service.obj
 0003:00001164       $pdata$far_MacroAdd        0000000180062164     service.obj
 0003:00001170       $pdata$editor_GetSelection 0000000180062170     service.obj
 0003:0000117c       $pdata$1$editor_GetSelection 000000018006217c     service.obj
 0003:00001188       $pdata$2$editor_GetSelection 0000000180062188     service.obj
 0003:00001194       $pdata$3$editor_GetSelection 0000000180062194     service.obj
 0003:000011a0       $pdata$4$editor_GetSelection 00000001800621a0     service.obj
 0003:000011ac       $pdata$far_MacroDelete     00000001800621ac     service.obj
 0003:000011b8       $pdata$far_MacroExecute    00000001800621b8     service.obj
 0003:000011c4       $pdata$2$far_MacroExecute  00000001800621c4     service.obj
 0003:000011d0       $pdata$3$far_MacroExecute  00000001800621d0     service.obj
 0003:000011dc       $pdata$far_SendDlgMessage  00000001800621dc     service.obj
 0003:000011e8       $pdata$far_CPluginStartupInfo 00000001800621e8     service.obj
 0003:000011f4       $pdata$far_MakeMenuItems   00000001800621f4     service.obj
 0003:00001200       $pdata$2$far_MakeMenuItems 0000000180062200     service.obj
 0003:0000120c       $pdata$5$far_MakeMenuItems 000000018006220c     service.obj
 0003:00001218       $pdata$6$far_MakeMenuItems 0000000180062218     service.obj
 0003:00001224       $pdata$8$far_MakeMenuItems 0000000180062224     service.obj
 0003:00001230       $pdata$9$far_MakeMenuItems 0000000180062230     service.obj
 0003:0000123c       $pdata$far_Show            000000018006223c     service.obj
 0003:00001248       $pdata$editor_AddColor     0000000180062248     service.obj
 0003:00001254       $pdata$editor_DelColor     0000000180062254     service.obj
 0003:00001260       $pdata$editor_GetColor     0000000180062260     service.obj
 0003:0000126c       $pdata$editor_SaveFile     000000018006226c     service.obj
 0003:00001278       $pdata$far_CreateFileFilter 0000000180062278     service.obj
 0003:00001284       $pdata$filefilter_Free     0000000180062284     service.obj
 0003:00001290       $pdata$editor_ReadInput    0000000180062290     service.obj
 0003:0000129c       $pdata$filefilter_gc       000000018006229c     service.obj
 0003:000012a8       $pdata$filefilter_tostring 00000001800622a8     service.obj
 0003:000012b4       $pdata$filefilter_OpenMenu 00000001800622b4     service.obj
 0003:000012c0       $pdata$filefilter_Starting 00000001800622c0     service.obj
 0003:000012cc       $pdata$filefilter_IsFileInFilter 00000001800622cc     service.obj
 0003:000012d8       $pdata$editor_ProcessInput 00000001800622d8     service.obj
 0003:000012e4       $pdata$editor_SubscribeChangeEvent 00000001800622e4     service.obj
 0003:000012f0       $pdata$far_UnloadPlugin    00000001800622f0     service.obj
 0003:000012fc       $pdata$far_Menu            00000001800622fc     service.obj
 0003:00001308       $pdata$far_FindPlugin      0000000180062308     service.obj
 0003:00001314       $pdata$ChangePanelSelection 0000000180062314     service.obj
 0003:00001320       $pdata$0$ChangePanelSelection 0000000180062320     service.obj
 0003:0000132c       $pdata$1$ChangePanelSelection 000000018006232c     service.obj
 0003:00001338       $pdata$2$ChangePanelSelection 0000000180062338     service.obj
 0003:00001344       $pdata$3$ChangePanelSelection 0000000180062344     service.obj
 0003:00001350       $pdata$CheckFlags          0000000180062350     service.obj
 0003:0000135c       $pdata$CheckFlagsFromTable 000000018006235c     service.obj
 0003:00001368       $pdata$ConvertLuaValue     0000000180062368     service.obj
 0003:00001374       $pdata$CreateList          0000000180062374     service.obj
 0003:00001380       $pdata$2$CreateList        0000000180062380     service.obj
 0003:0000138c       $pdata$3$CreateList        000000018006238c     service.obj
 0003:00001398       $pdata$DialogHandleEqual   0000000180062398     service.obj
 0003:000013a4       $pdata$FastGetString       00000001800623a4     service.obj
 0003:000013b0       $pdata$FillEditorSelect    00000001800623b0     service.obj
 0003:000013bc       $pdata$FillEditorSetPosition 00000001800623bc     service.obj
 0003:000013c8       $pdata$FillInputRecord     00000001800623c8     service.obj
 0003:000013d4       $pdata$FillKeyBarTitles    00000001800623d4     service.obj
 0003:000013e0       $pdata$1$FillKeyBarTitles  00000001800623e0     service.obj
 0003:000013ec       $pdata$2$FillKeyBarTitles  00000001800623ec     service.obj
 0003:000013f8       $pdata$FrsUserFunc         00000001800623f8     service.obj
 0003:00001404       $pdata$GetDialogItemType   0000000180062404     service.obj
 0003:00001410       $pdata$GetFarColorFromTable 0000000180062410     service.obj
 0003:0000141c       $pdata$GetFlagCombination  000000018006241c     service.obj
 0003:00001428       $pdata$GetFlagsFromTable   0000000180062428     service.obj
 0003:00001434       $pdata$GetItemFlags        0000000180062434     service.obj
 0003:00001440       $pdata$GetMouseEvent       0000000180062440     service.obj
 0003:0000144c       $pdata$GetPluginData       000000018006244c     service.obj
 0003:00001458       $pdata$LF_DlgProc          0000000180062458     service.obj
 0003:00001464       $pdata$0$LF_DlgProc        0000000180062464     service.obj
 0003:00001470       $pdata$1$LF_DlgProc        0000000180062470     service.obj
 0003:0000147c       $pdata$LF_DoFile           000000018006247c     service.obj
 0003:00001488       $pdata$LF_Error            0000000180062488     service.obj
 0003:00001494       $pdata$0$LF_Error          0000000180062494     service.obj
 0003:000014a0       $pdata$1$LF_Error          00000001800624a0     service.obj
 0003:000014ac       $pdata$LF_InitLuaState1    00000001800624ac     service.obj
 0003:000014b8       $pdata$LF_InitLuaState2    00000001800624b8     service.obj
 0003:000014c4       $pdata$LF_MacroCallback    00000001800624c4     service.obj
 0003:000014d0       $pdata$LF_Message          00000001800624d0     service.obj
 0003:000014dc       $pdata$LF_ProcessEnvVars   00000001800624dc     service.obj
 0003:000014e8       $pdata$LF_RunDefaultScript 00000001800624e8     service.obj
 0003:000014f4       $pdata$1$LF_RunDefaultScript 00000001800624f4     service.obj
 0003:00001500       $pdata$2$LF_RunDefaultScript 0000000180062500     service.obj
 0003:0000150c       $pdata$MacroSendString     000000018006250c     service.obj
 0003:00001518       $pdata$NewDialogData       0000000180062518     service.obj
 0003:00001524       $pdata$NewVirtualKeyTable  0000000180062524     service.obj
 0003:00001530       $pdata$OptInputRecord      0000000180062530     service.obj
 0003:0000153c       $pdata$PushBookmarks       000000018006253c     service.obj
 0003:00001548       $pdata$0$PushBookmarks     0000000180062548     service.obj
 0003:00001554       $pdata$1$PushBookmarks     0000000180062554     service.obj
 0003:00001560       $pdata$PushDMParams        0000000180062560     service.obj
 0003:0000156c       $pdata$PushDNParams        000000018006256c     service.obj
 0003:00001578       $pdata$PushDlgItem         0000000180062578     service.obj
 0003:00001584       $pdata$PushDlgItemNum      0000000180062584     service.obj
 0003:00001590       $pdata$PushFarColor        0000000180062590     service.obj
 0003:0000159c       $pdata$PushPanelItem       000000018006259c     service.obj
 0003:000015a8       $pdata$0$PushPanelItem     00000001800625a8     service.obj
 0003:000015b4       $pdata$1$PushPanelItem     00000001800625b4     service.obj
 0003:000015c0       $pdata$3$PushPanelItem     00000001800625c0     service.obj
 0003:000015cc       $pdata$4$PushPanelItem     00000001800625cc     service.obj
 0003:000015d8       $pdata$PushPanelItems      00000001800625d8     service.obj
 0003:000015e4       $pdata$3$PushPanelItems    00000001800625e4     service.obj
 0003:000015f0       $pdata$4$PushPanelItems    00000001800625f0     service.obj
 0003:000015fc       $pdata$PutFlagsToTable     00000001800625fc     service.obj
 0003:00001608       $pdata$PutMouseEvent       0000000180062608     service.obj
 0003:00001614       $pdata$PutPluginMenuItemToTable 0000000180062614     service.obj
 0003:00001620       $pdata$0$PutPluginMenuItemToTable 0000000180062620     service.obj
 0003:0000162c       $pdata$1$PutPluginMenuItemToTable 000000018006262c     service.obj
 0003:00001638       $pdata$PutVersionInfoToTable 0000000180062638     service.obj
 0003:00001644       $pdata$SetDlgItem          0000000180062644     service.obj
 0003:00001650       $pdata$SetFarDialogItem    0000000180062650     service.obj
 0003:0000165c       $pdata$SetKeyBar           000000018006265c     service.obj
 0003:00001668       $pdata$SetPanelBooleanProperty 0000000180062668     service.obj
 0003:00001674       $pdata$SetPanelIntegerProperty 0000000180062674     service.obj
 0003:00001680       $pdata$TimerThreadFunc     0000000180062680     service.obj
 0003:0000168c       $pdata$1$TimerThreadFunc   000000018006268c     service.obj
 0003:00001698       $pdata$2$TimerThreadFunc   0000000180062698     service.obj
 0003:000016a4       $pdata$_EditorGetString    00000001800626a4     service.obj
 0003:000016b0       $pdata$_EditorSetString    00000001800626b0     service.obj
 0003:000016bc       $pdata$_EditorTabConvert   00000001800626bc     service.obj
 0003:000016c8       $pdata$check_env_flag      00000001800626c8     service.obj
 0003:000016d4       $pdata$dir_exist           00000001800626d4     service.obj
 0003:000016e0       $pdata$free_dialog         00000001800626e0     service.obj
 0003:000016ec       $pdata$get_env_flag        00000001800626ec     service.obj
 0003:000016f8       $pdata$0$get_env_flag      00000001800626f8     service.obj
 0003:00001704       $pdata$1$get_env_flag      0000000180062704     service.obj
 0003:00001710       $pdata$get_panel_item      0000000180062710     service.obj
 0003:0000171c       $pdata$get_string_info     000000018006271c     service.obj
 0003:00001728       $pdata$luaopen_far         0000000180062728     service.obj
 0003:00001734       $pdata$plugin_load         0000000180062734     service.obj
 0003:00001740       $pdata$pushInputRecord     0000000180062740     service.obj
 0003:0000174c       $pdata$truncstring         000000018006274c     service.obj
 0003:00001758       $pdata$str_rep             0000000180062758     slnunico.obj
 0003:00001764       $pdata$unic_byte           0000000180062764     slnunico.obj
 0003:00001770       $pdata$unic_char           0000000180062770     slnunico.obj
 0003:0000177c       $pdata$str_dump            000000018006277c     slnunico.obj
 0003:00001788       $pdata$gmatch              0000000180062788     slnunico.obj
 0003:00001794       $pdata$unic_gsub           0000000180062794     slnunico.obj
 0003:000017a0       $pdata$str_format          00000001800627a0     slnunico.obj
 0003:000017ac       $pdata$utf8_valid          00000001800627ac     slnunico.obj
 0003:000017b8       $pdata$unic_len            00000001800627b8     slnunico.obj
 0003:000017c4       $pdata$unic_sub            00000001800627c4     slnunico.obj
 0003:000017d0       $pdata$str_reverse         00000001800627d0     slnunico.obj
 0003:000017dc       $pdata$0$str_reverse       00000001800627dc     slnunico.obj
 0003:000017e8       $pdata$1$str_reverse       00000001800627e8     slnunico.obj
 0003:000017f4       $pdata$unic_lower          00000001800627f4     slnunico.obj
 0003:00001800       $pdata$0$unic_lower        0000000180062800     slnunico.obj
 0003:0000180c       $pdata$1$unic_lower        000000018006280c     slnunico.obj
 0003:00001818       $pdata$unic_upper          0000000180062818     slnunico.obj
 0003:00001824       $pdata$0$unic_upper        0000000180062824     slnunico.obj
 0003:00001830       $pdata$1$unic_upper        0000000180062830     slnunico.obj
 0003:0000183c       $pdata$add_s               000000018006283c     slnunico.obj
 0003:00001848       $pdata$add_value           0000000180062848     slnunico.obj
 0003:00001854       $pdata$addquoted           0000000180062854     slnunico.obj
 0003:00001860       $pdata$classend            0000000180062860     slnunico.obj
 0003:0000186c       $pdata$end_capture         000000018006286c     slnunico.obj
 0003:00001878       $pdata$gmatch_aux          0000000180062878     slnunico.obj
 0003:00001884       $pdata$lmemfind            0000000180062884     slnunico.obj
 0003:00001890       $pdata$0$lmemfind          0000000180062890     slnunico.obj
 0003:0000189c       $pdata$1$lmemfind          000000018006289c     slnunico.obj
 0003:000018a8       $pdata$2$lmemfind          00000001800628a8     slnunico.obj
 0003:000018b4       $pdata$luaopen_unicode     00000001800628b4     slnunico.obj
 0003:000018c0       $pdata$match               00000001800628c0     slnunico.obj
 0003:000018cc       $pdata$match_capture       00000001800628cc     slnunico.obj
 0003:000018d8       $pdata$match_class         00000001800628d8     slnunico.obj
 0003:000018e4       $pdata$matchbalance        00000001800628e4     slnunico.obj
 0003:000018f0       $pdata$max_expand          00000001800628f0     slnunico.obj
 0003:000018fc       $pdata$min_expand          00000001800628fc     slnunico.obj
 0003:00001908       $pdata$push_captures       0000000180062908     slnunico.obj
 0003:00001914       $pdata$0$push_captures     0000000180062914     slnunico.obj
 0003:00001920       $pdata$1$push_captures     0000000180062920     slnunico.obj
 0003:0000192c       $pdata$2$push_captures     000000018006292c     slnunico.obj
 0003:00001938       $pdata$push_onecapture     0000000180062938     slnunico.obj
 0003:00001944       $pdata$1$push_onecapture   0000000180062944     slnunico.obj
 0003:00001950       $pdata$3$push_onecapture   0000000180062950     slnunico.obj
 0003:0000195c       $pdata$scanformat          000000018006295c     slnunico.obj
 0003:00001968       $pdata$singlematch         0000000180062968     slnunico.obj
 0003:00001974       $pdata$start_capture       0000000180062974     slnunico.obj
 0003:00001980       $pdata$unic_find_aux       0000000180062980     slnunico.obj
 0003:0000198c       $pdata$utf8_count          000000018006298c     slnunico.obj
 0003:00001998       $pdata$0$utf8_count        0000000180062998     slnunico.obj
 0003:000019a4       $pdata$1$utf8_count        00000001800629a4     slnunico.obj
 0003:000019b0       $pdata$2$utf8_count        00000001800629b0     slnunico.obj
 0003:000019bc       $pdata$3$utf8_count        00000001800629bc     slnunico.obj
 0003:000019c8       $pdata$utf8_enco           00000001800629c8     slnunico.obj
 0003:000019d4       $pdata$0$utf8_enco         00000001800629d4     slnunico.obj
 0003:000019e0       $pdata$1$utf8_enco         00000001800629e0     slnunico.obj
 0003:000019ec       $pdata$utf8_graphext       00000001800629ec     slnunico.obj
 0003:000019f8       $pdata$0$utf8_graphext     00000001800629f8     slnunico.obj
 0003:00001a04       $pdata$1$utf8_graphext     0000000180062a04     slnunico.obj
 0003:00001a10       $pdata$writer              0000000180062a10     slnunico.obj
 0003:00001a1c       $pdata$io_read             0000000180062a1c     uliolib51.obj
 0003:00001a28       $pdata$f_read              0000000180062a28     uliolib51.obj
 0003:00001a34       $pdata$io_write            0000000180062a34     uliolib51.obj
 0003:00001a40       $pdata$f_write             0000000180062a40     uliolib51.obj
 0003:00001a4c       $pdata$f_seek              0000000180062a4c     uliolib51.obj
 0003:00001a58       $pdata$f_setvbuf           0000000180062a58     uliolib51.obj
 0003:00001a64       $pdata$io_flush            0000000180062a64     uliolib51.obj
 0003:00001a70       $pdata$f_flush             0000000180062a70     uliolib51.obj
 0003:00001a7c       $pdata$io_type             0000000180062a7c     uliolib51.obj
 0003:00001a88       $pdata$io_close            0000000180062a88     uliolib51.obj
 0003:00001a94       $pdata$io_gc               0000000180062a94     uliolib51.obj
 0003:00001aa0       $pdata$io_tostring         0000000180062aa0     uliolib51.obj
 0003:00001aac       $pdata$io_open             0000000180062aac     uliolib51.obj
 0003:00001ab8       $pdata$io_popen            0000000180062ab8     uliolib51.obj
 0003:00001ac4       $pdata$io_tmpfile          0000000180062ac4     uliolib51.obj
 0003:00001ad0       $pdata$f_lines             0000000180062ad0     uliolib51.obj
 0003:00001adc       $pdata$io_lines            0000000180062adc     uliolib51.obj
 0003:00001ae8       $pdata$1$io_lines          0000000180062ae8     uliolib51.obj
 0003:00001af4       $pdata$2$io_lines          0000000180062af4     uliolib51.obj
 0003:00001b00       $pdata$fileerror           0000000180062b00     uliolib51.obj
 0003:00001b0c       $pdata$g_iofile            0000000180062b0c     uliolib51.obj
 0003:00001b18       $pdata$0$g_iofile          0000000180062b18     uliolib51.obj
 0003:00001b24       $pdata$1$g_iofile          0000000180062b24     uliolib51.obj
 0003:00001b30       $pdata$2$g_iofile          0000000180062b30     uliolib51.obj
 0003:00001b3c       $pdata$3$g_iofile          0000000180062b3c     uliolib51.obj
 0003:00001b48       $pdata$g_read              0000000180062b48     uliolib51.obj
 0003:00001b54       $pdata$g_write             0000000180062b54     uliolib51.obj
 0003:00001b60       $pdata$io_fclose           0000000180062b60     uliolib51.obj
 0003:00001b6c       $pdata$io_noclose          0000000180062b6c     uliolib51.obj
 0003:00001b78       $pdata$io_pclose           0000000180062b78     uliolib51.obj
 0003:00001b84       $pdata$io_readline         0000000180062b84     uliolib51.obj
 0003:00001b90       $pdata$luaopen_uio         0000000180062b90     uliolib51.obj
 0003:00001b9c       $pdata$newfile             0000000180062b9c     uliolib51.obj
 0003:00001ba8       $pdata$pushresult          0000000180062ba8     uliolib51.obj
 0003:00001bb4       $pdata$read_chars          0000000180062bb4     uliolib51.obj
 0003:00001bc0       $pdata$read_line           0000000180062bc0     uliolib51.obj
 0003:00001bcc       $pdata$tofile              0000000180062bcc     uliolib51.obj
 0003:00001bd8       $pdata$ll_module           0000000180062bd8     uloadlib51.obj
 0003:00001be4       $pdata$ll_seeall           0000000180062be4     uloadlib51.obj
 0003:00001bf0       $pdata$ll_loadlib          0000000180062bf0     uloadlib51.obj
 0003:00001bfc       $pdata$loader_Lua          0000000180062bfc     uloadlib51.obj
 0003:00001c08       $pdata$loader_C            0000000180062c08     uloadlib51.obj
 0003:00001c14       $pdata$loader_Croot        0000000180062c14     uloadlib51.obj
 0003:00001c20       $pdata$loader_preload      0000000180062c20     uloadlib51.obj
 0003:00001c2c       $pdata$ll_require          0000000180062c2c     uloadlib51.obj
 0003:00001c38       $pdata$findfile            0000000180062c38     uloadlib51.obj
 0003:00001c44       $pdata$gctm                0000000180062c44     uloadlib51.obj
 0003:00001c50       $pdata$ll_loadfunc         0000000180062c50     uloadlib51.obj
 0003:00001c5c       $pdata$ll_register         0000000180062c5c     uloadlib51.obj
 0003:00001c68       $pdata$loaderror           0000000180062c68     uloadlib51.obj
 0003:00001c74       $pdata$luaopen_upackage    0000000180062c74     uloadlib51.obj
 0003:00001c80       $pdata$0$luaopen_upackage  0000000180062c80     uloadlib51.obj
 0003:00001c8c       $pdata$2$luaopen_upackage  0000000180062c8c     uloadlib51.obj
 0003:00001c98       $pdata$3$luaopen_upackage  0000000180062c98     uloadlib51.obj
 0003:00001ca4       $pdata$4$luaopen_upackage  0000000180062ca4     uloadlib51.obj
 0003:00001cb0       $pdata$mkfuncname          0000000180062cb0     uloadlib51.obj
 0003:00001cbc       $pdata$modinit             0000000180062cbc     uloadlib51.obj
 0003:00001cc8       $pdata$pushnexttemplate    0000000180062cc8     uloadlib51.obj
 0003:00001cd4       $pdata$setfenv             0000000180062cd4     uloadlib51.obj
 0003:00001ce0       $pdata$setprogdir          0000000180062ce0     uloadlib51.obj
 0003:00001cec       $pdata$ustring_Uuid        0000000180062cec     ustring.obj
 0003:00001cf8       $pdata$ustring_SearchPath  0000000180062cf8     ustring.obj
 0003:00001d04       $pdata$ustring_GlobalMemoryStatus 0000000180062d04     ustring.obj
 0003:00001d10       $pdata$0$ustring_GlobalMemoryStatus 0000000180062d10     ustring.obj
 0003:00001d1c       $pdata$2$ustring_GlobalMemoryStatus 0000000180062d1c     ustring.obj
 0003:00001d28       $pdata$ustring_Sleep       0000000180062d28     ustring.obj
 0003:00001d34       $pdata$ustring_SetFileAttr 0000000180062d34     ustring.obj
 0003:00001d40       $pdata$2$ustring_SetFileAttr 0000000180062d40     ustring.obj
 0003:00001d4c       $pdata$3$ustring_SetFileAttr 0000000180062d4c     ustring.obj
 0003:00001d58       $pdata$ustring_GetFileAttr 0000000180062d58     ustring.obj
 0003:00001d64       $pdata$2$ustring_GetFileAttr 0000000180062d64     ustring.obj
 0003:00001d70       $pdata$3$ustring_GetFileAttr 0000000180062d70     ustring.obj
 0003:00001d7c       $pdata$4$ustring_GetFileAttr 0000000180062d7c     ustring.obj
 0003:00001d88       $pdata$5$ustring_GetFileAttr 0000000180062d88     ustring.obj
 0003:00001d94       $pdata$ustring_SHGetFolderPath 0000000180062d94     ustring.obj
 0003:00001da0       $pdata$1$ustring_SHGetFolderPath 0000000180062da0     ustring.obj
 0003:00001dac       $pdata$2$ustring_SHGetFolderPath 0000000180062dac     ustring.obj
 0003:00001db8       $pdata$ustring_sub         0000000180062db8     ustring.obj
 0003:00001dc4       $pdata$ustring_len         0000000180062dc4     ustring.obj
 0003:00001dd0       $pdata$ustring_WideCharToMultiByte 0000000180062dd0     ustring.obj
 0003:00001ddc       $pdata$1$ustring_WideCharToMultiByte 0000000180062ddc     ustring.obj
 0003:00001de8       $pdata$2$ustring_WideCharToMultiByte 0000000180062de8     ustring.obj
 0003:00001df4       $pdata$ustring_MultiByteToWideChar 0000000180062df4     ustring.obj
 0003:00001e00       $pdata$ustring_OemToUtf8   0000000180062e00     ustring.obj
 0003:00001e0c       $pdata$ustring_Utf8ToOem   0000000180062e0c     ustring.obj
 0003:00001e18       $pdata$ustring_Utf16ToUtf8 0000000180062e18     ustring.obj
 0003:00001e24       $pdata$ustring_Utf8ToUtf16 0000000180062e24     ustring.obj
 0003:00001e30       $pdata$0$ustring_Utf8ToUtf16 0000000180062e30     ustring.obj
 0003:00001e3c       $pdata$1$ustring_Utf8ToUtf16 0000000180062e3c     ustring.obj
 0003:00001e48       $pdata$ustring_GetACP      0000000180062e48     ustring.obj
 0003:00001e54       $pdata$ustring_GetOEMCP    0000000180062e54     ustring.obj
 0003:00001e60       $pdata$ustring_EnumSystemCodePages 0000000180062e60     ustring.obj
 0003:00001e6c       $pdata$ustring_GetCPInfo   0000000180062e6c     ustring.obj
 0003:00001e78       $pdata$ustring_GetLogicalDriveStrings 0000000180062e78     ustring.obj
 0003:00001e84       $pdata$0$ustring_GetLogicalDriveStrings 0000000180062e84     ustring.obj
 0003:00001e90       $pdata$1$ustring_GetLogicalDriveStrings 0000000180062e90     ustring.obj
 0003:00001e9c       $pdata$ustring_GetDriveType 0000000180062e9c     ustring.obj
 0003:00001ea8       $pdata$EnumCodePagesProc   0000000180062ea8     ustring.obj
 0003:00001eb4       $pdata$GetBoolFromTable    0000000180062eb4     ustring.obj
 0003:00001ec0       $pdata$GetOptBoolFromTable 0000000180062ec0     ustring.obj
 0003:00001ecc       $pdata$GetOptIntFromArray  0000000180062ecc     ustring.obj
 0003:00001ed8       $pdata$GetOptIntFromTable  0000000180062ed8     ustring.obj
 0003:00001ee4       $pdata$GetOptNumFromTable  0000000180062ee4     ustring.obj
 0003:00001ef0       $pdata$PushAttrString      0000000180062ef0     ustring.obj
 0003:00001efc       $pdata$PutAttrToTable      0000000180062efc     ustring.obj
 0003:00001f08       $pdata$PutBoolToTable      0000000180062f08     ustring.obj
 0003:00001f14       $pdata$PutIntToArray       0000000180062f14     ustring.obj
 0003:00001f20       $pdata$PutIntToTable       0000000180062f20     ustring.obj
 0003:00001f2c       $pdata$PutLStrToTable      0000000180062f2c     ustring.obj
 0003:00001f38       $pdata$PutNumToTable       0000000180062f38     ustring.obj
 0003:00001f44       $pdata$PutWStrToArray      0000000180062f44     ustring.obj
 0003:00001f50       $pdata$PutWStrToTable      0000000180062f50     ustring.obj
 0003:00001f5c       $pdata$SysErrorReturn      0000000180062f5c     ustring.obj
 0003:00001f68       $pdata$check_utf16_string  0000000180062f68     ustring.obj
 0003:00001f74       $pdata$check_utf8_string   0000000180062f74     ustring.obj
 0003:00001f80       $pdata$convert_multibyte_string 0000000180062f80     ustring.obj
 0003:00001f8c       $pdata$luaopen_ustring     0000000180062f8c     ustring.obj
 0003:00001f98       $pdata$oem_to_utf16        0000000180062f98     ustring.obj
 0003:00001fa4       $pdata$3$oem_to_utf16      0000000180062fa4     ustring.obj
 0003:00001fb0       $pdata$4$oem_to_utf16      0000000180062fb0     ustring.obj
 0003:00001fbc       $pdata$opt_utf8_string     0000000180062fbc     ustring.obj
 0003:00001fc8       $pdata$push_multibyte_string 0000000180062fc8     ustring.obj
 0003:00001fd4       $pdata$2$push_multibyte_string 0000000180062fd4     ustring.obj
 0003:00001fe0       $pdata$3$push_multibyte_string 0000000180062fe0     ustring.obj
 0003:00001fec       $pdata$push_utf8_string    0000000180062fec     ustring.obj
 0003:00001ff8       $pdata$pusherror           0000000180062ff8     ustring.obj
 0003:00002004       $pdata$pusherrorcode       0000000180063004     ustring.obj
 0003:00002010       $pdata$utf8_to_utf16       0000000180063010     ustring.obj
 0003:0000201c       $pdata$3$utf8_to_utf16     000000018006301c     ustring.obj
 0003:00002028       $pdata$4$utf8_to_utf16     0000000180063028     ustring.obj
 0003:00002034       $pdata$GetAttrFromTable    0000000180063034     util.obj
 0003:00002040       $pdata$GetFileSizeFromTable 0000000180063040     util.obj
 0003:0000204c       $pdata$GetFileTimeFromTable 000000018006304c     util.obj
 0003:00002058       $pdata$GetIntFromArray     0000000180063058     util.obj
 0003:00002064       $pdata$PutFileTimeToTable  0000000180063064     util.obj
 0003:00002070       $pdata$luaLF_FieldError    0000000180063070     util.obj
 0003:0000207c       $pdata$luaLF_SlotError     000000018006307c     util.obj
 0003:00002088       $pdata$win_GetEnv          0000000180063088     win.obj
 0003:00002094       $pdata$win_SetEnv          0000000180063094     win.obj
 0003:000020a0       $pdata$win_SetRegKey       00000001800630a0     win.obj
 0003:000020ac       $pdata$win_GetRegKey       00000001800630ac     win.obj
 0003:000020b8       $pdata$win_DeleteRegKey    00000001800630b8     win.obj
 0003:000020c4       $pdata$win_EnumRegKey      00000001800630c4     win.obj
 0003:000020d0       $pdata$win_EnumRegValue    00000001800630d0     win.obj
 0003:000020dc       $pdata$win_ExtractKey      00000001800630dc     win.obj
 0003:000020e8       $pdata$win_GetFileInfo     00000001800630e8     win.obj
 0003:000020f4       $pdata$win_GetSystemTimeAsFileTime 00000001800630f4     win.obj
 0003:00002100       $pdata$win_FileTimeToSystemTime 0000000180063100     win.obj
 0003:0000210c       $pdata$win_SystemTimeToFileTime 000000018006310c     win.obj
 0003:00002118       $pdata$win_FileTimeToLocalFileTime 0000000180063118     win.obj
 0003:00002124       $pdata$win_CompareString   0000000180063124     win.obj
 0003:00002130       $pdata$win_wcscmp          0000000180063130     win.obj
 0003:0000213c       $pdata$win_GetVirtualKeys  000000018006313c     win.obj
 0003:00002148       $pdata$win_GetConsoleScreenBufferInfo 0000000180063148     win.obj
 0003:00002154       $pdata$win_CopyFile        0000000180063154     win.obj
 0003:00002160       $pdata$win_MoveFile        0000000180063160     win.obj
 0003:0000216c       $pdata$win_DeleteFile      000000018006316c     win.obj
 0003:00002178       $pdata$win_CreateDir       0000000180063178     win.obj
 0003:00002184       $pdata$win_RemoveDir       0000000180063184     win.obj
 0003:00002190       $pdata$win_ShellExecute    0000000180063190     win.obj
 0003:0000219c       $pdata$CheckHKey           000000018006319c     win.obj
 0003:000021a8       $pdata$ExtractKey          00000001800631a8     win.obj
 0003:000021b4       $pdata$PushWinFindData     00000001800631b4     win.obj
 0003:000021c0       $pdata$luaopen_win         00000001800631c0     win.obj
 0003:000021cc       $pdata$mkdir               00000001800631cc     win.obj
 0003:000021d8       $pdata$pushSystemTime      00000001800631d8     win.obj
 0003:000021e4       $pdata$sprintf             00000001800631e4     LIBCMT:sprintf.obj
 0003:000021f0       $pdata$_wcsdup             00000001800631f0     LIBCMT:wcsdup.obj
 0003:000021fc       $pdata$free                00000001800631fc     LIBCMT:free.obj
 0003:00002208       $pdata$malloc              0000000180063208     LIBCMT:malloc.obj
 0003:00002214       $pdata$_control87          0000000180063214     LIBCMT:ieee.obj
 0003:00002238       $pdata$strerror            0000000180063238     LIBCMT:strerror.obj
 0003:00002244       $pdata$wcsstr              0000000180063244     LIBCMT:wcsstr.obj
 0003:00002250       $pdata$__doserrno          0000000180063250     LIBCMT:dosmap.obj
 0003:0000225c       $pdata$_dosmaperr          000000018006325c     LIBCMT:dosmap.obj
 0003:00002268       $pdata$_errno              0000000180063268     LIBCMT:dosmap.obj
 0003:00002274       $pdata$__initstdio         0000000180063274     LIBCMT:_file.obj
 0003:00002280       $pdata$__endstdio          0000000180063280     LIBCMT:_file.obj
 0003:0000228c       $pdata$_lock_file          000000018006328c     LIBCMT:_file.obj
 0003:00002298       $pdata$_lock_file2         0000000180063298     LIBCMT:_file.obj
 0003:000022a4       $pdata$_fclose_nolock      00000001800632a4     LIBCMT:fclose.obj
 0003:000022b0       $pdata$fclose              00000001800632b0     LIBCMT:fclose.obj
 0003:000022bc       $pdata$feof                00000001800632bc     LIBCMT:feoferr.obj
 0003:000022c8       $pdata$ferror              00000001800632c8     LIBCMT:feoferr.obj
 0003:000022d4       $pdata$_fread_nolock_s     00000001800632d4     LIBCMT:fread.obj
 0003:000022e0       $pdata$fread               00000001800632e0     LIBCMT:fread.obj
 0003:000022ec       $pdata$fread_s             00000001800632ec     LIBCMT:fread.obj
 0003:000022f8       $pdata$getc                00000001800632f8     LIBCMT:fgetc.obj
 0003:00002304       $pdata$rewind              0000000180063304     LIBCMT:rewind.obj
 0003:00002310       $pdata$_ungetc_nolock      0000000180063310     LIBCMT:ungetc.obj
 0003:0000231c       $pdata$ungetc              000000018006331c     LIBCMT:ungetc.obj
 0003:00002328       $pdata$_wfsopen            0000000180063328     LIBCMT:wfopen.obj
 0003:00002334       $pdata$_wfreopen           0000000180063334     LIBCMT:wfreopen.obj
 0003:00002340       $pdata$_wfreopen_helper    0000000180063340     LIBCMT:wfreopen.obj
 0003:0000234c       $pdata$??0_LocaleUpdate@@QEAA@PEAUlocaleinfo_struct@@@Z 000000018006334c     LIBCMT:_ctype.obj
 0003:00002358       $pdata$isalnum             0000000180063358     LIBCMT:_ctype.obj
 0003:00002364       $pdata$isdigit             0000000180063364     LIBCMT:_ctype.obj
 0003:00002370       $pdata$isspace             0000000180063370     LIBCMT:_ctype.obj
 0003:0000237c       $pdata$isxdigit            000000018006337c     LIBCMT:_ctype.obj
 0003:00002388       $pdata$strchr              0000000180063388     LIBCMT:strchr.obj
 0003:000023a0       $pdata$wcschr              00000001800633a0     LIBCMT:wcschr.obj
 0003:000023ac       $pdata$wcsncpy             00000001800633ac     LIBCMT:wcsncpy.obj
 0003:000023b8       $pdata$_wcsicmp            00000001800633b8     LIBCMT:wcsicmp.obj
 0003:000023c4       $pdata$_wcsicmp_l          00000001800633c4     LIBCMT:wcsicmp.obj
 0003:000023d0       $pdata$fprintf             00000001800633d0     LIBCMT:fprintf.obj
 0003:000023dc       $pdata$floor               00000001800633dc     LIBCMT:floor.obj
 0003:00002400       $pdata$_snwprintf          0000000180063400     LIBCMT:snwprint.obj
 0003:00002418       $pdata$strpbrk             0000000180063418     LIBCMT:strpbrk.obj
 0003:00002430       $pdata$clearerr_s          0000000180063430     LIBCMT:clearerr.obj
 0003:0000243c       $pdata$_fflush_nolock      000000018006343c     LIBCMT:fflush.obj
 0003:00002448       $pdata$_flush              0000000180063448     LIBCMT:fflush.obj
 0003:00002454       $pdata$fflush              0000000180063454     LIBCMT:fflush.obj
 0003:00002460       $pdata$flsall              0000000180063460     LIBCMT:fflush.obj
 0003:0000246c       $pdata$fgets               000000018006346c     LIBCMT:fgets.obj
 0003:00002478       $pdata$fscanf              0000000180063478     LIBCMT:fscanf.obj
 0003:00002484       $pdata$vfscanf             0000000180063484     LIBCMT:fscanf.obj
 0003:00002490       $pdata$_fseek_nolock       0000000180063490     LIBCMT:fseek.obj
 0003:0000249c       $pdata$fseek               000000018006349c     LIBCMT:fseek.obj
 0003:000024a8       $pdata$_ftell_nolock       00000001800634a8     LIBCMT:ftell.obj
 0003:000024b4       $pdata$ftell               00000001800634b4     LIBCMT:ftell.obj
 0003:000024c0       $pdata$_fwrite_nolock      00000001800634c0     LIBCMT:fwrite.obj
 0003:000024cc       $pdata$fwrite              00000001800634cc     LIBCMT:fwrite.obj
 0003:000024d8       $pdata$_pclose             00000001800634d8     LIBCMT:popen.obj
 0003:000024e4       $pdata$idtab               00000001800634e4     LIBCMT:popen.obj
 0003:000024f0       $pdata$setvbuf             00000001800634f0     LIBCMT:setvbuf.obj
 0003:000024fc       $pdata$_tmpfile_helper     00000001800634fc     LIBCMT:tmpfile.obj
 0003:00002508       $pdata$genfname            0000000180063508     LIBCMT:tmpfile.obj
 0003:00002514       $pdata$init_namebuf        0000000180063514     LIBCMT:tmpfile.obj
 0003:00002520       $pdata$tmpfile             0000000180063520     LIBCMT:tmpfile.obj
 0003:0000252c       $pdata$_wpopen             000000018006352c     LIBCMT:wpopen.obj
 0003:00002538       $pdata$_wdupenv_s          0000000180063538     LIBCMT:wgetenv.obj
 0003:00002544       $pdata$_wgetenv            0000000180063544     LIBCMT:wgetenv.obj
 0003:00002550       $pdata$_wgetenv_helper_nolock 0000000180063550     LIBCMT:wgetenv.obj
 0003:0000255c       $pdata$strrchr             000000018006355c     LIBCMT:strrchr.obj
 0003:00002568       $pdata$_CRT_INIT           0000000180063568     LIBCMT:dllcrt0.obj
 0003:00002574       $pdata$_DllMainCRTStartup  0000000180063574     LIBCMT:dllcrt0.obj
 0003:00002580       $pdata$__DllMainCRTStartup 0000000180063580     LIBCMT:dllcrt0.obj
 0003:0000258c       $pdata$_call_reportfault   000000018006358c     LIBCMT:invarg.obj
 0003:00002598       $pdata$_invalid_parameter  0000000180063598     LIBCMT:invarg.obj
 0003:000025a4       $pdata$_invalid_parameter_noinfo 00000001800635a4     LIBCMT:invarg.obj
 0003:000025b0       $pdata$_invoke_watson      00000001800635b0     LIBCMT:invarg.obj
 0003:000025bc       $pdata$_flsbuf             00000001800635bc     LIBCMT:_flsbuf.obj
 0003:000025c8       $pdata$_output_l           00000001800635c8     LIBCMT:output.obj
 0003:000025d4       $pdata$write_char          00000001800635d4     LIBCMT:output.obj
 0003:000025e0       $pdata$write_multi_char    00000001800635e0     LIBCMT:output.obj
 0003:000025ec       $pdata$write_string        00000001800635ec     LIBCMT:output.obj
 0003:000025f8       $pdata$_cfltcvt            00000001800635f8     LIBCMT:cvt.obj
 0003:00002604       $pdata$_cfltcvt_l          0000000180063604     LIBCMT:cvt.obj
 0003:00002610       $pdata$_cftoa_l            0000000180063610     LIBCMT:cvt.obj
 0003:0000261c       $pdata$_cftoe2_l           000000018006361c     LIBCMT:cvt.obj
 0003:00002628       $pdata$_cftoe_l            0000000180063628     LIBCMT:cvt.obj
 0003:00002634       $pdata$_cftof2_l           0000000180063634     LIBCMT:cvt.obj
 0003:00002640       $pdata$_cftof_l            0000000180063640     LIBCMT:cvt.obj
 0003:0000264c       $pdata$_cftog_l            000000018006364c     LIBCMT:cvt.obj
 0003:00002658       $pdata$_cropzeros_l        0000000180063658     LIBCMT:cvt.obj
 0003:00002664       $pdata$_fassign_l          0000000180063664     LIBCMT:cvt.obj
 0003:00002670       $pdata$_forcdecpt_l        0000000180063670     LIBCMT:cvt.obj
 0003:0000267c       $pdata$_initp_misc_cfltcvt_tab 000000018006367c     LIBCMT:cmiscdat.obj
 0003:00002688       $pdata$calloc              0000000180063688     LIBCMT:calloc.obj
 0003:00002694       $pdata$wcscpy_s            0000000180063694     LIBCMT:wcscpy_s.obj
 0003:000026a0       $pdata$_heap_init          00000001800636a0     LIBCMT:heapinit.obj
 0003:000026ac       $pdata$_callnewh           00000001800636ac     LIBCMT:handler.obj
 0003:000026b8       $pdata$__copy_path_to_wide_string 00000001800636b8     LIBCMT:crt0dat.obj
 0003:000026c4       $pdata$__crtCorExitProcess 00000001800636c4     LIBCMT:crt0dat.obj
 0003:000026d0       $pdata$__crtExitProcess    00000001800636d0     LIBCMT:crt0dat.obj
 0003:000026dc       $pdata$__freeCrtMemory     00000001800636dc     LIBCMT:crt0dat.obj
 0003:000026e8       $pdata$_amsg_exit          00000001800636e8     LIBCMT:crt0dat.obj
 0003:000026f4       $pdata$_cinit              00000001800636f4     LIBCMT:crt0dat.obj
 0003:00002700       $pdata$_init_pointers      0000000180063700     LIBCMT:crt0dat.obj
 0003:0000270c       $pdata$_initterm           000000018006370c     LIBCMT:crt0dat.obj
 0003:00002718       $pdata$_initterm_e         0000000180063718     LIBCMT:crt0dat.obj
 0003:00002724       $pdata$doexit              0000000180063724     LIBCMT:crt0dat.obj
 0003:00002730       $pdata$_FF_MSGBANNER       0000000180063730     LIBCMT:crt0msg.obj
 0003:0000273c       $pdata$_NMSG_WRITE         000000018006373c     LIBCMT:crt0msg.obj
 0003:00002754       $pdata$__C_specific_handler 0000000180063754     LIBCMT:chandler.obj
 0003:00002760       $pdata$__isa_available_init 0000000180063760     LIBCMT:cpu_disp.obj
 0003:0000276c       $pdata$strcpy_s            000000018006376c     LIBCMT:strcpy_s.obj
 0003:00002778       $pdata$_freefls            0000000180063778     LIBCMT:tidtable.obj
 0003:00002784       $pdata$_freeptd            0000000180063784     LIBCMT:tidtable.obj
 0003:00002790       $pdata$_getptd             0000000180063790     LIBCMT:tidtable.obj
 0003:0000279c       $pdata$_getptd_noexit      000000018006379c     LIBCMT:tidtable.obj
 0003:000027a8       $pdata$_initptd            00000001800637a8     LIBCMT:tidtable.obj
 0003:000027b4       $pdata$_mtinit             00000001800637b4     LIBCMT:tidtable.obj
 0003:000027c0       $pdata$_mtterm             00000001800637c0     LIBCMT:tidtable.obj
 0003:000027cc       $pdata$_calloc_crt         00000001800637cc     LIBCMT:crtheap.obj
 0003:000027d8       $pdata$_malloc_crt         00000001800637d8     LIBCMT:crtheap.obj
 0003:000027e4       $pdata$_realloc_crt        00000001800637e4     LIBCMT:crtheap.obj
 0003:000027f0       $pdata$_recalloc_crt       00000001800637f0     LIBCMT:crtheap.obj
 0003:000027fc       $pdata$_fcloseall          00000001800637fc     LIBCMT:closeall.obj
 0003:00002808       $pdata$_lock               0000000180063808     LIBCMT:mlock.obj
 0003:00002814       $pdata$_mtdeletelocks      0000000180063814     LIBCMT:mlock.obj
 0003:00002820       $pdata$_mtinitlocknum      0000000180063820     LIBCMT:mlock.obj
 0003:0000282c       $pdata$_mtinitlocks        000000018006382c     LIBCMT:mlock.obj
 0003:00002838       $pdata$_fileno             0000000180063838     LIBCMT:fileno.obj
 0003:00002844       $pdata$_close              0000000180063844     LIBCMT:close.obj
 0003:00002850       $pdata$_close_nolock       0000000180063850     LIBCMT:close.obj
 0003:0000285c       $pdata$_freebuf            000000018006385c     LIBCMT:_freebuf.obj
 0003:00002868       $pdata$_filbuf             0000000180063868     LIBCMT:_filbuf.obj
 0003:00002874       $pdata$memcpy_s            0000000180063874     LIBCMT:memcpy_s.obj
 0003:00002880       $pdata$_read               0000000180063880     LIBCMT:read.obj
 0003:0000288c       $pdata$_read_nolock        000000018006388c     LIBCMT:read.obj
 0003:00002898       $pdata$_ioinit             0000000180063898     LIBCMT:ioinit.obj
 0003:000028a4       $pdata$_ioterm             00000001800638a4     LIBCMT:ioinit.obj
 0003:000028b0       $pdata$_lseek              00000001800638b0     LIBCMT:lseek.obj
 0003:000028bc       $pdata$_lseek_nolock       00000001800638bc     LIBCMT:lseek.obj
 0003:000028c8       $pdata$_getbuf             00000001800638c8     LIBCMT:_getbuf.obj
 0003:000028d4       $pdata$_getstream          00000001800638d4     LIBCMT:stream.obj
 0003:000028e0       $pdata$_wopenfile          00000001800638e0     LIBCMT:_wopen.obj
 0003:0000291c       $pdata$__freetlocinfo      000000018006391c     LIBCMT:localref.obj
 0003:00002928       $pdata$__updatetlocinfo    0000000180063928     LIBCMT:localref.obj
 0003:00002934       $pdata$_updatetlocinfoEx_nolock 0000000180063934     LIBCMT:localref.obj
 0003:00002940       $pdata$__initmbctable      0000000180063940     LIBCMT:mbctype.obj
 0003:0000294c       $pdata$?getSystemCP@@YAHH@Z 000000018006394c     LIBCMT:mbctype.obj
 0003:00002958       $pdata$?setSBCS@@YAXPEAUthreadmbcinfostruct@@@Z 0000000180063958     LIBCMT:mbctype.obj
 0003:00002964       $pdata$?setSBUpLow@@YAXPEAUthreadmbcinfostruct@@@Z 0000000180063964     LIBCMT:mbctype.obj
 0003:00002970       $pdata$__updatetmbcinfo    0000000180063970     LIBCMT:mbctype.obj
 0003:0000297c       $pdata$_setmbcp            000000018006397c     LIBCMT:mbctype.obj
 0003:00002988       $pdata$_setmbcp_nolock     0000000180063988     LIBCMT:mbctype.obj
 0003:00002994       $pdata$_isctype_l          0000000180063994     LIBCMT:isctype.obj
 0003:000029a0       $pdata$_locterm            00000001800639a0     LIBCMT:wsetloca.obj
 0003:000029ac       $pdata$_towlower_l         00000001800639ac     LIBCMT:towlower.obj
 0003:000029b8       $pdata$_ftbuf              00000001800639b8     LIBCMT:_sftbuf.obj
 0003:000029c4       $pdata$_stbuf              00000001800639c4     LIBCMT:_sftbuf.obj
 0003:000029d0       $pdata$_call_matherr       00000001800639d0     LIBCMT:libm_error.obj
 0003:000029dc       $pdata$_exception_enabled  00000001800639dc     LIBCMT:libm_error.obj
 0003:000029e8       $pdata$_handle_error       00000001800639e8     LIBCMT:libm_error.obj
 0003:000029f4       $pdata$_log10_special      00000001800639f4     LIBCMT:log_special.obj
 0003:00002a00       $pdata$_log_special_common 0000000180063a00     LIBCMT:log_special.obj
 0003:00002a0c       $pdata$_woutput_l          0000000180063a0c     LIBCMT:woutput.obj
 0003:00002a18       $pdata$write_char          0000000180063a18     LIBCMT:woutput.obj
 0003:00002a24       $pdata$write_multi_char    0000000180063a24     LIBCMT:woutput.obj
 0003:00002a30       $pdata$write_string        0000000180063a30     LIBCMT:woutput.obj
 0003:00002a3c       $pdata$__raise_securityfailure 0000000180063a3c     LIBCMT:gs_report.obj
 0003:00002a48       $pdata$__report_gsfailure  0000000180063a48     LIBCMT:gs_report.obj
 0003:00002a54       $pdata$__report_rangecheckfailure 0000000180063a54     LIBCMT:gs_report.obj
 0003:00002a60       $pdata$__report_securityfailure 0000000180063a60     LIBCMT:gs_report.obj
 0003:00002a6c       $pdata$__GSHandlerCheck    0000000180063a6c     LIBCMT:gshandler.obj
 0003:00002a78       $pdata$__GSHandlerCheckCommon 0000000180063a78     LIBCMT:gshandler.obj
 0003:00002a90       $pdata$_commit             0000000180063a90     LIBCMT:commit.obj
 0003:00002a9c       $pdata$_write              0000000180063a9c     LIBCMT:write.obj
 0003:00002aa8       $pdata$_write_nolock       0000000180063aa8     LIBCMT:write.obj
 0003:00002ab4       $pdata$__check_float_string 0000000180063ab4     LIBCMT:input.obj
 0003:00002ac0       $pdata$_inc                0000000180063ac0     LIBCMT:input.obj
 0003:00002acc       $pdata$_input_l            0000000180063acc     LIBCMT:input.obj
 0003:00002ad8       $pdata$_lseeki64           0000000180063ad8     LIBCMT:lseeki64.obj
 0003:00002ae4       $pdata$_lseeki64_nolock    0000000180063ae4     LIBCMT:lseeki64.obj
 0003:00002af0       $pdata$_cwait              0000000180063af0     LIBCMT:wait.obj
 0003:00002afc       $pdata$_pipe               0000000180063afc     LIBCMT:pipe.obj
 0003:00002b08       $pdata$strcat_s            0000000180063b08     LIBCMT:strcat_s.obj
 0003:00002b20       $pdata$_mbsrchr_l          0000000180063b20     LIBCMT:mbsrchr.obj
 0003:00002b2c       $pdata$_sopen_helper       0000000180063b2c     LIBCMT:open.obj
 0003:00002b38       $pdata$_sopen_nolock       0000000180063b38     LIBCMT:open.obj
 0003:00002b44       $pdata$_sopen_s            0000000180063b44     LIBCMT:open.obj
 0003:00002b50       $pdata$_strdup             0000000180063b50     LIBCMT:strdup.obj
 0003:00002b5c       $pdata$?strtoxl@@YAKPEAUlocaleinfo_struct@@PEBDPEAPEBDHH@Z 0000000180063b5c     LIBCMT:strtol.obj
 0003:00002b68       $pdata$strtoul             0000000180063b68     LIBCMT:strtol.obj
 0003:00002b74       $pdata$_ultoa_s            0000000180063b74     LIBCMT:xtoas.obj
 0003:00002b80       $pdata$xtoa_s              0000000180063b80     LIBCMT:xtoas.obj
 0003:00002b8c       $pdata$_rmtmp              0000000180063b8c     LIBCMT:rmtmp.obj
 0003:00002b98       $pdata$_wfdopen            0000000180063b98     LIBCMT:wfdopen.obj
 0003:00002ba4       $pdata$_waccess_s          0000000180063ba4     LIBCMT:waccess.obj
 0003:00002bb0       $pdata$wcscat_s            0000000180063bb0     LIBCMT:wcscat_s.obj
 0003:00002bbc       $pdata$_wgetpath           0000000180063bbc     LIBCMT:wgetpath.obj
 0003:00002bc8       $pdata$__GSHandlerCheck_SEH 0000000180063bc8     LIBCMT:gshandlerseh.obj
 0003:00002bd4       $pdata$_wcsnicoll          0000000180063bd4     LIBCMT:wcsnicol.obj
 0003:00002be0       $pdata$_wcsnicoll_l        0000000180063be0     LIBCMT:wcsnicol.obj
 0003:00002bec       $pdata$_wsetenvp           0000000180063bec     LIBCMT:wstdenvp.obj
 0003:00002bf8       $pdata$__mbtow_environ     0000000180063bf8     LIBCMT:mbtowenv.obj
 0003:00002c04       $pdata$__crtGetEnvironmentStringsW 0000000180063c04     LIBCMT:w_env.obj
 0003:00002c10       $pdata$_XcptFilter         0000000180063c10     LIBCMT:winxfltr.obj
 0003:00002c1c       $pdata$_setargv            0000000180063c1c     LIBCMT:stdargv.obj
 0003:00002c28       $pdata$parse_cmdline       0000000180063c28     LIBCMT:stdargv.obj
 0003:00002c34       $pdata$_setenvp            0000000180063c34     LIBCMT:stdenvp.obj
 0003:00002c40       $pdata$__security_init_cookie 0000000180063c40     LIBCMT:gs_support.obj
 0003:00002c4c       $pdata$__crtGetEnvironmentStringsA 0000000180063c4c     LIBCMT:a_env.obj
 0003:00002c58       $pdata$__crtCaptureCurrentContext 0000000180063c58     LIBCMT:winapisupp.obj
 0003:00002c64       $pdata$__crtCapturePreviousContext 0000000180063c64     LIBCMT:winapisupp.obj
 0003:00002c70       $pdata$__crtIsPackagedApp  0000000180063c70     LIBCMT:winapisupp.obj
 0003:00002c7c       $pdata$__crtLoadWinApiPointers 0000000180063c7c     LIBCMT:winapisupp.obj
 0003:00002c88       $pdata$__crtTerminateProcess 0000000180063c88     LIBCMT:winapisupp.obj
 0003:00002c94       $pdata$__crtUnhandledException 0000000180063c94     LIBCMT:winapisupp.obj
 0003:00002ca0       $pdata$_RTC_Initialize     0000000180063ca0     LIBCMT:initsect.obj
 0003:00002cac       $pdata$_RTC_Terminate      0000000180063cac     LIBCMT:initsect.obj
 0003:00002cb8       $pdata$_isatty             0000000180063cb8     LIBCMT:isatty.obj
 0003:00002cc4       $pdata$_isleadbyte_l       0000000180063cc4     LIBCMT:_wctype.obj
 0003:00002cd0       $pdata$isleadbyte          0000000180063cd0     LIBCMT:_wctype.obj
 0003:00002cdc       $pdata$_wctomb_s_l         0000000180063cdc     LIBCMT:wctomb.obj
 0003:00002ce8       $pdata$wctomb_s            0000000180063ce8     LIBCMT:wctomb.obj
 0003:00002cf4       $pdata$_tolower_l          0000000180063cf4     LIBCMT:tolower.obj
 0003:00002d00       $pdata$_fptostr            0000000180063d00     LIBCMT:_fptostr.obj
 0003:00002d0c       $pdata$_atodbl_l           0000000180063d0c     LIBCMT:atodbl.obj
 0003:00002d18       $pdata$_atoflt_l           0000000180063d18     LIBCMT:atodbl.obj
 0003:00002d24       $pdata$__dtold             0000000180063d24     LIBCMT:cfout.obj
 0003:00002d30       $pdata$_fltout2            0000000180063d30     LIBCMT:cfout.obj
 0003:00002d3c       $pdata$_calloc_impl        0000000180063d3c     LIBCMT:calloc_impl.obj
 0003:00002d48       $pdata$_IsNonwritableInCurrentImage 0000000180063d48     LIBCMT:pesect.obj
 0003:00002d54       $pdata$__onexitinit        0000000180063d54     LIBCMT:onexit.obj
 0003:00002d60       $pdata$_onexit             0000000180063d60     LIBCMT:onexit.obj
 0003:00002d6c       $pdata$atexit              0000000180063d6c     LIBCMT:onexit.obj
 0003:00002d78       $pdata$?terminate@@YAXXZ   0000000180063d78     LIBCMT:hooks.obj
 0003:00002d84       $pdata$_initp_eh_hooks     0000000180063d84     LIBCMT:hooks.obj
 0003:00002d90       $pdata$raise               0000000180063d90     LIBCMT:winsig.obj
 0003:00002d9c       $pdata$wcsncpy_s           0000000180063d9c     LIBCMT:wcsncpy_s.obj
 0003:00002da8       $pdata$_set_error_mode     0000000180063da8     LIBCMT:errmode.obj
 0003:00002db4       $pdata$__crtMessageBoxW    0000000180063db4     LIBCMT:crtmboxw.obj
 0003:00002dc0       $pdata$realloc             0000000180063dc0     LIBCMT:realloc.obj
 0003:00002dcc       $pdata$_recalloc           0000000180063dcc     LIBCMT:recalloc.obj
 0003:00002dd8       $pdata$__lock_fhandle      0000000180063dd8     LIBCMT:osfinfo.obj
 0003:00002de4       $pdata$_alloc_osfhnd       0000000180063de4     LIBCMT:osfinfo.obj
 0003:00002df0       $pdata$_free_osfhnd        0000000180063df0     LIBCMT:osfinfo.obj
 0003:00002dfc       $pdata$_get_osfhandle      0000000180063dfc     LIBCMT:osfinfo.obj
 0003:00002e08       $pdata$_set_osfhnd         0000000180063e08     LIBCMT:osfinfo.obj
 0003:00002e14       $pdata$__createFile        0000000180063e14     LIBCMT:wopen.obj
 0003:00002e20       $pdata$_wsopen_helper      0000000180063e20     LIBCMT:wopen.obj
 0003:00002e2c       $pdata$_wsopen_nolock      0000000180063e2c     LIBCMT:wopen.obj
 0003:00002e38       $pdata$_wsopen_s           0000000180063e38     LIBCMT:wopen.obj
 0003:00002e44       $pdata$_wcsnicmp           0000000180063e44     LIBCMT:wcsnicmp.obj
 0003:00002e50       $pdata$_wcsnicmp_l         0000000180063e50     LIBCMT:wcsnicmp.obj
 0003:00002e5c       $pdata$__free_lconv_mon    0000000180063e5c     LIBCMT:initmon.obj
 0003:00002e68       $pdata$__free_lconv_num    0000000180063e68     LIBCMT:initnum.obj
 0003:00002e74       $pdata$__free_lc_time      0000000180063e74     LIBCMT:inittime.obj
 0003:00002e80       $pdata$?__crtLCMapStringA_stat@@YAHPEAUlocaleinfo_struct@@PEB_WKPEBDHPEADHHH@Z 0000000180063e80     LIBCMT:a_map.obj
 0003:00002e8c       $pdata$__crtLCMapStringA   0000000180063e8c     LIBCMT:a_map.obj
 0003:00002e98       $pdata$?__crtGetStringTypeA_stat@@YAHPEAUlocaleinfo_struct@@KPEBDHPEAGHH@Z 0000000180063e98     LIBCMT:a_str.obj
 0003:00002ea4       $pdata$__crtGetStringTypeA 0000000180063ea4     LIBCMT:a_str.obj
 0003:00002eb0       $pdata$GetTableIndexFromLocaleName 0000000180063eb0     LIBCMT:winapinls.obj
 0003:00002ebc       $pdata$__crtCompareStringEx 0000000180063ebc     LIBCMT:winapinls.obj
 0003:00002ec8       $pdata$__crtDownlevelLocaleNameToLCID 0000000180063ec8     LIBCMT:winapinls.obj
 0003:00002ed4       $pdata$__crtLCMapStringEx  0000000180063ed4     LIBCMT:winapinls.obj
 0003:00002ee0       $pdata$iswctype            0000000180063ee0     LIBCMT:iswctype.obj
 0003:00002eec       $pdata$__crtLCMapStringW   0000000180063eec     LIBCMT:w_map.obj
 0003:00002ef8       $pdata$_raise_exc          0000000180063ef8     LIBCMT:fpexcept.obj
 0003:00002f04       $pdata$_raise_exc_ex       0000000180063f04     LIBCMT:fpexcept.obj
 0003:00002f10       $pdata$_set_errno_from_matherr 0000000180063f10     LIBCMT:fpexcept.obj
 0003:00002f1c       $pdata$_clrfp              0000000180063f1c     LIBCMT:fpctrl.obj
 0003:00002f28       $pdata$_ctrlfp             0000000180063f28     LIBCMT:fpctrl.obj
 0003:00002f34       $pdata$_set_statfp         0000000180063f34     LIBCMT:fpctrl.obj
 0003:00002f40       $pdata$_statfp             0000000180063f40     LIBCMT:fpctrl.obj
 0003:00002f4c       $pdata$_fputwc_nolock      0000000180063f4c     LIBCMT:fputwc.obj
 0003:00002f58       $pdata$_mbtowc_l           0000000180063f58     LIBCMT:mbtowc.obj
 0003:00002f64       $pdata$_putwch_nolock      0000000180063f64     LIBCMT:putwch.obj
 0003:00002f70       $pdata$_get_fmode          0000000180063f70     LIBCMT:setmode.obj
 0003:00002f7c       $pdata$_setmode_nolock     0000000180063f7c     LIBCMT:setmode.obj
 0003:00002f88       $pdata$__crtCompareStringW 0000000180063f88     LIBCMT:w_cmp.obj
 0003:00002f94       $pdata$__crtwsetenv        0000000180063f94     LIBCMT:wsetenv.obj
 0003:00002fa0       $pdata$?x_ismbbtype_l@@YAHPEAUlocaleinfo_struct@@IHH@Z 0000000180063fa0     LIBCMT:ismbbyte.obj
 0003:00002fac       $pdata$_ld12tod            0000000180063fac     LIBCMT:intrncvt.obj
 0003:00002fb8       $pdata$_ld12tof            0000000180063fb8     LIBCMT:intrncvt.obj
 0003:00002fc4       $pdata$__strgtold12_l      0000000180063fc4     LIBCMT:strgtold.obj
 0003:00002fd0       $pdata$$I10_OUTPUT         0000000180063fd0     LIBCMT:x10fout.obj
 0003:00002fdc       $pdata$_msize              0000000180063fdc     LIBCMT:msize.obj
 0003:00002fe8       $pdata$abort               0000000180063fe8     LIBCMT:abort.obj
 0003:00002ff4       $pdata$_chsize_nolock      0000000180063ff4     LIBCMT:chsize.obj
 0003:00003000       $pdata$_flswbuf            0000000180064000     LIBCMT:_flswbuf.obj
 0003:0000300c       $pdata$__termconout        000000018006400c     LIBCMT:initcon.obj
 0003:00003018       $pdata$__initconout        0000000180064018     LIBCMT:initcon.obj
 0003:00003024       $pdata$__mtold12           0000000180064024     LIBCMT:mantold.obj
 0003:00003030       $pdata$?_strupr_s_l_stat@@YAHPEAD_KPEAUlocaleinfo_struct@@@Z 0000000180064030     LIBCMT:strupr.obj
 0003:0000303c       $pdata$_strupr             000000018006403c     LIBCMT:strupr.obj
 0003:00003048       $pdata$_strupr_s_l         0000000180064048     LIBCMT:strupr.obj
 0003:00003054       $pdata$fread_s$fin$0       0000000180064054     LIBCMT:fread.obj
 0003:00003060       $pdata$ungetc$fin$0        0000000180064060     LIBCMT:ungetc.obj
 0003:0000306c       $pdata$_wfsopen$fin$0      000000018006406c     LIBCMT:wfopen.obj
 0003:0000306c       $pdata$fprintf$fin$0       000000018006406c     LIBCMT:wfopen.obj
 0003:00003078       $pdata$_wfreopen_helper$fin$0 0000000180064078     LIBCMT:wfreopen.obj
 0003:00003084       $pdata$rewind$fin$0        0000000180064084     LIBCMT:fflush.obj
 0003:00003084       $pdata$ftell$fin$0         0000000180064084     LIBCMT:fflush.obj
 0003:00003084       $pdata$fseek$fin$0         0000000180064084     LIBCMT:fflush.obj
 0003:00003084       $pdata$fflush$fin$0        0000000180064084     LIBCMT:fflush.obj
 0003:00003084       $pdata$getc$fin$0          0000000180064084     LIBCMT:fflush.obj
 0003:00003084       $pdata$fclose$fin$0        0000000180064084     LIBCMT:fflush.obj
 0003:00003084       $pdata$clearerr_s$fin$0    0000000180064084     LIBCMT:fflush.obj
 0003:00003090       $pdata$flsall$fin$0        0000000180064090     LIBCMT:fflush.obj
 0003:00003090       $pdata$_rmtmp$fin$0        0000000180064090     LIBCMT:fflush.obj
 0003:0000309c       $pdata$_rmtmp$fin$1        000000018006409c     LIBCMT:fflush.obj
 0003:0000309c       $pdata$flsall$fin$1        000000018006409c     LIBCMT:fflush.obj
 0003:000030a8       $pdata$fgets$fin$0         00000001800640a8     LIBCMT:fgets.obj
 0003:000030b4       $pdata$fwrite$fin$0        00000001800640b4     LIBCMT:fwrite.obj
 0003:000030b4       $pdata$vfscanf$fin$0       00000001800640b4     LIBCMT:fwrite.obj
 0003:000030b4       $pdata$_wfdopen$fin$0      00000001800640b4     LIBCMT:fwrite.obj
 0003:000030c0       $pdata$_pclose$fin$0       00000001800640c0     LIBCMT:popen.obj
 0003:000030cc       $pdata$setvbuf$fin$0       00000001800640cc     LIBCMT:setvbuf.obj
 0003:000030d8       $pdata$_tmpfile_helper$fin$0 00000001800640d8     LIBCMT:tmpfile.obj
 0003:000030e4       $pdata$_wpopen$fin$0       00000001800640e4     LIBCMT:wpopen.obj
 0003:000030f0       $pdata$_wdupenv_s$fin$0    00000001800640f0     LIBCMT:wgetenv.obj
 0003:000030fc       $pdata$_wgetenv$fin$0      00000001800640fc     LIBCMT:wgetenv.obj
 0003:00003108       $pdata$_CRT_INIT$fin$0     0000000180064108     LIBCMT:dllcrt0.obj
 0003:00003114       $pdata$__DllMainCRTStartup$filt$0 0000000180064114     LIBCMT:dllcrt0.obj
 0003:00003120       $pdata$doexit$fin$0        0000000180064120     LIBCMT:crt0dat.obj
 0003:0000312c       $pdata$_freefls$fin$1      000000018006412c     LIBCMT:tidtable.obj
 0003:0000312c       $pdata$_initptd$fin$1      000000018006412c     LIBCMT:tidtable.obj
 0003:00003138       $pdata$_initptd$fin$0      0000000180064138     LIBCMT:tidtable.obj
 0003:00003138       $pdata$_freefls$fin$0      0000000180064138     LIBCMT:tidtable.obj
 0003:00003144       $pdata$_mtinitlocknum$fin$0 0000000180064144     LIBCMT:mlock.obj
 0003:00003150       $pdata$_close$fin$0        0000000180064150     LIBCMT:close.obj
 0003:00003150       $pdata$_commit$fin$0       0000000180064150     LIBCMT:close.obj
 0003:0000315c       $pdata$_ioinit$fin$0       000000018006415c     LIBCMT:ioinit.obj
 0003:00003168       $pdata$_read$fin$0         0000000180064168     LIBCMT:lseek.obj
 0003:00003168       $pdata$_lseek$fin$0        0000000180064168     LIBCMT:lseek.obj
 0003:00003168       $pdata$_lseeki64$fin$0     0000000180064168     LIBCMT:lseek.obj
 0003:00003168       $pdata$_write$fin$0        0000000180064168     LIBCMT:lseek.obj
 0003:00003174       $pdata$_getstream$fin$0    0000000180064174     LIBCMT:stream.obj
 0003:00003174       $pdata$_fcloseall$fin$0    0000000180064174     LIBCMT:stream.obj
 0003:00003180       $pdata$__updatetlocinfo$fin$0 0000000180064180     LIBCMT:localref.obj
 0003:00003180       $pdata$_locterm$fin$0      0000000180064180     LIBCMT:localref.obj
 0003:0000318c       $pdata$_setmbcp$fin$0      000000018006418c     LIBCMT:mbctype.obj
 0003:0000318c       $pdata$__updatetmbcinfo$fin$0 000000018006418c     LIBCMT:mbctype.obj
 0003:00003198       $pdata$_pipe$fin$1         0000000180064198     LIBCMT:pipe.obj
 0003:000031a4       $pdata$_pipe$fin$0         00000001800641a4     LIBCMT:pipe.obj
 0003:000031b0       $pdata$_sopen_helper$fin$0 00000001800641b0     LIBCMT:open.obj
 0003:000031b0       $pdata$_wsopen_helper$fin$0 00000001800641b0     LIBCMT:open.obj
 0003:000031bc       $pdata$_IsNonwritableInCurrentImage$filt$0 00000001800641bc     LIBCMT:pesect.obj
 0003:000031c8       $pdata$_onexit$fin$0       00000001800641c8     LIBCMT:onexit.obj
 0003:000031d4       $pdata$raise$fin$0         00000001800641d4     LIBCMT:winsig.obj
 0003:000031e0       $pdata$__lock_fhandle$fin$0 00000001800641e0     LIBCMT:osfinfo.obj
 0003:000031ec       $pdata$_alloc_osfhnd$fin$0 00000001800641ec     LIBCMT:osfinfo.obj
 0003:000031f8       $pdata$_alloc_osfhnd$fin$1 00000001800641f8     LIBCMT:osfinfo.obj
 0003:00003204       $pdata$_control87$filt$0   0000000180064204     LIBCMT:fpctrl.obj
 0003:00003204       $pdata$_ctrlfp$filt$0      0000000180064204     LIBCMT:fpctrl.obj
 0004:00000060       $R000000                   0000000180065060     luafar3.res
