 wmexplorer

 Timestamp is 50797d94 (Sat Oct 13 18:41:24 2012)

 Preferred load address is 0000000074000000

 Start         Length     Name                   Class
 0001:00000000 000329d1H .text                   CODE
 0001:000329e0 00009c52H .text$x                 CODE
 0001:0003c634 000001a4H .text$yc                CODE
 0001:0003c7d8 000001e2H .text$yd                CODE
 0002:00000000 000003b8H .idata$5                DATA
 0002:000003b8 00000008H .CRT$XCA                DATA
 0002:000003c0 00000030H .CRT$XCU                DATA
 0002:000003f0 00000008H .CRT$XCZ                DATA
 0002:000003f8 00000008H .CRT$XIA                DATA
 0002:00000400 00000018H .CRT$XIC                DATA
 0002:00000418 00000008H .CRT$XIZ                DATA
 0002:00000420 00000008H .CRT$XPA                DATA
 0002:00000428 00000008H .CRT$XPX                DATA
 0002:00000430 00000008H .CRT$XPXA               DATA
 0002:00000438 00000008H .CRT$XPZ                DATA
 0002:00000440 00000008H .CRT$XTA                DATA
 0002:00000448 00000008H .CRT$XTZ                DATA
 0002:00000450 00004b96H .rdata                  DATA
 0002:00004fe8 0000004fH .rdata$debug            DATA
 0002:00005038 000006dcH .rdata$r                DATA
 0002:00005718 00000008H .rtc$IAA                DATA
 0002:00005720 00000008H .rtc$IZZ                DATA
 0002:00005728 00000008H .rtc$TAA                DATA
 0002:00005730 00000008H .rtc$TZZ                DATA
 0002:00005738 0000d908H .xdata                  DATA
 0002:00013040 000002e4H .xdata$x                DATA
 0002:00013324 00000078H .idata$2                DATA
 0002:0001339c 00000014H .idata$3                DATA
 0002:000133b0 000003b8H .idata$4                DATA
 0002:00013768 00000862H .idata$6                DATA
 0002:00013fd0 000001a9H .edata                  DATA
 0003:00000000 00001a10H .data                   DATA
 0003:00001a20 000027b0H .bss                    DATA
 0004:00000000 00002c1cH .pdata                  DATA
 0005:00000000 00000058H .rsrc$01                DATA
 0005:00000060 000002a0H .rsrc$02                DATA

  Address         Publics by Value              Rva+Base               Lib:Object

 0000:00000000       ___safe_se_handler_count   0000000000000000     <absolute>
 0000:00000000       ___safe_se_handler_table   0000000000000000     <absolute>
 0000:00000000       __ImageBase                0000000074000000     <linker-defined>
 0001:00000000       ?object@CustomError@@QEBA?AVUnicodeString@col@@XZ 0000000074001000 f i plugin.obj
 0001:00000000       ?message@MsgError@@UEBA?AVUnicodeString@col@@XZ 0000000074001000 f i plugin.obj
 0001:00000010       ?message@CustomError@@UEBA?AVUnicodeString@col@@XZ 0000000074001010 f i plugin.obj
 0001:00000020       ?get_system_message@@YA?AVUnicodeString@col@@K@Z 0000000074001020 f i plugin.obj
 0001:000000e4       ?message@SystemError@@UEBA?AVUnicodeString@col@@XZ 00000000740010e4 f i plugin.obj
 0001:00000108       ??4FilePath@@QEAAAEAV0@AEBV0@@Z 0000000074001108 f i plugin.obj
 0001:000001b8       ?get_dir_path@FilePath@@QEBA?AVUnicodeString@col@@XZ 00000000740011b8 f i plugin.obj
 0001:000001e8       ?get_file_name@FilePath@@QEBA?AVUnicodeString@col@@XZ 00000000740011e8 f i plugin.obj
 0001:00000220       ?get_partial_path@FilePath@@QEBA?AVUnicodeString@col@@I@Z 0000000074001220 f i plugin.obj
 0001:0000033c       ?get_full_path@FilePath@@QEBA?AVUnicodeString@col@@XZ 000000007400133c f i plugin.obj
 0001:00000360       ??1DeviceInfo@@QEAA@XZ     0000000074001360 f i plugin.obj
 0001:000003b0       ??1PluginItemList@@QEAA@XZ 00000000740013b0 f i plugin.obj
 0001:000003b0       ??1InfoPanel@@QEAA@XZ      00000000740013b0 f i plugin.obj
 0001:000003e0       ??1PluginOptions@@QEAA@XZ  00000000740013e0 f i plugin.obj
 0001:0000044c       ?strid@DeviceInfo@@QEAA?AVUnicodeString@col@@XZ 000000007400144c f   plugin.obj
 0001:000004d0       ?error_dlg@@YAXAEAVError@@AEBVUnicodeString@col@@@Z 00000000740014d0 f   plugin.obj
 0001:00000758       ?error_dlg@@YAXAEAVCustomError@@@Z 0000000074001758 f   plugin.obj
 0001:00000a60       ?error_dlg@@YAXAEBVexception@std@@@Z 0000000074001a60 f   plugin.obj
 0001:00000c2c       ?msg_dlg@@YAXAEBVUnicodeString@col@@@Z 0000000074001c2c f   plugin.obj
 0001:00000d64       GetGlobalInfoW             0000000074001d64 f   plugin.obj
 0001:00000e10       SetStartupInfoW            0000000074001e10 f   plugin.obj
 0001:00000ecc       GetPluginInfoW             0000000074001ecc f   plugin.obj
 0001:000010d4       OpenW                      00000000740020d4 f   plugin.obj
 0001:00001864       ??1MsgError@@QEAA@XZ       0000000074002864 f i plugin.obj
 0001:00001878       ??_GPluginInstance@@QEAAPEAXI@Z 0000000074002878 f i plugin.obj
 0001:00001a0c       ??0MsgError@@QEAA@AEBV0@@Z 0000000074002a0c f i plugin.obj
 0001:00001a40       ??0Error@@QEAA@AEBV0@@Z    0000000074002a40 f i plugin.obj
 0001:00001a5c       GetOpenPanelInfoW          0000000074002a5c f   plugin.obj
 0001:00001be8       ClosePanelW                0000000074002be8 f   plugin.obj
 0001:00001ce8       GetFindDataW               0000000074002ce8 f   plugin.obj
 0001:00001eb8       FreeFindDataW              0000000074002eb8 f   plugin.obj
 0001:00001f0c       SetDirectoryW              0000000074002f0c f   plugin.obj
 0001:00001f4c       ?set_dir@@YAHPEAUPluginInstance@@PEB_W_N@Z 0000000074002f4c f   plugin.obj
 0001:00002228       ??1FilePath@@QEAA@XZ       0000000074003228 f i plugin.obj
 0001:00002254       ??0SystemError@@QEAA@AEBV0@@Z 0000000074003254 f i plugin.obj
 0001:00002280       ?get_files@@YA_JPEAXPEAUPluginPanelItem@@_KHAEAVUnicodeString@col@@2@Z 0000000074003280 f   plugin.obj
 0001:00003bc4       ??1Log@@QEAA@XZ            0000000074004bc4 f i plugin.obj
 0001:00003c48       ??1CustomError@@QEAA@XZ    0000000074004c48 f i plugin.obj
 0001:00003c84       ??1ListData@FarDialog@@QEAA@XZ 0000000074004c84 f i ui.obj
 0001:00003c84       ??1CopyFilesProgress@@QEAA@XZ 0000000074004c84 f i plugin.obj
 0001:00003cc0       ??1AutoBuffer@@QEAA@XZ     0000000074004cc0 f i plugin.obj
 0001:00003cd4       ??0CustomError@@QEAA@AEBV0@@Z 0000000074004cd4 f i plugin.obj
 0001:00003d10       GetFilesW                  0000000074004d10 f   plugin.obj
 0001:00003dd0       PutFilesW                  0000000074004dd0 f   plugin.obj
 0001:00004ba8       DeleteFilesW               0000000074005ba8 f   plugin.obj
 0001:00005048       MakeDirectoryW             0000000074006048 f   plugin.obj
 0001:000052d0       ConfigureW                 00000000740062d0 f   plugin.obj
 0001:000052f8       ProcessPanelInputW         00000000740062f8 f   plugin.obj
 0001:000061a0       ExitFARW                   00000000740071a0 f   plugin.obj
 0001:00006208       DllMain                    0000000074007208 f   plugin.obj
 0001:00006224       ??1?$ObjectArray@VUnicodeString@col@@@col@@QEAA@XZ 0000000074007224 f i plugin.obj
 0001:00006288       ??1?$ObjectArray@UPluginItemList@@@col@@QEAA@XZ 0000000074007288 f i plugin.obj
 0001:00006300       ??0?$Array@E@col@@QEAA@XZ  0000000074007300 f i plugin.obj
 0001:00006390       ??1?$ObjectArray@UDeviceInfo@@@col@@QEAA@XZ 0000000074007390 f i plugin.obj
 0001:0000642c       ??1?$ObjectArray@UFileInfo@@@col@@QEAA@XZ 000000007400742c f i plugin.obj
 0001:00006490       ??0?$Array@I@col@@QEAA@XZ  0000000074007490 f i plugin.obj
 0001:00006490       ??0?$Array@H@col@@QEAA@XZ  0000000074007490 f i ui.obj
 0001:00006520       ??1?$ObjectArray@V?$ObjectArray@UFileInfo@@@col@@@col@@QEAA@XZ 0000000074007520 f i plugin.obj
 0001:00006568       ??1?$ObjectArray@UFilterInterface@@@col@@QEAA@XZ 0000000074007568 f i plugin.obj
 0001:000065b4       ??0?$Array@UFilterSelection@@@col@@QEAA@XZ 00000000740075b4 f i plugin.obj
 0001:00006644       ??1?$ObjectArray@UPanelFileInfo@@@col@@QEAA@XZ 0000000074007644 f i plugin.obj
 0001:000066c8       ?create@?$ObjectArray@VUnicodeString@col@@@col@@CAPEAUBuffer@12@PEBVUnicodeString@2@I@Z 00000000740076c8 f i plugin.obj
 0001:00006768       ?create@?$ObjectArray@ULogRecord@@@col@@CAPEAUBuffer@12@PEBULogRecord@@I@Z 0000000074007768 f i plugin.obj
 0001:00006820       ?create@?$ObjectArray@UPluginItemList@@@col@@CAPEAUBuffer@12@PEBUPluginItemList@@I@Z 0000000074007820 f i plugin.obj
 0001:000068d0       ?remove@?$Array@PEAUPluginInstance@@@col@@QEAAAEAV12@II@Z 00000000740078d0 f i plugin.obj
 0001:00006b3c       ?create@?$ObjectArray@UDeviceInfo@@@col@@CAPEAUBuffer@12@PEBUDeviceInfo@@I@Z 0000000074007b3c f i plugin.obj
 0001:00006c04       ?create@?$ObjectArray@UFileInfo@@@col@@CAPEAUBuffer@12@PEBUFileInfo@@I@Z 0000000074007c04 f i plugin.obj
 0001:00006cdc       ?_cmp_def@?$Array@I@col@@CAHPEBX0@Z 0000000074007cdc f i plugin.obj
 0001:00006cf0       ?create@?$ObjectArray@V?$ObjectArray@UFileInfo@@@col@@@col@@CAPEAUBuffer@12@PEBV?$ObjectArray@UFileInfo@@@2@I@Z 0000000074007cf0 f i plugin.obj
 0001:00006d90       ?create@?$ObjectArray@UFilterInterface@@@col@@CAPEAUBuffer@12@PEBUFilterInterface@@I@Z 0000000074007d90 f i plugin.obj
 0001:00006e40       ?create@?$ObjectArray@UPanelFileInfo@@@col@@CAPEAUBuffer@12@PEBUPanelFileInfo@@I@Z 0000000074007e40 f i plugin.obj
 0001:00006f24       ?replace@?$ObjectArray@VUnicodeString@col@@@col@@QEAAAEAV12@IIPEBVUnicodeString@2@I@Z 0000000074007f24 f i plugin.obj
 0001:00007260       ?replace@?$ObjectArray@UPluginItemList@@@col@@QEAAAEAV12@IIPEBUPluginItemList@@I@Z 0000000074008260 f i plugin.obj
 0001:000076fc       ?replace@?$Array@PEAUPluginInstance@@@col@@QEAAAEAV12@IIPEBQEAUPluginInstance@@I@Z 00000000740086fc f i plugin.obj
 0001:00007a60       ?replace@?$ObjectArray@UDeviceInfo@@@col@@QEAAAEAV12@IIPEBUDeviceInfo@@I@Z 0000000074008a60 f i plugin.obj
 0001:00007f60       ?copy_item@?$ObjectArray@UFilterInterface@@@col@@CAXPEAUFilterInterface@@PEBU3@@Z 0000000074008f60 f i plugin.obj
 0001:00008004       ??1?$Array@UInfoPanelLine@@@col@@QEAA@XZ 0000000074009004 f i plugin.obj
 0001:00008004       ??1?$Array@_W@col@@QEAA@XZ 0000000074009004 f i ui.obj
 0001:00008004       ??1?$Array@UFarDialogItem@@@col@@QEAA@XZ 0000000074009004 f i ui.obj
 0001:00008004       ??1?$Array@UFilterSelection@@@col@@QEAA@XZ 0000000074009004 f i plugin.obj
 0001:00008004       ??1DeleteFilesProgress@@QEAA@XZ 0000000074009004 f i plugin.obj
 0001:00008004       ??1?$Array@I@col@@QEAA@XZ  0000000074009004 f i plugin.obj
 0001:00008004       ??1?$Array@H@col@@QEAA@XZ  0000000074009004 f i ui.obj
 0001:00008004       ??1?$Array@UPluginPanelItem@@@col@@QEAA@XZ 0000000074009004 f i plugin.obj
 0001:00008004       ??1RunOptions@@QEAA@XZ     0000000074009004 f i plugin.obj
 0001:00008004       ??1AnsiString@col@@QEAA@XZ 0000000074009004 f i plugin.obj
 0001:00008004       ??1UnicodeString@col@@QEAA@XZ 0000000074009004 f i plugin.obj
 0001:00008004       ??1CreateDirOptions@@QEAA@XZ 0000000074009004 f i plugin.obj
 0001:00008004       ??1?$Array@UFarList@@@col@@QEAA@XZ 0000000074009004 f i ui.obj
 0001:00008004       ??1?$Array@UFarMenuItem@@@col@@QEAA@XZ 0000000074009004 f i ui.obj
 0001:00008004       ??1CopyFilesOptions@@QEAA@XZ 0000000074009004 f i plugin.obj
 0001:00008004       ??1FileInfo@@QEAA@XZ       0000000074009004 f i plugin.obj
 0001:00008004       ??1?$Array@D@col@@QEAA@XZ  0000000074009004 f i util.obj
 0001:00008018       ??1PanelFileInfo@@QEAA@XZ  0000000074009018 f i plugin.obj
 0001:00008054       ?ref_alloc@?$ObjectArray@VUnicodeString@col@@@col@@AEAAPEAUBuffer@12@I@Z 0000000074009054 f i plugin.obj
 0001:000080e0       ?ref_alloc@?$Array@PEAUPluginInstance@@@col@@AEAAPEAUBuffer@12@I@Z 00000000740090e0 f i plugin.obj
 0001:00008168       ?ref_alloc@?$ObjectArray@UDeviceInfo@@@col@@AEAAPEAUBuffer@12@I@Z 0000000074009168 f i plugin.obj
 0001:000081f8       ?replace@?$Array@I@col@@QEAAAEAV12@IIPEBII@Z 00000000740091f8 f i plugin.obj
 0001:00008608       ?replace@?$ObjectArray@V?$ObjectArray@UFileInfo@@@col@@@col@@QEAAAEAV12@IIPEBV?$ObjectArray@UFileInfo@@@2@I@Z 0000000074009608 f i plugin.obj
 0001:000089f4       ?replace@?$ObjectArray@UFilterInterface@@@col@@QEAAAEAV12@IIPEBUFilterInterface@@I@Z 00000000740099f4 f i plugin.obj
 0001:00008d50       ??3@YAXPEAX0@Z             0000000074009d50 f i plugin.obj
 0001:00008d54       ?slice@UnicodeString@col@@QEBA?AV12@II@Z 0000000074009d54 f i plugin.obj
 0001:00008d84       ??Hcol@@YA?AVUnicodeString@0@AEB_WAEBV10@@Z 0000000074009d84 f i plugin.obj
 0001:00008e00       ?search@UnicodeString@col@@QEBAIIIPEB_WI@Z 0000000074009e00 f i plugin.obj
 0001:00008ea0       ??Hcol@@YA?AVUnicodeString@0@AEBV10@PEB_W@Z 0000000074009ea0 f i plugin.obj
 0001:00008f1c       ??Hcol@@YA?AVUnicodeString@0@AEBV10@0@Z 0000000074009f1c f i plugin.obj
 0001:00008f84       ??Hcol@@YA?AVUnicodeString@0@PEB_WAEBV10@@Z 0000000074009f84 f i plugin.obj
 0001:00009010       ?create@AnsiString@col@@CAPEAUBuffer@12@PEBDI@Z 000000007400a010 f i plugin.obj
 0001:000090b8       ??Hcol@@YA?AVUnicodeString@0@AEBV10@AEB_W@Z 000000007400a0b8 f i plugin.obj
 0001:0000911c       ?format@UnicodeString@col@@SA?AV12@PEB_WZZ 000000007400a11c f i plugin.obj
 0001:00009178       ?buf@UnicodeString@col@@QEAAPEA_WI@Z 000000007400a178 f i plugin.obj
 0001:00009244       ?set_size@UnicodeString@col@@QEAAAEAV12@I@Z 000000007400a244 f i plugin.obj
 0001:000092bc       ?extend@UnicodeString@col@@QEAAAEAV12@I@Z 000000007400a2bc f i plugin.obj
 0001:00009378       ?do_format@UnicodeString@col@@AEAAAEAV12@PEB_WPEAD@Z 000000007400a378 f i plugin.obj
 0001:00009a24       ?add_fmt@UnicodeString@col@@QEAAAEAV12@PEB_WZZ 000000007400aa24 f i plugin.obj
 0001:00009a50       ?strip@UnicodeString@col@@QEAAAEAV12@XZ 000000007400aa50 f i plugin.obj
 0001:00009ac0       ?ref_alloc@UnicodeString@col@@AEAAPEAUBuffer@12@I@Z 000000007400aac0 f i plugin.obj
 0001:00009b4c       ?replace@UnicodeString@col@@QEAAAEAV12@IIPEB_WI@Z 000000007400ab4c f i plugin.obj
 0001:00009eac       ??1bad_alloc@std@@UEAA@XZ  000000007400aeac f i plugin.obj
 0001:00009ebc       ??_Ebad_alloc@std@@UEAAPEAXI@Z 000000007400aebc f i  CIL library: CIL module
 0001:00009ebc       ??_Gbad_alloc@std@@UEAAPEAXI@Z 000000007400aebc f i plugin.obj
 0001:00009ef8       ??0bad_alloc@std@@QEAA@AEBV01@@Z 000000007400aef8 f i plugin.obj
 0001:00009f1c       ?create@UnicodeString@col@@CAPEAUBuffer@12@PEB_WI@Z 000000007400af1c f i plugin.obj
 0001:00009fc4       ?message@ComError@@UEBA?AVUnicodeString@col@@XZ 000000007400afc4 f i rapi_proc.obj
 0001:0000a1cc       ?add@Log@@QEAAXW4LogOpType@@AEBVUnicodeString@col@@1@Z 000000007400b1cc f i rapi_proc.obj
 0001:0000a2c4       ?error_dlg@@YA_JAEAVError@@AEBVUnicodeString@col@@@Z 000000007400b2c4 f   rapi_proc.obj
 0001:0000a6fc       ?long_path@@YA?AVUnicodeString@col@@AEBV12@@Z 000000007400b6fc f   rapi_proc.obj
 0001:0000ad5c       ?init_if_needed@@YAXXZ     000000007400bd5c f   rapi_proc.obj
 0001:0000bbec       ??0ComError@@QEAA@AEBV0@@Z 000000007400cbec f i rapi_proc.obj
 0001:0000bc18       ?get_device_list@@YAXAEAV?$ObjectArray@UDeviceInfo@@@col@@@Z 000000007400cc18 f   rapi_proc.obj
 0001:0000c104       ?create_session@@YAXU_GUID@@PEAUPluginInstance@@@Z 000000007400d104 f   rapi_proc.obj
 0001:0000c30c       ?gen_file_list@@YAXAEBVUnicodeString@col@@PEAUIRAPISession@@AEAUPluginItemList@@AEBUFileListOptions@@AEAVUiLink@@@Z 000000007400d30c f   rapi_proc.obj
 0001:0000c7bc       ?overwrite_decision@@YAXAEBVUnicodeString@col@@AEBUFileInfo@@1AEA_NAEAW4OverwriteOption@@@Z 000000007400d7bc f   rapi_proc.obj
 0001:0000c8b4       ?list_add_file@@YAXAEBU_WIN32_FIND_DATAW@@AEAUCreateListStats@@AEAVUiLink@@AEAV?$ObjectArray@UFileInfo@@@col@@@Z 000000007400d8b4 f   rapi_proc.obj
 0001:0000c950       ?list_add_dir@@YAXAEBVUnicodeString@col@@AEAU_WIN32_FIND_DATAW@@AEAUCreateListStats@@AEAUCreateListOptions@@AEAVUiLink@@AEAULog@@PEAUPluginInstance@@AEAV?$ObjectArray@UFileInfo@@@2@@Z 000000007400d950 f   rapi_proc.obj
 0001:0000cd8c       ?create_file_list@@YA?AV?$ObjectArray@UFileInfo@@@col@@AEBVUnicodeString@2@0AEAUCreateListStats@@AEAUCreateListOptions@@AEAVUiLink@@AEAULog@@PEAUPluginInstance@@@Z 000000007400dd8c f   rapi_proc.obj
 0001:0000d034       ?list_add_file@@YAXAEAUCE_FIND_DATA@@AEAUCreateListStats@@AEAVUiLink@@AEAV?$ObjectArray@UFileInfo@@@col@@@Z 000000007400e034 f   rapi_proc.obj
 0001:0000d0d0       ?list_add_dir@@YAXAEBVUnicodeString@col@@AEAUCE_FIND_DATA@@AEAUCreateListStats@@AEAUCreateListOptions@@AEAVUiLink@@AEAULog@@PEAUIRAPISession@@PEAUPluginInstance@@AEAV?$ObjectArray@UFileInfo@@@2@@Z 000000007400e0d0 f   rapi_proc.obj
 0001:0000d580       ?create_file_list@@YA?AV?$ObjectArray@UFileInfo@@@col@@AEBVUnicodeString@2@0AEAUCreateListStats@@AEAUCreateListOptions@@AEAVUiLink@@AEAULog@@PEAUIRAPISession@@PEAUPluginInstance@@@Z 000000007400e580 f   rapi_proc.obj
 0001:0000d8cc       ?prepare_target_path@@YAXAEBVUnicodeString@col@@PEAUPluginInstance@@@Z 000000007400e8cc f   rapi_proc.obj
 0001:0000da4c       ?prepare_target_path@@YAXAEBVUnicodeString@col@@PEAUIRAPISession@@PEAUPluginInstance@@@Z 000000007400ea4c f   rapi_proc.obj
 0001:0000dc24       ?copy_files@@YAX_NAEBVUnicodeString@col@@AEBV?$ObjectArray@UFileInfo@@@2@011AEAUCopyFilesStats@@AEAUCopyFilesProgress@@AEAUCopyFilesOptions@@AEAVUiLink@@AEAUAutoBuffer@@AEAULog@@AEAV?$ObjectArray@UFilterInterface@@@2@PEAUIRAPISession@@PEAUPluginInstance@@@Z 000000007400ec24 f   rapi_proc.obj
 0001:000101a0       ?delete_files@@YAX_NAEBVUnicodeString@col@@AEBV?$ObjectArray@UFileInfo@@@2@AEAUDeleteFilesStats@@AEAUDeleteFilesProgress@@AEAUDeleteFilesOptions@@AEAVUiLink@@AEAULog@@PEAUIRAPISession@@PEAUPluginInstance@@@Z 00000000740111a0 f   rapi_proc.obj
 0001:00010968       ?create_dir@@YAXAEBVUnicodeString@col@@0PEAUIRAPISession@@PEAUPluginInstance@@@Z 0000000074011968 f   rapi_proc.obj
 0001:00010bd4       ?set_file_attr@@YAXAEBVUnicodeString@col@@KPEAUIRAPISession@@PEAUPluginInstance@@@Z 0000000074011bd4 f   rapi_proc.obj
 0001:00010cf0       ?find_real_file_path@@YAXAEAVFilePath@@PEAUIRAPISession@@@Z 0000000074011cf0 f   rapi_proc.obj
 0001:00010e98       ?dir_exists@@YA_NAEBVUnicodeString@col@@@Z 0000000074011e98 f   rapi_proc.obj
 0001:00010f34       ?dir_exists@@YA_NAEBVUnicodeString@col@@PEAUIRAPISession@@@Z 0000000074011f34 f   rapi_proc.obj
 0001:00010fe0       ?add_separator@InfoPanel@@QEAAXAEBVUnicodeString@col@@@Z 0000000074011fe0 f   rapi_proc.obj
 0001:00011070       ?add_info@InfoPanel@@QEAAXAEBVUnicodeString@col@@0@Z 0000000074012070 f   rapi_proc.obj
 0001:00011134       ?refresh_system_info@@YAXPEAUPluginInstance@@@Z 0000000074012134 f   rapi_proc.obj
 0001:00011e38       ?get_open_command@@YA?AVUnicodeString@col@@AEBV12@0PEAUIRAPISession@@@Z 0000000074012e38 f   rapi_proc.obj
 0001:000129e8       ?create_process@@YAXAEBVUnicodeString@col@@0PEAUIRAPISession@@@Z 00000000740139e8 f   rapi_proc.obj
 0001:00012b88       ?panel_items_to_file_list@@YAXPEAUPluginPanelItem@@_KAEAV?$ObjectArray@UFileInfo@@@col@@@Z 0000000074013b88 f   rapi_proc.obj
 0001:00012c8c       ?file_panel_items_to_file_list@@YAXAEBVUnicodeString@col@@PEAUPluginPanelItem@@_KAEAV?$ObjectArray@UPanelFileInfo@@@2@AEAVUiLink@@PEAUPluginInstance@@@Z 0000000074013c8c f   rapi_proc.obj
 0001:0001319c       ?buf@?$Array@E@col@@QEAAPEAEI@Z 000000007401419c f i rapi_proc.obj
 0001:00013230       ?extend@?$ObjectArray@UFileInfo@@@col@@QEAAAEAV12@I@Z 0000000074014230 f i rapi_proc.obj
 0001:000132c4       ?remove@?$Array@UPluginPanelItem@@@col@@QEAAAEAV12@II@Z 00000000740142c4 f i rapi_proc.obj
 0001:0001354c       ?remove@?$Array@UInfoPanelLine@@@col@@QEAAAEAV12@II@Z 000000007401454c f i rapi_proc.obj
 0001:000137bc       ?ref_resize@?$Array@E@col@@AEAAXI@Z 00000000740147bc f i rapi_proc.obj
 0001:00013868       ?ref_resize@?$ObjectArray@UFileInfo@@@col@@AEAAXI@Z 0000000074014868 f i rapi_proc.obj
 0001:00013900       ?remove@?$Array@I@col@@QEAAAEAV12@II@Z 0000000074014900 f i rapi_proc.obj
 0001:00013be4       ?ref_resize@?$ObjectArray@UPanelFileInfo@@@col@@AEAAXI@Z 0000000074014be4 f i rapi_proc.obj
 0001:00013c88       ?ref_resize@?$ObjectArray@VUnicodeString@col@@@col@@AEAAXI@Z 0000000074014c88 f i rapi_proc.obj
 0001:00013ce0       ?replace@?$ObjectArray@ULogRecord@@@col@@QEAAAEAV12@IIPEBULogRecord@@I@Z 0000000074014ce0 f i rapi_proc.obj
 0001:00014148       ?ref_alloc@?$Array@UPluginPanelItem@@@col@@AEAAPEAUBuffer@12@I@Z 0000000074015148 f i rapi_proc.obj
 0001:000141d8       ?replace@?$Array@UPluginPanelItem@@@col@@QEAAAEAV12@IIPEBUPluginPanelItem@@I@Z 00000000740151d8 f i rapi_proc.obj
 0001:0001462c       ?replace@?$Array@UInfoPanelLine@@@col@@QEAAAEAV12@IIPEBUInfoPanelLine@@I@Z 000000007401562c f i rapi_proc.obj
 0001:00014a30       ?ref_alloc@?$ObjectArray@UFileInfo@@@col@@AEAAPEAUBuffer@12@I@Z 0000000074015a30 f i rapi_proc.obj
 0001:00014abc       ?replace@?$ObjectArray@UFileInfo@@@col@@QEAAAEAV12@IIPEBUFileInfo@@I@Z 0000000074015abc f i rapi_proc.obj
 0001:00014fa0       ?ref_alloc@?$ObjectArray@UPanelFileInfo@@@col@@AEAAPEAUBuffer@12@I@Z 0000000074015fa0 f i rapi_proc.obj
 0001:0001502c       ?replace@?$ObjectArray@UPanelFileInfo@@@col@@QEAAAEAV12@IIPEBUPanelFileInfo@@I@Z 000000007401602c f i rapi_proc.obj
 0001:0001557c       ?right@UnicodeString@col@@QEBA?AV12@I@Z 000000007401657c f i rapi_proc.obj
 0001:000155a4       ?rsearch@UnicodeString@col@@QEBAIAEB_W@Z 00000000740165a4 f i rapi_proc.obj
 0001:00015618       ?remove@UnicodeString@col@@QEAAAEAV12@II@Z 0000000074016618 f i rapi_proc.obj
 0001:000158a8       ?copy_fmt@UnicodeString@col@@QEAAAEAV12@PEB_WZZ 00000000740168a8 f i rapi_proc.obj
 0001:000158ec       ?oem_to_unicode@@YAXAEAVUnicodeString@col@@AEBVAnsiString@2@@Z 00000000740168ec f   util.obj
 0001:00015984       ?oem_to_unicode@@YA?AVUnicodeString@col@@AEBVAnsiString@2@@Z 0000000074016984 f   util.obj
 0001:000159d8       ?unicode_to_ansi@@YAXAEAVAnsiString@col@@AEBVUnicodeString@2@@Z 00000000740169d8 f   util.obj
 0001:00015a90       ?ansi_to_unicode@@YAXAEAVUnicodeString@col@@AEBVAnsiString@2@@Z 0000000074016a90 f   util.obj
 0001:00015b24       ?unicode_to_ansi@@YA?AVAnsiString@col@@AEBVUnicodeString@2@@Z 0000000074016b24 f   util.obj
 0001:00015b78       ?ansi_to_unicode@@YA?AVUnicodeString@col@@AEBVAnsiString@2@@Z 0000000074016b78 f   util.obj
 0001:00015bcc       ?word_wrap@@YA?AVUnicodeString@col@@AEBV12@I@Z 0000000074016bcc f   util.obj
 0001:00015c8c       ?format_data_size@@YA?AVUnicodeString@col@@_KAEBV?$ObjectArray@VUnicodeString@col@@@2@@Z 0000000074016c8c f   util.obj
 0001:00015dc8       ?format_time@@YA?AVUnicodeString@col@@_K@Z 0000000074016dc8 f   util.obj
 0001:00015e48       ?fit_str@@YA?AVUnicodeString@col@@AEBV12@I@Z 0000000074016e48 f   util.obj
 0001:00015f24       ?center@@YA?AVUnicodeString@col@@AEBV12@I@Z 0000000074016f24 f   util.obj
 0001:00015f7c       ?get_module_version@@YA?AUModuleVersion@@PEAUHINSTANCE__@@@Z 0000000074016f7c f   util.obj
 0001:00016160       ?extract_file_name@@YA?BVUnicodeString@col@@AEBV12@@Z 0000000074017160 f   util.obj
 0001:000161c0       ?unquote@@YAXAEAVUnicodeString@col@@@Z 00000000740171c0 f   util.obj
 0001:00016210       ?make_temp_file@@YA?AVUnicodeString@col@@XZ 0000000074017210 f   util.obj
 0001:000163ac       ?format_file_time@@YA?AVUnicodeString@col@@AEBU_FILETIME@@@Z 00000000740173ac f   util.obj
 0001:000165a4       ?del_trailing_slash@@YA?AVUnicodeString@col@@AEBV12@@Z 00000000740175a4 f   util.obj
 0001:000165ec       ?far_get_panel_item@@YAPEAUPluginPanelItem@@PEAX_JAEBUPanelInfo@@@Z 00000000740175ec f   util.obj
 0001:000166e8       ?far_get_selected_panel_item@@YAPEAUPluginPanelItem@@PEAX_JAEBUPanelInfo@@@Z 00000000740176e8 f   util.obj
 0001:000167e4       ?far_set_progress_value@@YAX_K0@Z 00000000740177e4 f   util.obj
 0001:00016844       ?buf@?$Array@D@col@@QEAAPEADI@Z 0000000074017844 f i util.obj
 0001:00016968       ?left@UnicodeString@col@@QEBA?AV12@I@Z 0000000074017968 f i util.obj
 0001:0001698c       ?swprintf@@YAHPEA_WPEB_WZZ 000000007401798c f i util.obj
 0001:000169b0       ?ref_resize@AnsiString@col@@AEAAXI@Z 00000000740179b0 f i util.obj
 0001:00016a64       ?buf@AnsiString@col@@QEAAPEADI@Z 0000000074017a64 f i util.obj
 0001:00016afc       ?far_get_msg@@YA?AVUnicodeString@col@@H@Z 0000000074017afc f   ui.obj
 0001:00016b44       ?far_message@@YA_JAEBU_GUID@@AEBVUnicodeString@col@@_J_K@Z 0000000074017b44 f   ui.obj
 0001:00016b84       ?far_load_colors@@YAXXZ    0000000074017b84 f   ui.obj
 0001:00016c78       ?far_get_text@@YA?AVUnicodeString@col@@PEAXI@Z 0000000074017c78 f   ui.obj
 0001:00016d34       ?draw_text_box@@YAXAEBVUnicodeString@col@@AEBV?$ObjectArray@VUnicodeString@col@@@2@I@Z 0000000074017d34 f   ui.obj
 0001:00016edc       ??0UiLink@@QEAA@_N@Z       0000000074017edc f   ui.obj
 0001:00016f34       ??1UiLink@@QEAA@XZ         0000000074017f34 f   ui.obj
 0001:00016f4c       ?update_needed@UiLink@@QEAA_NXZ 0000000074017f4c f   ui.obj
 0001:000171b8       ?get_size_suffixes@@YA?AV?$ObjectArray@VUnicodeString@col@@@col@@XZ 00000000740181b8 f   ui.obj
 0001:00017330       ?get_speed_suffixes@@YA?AV?$ObjectArray@VUnicodeString@col@@@col@@XZ 0000000074018330 f   ui.obj
 0001:000174a8       ?show_log@@YAXAEBULog@@@Z  00000000740184a8 f   ui.obj
 0001:00017a04       ?get_msg_width@@YAIXZ      0000000074018a04 f   ui.obj
 0001:00017a68       ?draw_progress_msg@@YAXAEBVUnicodeString@col@@@Z 0000000074018a68 f   ui.obj
 0001:00017b50       ?draw_create_list_progress@@YAXAEBUCreateListStats@@@Z 0000000074018b50 f   ui.obj
 0001:00017d6c       ?copy_files_dlg_proc@@YA_JPEAX_J10@Z 0000000074018d6c f   ui.obj
 0001:00017f4c       ?show_copy_files_dlg@@YA_NAEAUCopyFilesOptions@@_N@Z 0000000074018f4c f   ui.obj
 0001:000184ac       ??1FarDialog@@QEAA@XZ      00000000740194ac f i ui.obj
 0001:00018554       ?show_overwrite_dlg@@YA?AW4OverwriteAction@@AEBVUnicodeString@col@@AEBUFileInfo@@1@Z 0000000074019554 f   ui.obj
 0001:00018ab0       ?show_copy_files_results_dlg@@YAXAEBUCopyFilesStats@@AEBULog@@@Z 0000000074019ab0 f   ui.obj
 0001:00018d88       ?draw_copy_files_progress@@YAXAEBUCopyFilesProgress@@AEBUCopyFilesStats@@_N@Z 0000000074019d88 f   ui.obj
 0001:00019684       ?draw_move_remote_files_progress@@YAXAEBUCopyFilesProgress@@AEBUCopyFilesStats@@@Z 000000007401a684 f   ui.obj
 0001:00019aa4       ?delete_files_dlg_proc@@YA_JPEAX_J10@Z 000000007401aaa4 f   ui.obj
 0001:00019b88       ?show_delete_files_dlg@@YA_NAEAUDeleteFilesOptions@@@Z 000000007401ab88 f   ui.obj
 0001:00019e88       ?draw_delete_files_progress@@YAXAEBUDeleteFilesProgress@@AEBUDeleteFilesStats@@@Z 000000007401ae88 f   ui.obj
 0001:0001a2dc       ?show_delete_files_results_dlg@@YAXAEBUDeleteFilesStats@@AEBULog@@@Z 000000007401b2dc f   ui.obj
 0001:0001a5a8       ?create_dir_dlg_proc@@YA_JPEAX_J10@Z 000000007401b5a8 f   ui.obj
 0001:0001a67c       ?show_create_dir_dlg@@YA_NAEAUCreateDirOptions@@@Z 000000007401b67c f   ui.obj
 0001:0001a810       ?def_option_values_dlg_proc@@YA_JPEAX_J10@Z 000000007401b810 f   ui.obj
 0001:0001a974       ?show_def_option_values_dlg@@YA_NAEAUPluginOptions@@@Z 000000007401b974 f   ui.obj
 0001:0001ae10       ?verify_hot_key@@YA_NPEAXH@Z 000000007401be10 f   ui.obj
 0001:0001af98       ?get_hot_key@@YA?AVUnicodeString@col@@PEAXH@Z 000000007401bf98 f   ui.obj
 0001:0001afb4       ?hot_key_options_dlg_proc@@YA_JPEAX_J10@Z 000000007401bfb4 f   ui.obj
 0001:0001b160       ?show_hot_key_options_dlg@@YA_NAEAUPluginOptions@@@Z 000000007401c160 f   ui.obj
 0001:0001b610       ?plugin_options_dlg_proc@@YA_JPEAX_J10@Z 000000007401c610 f   ui.obj
 0001:0001b9bc       ?show_plugin_options_dlg@@YA_NAEAUPluginOptions@@@Z 000000007401c9bc f   ui.obj
 0001:0001c250       ?file_attr_dlg_proc@@YA_JPEAX_J10@Z 000000007401d250 f   ui.obj
 0001:0001c3dc       ?show_file_attr_dlg@@YA_NAEAUFileAttrOptions@@@Z 000000007401d3dc f   ui.obj
 0001:0001c998       ?run_dlg_proc@@YA_JPEAX_J10@Z 000000007401d998 f   ui.obj
 0001:0001ca64       ?show_run_dlg@@YA_NAEAURunOptions@@@Z 000000007401da64 f   ui.obj
 0001:0001cc60       ?filter_dlg_proc@@YA_JPEAX_J10@Z 000000007401dc60 f   ui.obj
 0001:0001cd60       ?show_filters_dlg@@YA_NAEBV?$ObjectArray@UFileFilters@@@col@@AEAV?$Array@UFilterSelection@@@2@@Z 000000007401dd60 f   ui.obj
 0001:0001d28c       ??1?$ObjectArray@UListData@FarDialog@@@col@@QEAA@XZ 000000007401e28c f i ui.obj
 0001:0001d310       ?ref_resize@?$Array@UFarColor@@@col@@AEAAXI@Z 000000007401e310 f i ui.obj
 0001:0001d3d0       ?remove@?$Array@UFilterSelection@@@col@@QEAAAEAV12@II@Z 000000007401e3d0 f i ui.obj
 0001:0001d6c4       ?replace@?$Array@UFilterSelection@@@col@@QEAAAEAV12@IIPEBUFilterSelection@@I@Z 000000007401e6c4 f i ui.obj
 0001:0001dad4       ?replace@?$Array@UFarMenuItem@@@col@@QEAAAEAV12@IIPEBUFarMenuItem@@I@Z 000000007401ead4 f i ui.obj
 0001:0001de18       ?replace@?$Array@H@col@@QEAAAEAV12@IIPEBHI@Z 000000007401ee18 f i ui.obj
 0001:0001e16c       ?replace@?$Array@_W@col@@QEAAAEAV12@IIPEB_WI@Z 000000007401f16c f i ui.obj
 0001:0001e4a8       ?ref_alloc@?$Array@UFarDialogItem@@@col@@AEAAPEAUBuffer@12@I@Z 000000007401f4a8 f i ui.obj
 0001:0001e534       ?ref_alloc@?$Array@UFarMenuItem@@@col@@AEAAPEAUBuffer@12@I@Z 000000007401f534 f i ui.obj
 0001:0001e5c4       ?set_text@FarDialog@@AEAAXAEAUFarDialogItem@@AEBVUnicodeString@col@@@Z 000000007401f5c4 f   dlgapi.obj
 0001:0001e610       ??0FarDialog@@QEAA@AEBU_GUID@@AEBVUnicodeString@col@@I@Z 000000007401f610 f   dlgapi.obj
 0001:0001e764       ?separator@FarDialog@@QEAAIXZ 000000007401f764 f   dlgapi.obj
 0001:0001e7e4       ?label@FarDialog@@QEAAIAEBVUnicodeString@col@@@Z 000000007401f7e4 f   dlgapi.obj
 0001:0001e8bc       ?var_edit_box@FarDialog@@QEAAIAEBVUnicodeString@col@@IK@Z 000000007401f8bc f   dlgapi.obj
 0001:0001e984       ?button@FarDialog@@QEAAIAEBVUnicodeString@col@@K_N@Z 000000007401f984 f   dlgapi.obj
 0001:0001ea74       ?check_box@FarDialog@@QEAAIAEBVUnicodeString@col@@HK@Z 000000007401fa74 f   dlgapi.obj
 0001:0001eb54       ?radio_button@FarDialog@@QEAAIAEBVUnicodeString@col@@_NK@Z 000000007401fb54 f   dlgapi.obj
 0001:0001ec40       ?combo_box@FarDialog@@QEAAIAEBV?$ObjectArray@VUnicodeString@col@@@col@@IIK@Z 000000007401fc40 f   dlgapi.obj
 0001:0001ef54       ?show@FarDialog@@QEAA_JP6A_JPEAX_J10@Z0PEB_W@Z 000000007401ff54 f   dlgapi.obj
 0001:0001f134       ?create@?$ObjectArray@UListData@FarDialog@@@col@@CAPEAUBuffer@12@PEBUListData@FarDialog@@I@Z 0000000074020134 f i dlgapi.obj
 0001:0001f1e4       ?replace@?$Array@UFarDialogItem@@@col@@QEAAAEAV12@IIPEBUFarDialogItem@@I@Z 00000000740201e4 f i dlgapi.obj
 0001:0001f508       ?replace@?$Array@UFarList@@@col@@QEAAAEAV12@IIPEBUFarList@@I@Z 0000000074020508 f i dlgapi.obj
 0001:0001f7c8       ?replace@?$Array@UFarListItem@@@col@@QEAAAEAV12@IIPEBUFarListItem@@I@Z 00000000740207c8 f i dlgapi.obj
 0001:0001fb80       ?replace@?$ObjectArray@UListData@FarDialog@@@col@@QEAAAEAV12@IIPEBUListData@FarDialog@@I@Z 0000000074020b80 f i dlgapi.obj
 0001:00020044       ?get@Options@@IEAA_N_KPEB_WAEA_K@Z 0000000074021044 f i options.obj
 0001:000200c8       ??1Options@@QEAA@XZ        00000000740210c8 f i options.obj
 0001:000200f4       ?create@Options@@QEAA_N_N@Z 00000000740210f4 f i options.obj
 0001:000201a4       ?get_str@Options@@QEAA?AVUnicodeString@col@@_KPEB_WAEBV23@@Z 00000000740211a4 f i options.obj
 0001:000202a4       ?get_str@Options@@QEAA?AVUnicodeString@col@@PEB_WAEBV23@@Z 00000000740212a4 f i options.obj
 0001:000202c0       ?set_int@Options@@QEAAXPEB_WII@Z 00000000740212c0 f i options.obj
 0001:0002035c       ?set_bool@Options@@QEAAXPEB_W_N1@Z 000000007402135c f i options.obj
 0001:000203fc       ?set_str@Options@@QEAAXPEB_WAEBVUnicodeString@col@@1@Z 00000000740213fc f i options.obj
 0001:000204d0       ??0PluginOptions@@QEAA@XZ  00000000740214d0 f   options.obj
 0001:000205a0       ?load_plugin_options@@YAXAEAUPluginOptions@@@Z 00000000740215a0 f   options.obj
 0001:000209e8       ?save_plugin_options@@YAXAEBUPluginOptions@@@Z 00000000740219e8 f   options.obj
 0001:00020c74       ?save_def_option_values@@YAXAEBUPluginOptions@@@Z 0000000074021c74 f   options.obj
 0001:00020d94       ?load_last_dir@@YA?AVUnicodeString@col@@AEBV12@@Z 0000000074021d94 f   options.obj
 0001:00020e94       ?save_last_dir@@YAXAEBVUnicodeString@col@@0@Z 0000000074021e94 f   options.obj
 0001:00020f74       ?get_app_option@@YA_N_KPEB_W_N@Z 0000000074021f74 f   options.obj
 0001:00021014       ?convert_path@FilePath@@AEAAXAEBVUnicodeString@col@@@Z 0000000074022014 f   filepath.obj
 0001:00021324       ?normalize@FilePath@@AEAAXXZ 0000000074022324 f   filepath.obj
 0001:0002149c       ?reg_read_string@@YA?AVUnicodeString@col@@PEAUHKEY__@@AEBV12@1@Z 000000007402249c f   file_filters.obj
 0001:000215b0       ?load_file_filters@@YAXPEAUHKEY__@@@Z 00000000740225b0 f   file_filters.obj
 0001:000220dc       ??1FileFilters@@QEAA@XZ    00000000740230dc f i file_filters.obj
 0001:00022108       ?load_file_filters@@YAXXZ  0000000074023108 f   file_filters.obj
 0001:00022304       ?create_interface@@YAPEAUICeFileFilter@@AEBVUnicodeString@col@@@Z 0000000074023304 f   file_filters.obj
 0001:000223cc       ??1FilterInterface@@QEAA@XZ 00000000740233cc f   file_filters.obj
 0001:0002241c       ?open_if_needed@FileStream@@AEAAXXZ 000000007402341c f i file_filters.obj
 0001:000224b4       ?QueryInterface@FileStream@@UEAAJAEBU_GUID@@PEAPEAX@Z 00000000740234b4 f i file_filters.obj
 0001:00022548       ?AddRef@FileStream@@UEAAKXZ 0000000074023548 f i file_filters.obj
 0001:00022558       ?Release@FileStream@@UEAAKXZ 0000000074023558 f i file_filters.obj
 0001:000225bc       ?Read@FileStream@@UEAAJPEAXKPEAK@Z 00000000740235bc f i file_filters.obj
 0001:00022660       ?Write@FileStream@@UEAAJPEBXKPEAK@Z 0000000074023660 f i file_filters.obj
 0001:00022704       ?Seek@FileStream@@UEAAJT_LARGE_INTEGER@@KPEAT_ULARGE_INTEGER@@@Z 0000000074023704 f i file_filters.obj
 0001:000227b8       ?Stat@FileStream@@UEAAJPEAUtagSTATSTG@@K@Z 00000000740237b8 f i file_filters.obj
 0001:00022924       ?CopyTo@FileStream@@UEAAJPEAUIStream@@T_ULARGE_INTEGER@@PEAT3@2@Z 0000000074023924 f i file_filters.obj
 0001:00022924       ?SetSize@FileStream@@UEAAJT_ULARGE_INTEGER@@@Z 0000000074023924 f i file_filters.obj
 0001:00022924       ?Commit@FileStream@@UEAAJK@Z 0000000074023924 f i file_filters.obj
 0001:00022924       ?Revert@FileStream@@UEAAJXZ 0000000074023924 f i file_filters.obj
 0001:00022924       ?LockRegion@FileStream@@UEAAJT_ULARGE_INTEGER@@0K@Z 0000000074023924 f i file_filters.obj
 0001:00022924       ?UnlockRegion@FileStream@@UEAAJT_ULARGE_INTEGER@@0K@Z 0000000074023924 f i file_filters.obj
 0001:00022924       ?Clone@FileStream@@UEAAJPEAPEAUIStream@@@Z 0000000074023924 f i file_filters.obj
 0001:0002292c       ?QueryInterface@FileFilterSite@@UEAAJAEBU_GUID@@PEAPEAX@Z 000000007402392c f i file_filters.obj
 0001:00022998       ?OpenSourceFile@FileFilterSite@@UEAAJHPEAPEAX@Z 0000000074023998 f i file_filters.obj
 0001:00022a04       ?OpenDestinationFile@FileFilterSite@@UEAAJHPEBDPEAPEAX@Z 0000000074023a04 f i file_filters.obj
 0001:00022a70       ?CloseSourceFile@FileFilterSite@@UEAAJPEAUIUnknown@@@Z 0000000074023a70 f i file_filters.obj
 0001:00022a84       ?CloseDestinationFile@FileFilterSite@@UEAAJHPEAUIUnknown@@@Z 0000000074023a84 f i file_filters.obj
 0001:00022a98       ?split_path@@YA?AUFilePathParts@@AEBVUnicodeString@col@@@Z 0000000074023a98 f   file_filters.obj
 0001:00022d34       ??1Filter@@QEAA@XZ         0000000074023d34 f i file_filters.obj
 0001:00022d34       ??1FilePathParts@@QEAA@XZ  0000000074023d34 f i file_filters.obj
 0001:00022d84       ?convert_file@@YAXPEAUICeFileFilter@@AEBVUnicodeString@col@@1_N@Z 0000000074023d84 f   file_filters.obj
 0001:000236ac       ??1LogRecord@@QEAA@XZ      00000000740246ac f i plugin.obj
 0001:000236ac       ??1FileFilterSite@@QEAA@XZ 00000000740246ac f i file_filters.obj
 0001:000236ac       ??1FilterDlgData@@QEAA@XZ  00000000740246ac f i ui.obj
 0001:000236e8       ??1?$ObjectArray@UFilter@@@col@@QEAA@XZ 00000000740246e8 f i file_filters.obj
 0001:00023784       ?create@?$ObjectArray@UFilter@@@col@@CAPEAUBuffer@12@PEBUFilter@@I@Z 0000000074024784 f i file_filters.obj
 0001:00023840       ?create@?$ObjectArray@UFileFilters@@@col@@CAPEAUBuffer@12@PEBUFileFilters@@I@Z 0000000074024840 f i file_filters.obj
 0001:000238f0       ?_cmp_def@?$ObjectArray@UFileFilters@@@col@@CAHPEBX0@Z 00000000740248f0 f i file_filters.obj
 0001:000239a4       ?replace@?$ObjectArray@UFilter@@@col@@QEAAAEAV12@IIPEBUFilter@@I@Z 00000000740249a4 f i file_filters.obj
 0001:00023e34       ?ref_resize@?$ObjectArray@UFileFilters@@@col@@AEAAXI@Z 0000000074024e34 f i file_filters.obj
 0001:00023ea0       ?replace@?$ObjectArray@UFileFilters@@@col@@QEAAAEAV12@IIPEBUFileFilters@@I@Z 0000000074024ea0 f i file_filters.obj
 0001:00024278       ?ref_alloc@?$Array@UFarList@@@col@@AEAAPEAUBuffer@12@I@Z 0000000074025278 f i dlgapi.obj
 0001:00024278       ?ref_alloc@?$Array@UInfoPanelLine@@@col@@AEAAPEAUBuffer@12@I@Z 0000000074025278 f i rapi_proc.obj
 0001:00024278       ?ref_alloc@?$ObjectArray@UFilter@@@col@@AEAAPEAUBuffer@12@I@Z 0000000074025278 f i file_filters.obj
 0001:00024278       ?ref_alloc@?$ObjectArray@UFilterInterface@@@col@@AEAAPEAUBuffer@12@I@Z 0000000074025278 f i plugin.obj
 0001:00024278       ?ref_alloc@?$ObjectArray@ULogRecord@@@col@@AEAAPEAUBuffer@12@I@Z 0000000074025278 f i rapi_proc.obj
 0001:00024308       ?ref_alloc@?$ObjectArray@UFileFilters@@@col@@AEAAPEAUBuffer@12@I@Z 0000000074025308 f i file_filters.obj
 0001:00024394       ??0FileInfo@@QEAA@AEBU_WIN32_FIND_DATAW@@@Z 0000000074025394 f   file_info.obj
 0001:0002442c       ??0FileInfo@@QEAA@AEBUCE_FIND_DATA@@@Z 000000007402542c f   file_info.obj
 0001:000244e0       __security_check_cookie    00000000740254e0 f   LIBCMT:amdsecgs.obj
 0001:00024500       free                       0000000074025500 f   LIBCMT:free.obj
 0001:00024550       memcpy                     0000000074025550 f   LIBCMT:memcpy.obj
 0001:00024550       memmove                    0000000074025550     LIBCMT:memcpy.obj
 0001:00024884       ??0exception@std@@QEAA@AEBQEBDH@Z 0000000074025884 f   LIBCMT:stdexcpt.obj
 0001:000248a0       ?what@exception@std@@UEBAPEBDXZ 00000000740258a0 f   LIBCMT:stdexcpt.obj
 0001:000248b4       ?_Copy_str@exception@std@@AEAAXPEBD@Z 00000000740258b4 f   LIBCMT:stdexcpt.obj
 0001:00024910       ?_Tidy@exception@std@@AEAAXXZ 0000000074025910 f   LIBCMT:stdexcpt.obj
 0001:00024938       ??0exception@std@@QEAA@AEBQEBD@Z 0000000074025938 f   LIBCMT:stdexcpt.obj
 0001:00024968       ??4exception@std@@QEAAAEAV01@AEBV01@@Z 0000000074025968 f   LIBCMT:stdexcpt.obj
 0001:000249ac       ??1exception@std@@UEAA@XZ  00000000740259ac f   LIBCMT:stdexcpt.obj
 0001:000249bc       ??_Gexception@std@@UEAAPEAXI@Z 00000000740259bc f i LIBCMT:stdexcpt.obj
 0001:000249bc       ??_Eexception@std@@UEAAPEAXI@Z 00000000740259bc f i LIBCMT:stdexcpt.obj
 0001:000249f8       ??0exception@std@@QEAA@AEBV01@@Z 00000000740259f8 f   LIBCMT:stdexcpt.obj
 0001:00024a24       ??_Etype_info@@UEAAPEAXI@Z 0000000074025a24 f i LIBCMT:typinfo.obj
 0001:00024a24       ??_Gtype_info@@UEAAPEAXI@Z 0000000074025a24 f i LIBCMT:typinfo.obj
 0001:00024a60       ??8type_info@@QEBA_NAEBV0@@Z 0000000074025a60 f   LIBCMT:typinfo.obj
 0001:00024a80       malloc                     0000000074025a80 f   LIBCMT:malloc.obj
 0001:00024b38       wcslen                     0000000074025b38 f   LIBCMT:wcslen.obj
 0001:00024b54       realloc                    0000000074025b54 f   LIBCMT:realloc.obj
 0001:00024c40       memcmp                     0000000074025c40 f   LIBCMT:memcmp.obj
 0001:00024d08       __onexitinit               0000000074025d08 f   LIBCMT:onexit.obj
 0001:00024d4c       _onexit                    0000000074025d4c f   LIBCMT:onexit.obj
 0001:00024e58       atexit                     0000000074025e58 f   LIBCMT:onexit.obj
 0001:00024e80       strlen                     0000000074025e80 f   LIBCMT:strlen.obj
 0001:00024f28       ??2@YAPEAX_K@Z             0000000074025f28 f   LIBCMT:new.obj
 0001:00024fcc       ??3@YAXPEAX@Z              0000000074025fcc f   LIBCMT:delete.obj
 0001:00024fd4       wcscmp                     0000000074025fd4 f   LIBCMT:wcscmp.obj
 0001:00025020       memset                     0000000074026020 f   LIBCMT:memset.obj
 0001:0002510c       bsearch                    000000007402610c f   LIBCMT:bsearch.obj
 0001:000251fc       _purecall                  00000000740261fc f   LIBCMT:purevirt.obj
 0001:00025234       ??0_LocaleUpdate@@QEAA@PEAUlocaleinfo_struct@@@Z 0000000074026234 f i LIBCMT:wcsnicmp.obj
 0001:000252d8       _wcsnicmp_l                00000000740262d8 f   LIBCMT:wcsnicmp.obj
 0001:000253f0       _wcsnicmp                  00000000740263f0 f   LIBCMT:wcsnicmp.obj
 0001:00025488       floor                      0000000074026488 f   LIBCMT:_floor_.obj
 0001:0002558c       _vswprintf_l               000000007402658c f   LIBCMT:vswprint.obj
 0001:0002566c       _vswprintf                 000000007402666c f   LIBCMT:vswprint.obj
 0001:00025678       _wtoi                      0000000074026678 f   LIBCMT:wtox.obj
 0001:00025684       wcscpy                     0000000074026684 f   LIBCMT:wcscat.obj
 0001:00025760       qsort                      0000000074026760 f   LIBCMT:qsort.obj
 0001:00025a58       strcpy_s                   0000000074026a58 f   LIBCMT:strcpy_s.obj
 0001:00025abc       _CRT_INIT                  0000000074026abc f   LIBCMT:dllcrt0.obj
 0001:00025d2c       _DllMainCRTStartup         0000000074026d2c f   LIBCMT:dllcrt0.obj
 0001:00025d6c       __report_gsfailure         0000000074026d6c f   LIBCMT:gs_report.obj
 0001:00025eb8       _get_errno_from_oserr      0000000074026eb8 f   LIBCMT:dosmap.obj
 0001:00025f00       _errno                     0000000074026f00 f   LIBCMT:dosmap.obj
 0001:00025f20       __doserrno                 0000000074026f20 f   LIBCMT:dosmap.obj
 0001:00025f40       _dosmaperr                 0000000074026f40 f   LIBCMT:dosmap.obj
 0001:00025f88       _heap_init                 0000000074026f88 f   LIBCMT:heapinit.obj
 0001:00025fe0       _heap_term                 0000000074026fe0 f   LIBCMT:heapinit.obj
 0001:00026000       ?_Type_info_dtor@type_info@@CAXPEAV1@@Z 0000000074027000 f   LIBCMT:typname.obj
 0001:00026080       strcmp                     0000000074027080 f   LIBCMT:strcmp.obj
 0001:00026130       __crtCorExitProcess        0000000074027130 f   LIBCMT:crt0dat.obj
 0001:0002616c       __crtExitProcess           000000007402716c f   LIBCMT:crt0dat.obj
 0001:00026184       _lockexit                  0000000074027184 f   LIBCMT:crt0dat.obj
 0001:00026190       _unlockexit                0000000074027190 f   LIBCMT:crt0dat.obj
 0001:0002619c       _init_pointers             000000007402719c f   LIBCMT:crt0dat.obj
 0001:00026214       _initterm_e                0000000074027214 f   LIBCMT:crt0dat.obj
 0001:00026250       _cinit                     0000000074027250 f   LIBCMT:crt0dat.obj
 0001:00026490       _exit                      0000000074027490 f   LIBCMT:crt0dat.obj
 0001:0002649c       _cexit                     000000007402749c f   LIBCMT:crt0dat.obj
 0001:000264ac       _amsg_exit                 00000000740274ac f   LIBCMT:crt0dat.obj
 0001:000264d4       _GET_RTERRMSG              00000000740274d4 f   LIBCMT:crt0msg.obj
 0001:00026500       _NMSG_WRITE                0000000074027500 f   LIBCMT:crt0msg.obj
 0001:00026760       _FF_MSGBANNER              0000000074027760 f   LIBCMT:crt0msg.obj
 0001:000267a4       _initp_heap_handler        00000000740277a4 f   LIBCMT:handler.obj
 0001:000267ac       _callnewh                  00000000740277ac f   LIBCMT:handler.obj
 0001:000267e0       _malloc_crt                00000000740277e0 f   LIBCMT:crtheap.obj
 0001:00026860       _calloc_crt                0000000074027860 f   LIBCMT:crtheap.obj
 0001:000268e4       _realloc_crt               00000000740278e4 f   LIBCMT:crtheap.obj
 0001:0002696c       _msize                     000000007402796c f   LIBCMT:msize.obj
 0001:000269a8       __C_specific_handler       00000000740279a8 f   LIBCMT:chandler.obj
 0001:00026ba8       _CxxThrowException         0000000074027ba8 f   LIBCMT:throw.obj
 0001:00026c3c       _initp_misc_invarg         0000000074027c3c f   LIBCMT:invarg.obj
 0001:00026c44       _call_reportfault          0000000074027c44 f   LIBCMT:invarg.obj
 0001:00026d90       _invoke_watson             0000000074027d90 f   LIBCMT:invarg.obj
 0001:00026dc4       _invalid_parameter         0000000074027dc4 f   LIBCMT:invarg.obj
 0001:00026e34       _invalid_parameter_noinfo  0000000074027e34 f   LIBCMT:invarg.obj
 0001:00026e54       abort                      0000000074027e54 f   LIBCMT:abort.obj
 0001:00026e94       _set_abort_behavior        0000000074027e94 f   LIBCMT:abort.obj
 0001:00026eb0       _initp_misc_purevirt       0000000074027eb0 f   LIBCMT:inithelp.obj
 0001:00027134       __updatetmbcinfo           0000000074028134 f   LIBCMT:mbctype.obj
 0001:00027280       _setmbcp_nolock            0000000074028280 f   LIBCMT:mbctype.obj
 0001:000274f8       _setmbcp                   00000000740284f8 f   LIBCMT:mbctype.obj
 0001:000276d8       __initmbctable             00000000740286d8 f   LIBCMT:mbctype.obj
 0001:00027700       __addlocaleref             0000000074028700 f   LIBCMT:localref.obj
 0001:0002778c       __removelocaleref          000000007402878c f   LIBCMT:localref.obj
 0001:00027830       __freetlocinfo             0000000074028830 f   LIBCMT:localref.obj
 0001:000279ac       _updatetlocinfoEx_nolock   00000000740289ac f   LIBCMT:localref.obj
 0001:00027a04       __updatetlocinfo           0000000074028a04 f   LIBCMT:localref.obj
 0001:00027a7c       _encoded_null              0000000074028a7c f   LIBCMT:tidtable.obj
 0001:00027a88       ?ReportProgress@FileFilterSite@@UEAAJI@Z 0000000074028a88 f   file_filters.obj
 0001:00027a88       _matherr                   0000000074028a88 f   LIBCMT:_matherr_.obj
 0001:00027a88       ?ReportLoss@FileFilterSite@@UEAAJKPEBDPEAD@Z 0000000074028a88 f   file_filters.obj
 0001:00027a88       ?AddRef@FileFilterSite@@UEAAKXZ 0000000074028a88 f   file_filters.obj
 0001:00027a88       ?Release@FileFilterSite@@UEAAKXZ 0000000074028a88 f   file_filters.obj
 0001:00027a88       __set_flsgetvalue          0000000074028a88 f   LIBCMT:tidtable.obj
 0001:00027a8c       _mtterm                    0000000074028a8c f   LIBCMT:tidtable.obj
 0001:00027ab4       _initptd                   0000000074028ab4 f   LIBCMT:tidtable.obj
 0001:00027b6c       _getptd_noexit             0000000074028b6c f   LIBCMT:tidtable.obj
 0001:00027bf0       _getptd                    0000000074028bf0 f   LIBCMT:tidtable.obj
 0001:00027c14       _freefls                   0000000074028c14 f   LIBCMT:tidtable.obj
 0001:00027d48       _freeptd                   0000000074028d48 f   LIBCMT:tidtable.obj
 0001:00027d88       _mtinit                    0000000074028d88 f   LIBCMT:tidtable.obj
 0001:00027e0c       _towlower_l                0000000074028e0c f   LIBCMT:towlower.obj
 0001:00027fa0       _handle_error              0000000074028fa0 f   LIBCMT:_libm_error_.obj
 0001:000280f0       _cfltcvt_init              00000000740290f0 f   LIBCMT:_fpinit_.obj
 0001:00028178       _fpmath                    0000000074029178 f   LIBCMT:_fpinit_.obj
 0001:00028180       _flsbuf                    0000000074029180 f   LIBCMT:_flsbuf.obj
 0001:00028438       _woutput_l                 0000000074029438 f   LIBCMT:woutput.obj
 0001:00029114       wcstol                     000000007402a114 f   LIBCMT:wcstol.obj
 0001:0002911c       _ioinit                    000000007402a11c f   LIBCMT:ioinit.obj
 0001:000293f0       _ioterm                    000000007402a3f0 f   LIBCMT:ioinit.obj
 0001:00029464       _setenvp                   000000007402a464 f   LIBCMT:stdenvp.obj
 0001:00029764       _setargv                   000000007402a764 f   LIBCMT:stdargv.obj
 0001:0002985c       __crtGetEnvironmentStringsA 000000007402a85c f   LIBCMT:a_env.obj
 0001:00029950       _RTC_Initialize            000000007402a950 f   LIBCMT:_initsect_.obj
 0001:00029988       _RTC_Terminate             000000007402a988 f   LIBCMT:_initsect_.obj
 0001:000299c0       _XcptFilter                000000007402a9c0 f   LIBCMT:winxfltr.obj
 0001:00029b90       __CppXcptFilter            000000007402ab90 f   LIBCMT:winxfltr.obj
 0001:00029ba4       __security_init_cookie     000000007402aba4 f   LIBCMT:gs_support.obj
 0001:00029c58       __crt_debugger_hook        000000007402ac58 f   LIBCMT:dbghook.obj
 0001:00029c60       _mtinitlocks               000000007402ac60 f   LIBCMT:mlock.obj
 0001:00029ce4       _mtdeletelocks             000000007402ace4 f   LIBCMT:mlock.obj
 0001:00029d6c       _unlock                    000000007402ad6c f   LIBCMT:mlock.obj
 0001:00029d84       _mtinitlocknum             000000007402ad84 f   LIBCMT:mlock.obj
 0001:00029e6c       _lock                      000000007402ae6c f   LIBCMT:mlock.obj
 0001:00029ec0       _local_unwind              000000007402aec0 f   LIBCMT:jmpuwind.obj
 0001:00029ef0       _NLG_Notify                000000007402aef0 f   LIBCMT:jmpuwind.obj
 0001:00029f10       __NLG_Dispatch2            000000007402af10 f   LIBCMT:jmpuwind.obj
 0001:00029f20       __NLG_Return2              000000007402af20 f   LIBCMT:jmpuwind.obj
 0001:00029f24       ?terminate@@YAXXZ          000000007402af24 f   LIBCMT:hooks.obj
 0001:00029f48       ?_inconsistency@@YAXXZ     000000007402af48 f   LIBCMT:hooks.obj
 0001:00029f70       _initp_eh_hooks            000000007402af70 f   LIBCMT:hooks.obj
 0001:00029f90       _initp_misc_winsig         000000007402af90 f   LIBCMT:winsig.obj
 0001:00029fb0       __get_sigabrt              000000007402afb0 f   LIBCMT:winsig.obj
 0001:00029fc0       raise                      000000007402afc0 f   LIBCMT:winsig.obj
 0001:0002a1f4       _initp_misc_rand_s         000000007402b1f4 f   LIBCMT:rand_s.obj
 0001:0002a1fc       _initp_misc_cfltcvt_tab    000000007402b1fc f   LIBCMT:cmiscdat.obj
 0001:0002a240       _ValidateImageBase         000000007402b240 f   LIBCMT:pesect.obj
 0001:0002a270       _FindPESection             000000007402b270 f   LIBCMT:pesect.obj
 0001:0002a2c0       _IsNonwritableInCurrentImage 000000007402b2c0 f   LIBCMT:pesect.obj
 0001:0002a304       __GSHandlerCheckCommon     000000007402b304 f   LIBCMT:gshandler.obj
 0001:0002a368       __GSHandlerCheck           000000007402b368 f   LIBCMT:gshandler.obj
 0001:0002a388       __crtMessageBoxW           000000007402b388 f   LIBCMT:crtmboxw.obj
 0001:0002a590       wcscat_s                   000000007402b590 f   LIBCMT:wcscat_s.obj
 0001:0002a618       wcsncpy_s                  000000007402b618 f   LIBCMT:wcsncpy_s.obj
 0001:0002a6e8       wcscpy_s                   000000007402b6e8 f   LIBCMT:wcscpy_s.obj
 0001:0002a754       _set_error_mode            000000007402b754 f   LIBCMT:errmode.obj
 0001:0002a794       _calloc_impl               000000007402b794 f   LIBCMT:calloc_impl.obj
 0001:0002aafc       __crtLCMapStringA          000000007402bafc f   LIBCMT:a_map.obj
 0001:0002acf4       __crtGetStringTypeA        000000007402bcf4 f   LIBCMT:a_str.obj
 0001:0002ad74       __free_lc_time             000000007402bd74 f   LIBCMT:inittime.obj
 0001:0002b164       __free_lconv_num           000000007402c164 f   LIBCMT:initnum.obj
 0001:0002b1d0       __free_lconv_mon           000000007402c1d0 f   LIBCMT:initmon.obj
 0001:0002b2dc       __crtLCMapStringW          000000007402c2dc f   LIBCMT:w_map.obj
 0001:0002b33c       iswctype                   000000007402c33c f   LIBCMT:iswctype.obj
 0001:0002b3c0       strncmp                    000000007402c3c0 f   LIBCMT:strncmp.obj
 0001:0002b478       _raise_exc_ex              000000007402c478 f   LIBCMT:_fpexcept_.obj
 0001:0002b784       _raise_exc                 000000007402c784 f   LIBCMT:_fpexcept_.obj
 0001:0002b7ac       _set_errno_from_matherr    000000007402c7ac f   LIBCMT:_fpexcept_.obj
 0001:0002b7dc       _statfp                    000000007402c7dc f   LIBCMT:_fpctrl_.obj
 0001:0002b7f0       _clrfp                     000000007402c7f0 f   LIBCMT:_fpctrl_.obj
 0001:0002b810       _ctrlfp                    000000007402c810 f   LIBCMT:_fpctrl_.obj
 0001:0002b88c       _set_statfp                000000007402c88c f   LIBCMT:_fpctrl_.obj
 0001:0002b8ac       _forcdecpt_l               000000007402c8ac f   LIBCMT:cvt.obj
 0001:0002b92c       _cropzeros_l               000000007402c92c f   LIBCMT:cvt.obj
 0001:0002b9cc       _positive                  000000007402c9cc f   LIBCMT:cvt.obj
 0001:0002b9e4       _fassign_l                 000000007402c9e4 f   LIBCMT:cvt.obj
 0001:0002ba28       _fassign                   000000007402ca28 f   LIBCMT:cvt.obj
 0001:0002ba30       _forcdecpt                 000000007402ca30 f   LIBCMT:cvt.obj
 0001:0002ba38       _cropzeros                 000000007402ca38 f   LIBCMT:cvt.obj
 0001:0002bc74       _cftoe_l                   000000007402cc74 f   LIBCMT:cvt.obj
 0001:0002bd6c       _cftoa_l                   000000007402cd6c f   LIBCMT:cvt.obj
 0001:0002c2e8       _cftof_l                   000000007402d2e8 f   LIBCMT:cvt.obj
 0001:0002c3bc       _cftog_l                   000000007402d3bc f   LIBCMT:cvt.obj
 0001:0002c4f0       _cfltcvt_l                 000000007402d4f0 f   LIBCMT:cvt.obj
 0001:0002c588       _cfltcvt                   000000007402d588 f   LIBCMT:cvt.obj
 0001:0002c5ac       _lseeki64_nolock           000000007402d5ac f   LIBCMT:lseeki64.obj
 0001:0002c644       _lseeki64                  000000007402d644 f   LIBCMT:lseeki64.obj
 0001:0002c728       _write_nolock              000000007402d728 f   LIBCMT:write.obj
 0001:0002ce88       _write                     000000007402de88 f   LIBCMT:write.obj
 0001:0002cf68       _getbuf                    000000007402df68 f   LIBCMT:_getbuf.obj
 0001:0002cfbc       _isatty                    000000007402dfbc f   LIBCMT:isatty.obj
 0001:0002d01c       __iob_func                 000000007402e01c f   LIBCMT:_file.obj
 0001:0002d024       __initstdio                000000007402e024 f   LIBCMT:_file.obj
 0001:0002d104       __endstdio                 000000007402e104 f   LIBCMT:_file.obj
 0001:0002d12c       _lock_file                 000000007402e12c f   LIBCMT:_file.obj
 0001:0002d190       _lock_file2                000000007402e190 f   LIBCMT:_file.obj
 0001:0002d1c4       _unlock_file               000000007402e1c4 f   LIBCMT:_file.obj
 0001:0002d210       _unlock_file2              000000007402e210 f   LIBCMT:_file.obj
 0001:0002d230       _fileno                    000000007402e230 f   LIBCMT:fileno.obj
 0001:0002d258       _fputwc_nolock             000000007402e258 f   LIBCMT:fputwc.obj
 0001:0002d458       _get_printf_count_output   000000007402e458 f   LIBCMT:printf.obj
 0001:0002d470       _mbtowc_l                  000000007402e470 f   LIBCMT:mbtowc.obj
 0001:0002d5e8       mbtowc                     000000007402e5e8 f   LIBCMT:mbtowc.obj
 0001:0002d5f0       _isleadbyte_l              000000007402e5f0 f i LIBCMT:_wctype.obj
 0001:0002d638       isleadbyte                 000000007402e638 f i LIBCMT:_wctype.obj
 0001:0002d680       _wchartodigit              000000007402e680 f   LIBCMT:wchtodig.obj
 0001:0002d894       _ismbblead                 000000007402e894 f   LIBCMT:ismbbyte.obj
 0001:0002d8a8       _fptrap                    000000007402e8a8 f   LIBCMT:crt0fp.obj
 0001:0002d8d0       __chkstk                   000000007402e8d0 f   LIBCMT:chkstk.obj
 0001:0002d8d0       _alloca_probe              000000007402e8d0     LIBCMT:chkstk.obj
 0001:0002d920       wcsnlen                    000000007402e920 f   LIBCMT:wcslen_s.obj
 0001:0002d950       _get_fpsr                  000000007402e950 f   LIBCMT:_fpsr_.obj
 0001:0002d960       _set_fpsr                  000000007402e960 f   LIBCMT:_fpsr_.obj
 0001:0002d96a       _fclrf                     000000007402e96a f   LIBCMT:_fpsr_.obj
 0001:0002d97e       _frnd                      000000007402e97e f   LIBCMT:_fpsr_.obj
 0001:0002d9a0       strrchr                    000000007402e9a0 f   LIBCMT:strrchr.obj
 0001:0002d9c8       isdigit                    000000007402e9c8 f i LIBCMT:_ctype.obj
 0001:0002da48       _tolower_l                 000000007402ea48 f   LIBCMT:tolower.obj
 0001:0002db98       tolower                    000000007402eb98 f   LIBCMT:tolower.obj
 0001:0002dbb8       _atodbl_l                  000000007402ebb8 f   LIBCMT:atodbl.obj
 0001:0002dcb8       _atoflt_l                  000000007402ecb8 f   LIBCMT:atodbl.obj
 0001:0002ddb8       _fptostr                   000000007402edb8 f   LIBCMT:_fptostr.obj
 0001:0002de84       __dtold                    000000007402ee84 f   LIBCMT:_cfout_.obj
 0001:0002df4c       _fltout2                   000000007402ef4c f   LIBCMT:_cfout_.obj
 0001:0002e004       _free_osfhnd               000000007402f004 f   LIBCMT:osfinfo.obj
 0001:0002e0b0       _get_osfhandle             000000007402f0b0 f   LIBCMT:osfinfo.obj
 0001:0002e124       __lock_fhandle             000000007402f124 f   LIBCMT:osfinfo.obj
 0001:0002e1cc       _unlock_fhandle            000000007402f1cc f   LIBCMT:osfinfo.obj
 0001:0002e1f4       _putwch_nolock             000000007402f1f4 f   LIBCMT:putwch.obj
 0001:0002e250       _fcloseall                 000000007402f250 f   LIBCMT:closeall.obj
 0001:0002e2fc       _flush                     000000007402f2fc f   LIBCMT:fflush.obj
 0001:0002e378       _fflush_nolock             000000007402f378 f   LIBCMT:fflush.obj
 0001:0002e4b0       _flushall                  000000007402f4b0 f   LIBCMT:fflush.obj
 0001:0002e4bc       _flswbuf                   000000007402f4bc f   LIBCMT:_flswbuf.obj
 0001:0002e64c       _wctomb_s_l                000000007402f64c f   LIBCMT:wctomb.obj
 0001:0002e810       wctomb_s                   000000007402f810 f   LIBCMT:wctomb.obj
 0001:0002e824       _isctype_l                 000000007402f824 f   LIBCMT:isctype.obj
 0001:0002e90c       _ld12tod                   000000007402f90c f   LIBCMT:_intrncvt_.obj
 0001:0002eed8       _ld12tof                   000000007402fed8 f   LIBCMT:_intrncvt_.obj
 0001:0002f4a4       __strgtold12_l             00000000740304a4 f   LIBCMT:_strgtold_.obj
 0001:0002fd08       $I10_OUTPUT                0000000074030d08 f   LIBCMT:_x10fout_.obj
 0001:000307b4       __initconout               00000000740317b4 f   LIBCMT:initcon.obj
 0001:000307f0       __termconout               00000000740317f0 f   LIBCMT:initcon.obj
 0001:00030814       _fclose_nolock             0000000074031814 f   LIBCMT:fclose.obj
 0001:00030890       fclose                     0000000074031890 f   LIBCMT:fclose.obj
 0001:000308f8       _commit                    00000000740318f8 f   LIBCMT:commit.obj
 0001:000309d0       __mtold12                  00000000740319d0 f   LIBCMT:_mantold_.obj
 0001:00030bf8       _close_nolock              0000000074031bf8 f   LIBCMT:close.obj
 0001:00030cb4       _close                     0000000074031cb4 f   LIBCMT:close.obj
 0001:00030d78       _freebuf                   0000000074031d78 f   LIBCMT:_freebuf.obj
 0001:00030db0       RtlVirtualUnwind           0000000074031db0 f   kernel32:KERNEL32.dll
 0001:00030db6       RtlLookupFunctionEntry     0000000074031db6 f   kernel32:KERNEL32.dll
 0001:00030dbc       RtlUnwindEx                0000000074031dbc f   kernel32:KERNEL32.dll
 0001:00030dc2       RtlPcToFileHeader          0000000074031dc2 f   kernel32:KERNEL32.dll
 0001:00030dc8       ?_GetEstablisherFrame@@YAPEA_KPEA_KPEAU_xDISPATCHER_CONTEXT@@PEBU_s_FuncInfo@@0@Z 0000000074031dc8 f   LIBCMT:trnsctrl.obj
 0001:00030eb4       _GetImageBase              0000000074031eb4 f   LIBCMT:trnsctrl.obj
 0001:00030ecc       _GetThrowImageBase         0000000074031ecc f   LIBCMT:trnsctrl.obj
 0001:00030ee4       _SetImageBase              0000000074031ee4 f   LIBCMT:trnsctrl.obj
 0001:00030f00       _SetThrowImageBase         0000000074031f00 f   LIBCMT:trnsctrl.obj
 0001:00030f1c       ?__FrameUnwindToEmptyState@@YAXPEA_KPEAU_xDISPATCHER_CONTEXT@@PEBU_s_FuncInfo@@@Z 0000000074031f1c f   LIBCMT:trnsctrl.obj
 0001:00030fc8       __CxxFrameHandler3         0000000074031fc8 f   LIBCMT:trnsctrl.obj
 0001:00031050       ?__SehTransFilter@@YAHPEAU_EXCEPTION_POINTERS@@PEAUEHExceptionRecord@@PEA_KPEAU_CONTEXT@@PEAU_xDISPATCHER_CONTEXT@@PEBU_s_FuncInfo@@PEAH@Z 0000000074032050 f   LIBCMT:trnsctrl.obj
 0001:000310f4       _CallSETranslator          00000000740320f4 f   LIBCMT:trnsctrl.obj
 0001:00031148       ?_GetRangeOfTrysToCheck@@YAPEBU_s_TryBlockMapEntry@@PEA_KPEBU_s_FuncInfo@@HHPEAI2PEAU_xDISPATCHER_CONTEXT@@@Z 0000000074032148 f   LIBCMT:trnsctrl.obj
 0001:00031274       _CreateFrameInfo           0000000074032274 f   LIBCMT:trnsctrl.obj
 0001:000312b8       _IsExceptionObjectToBeDestroyed 00000000740322b8 f   LIBCMT:trnsctrl.obj
 0001:000312ec       _FindAndUnlinkFrame        00000000740322ec f   LIBCMT:trnsctrl.obj
 0001:0003134c       _UnwindNestedFrames        000000007403234c f   LIBCMT:trnsctrl.obj
 0001:0003143c       __GSHandlerCheck_EH        000000007403243c f   LIBCMT:gshandlereh.obj
 0001:000314cc       ?__StateFromIp@@YAHPEBU_s_FuncInfo@@PEAU_xDISPATCHER_CONTEXT@@_J@Z 00000000740324cc f   LIBCMT:ehstate.obj
 0001:00031558       ?__StateFromControlPc@@YAHPEBU_s_FuncInfo@@PEAU_xDISPATCHER_CONTEXT@@@Z 0000000074032558 f   LIBCMT:ehstate.obj
 0001:00031560       ?__GetCurrentState@@YAHPEA_KPEAU_xDISPATCHER_CONTEXT@@PEBU_s_FuncInfo@@@Z 0000000074032560 f   LIBCMT:ehstate.obj
 0001:00031588       ?__SetState@@YAXPEA_KPEAU_xDISPATCHER_CONTEXT@@PEBU_s_FuncInfo@@H@Z 0000000074032588 f   LIBCMT:ehstate.obj
 0001:00031594       ?__SetUnwindTryBlock@@YAXPEA_KPEAU_xDISPATCHER_CONTEXT@@PEBU_s_FuncInfo@@H@Z 0000000074032594 f   LIBCMT:ehstate.obj
 0001:000315d0       ?__GetUnwindTryBlock@@YAHPEA_KPEAU_xDISPATCHER_CONTEXT@@PEBU_s_FuncInfo@@@Z 00000000740325d0 f   LIBCMT:ehstate.obj
 0001:000315fc       ??1bad_exception@std@@UEAA@XZ 00000000740325fc f i LIBCMT:frame.obj
 0001:0003160c       ??_Ebad_exception@std@@UEAAPEAXI@Z 000000007403260c f i LIBCMT:frame.obj
 0001:0003160c       ??_Gbad_exception@std@@UEAAPEAXI@Z 000000007403260c f i LIBCMT:frame.obj
 0001:00031648       __TypeMatch                0000000074032648 f   LIBCMT:frame.obj
 0001:0003176c       __FrameUnwindFilter        000000007403276c f   LIBCMT:frame.obj
 0001:000317c0       __FrameUnwindToState       00000000740327c0 f   LIBCMT:frame.obj
 0001:0003194c       __DestructExceptionObject  000000007403294c f   LIBCMT:frame.obj
 0001:00031990       __AdjustPointer            0000000074032990 f   LIBCMT:frame.obj
 0001:00031a88       __CxxCallCatchBlock        0000000074032a88 f   LIBCMT:frame.obj
 0001:00031c9c       __BuildCatchObjectHelper   0000000074032c9c f   LIBCMT:frame.obj
 0001:00031ea0       __BuildCatchObject         0000000074032ea0 f   LIBCMT:frame.obj
 0001:0003271c       ??0bad_exception@std@@QEAA@AEBV01@@Z 000000007403371c f i LIBCMT:frame.obj
 0001:00032740       __InternalCxxFrameHandler  0000000074033740 f   LIBCMT:frame.obj
 0001:00032980       _CallSettingFrame          0000000074033980 f   LIBCMT:handlers.obj
 0001:000329c0       _GetNextInstrOffset        00000000740339c0 f   LIBCMT:handlers.obj
 0001:000329c8       ?_ValidateWrite@@YAHPEAXI@Z 00000000740339c8 f   LIBCMT:validate.obj
 0001:000329c8       ?_ValidateRead@@YAHPEBXI@Z 00000000740339c8 f   LIBCMT:validate.obj
 0001:000329c8       ?_ValidateExecute@@YAHP6A_JXZ@Z 00000000740339c8 f   LIBCMT:validate.obj
 0002:00000000       __imp_RegCloseKey          000000007403e000     advapi32:ADVAPI32.dll
 0002:00000008       __imp_RegQueryValueExW     000000007403e008     advapi32:ADVAPI32.dll
 0002:00000010       __imp_RegEnumKeyExW        000000007403e010     advapi32:ADVAPI32.dll
 0002:00000018       __imp_RegOpenKeyExW        000000007403e018     advapi32:ADVAPI32.dll
 0002:00000020       __imp_RegEnumValueW        000000007403e020     advapi32:ADVAPI32.dll
 0002:00000028       \177ADVAPI32_NULL_THUNK_DATA 000000007403e028     advapi32:ADVAPI32.dll
 0002:00000030       __imp_FlushFileBuffers     000000007403e030     kernel32:KERNEL32.dll
 0002:00000038       __imp_HeapAlloc            000000007403e038     kernel32:KERNEL32.dll
 0002:00000040       __imp_WriteConsoleW        000000007403e040     kernel32:KERNEL32.dll
 0002:00000048       __imp_SetStdHandle         000000007403e048     kernel32:KERNEL32.dll
 0002:00000050       __imp_GetConsoleMode       000000007403e050     kernel32:KERNEL32.dll
 0002:00000058       __imp_GetConsoleCP         000000007403e058     kernel32:KERNEL32.dll
 0002:00000060       __imp_SetFilePointer       000000007403e060     kernel32:KERNEL32.dll
 0002:00000068       __imp_GetStringTypeW       000000007403e068     kernel32:KERNEL32.dll
 0002:00000070       __imp_LCMapStringW         000000007403e070     kernel32:KERNEL32.dll
 0002:00000078       __imp_EnterCriticalSection 000000007403e078     kernel32:KERNEL32.dll
 0002:00000080       __imp_FormatMessageW       000000007403e080     kernel32:KERNEL32.dll
 0002:00000088       __imp_LocalFree            000000007403e088     kernel32:KERNEL32.dll
 0002:00000090       __imp_GetLastError         000000007403e090     kernel32:KERNEL32.dll
 0002:00000098       __imp_QueryPerformanceFrequency 000000007403e098     kernel32:KERNEL32.dll
 0002:000000a0       __imp_QueryPerformanceCounter 000000007403e0a0     kernel32:KERNEL32.dll
 0002:000000a8       __imp_CreateProcessW       000000007403e0a8     kernel32:KERNEL32.dll
 0002:000000b0       __imp_CloseHandle          000000007403e0b0     kernel32:KERNEL32.dll
 0002:000000b8       __imp_LoadLibraryW         000000007403e0b8     kernel32:KERNEL32.dll
 0002:000000c0       __imp_GetProcAddress       000000007403e0c0     kernel32:KERNEL32.dll
 0002:000000c8       __imp_FreeLibrary          000000007403e0c8     kernel32:KERNEL32.dll
 0002:000000d0       __imp_GetVersionExA        000000007403e0d0     kernel32:KERNEL32.dll
 0002:000000d8       __imp_WaitForSingleObject  000000007403e0d8     kernel32:KERNEL32.dll
 0002:000000e0       __imp_FindFirstFileW       000000007403e0e0     kernel32:KERNEL32.dll
 0002:000000e8       __imp_FindNextFileW        000000007403e0e8     kernel32:KERNEL32.dll
 0002:000000f0       __imp_FindClose            000000007403e0f0     kernel32:KERNEL32.dll
 0002:000000f8       __imp_CreateDirectoryW     000000007403e0f8     kernel32:KERNEL32.dll
 0002:00000100       __imp_SetFileAttributesW   000000007403e100     kernel32:KERNEL32.dll
 0002:00000108       __imp_CreateFileW          000000007403e108     kernel32:KERNEL32.dll
 0002:00000110       __imp_ReadFile             000000007403e110     kernel32:KERNEL32.dll
 0002:00000118       __imp_WriteFile            000000007403e118     kernel32:KERNEL32.dll
 0002:00000120       __imp_SetFileTime          000000007403e120     kernel32:KERNEL32.dll
 0002:00000128       __imp_DeleteFileW          000000007403e128     kernel32:KERNEL32.dll
 0002:00000130       __imp_RemoveDirectoryW     000000007403e130     kernel32:KERNEL32.dll
 0002:00000138       __imp_WideCharToMultiByte  000000007403e138     kernel32:KERNEL32.dll
 0002:00000140       __imp_MultiByteToWideChar  000000007403e140     kernel32:KERNEL32.dll
 0002:00000148       __imp_GetModuleFileNameW   000000007403e148     kernel32:KERNEL32.dll
 0002:00000150       __imp_GetTempPathW         000000007403e150     kernel32:KERNEL32.dll
 0002:00000158       __imp_GetTempFileNameW     000000007403e158     kernel32:KERNEL32.dll
 0002:00000160       __imp_FileTimeToLocalFileTime 000000007403e160     kernel32:KERNEL32.dll
 0002:00000168       __imp_FileTimeToSystemTime 000000007403e168     kernel32:KERNEL32.dll
 0002:00000170       __imp_GetDateFormatW       000000007403e170     kernel32:KERNEL32.dll
 0002:00000178       __imp_GetTimeFormatW       000000007403e178     kernel32:KERNEL32.dll
 0002:00000180       __imp_GetStdHandle         000000007403e180     kernel32:KERNEL32.dll
 0002:00000188       __imp_PeekConsoleInputA    000000007403e188     kernel32:KERNEL32.dll
 0002:00000190       __imp_ReadConsoleInputA    000000007403e190     kernel32:KERNEL32.dll
 0002:00000198       __imp_GetConsoleScreenBufferInfo 000000007403e198     kernel32:KERNEL32.dll
 0002:000001a0       __imp_SetConsoleTitleW     000000007403e1a0     kernel32:KERNEL32.dll
 0002:000001a8       __imp_CompareFileTime      000000007403e1a8     kernel32:KERNEL32.dll
 0002:000001b0       __imp_SetFilePointerEx     000000007403e1b0     kernel32:KERNEL32.dll
 0002:000001b8       __imp_GetFileInformationByHandle 000000007403e1b8     kernel32:KERNEL32.dll
 0002:000001c0       __imp_GetFullPathNameW     000000007403e1c0     kernel32:KERNEL32.dll
 0002:000001c8       __imp_HeapFree             000000007403e1c8     kernel32:KERNEL32.dll
 0002:000001d0       __imp_HeapReAlloc          000000007403e1d0     kernel32:KERNEL32.dll
 0002:000001d8       __imp_EncodePointer        000000007403e1d8     kernel32:KERNEL32.dll
 0002:000001e0       __imp_DecodePointer        000000007403e1e0     kernel32:KERNEL32.dll
 0002:000001e8       __imp_GetCurrentThreadId   000000007403e1e8     kernel32:KERNEL32.dll
 0002:000001f0       __imp_FlsSetValue          000000007403e1f0     kernel32:KERNEL32.dll
 0002:000001f8       __imp_GetCommandLineA      000000007403e1f8     kernel32:KERNEL32.dll
 0002:00000200       __imp_TerminateProcess     000000007403e200     kernel32:KERNEL32.dll
 0002:00000208       __imp_GetCurrentProcess    000000007403e208     kernel32:KERNEL32.dll
 0002:00000210       __imp_UnhandledExceptionFilter 000000007403e210     kernel32:KERNEL32.dll
 0002:00000218       __imp_SetUnhandledExceptionFilter 000000007403e218     kernel32:KERNEL32.dll
 0002:00000220       __imp_IsDebuggerPresent    000000007403e220     kernel32:KERNEL32.dll
 0002:00000228       __imp_RtlVirtualUnwind     000000007403e228     kernel32:KERNEL32.dll
 0002:00000230       __imp_RtlLookupFunctionEntry 000000007403e230     kernel32:KERNEL32.dll
 0002:00000238       __imp_RtlCaptureContext    000000007403e238     kernel32:KERNEL32.dll
 0002:00000240       __imp_HeapSetInformation   000000007403e240     kernel32:KERNEL32.dll
 0002:00000248       __imp_GetVersion           000000007403e248     kernel32:KERNEL32.dll
 0002:00000250       __imp_HeapCreate           000000007403e250     kernel32:KERNEL32.dll
 0002:00000258       __imp_HeapDestroy          000000007403e258     kernel32:KERNEL32.dll
 0002:00000260       __imp_GetModuleHandleW     000000007403e260     kernel32:KERNEL32.dll
 0002:00000268       __imp_ExitProcess          000000007403e268     kernel32:KERNEL32.dll
 0002:00000270       __imp_Sleep                000000007403e270     kernel32:KERNEL32.dll
 0002:00000278       __imp_HeapSize             000000007403e278     kernel32:KERNEL32.dll
 0002:00000280       __imp_RtlUnwindEx          000000007403e280     kernel32:KERNEL32.dll
 0002:00000288       __imp_RaiseException       000000007403e288     kernel32:KERNEL32.dll
 0002:00000290       __imp_RtlPcToFileHeader    000000007403e290     kernel32:KERNEL32.dll
 0002:00000298       __imp_GetCPInfo            000000007403e298     kernel32:KERNEL32.dll
 0002:000002a0       __imp_GetACP               000000007403e2a0     kernel32:KERNEL32.dll
 0002:000002a8       __imp_GetOEMCP             000000007403e2a8     kernel32:KERNEL32.dll
 0002:000002b0       __imp_IsValidCodePage      000000007403e2b0     kernel32:KERNEL32.dll
 0002:000002b8       __imp_FlsGetValue          000000007403e2b8     kernel32:KERNEL32.dll
 0002:000002c0       __imp_FlsFree              000000007403e2c0     kernel32:KERNEL32.dll
 0002:000002c8       __imp_SetLastError         000000007403e2c8     kernel32:KERNEL32.dll
 0002:000002d0       __imp_FlsAlloc             000000007403e2d0     kernel32:KERNEL32.dll
 0002:000002d8       __imp_SetHandleCount       000000007403e2d8     kernel32:KERNEL32.dll
 0002:000002e0       __imp_InitializeCriticalSectionAndSpinCount 000000007403e2e0     kernel32:KERNEL32.dll
 0002:000002e8       __imp_GetFileType          000000007403e2e8     kernel32:KERNEL32.dll
 0002:000002f0       __imp_GetStartupInfoW      000000007403e2f0     kernel32:KERNEL32.dll
 0002:000002f8       __imp_DeleteCriticalSection 000000007403e2f8     kernel32:KERNEL32.dll
 0002:00000300       __imp_GetModuleFileNameA   000000007403e300     kernel32:KERNEL32.dll
 0002:00000308       __imp_FreeEnvironmentStringsW 000000007403e308     kernel32:KERNEL32.dll
 0002:00000310       __imp_GetEnvironmentStringsW 000000007403e310     kernel32:KERNEL32.dll
 0002:00000318       __imp_GetTickCount         000000007403e318     kernel32:KERNEL32.dll
 0002:00000320       __imp_GetCurrentProcessId  000000007403e320     kernel32:KERNEL32.dll
 0002:00000328       __imp_GetSystemTimeAsFileTime 000000007403e328     kernel32:KERNEL32.dll
 0002:00000330       __imp_LeaveCriticalSection 000000007403e330     kernel32:KERNEL32.dll
 0002:00000338       \177KERNEL32_NULL_THUNK_DATA 000000007403e338     kernel32:KERNEL32.dll
 0002:00000340       __imp_SysFreeString        000000007403e340     oleaut32:OLEAUT32.dll
 0002:00000348       \177OLEAUT32_NULL_THUNK_DATA 000000007403e348     oleaut32:OLEAUT32.dll
 0002:00000350       __imp_GetDesktopWindow     000000007403e350     user32:USER32.dll
 0002:00000358       \177USER32_NULL_THUNK_DATA 000000007403e358     user32:USER32.dll
 0002:00000360       __imp_GetFileVersionInfoW  000000007403e360     version:VERSION.dll
 0002:00000368       __imp_VerQueryValueW       000000007403e368     version:VERSION.dll
 0002:00000370       __imp_GetFileVersionInfoSizeW 000000007403e370     version:VERSION.dll
 0002:00000378       \177VERSION_NULL_THUNK_DATA 000000007403e378     version:VERSION.dll
 0002:00000380       __imp_IIDFromString        000000007403e380     ole32:ole32.dll
 0002:00000388       __imp_CoCreateInstance     000000007403e388     ole32:ole32.dll
 0002:00000390       __imp_CoUninitialize       000000007403e390     ole32:ole32.dll
 0002:00000398       __imp_StringFromGUID2      000000007403e398     ole32:ole32.dll
 0002:000003a0       __imp_CoTaskMemAlloc       000000007403e3a0     ole32:ole32.dll
 0002:000003a8       __imp_CoInitializeEx       000000007403e3a8     ole32:ole32.dll
 0002:000003b0       \177ole32_NULL_THUNK_DATA  000000007403e3b0     ole32:ole32.dll
 0002:000003b8       __xc_a                     000000007403e3b8     LIBCMT:crt0init.obj
 0002:000003f0       __xc_z                     000000007403e3f0     LIBCMT:crt0init.obj
 0002:000003f8       __xi_a                     000000007403e3f8     LIBCMT:crt0init.obj
 0002:00000418       __xi_z                     000000007403e418     LIBCMT:crt0init.obj
 0002:00000420       __xp_a                     000000007403e420     LIBCMT:crt0init.obj
 0002:00000438       __xp_z                     000000007403e438     LIBCMT:crt0init.obj
 0002:00000440       __xt_a                     000000007403e440     LIBCMT:crt0init.obj
 0002:00000448       __xt_z                     000000007403e448     LIBCMT:crt0init.obj
 0002:00000470       IID_IUnknown               000000007403e470     uuid:unknwn_i.obj
 0002:00000480       IID_ISequentialStream      000000007403e480     uuid:objidl_i.obj
 0002:00000490       IID_IStream                000000007403e490     uuid:objidl_i.obj
 0002:000004a8       ??_7exception@std@@6B@     000000007403e4a8     LIBCMT:stdexcpt.obj
 0002:000004b8       ??_C@_0BC@EOODALEL@Unknown?5exception?$AA@ 000000007403e4b8     LIBCMT:stdexcpt.obj
 0002:000004d8       ??_7type_info@@6B@         000000007403e4d8     LIBCMT:typinfo.obj
 0002:000004e8       ??_7bad_alloc@std@@6B@     000000007403e4e8     LIBCMT:new.obj
 0002:000004f8       __real@bff0000000000000    000000007403e4f8     LIBCMT:_floor_.obj
 0002:00000500       ??_C@_05PBJFFIGL@floor?$AA@ 000000007403e500     LIBCMT:_floor_.obj
 0002:00000508       _pDefaultRawDllMain        000000007403e508     LIBCMT:dllcrt0.obj
 0002:00000508       _pRawDllMain               000000007403e508     LIBCMT:dllcrt0.obj
 0002:00000520       ??_C@_0P@MIGLKIOC@CorExitProcess?$AA@ 000000007403e520     LIBCMT:crt0dat.obj
 0002:00000530       ??_C@_1BI@BGOHAHKC@?$AAm?$AAs?$AAc?$AAo?$AAr?$AAe?$AAe?$AA?4?$AAd?$AAl?$AAl?$AA?$AA@ 000000007403e530     LIBCMT:crt0dat.obj
 0002:00000548       ??_C@_1BO@BKOMIGKJ@?$AAr?$AAu?$AAn?$AAt?$AAi?$AAm?$AAe?$AA?5?$AAe?$AAr?$AAr?$AAo?$AAr?$AA?5?$AA?$AA@ 000000007403e548     LIBCMT:crt0msg.obj
 0002:00000568       ??_C@_15JNBOKNOG@?$AA?$AN?$AA?6?$AA?$AA@ 000000007403e568     LIBCMT:crt0msg.obj
 0002:00000570       ??_C@_1BM@JBBEPPHI@?$AAT?$AAL?$AAO?$AAS?$AAS?$AA?5?$AAe?$AAr?$AAr?$AAo?$AAr?$AA?$AN?$AA?6?$AA?$AA@ 000000007403e570     LIBCMT:crt0msg.obj
 0002:00000590       ??_C@_1BK@KMOMNAAI@?$AAS?$AAI?$AAN?$AAG?$AA?5?$AAe?$AAr?$AAr?$AAo?$AAr?$AA?$AN?$AA?6?$AA?$AA@ 000000007403e590     LIBCMT:crt0msg.obj
 0002:000005b0       ??_C@_1BO@BFCDCGC@?$AAD?$AAO?$AAM?$AAA?$AAI?$AAN?$AA?5?$AAe?$AAr?$AAr?$AAo?$AAr?$AA?$AN?$AA?6?$AA?$AA@ 000000007403e5b0     LIBCMT:crt0msg.obj
 0002:000005d0       ??_C@_1BOO@KGEDBGAJ@?$AAR?$AA6?$AA0?$AA3?$AA3?$AA?$AN?$AA?6?$AA?9?$AA?5?$AAA?$AAt?$AAt?$AAe?$AAm?$AAp?$AAt?$AA?5?$AAt?$AAo?$AA?5?$AAu?$AAs?$AAe?$AA?5?$AAM?$AAS?$AAI?$AAL?$AA?5?$AAc?$AAo?$AAd@ 000000007403e5d0     LIBCMT:crt0msg.obj
 0002:000007c0       ??_C@_1GG@GOPILAJP@?$AAR?$AA6?$AA0?$AA3?$AA2?$AA?$AN?$AA?6?$AA?9?$AA?5?$AAn?$AAo?$AAt?$AA?5?$AAe?$AAn?$AAo?$AAu?$AAg?$AAh?$AA?5?$AAs?$AAp?$AAa?$AAc?$AAe?$AA?5?$AAf?$AAo?$AAr?$AA?5?$AAl?$AAo@ 000000007403e7c0     LIBCMT:crt0msg.obj
 0002:00000830       ??_C@_1MG@ENCOOIDF@?$AAR?$AA6?$AA0?$AA3?$AA1?$AA?$AN?$AA?6?$AA?9?$AA?5?$AAA?$AAt?$AAt?$AAe?$AAm?$AAp?$AAt?$AA?5?$AAt?$AAo?$AA?5?$AAi?$AAn?$AAi?$AAt?$AAi?$AAa?$AAl?$AAi?$AAz?$AAe?$AA?5?$AAt@ 000000007403e830     LIBCMT:crt0msg.obj
 0002:000008f8       ??_C@_1DO@BMFCDCD@?$AAR?$AA6?$AA0?$AA3?$AA0?$AA?$AN?$AA?6?$AA?9?$AA?5?$AAC?$AAR?$AAT?$AA?5?$AAn?$AAo?$AAt?$AA?5?$AAi?$AAn?$AAi?$AAt?$AAi?$AAa?$AAl?$AAi?$AAz?$AAe?$AAd?$AA?$AN?$AA?6?$AA?$AA@ 000000007403e8f8     LIBCMT:crt0msg.obj
 0002:00000940       ??_C@_1EK@HHFLMAOL@?$AAR?$AA6?$AA0?$AA2?$AA8?$AA?$AN?$AA?6?$AA?9?$AA?5?$AAu?$AAn?$AAa?$AAb?$AAl?$AAe?$AA?5?$AAt?$AAo?$AA?5?$AAi?$AAn?$AAi?$AAt?$AAi?$AAa?$AAl?$AAi?$AAz?$AAe?$AA?5?$AAh?$AAe@ 000000007403e940     LIBCMT:crt0msg.obj
 0002:00000990       ??_C@_1GK@MFGOKLAG@?$AAR?$AA6?$AA0?$AA2?$AA7?$AA?$AN?$AA?6?$AA?9?$AA?5?$AAn?$AAo?$AAt?$AA?5?$AAe?$AAn?$AAo?$AAu?$AAg?$AAh?$AA?5?$AAs?$AAp?$AAa?$AAc?$AAe?$AA?5?$AAf?$AAo?$AAr?$AA?5?$AAl?$AAo@ 000000007403e990     LIBCMT:crt0msg.obj
 0002:00000a00       ??_C@_1GK@MCAAGJMO@?$AAR?$AA6?$AA0?$AA2?$AA6?$AA?$AN?$AA?6?$AA?9?$AA?5?$AAn?$AAo?$AAt?$AA?5?$AAe?$AAn?$AAo?$AAu?$AAg?$AAh?$AA?5?$AAs?$AAp?$AAa?$AAc?$AAe?$AA?5?$AAf?$AAo?$AAr?$AA?5?$AAs?$AAt@ 000000007403ea00     LIBCMT:crt0msg.obj
 0002:00000a70       ??_C@_1EM@MAADIHMB@?$AAR?$AA6?$AA0?$AA2?$AA5?$AA?$AN?$AA?6?$AA?9?$AA?5?$AAp?$AAu?$AAr?$AAe?$AA?5?$AAv?$AAi?$AAr?$AAt?$AAu?$AAa?$AAl?$AA?5?$AAf?$AAu?$AAn?$AAc?$AAt?$AAi?$AAo?$AAn?$AA?5?$AAc@ 000000007403ea70     LIBCMT:crt0msg.obj
 0002:00000ac0       ??_C@_1GK@FHCKBEFA@?$AAR?$AA6?$AA0?$AA2?$AA4?$AA?$AN?$AA?6?$AA?9?$AA?5?$AAn?$AAo?$AAt?$AA?5?$AAe?$AAn?$AAo?$AAu?$AAg?$AAh?$AA?5?$AAs?$AAp?$AAa?$AAc?$AAe?$AA?5?$AAf?$AAo?$AAr?$AA?5?$AA_?$AAo@ 000000007403eac0     LIBCMT:crt0msg.obj
 0002:00000b30       ??_C@_1FC@ECHBIFBC@?$AAR?$AA6?$AA0?$AA1?$AA9?$AA?$AN?$AA?6?$AA?9?$AA?5?$AAu?$AAn?$AAa?$AAb?$AAl?$AAe?$AA?5?$AAt?$AAo?$AA?5?$AAo?$AAp?$AAe?$AAn?$AA?5?$AAc?$AAo?$AAn?$AAs?$AAo?$AAl?$AAe?$AA?5@ 000000007403eb30     LIBCMT:crt0msg.obj
 0002:00000b90       ??_C@_1EC@JIBHAOPH@?$AAR?$AA6?$AA0?$AA1?$AA8?$AA?$AN?$AA?6?$AA?9?$AA?5?$AAu?$AAn?$AAe?$AAx?$AAp?$AAe?$AAc?$AAt?$AAe?$AAd?$AA?5?$AAh?$AAe?$AAa?$AAp?$AA?5?$AAe?$AAr?$AAr?$AAo?$AAr?$AA?$AN?$AA?6@ 000000007403eb90     LIBCMT:crt0msg.obj
 0002:00000be0       ??_C@_1FK@BEOGODMC@?$AAR?$AA6?$AA0?$AA1?$AA7?$AA?$AN?$AA?6?$AA?9?$AA?5?$AAu?$AAn?$AAe?$AAx?$AAp?$AAe?$AAc?$AAt?$AAe?$AAd?$AA?5?$AAm?$AAu?$AAl?$AAt?$AAi?$AAt?$AAh?$AAr?$AAe?$AAa?$AAd?$AA?5@ 000000007403ebe0     LIBCMT:crt0msg.obj
 0002:00000c40       ??_C@_1FI@LOGNIKDM@?$AAR?$AA6?$AA0?$AA1?$AA6?$AA?$AN?$AA?6?$AA?9?$AA?5?$AAn?$AAo?$AAt?$AA?5?$AAe?$AAn?$AAo?$AAu?$AAg?$AAh?$AA?5?$AAs?$AAp?$AAa?$AAc?$AAe?$AA?5?$AAf?$AAo?$AAr?$AA?5?$AAt?$AAh@ 000000007403ec40     LIBCMT:crt0msg.obj
 0002:00000ca0       ??_C@_1EG@BEHAGFJD@?$AAR?$AA6?$AA0?$AA1?$AA0?$AA?$AN?$AA?6?$AA?9?$AA?5?$AAa?$AAb?$AAo?$AAr?$AAt?$AA?$CI?$AA?$CJ?$AA?5?$AAh?$AAa?$AAs?$AA?5?$AAb?$AAe?$AAe?$AAn?$AA?5?$AAc?$AAa?$AAl?$AAl?$AAe?$AAd@ 000000007403eca0     LIBCMT:crt0msg.obj
 0002:00000cf0       ??_C@_1FI@HONFMGBI@?$AAR?$AA6?$AA0?$AA0?$AA9?$AA?$AN?$AA?6?$AA?9?$AA?5?$AAn?$AAo?$AAt?$AA?5?$AAe?$AAn?$AAo?$AAu?$AAg?$AAh?$AA?5?$AAs?$AAp?$AAa?$AAc?$AAe?$AA?5?$AAf?$AAo?$AAr?$AA?5?$AAe?$AAn@ 000000007403ecf0     LIBCMT:crt0msg.obj
 0002:00000d50       ??_C@_1FE@LLNEDJMD@?$AAR?$AA6?$AA0?$AA0?$AA8?$AA?$AN?$AA?6?$AA?9?$AA?5?$AAn?$AAo?$AAt?$AA?5?$AAe?$AAn?$AAo?$AAu?$AAg?$AAh?$AA?5?$AAs?$AAp?$AAa?$AAc?$AAe?$AA?5?$AAf?$AAo?$AAr?$AA?5?$AAa?$AAr@ 000000007403ed50     LIBCMT:crt0msg.obj
 0002:00000db0       ??_C@_1FK@PGACCAFB@?$AAR?$AA6?$AA0?$AA0?$AA2?$AA?$AN?$AA?6?$AA?9?$AA?5?$AAf?$AAl?$AAo?$AAa?$AAt?$AAi?$AAn?$AAg?$AA?5?$AAp?$AAo?$AAi?$AAn?$AAt?$AA?5?$AAs?$AAu?$AAp?$AAp?$AAo?$AAr?$AAt?$AA?5@ 000000007403edb0     LIBCMT:crt0msg.obj
 0002:00000f70       ??_C@_1EK@MBDPDCGA@?$AAM?$AAi?$AAc?$AAr?$AAo?$AAs?$AAo?$AAf?$AAt?$AA?5?$AAV?$AAi?$AAs?$AAu?$AAa?$AAl?$AA?5?$AAC?$AA?$CL?$AA?$CL?$AA?5?$AAR?$AAu?$AAn?$AAt?$AAi?$AAm?$AAe?$AA?5?$AAL?$AAi?$AAb@ 000000007403ef70     LIBCMT:crt0msg.obj
 0002:00000fbc       ??_C@_15IABLJNFO@?$AA?6?$AA?6?$AA?$AA@ 000000007403efbc     LIBCMT:crt0msg.obj
 0002:00000fc8       ??_C@_1CO@EAEJAADC@?$AA?$DM?$AAp?$AAr?$AAo?$AAg?$AAr?$AAa?$AAm?$AA?5?$AAn?$AAa?$AAm?$AAe?$AA?5?$AAu?$AAn?$AAk?$AAn?$AAo?$AAw?$AAn?$AA?$DO?$AA?$AA@ 000000007403efc8     LIBCMT:crt0msg.obj
 0002:00000ff8       ??_C@_1DE@JNGNBFGO@?$AAR?$AAu?$AAn?$AAt?$AAi?$AAm?$AAe?$AA?5?$AAE?$AAr?$AAr?$AAo?$AAr?$AA?$CB?$AA?6?$AA?6?$AAP?$AAr?$AAo?$AAg?$AAr?$AAa?$AAm?$AA?3?$AA?5?$AA?$AA@ 000000007403eff8     LIBCMT:crt0msg.obj
 0002:00001070       ??_C@_1BC@GDGBMEMK@?$AAH?$AAH?$AA?3?$AAm?$AAm?$AA?3?$AAs?$AAs?$AA?$AA@ 000000007403f070     LIBCMT:nlsdata2.obj
 0002:00001088       ??_C@_1CI@KNAKOEBC@?$AAd?$AAd?$AAd?$AAd?$AA?0?$AA?5?$AAM?$AAM?$AAM?$AAM?$AA?5?$AAd?$AAd?$AA?0?$AA?5?$AAy?$AAy?$AAy?$AAy?$AA?$AA@ 000000007403f088     LIBCMT:nlsdata2.obj
 0002:000010b0       ??_C@_1BC@IEBCMHCM@?$AAM?$AAM?$AA?1?$AAd?$AAd?$AA?1?$AAy?$AAy?$AA?$AA@ 000000007403f0b0     LIBCMT:nlsdata2.obj
 0002:000010c4       ??_C@_15CLMNNGEL@?$AAP?$AAM?$AA?$AA@ 000000007403f0c4     LIBCMT:nlsdata2.obj
 0002:000010cc       ??_C@_15ODEHAHHF@?$AAA?$AAM?$AA?$AA@ 000000007403f0cc     LIBCMT:nlsdata2.obj
 0002:000010d8       ??_C@_1BC@FEMKIFH@?$AAD?$AAe?$AAc?$AAe?$AAm?$AAb?$AAe?$AAr?$AA?$AA@ 000000007403f0d8     LIBCMT:nlsdata2.obj
 0002:000010f0       ??_C@_1BC@BGLIFPF@?$AAN?$AAo?$AAv?$AAe?$AAm?$AAb?$AAe?$AAr?$AA?$AA@ 000000007403f0f0     LIBCMT:nlsdata2.obj
 0002:00001108       ??_C@_1BA@EPANDLNG@?$AAO?$AAc?$AAt?$AAo?$AAb?$AAe?$AAr?$AA?$AA@ 000000007403f108     LIBCMT:nlsdata2.obj
 0002:00001118       ??_C@_1BE@DKAAMBJL@?$AAS?$AAe?$AAp?$AAt?$AAe?$AAm?$AAb?$AAe?$AAr?$AA?$AA@ 000000007403f118     LIBCMT:nlsdata2.obj
 0002:00001130       ??_C@_1O@PAHLKOAC@?$AAA?$AAu?$AAg?$AAu?$AAs?$AAt?$AA?$AA@ 000000007403f130     LIBCMT:nlsdata2.obj
 0002:00001140       ??_C@_19BIFMLPCD@?$AAJ?$AAu?$AAl?$AAy?$AA?$AA@ 000000007403f140     LIBCMT:nlsdata2.obj
 0002:00001150       ??_C@_19EPFLPGAP@?$AAJ?$AAu?$AAn?$AAe?$AA?$AA@ 000000007403f150     LIBCMT:nlsdata2.obj
 0002:00001160       ??_C@_1M@GJNLMHFD@?$AAA?$AAp?$AAr?$AAi?$AAl?$AA?$AA@ 000000007403f160     LIBCMT:nlsdata2.obj
 0002:00001170       ??_C@_1M@IKEENEDF@?$AAM?$AAa?$AAr?$AAc?$AAh?$AA?$AA@ 000000007403f170     LIBCMT:nlsdata2.obj
 0002:00001180       ??_C@_1BC@JGDDFFAM@?$AAF?$AAe?$AAb?$AAr?$AAu?$AAa?$AAr?$AAy?$AA?$AA@ 000000007403f180     LIBCMT:nlsdata2.obj
 0002:00001198       ??_C@_1BA@EFMEIEBA@?$AAJ?$AAa?$AAn?$AAu?$AAa?$AAr?$AAy?$AA?$AA@ 000000007403f198     LIBCMT:nlsdata2.obj
 0002:000011a8       ??_C@_17EGKACKIF@?$AAD?$AAe?$AAc?$AA?$AA@ 000000007403f1a8     LIBCMT:nlsdata2.obj
 0002:000011b0       ??_C@_17BBDMLCIG@?$AAN?$AAo?$AAv?$AA?$AA@ 000000007403f1b0     LIBCMT:nlsdata2.obj
 0002:000011b8       ??_C@_17FNLKOI@?$AAO?$AAc?$AAt?$AA?$AA@ 000000007403f1b8     LIBCMT:nlsdata2.obj
 0002:000011c0       ??_C@_17HCHCOKMG@?$AAS?$AAe?$AAp?$AA?$AA@ 000000007403f1c0     LIBCMT:nlsdata2.obj
 0002:000011c8       ??_C@_17ICPELBCN@?$AAA?$AAu?$AAg?$AA?$AA@ 000000007403f1c8     LIBCMT:nlsdata2.obj
 0002:000011d0       ??_C@_17IJPCKHK@?$AAJ?$AAu?$AAl?$AA?$AA@ 000000007403f1d0     LIBCMT:nlsdata2.obj
 0002:000011d8       ??_C@_17KCJGOCPB@?$AAJ?$AAu?$AAn?$AA?$AA@ 000000007403f1d8     LIBCMT:nlsdata2.obj
 0002:000011e0       ??_C@_17PNNKMEED@?$AAM?$AAa?$AAy?$AA?$AA@ 000000007403f1e0     LIBCMT:nlsdata2.obj
 0002:000011e8       ??_C@_17LFPOIHDD@?$AAA?$AAp?$AAr?$AA?$AA@ 000000007403f1e8     LIBCMT:nlsdata2.obj
 0002:000011f0       ??_C@_17CKNLEDEC@?$AAM?$AAa?$AAr?$AA?$AA@ 000000007403f1f0     LIBCMT:nlsdata2.obj
 0002:000011f8       ??_C@_17LMDJEKJN@?$AAF?$AAe?$AAb?$AA?$AA@ 000000007403f1f8     LIBCMT:nlsdata2.obj
 0002:00001200       ??_C@_17DKNBKCHM@?$AAJ?$AAa?$AAn?$AA?$AA@ 000000007403f200     LIBCMT:nlsdata2.obj
 0002:00001208       ??_C@_1BC@ENMNNPAJ@?$AAS?$AAa?$AAt?$AAu?$AAr?$AAd?$AAa?$AAy?$AA?$AA@ 000000007403f208     LIBCMT:nlsdata2.obj
 0002:00001220       ??_C@_1O@PDICJHAG@?$AAF?$AAr?$AAi?$AAd?$AAa?$AAy?$AA?$AA@ 000000007403f220     LIBCMT:nlsdata2.obj
 0002:00001230       ??_C@_1BC@HHMNLIHE@?$AAT?$AAh?$AAu?$AAr?$AAs?$AAd?$AAa?$AAy?$AA?$AA@ 000000007403f230     LIBCMT:nlsdata2.obj
 0002:00001248       ??_C@_1BE@EBOGMDOH@?$AAW?$AAe?$AAd?$AAn?$AAe?$AAs?$AAd?$AAa?$AAy?$AA?$AA@ 000000007403f248     LIBCMT:nlsdata2.obj
 0002:00001260       ??_C@_1BA@ENFBFFEK@?$AAT?$AAu?$AAe?$AAs?$AAd?$AAa?$AAy?$AA?$AA@ 000000007403f260     LIBCMT:nlsdata2.obj
 0002:00001270       ??_C@_1O@MMNBFLIA@?$AAM?$AAo?$AAn?$AAd?$AAa?$AAy?$AA?$AA@ 000000007403f270     LIBCMT:nlsdata2.obj
 0002:00001280       ??_C@_1O@IHNHDHPB@?$AAS?$AAu?$AAn?$AAd?$AAa?$AAy?$AA?$AA@ 000000007403f280     LIBCMT:nlsdata2.obj
 0002:00001290       ??_C@_17GGIBDPIH@?$AAS?$AAa?$AAt?$AA?$AA@ 000000007403f290     LIBCMT:nlsdata2.obj
 0002:00001298       ??_C@_17HFOLPPLP@?$AAF?$AAr?$AAi?$AA?$AA@ 000000007403f298     LIBCMT:nlsdata2.obj
 0002:000012a0       ??_C@_17PDPHAADD@?$AAT?$AAh?$AAu?$AA?$AA@ 000000007403f2a0     LIBCMT:nlsdata2.obj
 0002:000012a8       ??_C@_17CJEDCEPE@?$AAW?$AAe?$AAd?$AA?$AA@ 000000007403f2a8     LIBCMT:nlsdata2.obj
 0002:000012b0       ??_C@_17BMKGEGOJ@?$AAT?$AAu?$AAe?$AA?$AA@ 000000007403f2b0     LIBCMT:nlsdata2.obj
 0002:000012b8       ??_C@_17KBOMKBF@?$AAM?$AAo?$AAn?$AA?$AA@ 000000007403f2b8     LIBCMT:nlsdata2.obj
 0002:000012c0       ??_C@_17MBGCMIPB@?$AAS?$AAu?$AAn?$AA?$AA@ 000000007403f2c0     LIBCMT:nlsdata2.obj
 0002:000012c8       ??_C@_08JCCMCCIL@HH?3mm?3ss?$AA@ 000000007403f2c8     LIBCMT:nlsdata2.obj
 0002:000012d8       ??_C@_0BE@CKGJFCPC@dddd?0?5MMMM?5dd?0?5yyyy?$AA@ 000000007403f2d8     LIBCMT:nlsdata2.obj
 0002:000012f0       ??_C@_08BPBNCDIB@MM?1dd?1yy?$AA@ 000000007403f2f0     LIBCMT:nlsdata2.obj
 0002:000012fc       ??_C@_02CJNFDJBF@PM?$AA@   000000007403f2fc     LIBCMT:nlsdata2.obj
 0002:00001300       ??_C@_02DEDBPAFC@AM?$AA@   000000007403f300     LIBCMT:nlsdata2.obj
 0002:00001308       ??_C@_08EDHMEBNP@December?$AA@ 000000007403f308     LIBCMT:nlsdata2.obj
 0002:00001318       ??_C@_08HCHEGEOA@November?$AA@ 000000007403f318     LIBCMT:nlsdata2.obj
 0002:00001328       ??_C@_07JJNFCEND@October?$AA@ 000000007403f328     LIBCMT:nlsdata2.obj
 0002:00001330       ??_C@_09BHHEALKD@September?$AA@ 000000007403f330     LIBCMT:nlsdata2.obj
 0002:0000133c       ??_C@_06LBBHFDDG@August?$AA@ 000000007403f33c     LIBCMT:nlsdata2.obj
 0002:00001344       ??_C@_04MIEPOIFP@July?$AA@ 000000007403f344     LIBCMT:nlsdata2.obj
 0002:0000134c       ??_C@_04CNLMGBGM@June?$AA@ 000000007403f34c     LIBCMT:nlsdata2.obj
 0002:00001354       ??_C@_05DMJDNLEJ@April?$AA@ 000000007403f354     LIBCMT:nlsdata2.obj
 0002:0000135c       ??_C@_05HPCKOFNC@March?$AA@ 000000007403f35c     LIBCMT:nlsdata2.obj
 0002:00001368       ??_C@_08GNJGEPFN@February?$AA@ 000000007403f368     LIBCMT:nlsdata2.obj
 0002:00001378       ??_C@_07CGJPFGJA@January?$AA@ 000000007403f378     LIBCMT:nlsdata2.obj
 0002:00001380       ??_C@_03MKABNOCG@Dec?$AA@  000000007403f380     LIBCMT:nlsdata2.obj
 0002:00001384       ??_C@_03JPJOFNIA@Nov?$AA@  000000007403f384     LIBCMT:nlsdata2.obj
 0002:00001388       ??_C@_03BMAOKBAD@Oct?$AA@  000000007403f388     LIBCMT:nlsdata2.obj
 0002:0000138c       ??_C@_03GGCAPAJC@Sep?$AA@  000000007403f38c     LIBCMT:nlsdata2.obj
 0002:00001390       ??_C@_03IFJFEIGA@Aug?$AA@  000000007403f390     LIBCMT:nlsdata2.obj
 0002:00001394       ??_C@_03LBGABGKK@Jul?$AA@  000000007403f394     LIBCMT:nlsdata2.obj
 0002:00001398       ??_C@_03IDFGHECI@Jun?$AA@  000000007403f398     LIBCMT:nlsdata2.obj
 0002:0000139c       ??_C@_03CNMDKL@May?$AA@    000000007403f39c     LIBCMT:nlsdata2.obj
 0002:000013a0       ??_C@_03LEOLGMJP@Apr?$AA@  000000007403f3a0     LIBCMT:nlsdata2.obj
 0002:000013a4       ??_C@_03ODNJBKGA@Mar?$AA@  000000007403f3a4     LIBCMT:nlsdata2.obj
 0002:000013a8       ??_C@_03HJBDCHOM@Feb?$AA@  000000007403f3a8     LIBCMT:nlsdata2.obj
 0002:000013ac       ??_C@_03JIHJHPIE@Jan?$AA@  000000007403f3ac     LIBCMT:nlsdata2.obj
 0002:000013b0       ??_C@_08INBOOONO@Saturday?$AA@ 000000007403f3b0     LIBCMT:nlsdata2.obj
 0002:000013bc       ??_C@_06JECMNKMI@Friday?$AA@ 000000007403f3bc     LIBCMT:nlsdata2.obj
 0002:000013c8       ??_C@_08HACCIKIA@Thursday?$AA@ 000000007403f3c8     LIBCMT:nlsdata2.obj
 0002:000013d8       ??_C@_09DLIGFAKA@Wednesday?$AA@ 000000007403f3d8     LIBCMT:nlsdata2.obj
 0002:000013e8       ??_C@_07BAAGCFCM@Tuesday?$AA@ 000000007403f3e8     LIBCMT:nlsdata2.obj
 0002:000013f0       ??_C@_06JLEDEDGH@Monday?$AA@ 000000007403f3f0     LIBCMT:nlsdata2.obj
 0002:000013f8       ??_C@_06OOPIFAJ@Sunday?$AA@ 000000007403f3f8     LIBCMT:nlsdata2.obj
 0002:00001400       ??_C@_03FEFJNEK@Sat?$AA@   000000007403f400     LIBCMT:nlsdata2.obj
 0002:00001404       ??_C@_03IDIOELNC@Fri?$AA@  000000007403f404     LIBCMT:nlsdata2.obj
 0002:00001408       ??_C@_03IOFIKPDN@Thu?$AA@  000000007403f408     LIBCMT:nlsdata2.obj
 0002:0000140c       ??_C@_03MHOMLAJA@Wed?$AA@  000000007403f40c     LIBCMT:nlsdata2.obj
 0002:00001410       ??_C@_03NAGEINEP@Tue?$AA@  000000007403f410     LIBCMT:nlsdata2.obj
 0002:00001414       ??_C@_03PDAGKDH@Mon?$AA@   000000007403f414     LIBCMT:nlsdata2.obj
 0002:00001418       ??_C@_03KOEHGMDN@Sun?$AA@  000000007403f418     LIBCMT:nlsdata2.obj
 0002:000014a0       ??_C@_01NEMOKFLO@?$DN?$AA@ 000000007403f4a0     LIBCMT:setlocal.obj
 0002:000014a2       ??_C@_00CNPNBAHC@?$AA@     000000007403f4a2     LIBCMT:setlocal.obj
 0002:000014a8       _FPinit                    000000007403f4a8     LIBCMT:_fpinit_.obj
 0002:000014b0       _XcptActTab                000000007403f4b0     LIBCMT:winxfltr.obj
 0002:00001570       _First_FPE_Indx            000000007403f570     LIBCMT:winxfltr.obj
 0002:00001574       _Num_FPE                   000000007403f574     LIBCMT:winxfltr.obj
 0002:00001578       _XcptActTabSize            000000007403f578     LIBCMT:winxfltr.obj
 0002:0000157c       _XcptActTabCount           000000007403f57c     LIBCMT:winxfltr.obj
 0002:00001580       ??_C@_0BK@CFCOFLF@?5Complete?5Object?5Locator?8?$AA@ 000000007403f580     LIBCMT:undname.obj
 0002:000015a0       ??_C@_0BN@MECKDCOJ@?5Class?5Hierarchy?5Descriptor?8?$AA@ 000000007403f5a0     LIBCMT:undname.obj
 0002:000015c0       ??_C@_0BD@LGICGFMM@?5Base?5Class?5Array?8?$AA@ 000000007403f5c0     LIBCMT:undname.obj
 0002:000015d8       ??_C@_0BM@LDKODKLH@?5Base?5Class?5Descriptor?5at?5?$CI?$AA@ 000000007403f5d8     LIBCMT:undname.obj
 0002:000015f8       ??_C@_0BC@DAFEJGAK@?5Type?5Descriptor?8?$AA@ 000000007403f5f8     LIBCMT:undname.obj
 0002:00001610       ??_C@_0BM@PMGGMLDN@?$GAlocal?5static?5thread?5guard?8?$AA@ 000000007403f610     LIBCMT:undname.obj
 0002:00001630       ??_C@_0CL@FGIJHLCE@?$GAmanaged?5vector?5copy?5constructor@ 000000007403f630     LIBCMT:undname.obj
 0002:00001660       ??_C@_0CJ@GJELGAMM@?$GAvector?5vbase?5copy?5constructor?5i@ 000000007403f660     LIBCMT:undname.obj
 0002:00001690       ??_C@_0CD@CGAJBKEJ@?$GAvector?5copy?5constructor?5iterato@ 000000007403f690     LIBCMT:undname.obj
 0002:000016b8       ??_C@_0CB@PDBIFEP@?$GAdynamic?5atexit?5destructor?5for?5?8@ 000000007403f6b8     LIBCMT:undname.obj
 0002:000016e0       ??_C@_0BL@CLIPGLGB@?$GAdynamic?5initializer?5for?5?8?$AA@ 000000007403f6e0     LIBCMT:undname.obj
 0002:00001700       ??_C@_0CM@FCBBDIGB@?$GAeh?5vector?5vbase?5copy?5constructo@ 000000007403f700     LIBCMT:undname.obj
 0002:00001730       ??_C@_0CG@HLDDJMAG@?$GAeh?5vector?5copy?5constructor?5iter@ 000000007403f730     LIBCMT:undname.obj
 0002:00001758       ??_C@_0CF@IMGKMJNO@?$GAmanaged?5vector?5destructor?5itera@ 000000007403f758     LIBCMT:undname.obj
 0002:00001780       ??_C@_0CG@CFDHKGGD@?$GAmanaged?5vector?5constructor?5iter@ 000000007403f780     LIBCMT:undname.obj
 0002:000017a8       ??_C@_0BN@CKNJLHMB@?$GAplacement?5delete?$FL?$FN?5closure?8?$AA@ 000000007403f7a8     LIBCMT:undname.obj
 0002:000017c8       ??_C@_0BL@CNOONJFP@?$GAplacement?5delete?5closure?8?$AA@ 000000007403f7c8     LIBCMT:undname.obj
 0002:000017e8       ??_C@_0P@HJKNJFNN@?$GAomni?5callsig?8?$AA@ 000000007403f7e8     LIBCMT:undname.obj
 0002:000017f8       ??_C@_09LBNFPBCA@?5delete?$FL?$FN?$AA@ 000000007403f7f8     LIBCMT:undname.obj
 0002:00001804       ??_C@_06FHBGPFGH@?5new?$FL?$FN?$AA@ 000000007403f804     LIBCMT:undname.obj
 0002:00001810       ??_C@_0CE@IIHCMGGL@?$GAlocal?5vftable?5constructor?5closu@ 000000007403f810     LIBCMT:undname.obj
 0002:00001838       ??_C@_0BA@KKLDJDLB@?$GAlocal?5vftable?8?$AA@ 000000007403f838     LIBCMT:undname.obj
 0002:00001848       ??_C@_05KHLCHHI@?$GARTTI?$AA@ 000000007403f848     LIBCMT:undname.obj
 0002:00001850       ??_C@_03KLGMFNMG@?$GAEH?$AA@ 000000007403f850     LIBCMT:undname.obj
 0002:00001858       ??_C@_0BA@KBCDOMBN@?$GAudt?5returning?8?$AA@ 000000007403f858     LIBCMT:undname.obj
 0002:00001868       ??_C@_0BL@LLKPOHJI@?$GAcopy?5constructor?5closure?8?$AA@ 000000007403f868     LIBCMT:undname.obj
 0002:00001888       ??_C@_0CH@OOJPLCPH@?$GAeh?5vector?5vbase?5constructor?5ite@ 000000007403f888     LIBCMT:undname.obj
 0002:000018b0       ??_C@_0CA@GCEOPDGL@?$GAeh?5vector?5destructor?5iterator?8?$AA@ 000000007403f8b0     LIBCMT:undname.obj
 0002:000018d0       ??_C@_0CB@JONCMFFK@?$GAeh?5vector?5constructor?5iterator?8@ 000000007403f8d0     LIBCMT:undname.obj
 0002:000018f8       ??_C@_0BL@NILFHHPC@?$GAvirtual?5displacement?5map?8?$AA@ 000000007403f8f8     LIBCMT:undname.obj
 0002:00001918       ??_C@_0CE@IKBNEHA@?$GAvector?5vbase?5constructor?5iterat@ 000000007403f918     LIBCMT:undname.obj
 0002:00001940       ??_C@_0BN@LFPFMEDL@?$GAvector?5destructor?5iterator?8?$AA@ 000000007403f940     LIBCMT:undname.obj
 0002:00001960       ??_C@_0BO@PFGOCPJJ@?$GAvector?5constructor?5iterator?8?$AA@ 000000007403f960     LIBCMT:undname.obj
 0002:00001980       ??_C@_0BN@IMDCHIKM@?$GAscalar?5deleting?5destructor?8?$AA@ 000000007403f980     LIBCMT:undname.obj
 0002:000019a0       ??_C@_0BO@OBMKPJIG@?$GAdefault?5constructor?5closure?8?$AA@ 000000007403f9a0     LIBCMT:undname.obj
 0002:000019c0       ??_C@_0BN@DEGPLNFK@?$GAvector?5deleting?5destructor?8?$AA@ 000000007403f9c0     LIBCMT:undname.obj
 0002:000019e0       ??_C@_0BD@JDLKDPAB@?$GAvbase?5destructor?8?$AA@ 000000007403f9e0     LIBCMT:undname.obj
 0002:000019f8       ??_C@_08OBABFOLI@?$GAstring?8?$AA@ 000000007403f9f8     LIBCMT:undname.obj
 0002:00001a08       ??_C@_0BF@KDPPACIK@?$GAlocal?5static?5guard?8?$AA@ 000000007403fa08     LIBCMT:undname.obj
 0002:00001a20       ??_C@_08LLFFHHDJ@?$GAtypeof?8?$AA@ 000000007403fa20     LIBCMT:undname.obj
 0002:00001a30       ??_C@_07FEEIOKP@?$GAvcall?8?$AA@ 000000007403fa30     LIBCMT:undname.obj
 0002:00001a38       ??_C@_09BLBHBJP@?$GAvbtable?8?$AA@ 000000007403fa38     LIBCMT:undname.obj
 0002:00001a48       ??_C@_09IFPLHPGF@?$GAvftable?8?$AA@ 000000007403fa48     LIBCMT:undname.obj
 0002:00001a54       ??_C@_02MHEGNOJ@?$FO?$DN?$AA@ 000000007403fa54     LIBCMT:undname.obj
 0002:00001a58       ??_C@_02DHLNPPGH@?$HM?$DN?$AA@ 000000007403fa58     LIBCMT:undname.obj
 0002:00001a5c       ??_C@_02FGJGFEAB@?$CG?$DN?$AA@ 000000007403fa5c     LIBCMT:undname.obj
 0002:00001a60       ??_C@_03CDNPDDLA@?$DM?$DM?$DN?$AA@ 000000007403fa60     LIBCMT:undname.obj
 0002:00001a64       ??_C@_03IKFCCPFF@?$DO?$DO?$DN?$AA@ 000000007403fa64     LIBCMT:undname.obj
 0002:00001a68       ??_C@_02FENAOKFI@?$CF?$DN?$AA@ 000000007403fa68     LIBCMT:undname.obj
 0002:00001a6c       ??_C@_02FJEHGPIO@?1?$DN?$AA@ 000000007403fa6c     LIBCMT:undname.obj
 0002:00001a70       ??_C@_02FKMDLLOA@?9?$DN?$AA@ 000000007403fa70     LIBCMT:undname.obj
 0002:00001a74       ??_C@_02FOEOMHFC@?$CL?$DN?$AA@ 000000007403fa74     LIBCMT:undname.obj
 0002:00001a78       ??_C@_02FPIMKNGF@?$CK?$DN?$AA@ 000000007403fa78     LIBCMT:undname.obj
 0002:00001a7c       ??_C@_02NONPIBCD@?$HM?$HM?$AA@ 000000007403fa7c     LIBCMT:undname.obj
 0002:00001a80       ??_C@_02PPKAJPJL@?$CG?$CG?$AA@ 000000007403fa80     LIBCMT:undname.obj
 0002:00001a84       ??_C@_01DNKMNLPK@?$HM?$AA@ 000000007403fa84     LIBCMT:undname.obj
 0002:00001a88       ??_C@_01JKBOJNNK@?$FO?$AA@ 000000007403fa88     LIBCMT:undname.obj
 0002:00001a8c       ??_C@_01PJKLJHI@?$HO?$AA@  000000007403fa8c     LIBCMT:undname.obj
 0002:00001a90       ??_C@_02HCKGKOFO@?$CI?$CJ?$AA@ 000000007403fa90     LIBCMT:undname.obj
 0002:00001a94       ??_C@_01IHBHIGKO@?0?$AA@   000000007403fa94     LIBCMT:undname.obj
 0002:00001a98       ??_C@_02EEKDKGMJ@?$DO?$DN?$AA@ 000000007403fa98     LIBCMT:undname.obj
 0002:00001a9c       ??_C@_01PPODPGHN@?$DO?$AA@ 000000007403fa9c     LIBCMT:undname.obj
 0002:00001aa0       ??_C@_02EHCHHCKH@?$DM?$DN?$AA@ 000000007403faa0     LIBCMT:undname.obj
 0002:00001aa4       ??_C@_01MNNFJEPP@?$DM?$AA@ 000000007403faa4     LIBCMT:undname.obj
 0002:00001aa8       ??_C@_01FGNFDNOH@?$CF?$AA@ 000000007403faa8     LIBCMT:undname.obj
 0002:00001aac       ??_C@_01KMDKNFGN@?1?$AA@   000000007403faac     LIBCMT:undname.obj
 0002:00001ab0       ??_C@_03MNHNFDLC@?9?$DO?$CK?$AA@ 000000007403fab0     LIBCMT:undname.obj
 0002:00001ab4       ??_C@_01HNPIGOCE@?$CG?$AA@ 000000007403fab4     LIBCMT:undname.obj
 0002:00001ab8       ??_C@_01MIFGBAGJ@?$CL?$AA@ 000000007403fab8     LIBCMT:undname.obj
 0002:00001abc       ??_C@_01JOAMLHOP@?9?$AA@   000000007403fabc     LIBCMT:undname.obj
 0002:00001ac0       ??_C@_02BAABKJLB@?9?9?$AA@ 000000007403fac0     LIBCMT:undname.obj
 0002:00001ac4       ??_C@_02ECNGHCIF@?$CL?$CL?$AA@ 000000007403fac4     LIBCMT:undname.obj
 0002:00001ac8       ??_C@_01NBENCBCI@?$CK?$AA@ 000000007403fac8     LIBCMT:undname.obj
 0002:00001acc       ??_C@_02HBOOOICD@?9?$DO?$AA@ 000000007403facc     LIBCMT:undname.obj
 0002:00001ad0       ??_C@_08LHJFAFGD@operator?$AA@ 000000007403fad0     LIBCMT:undname.obj
 0002:00001adc       ??_C@_02GPECMEKF@?$FL?$FN?$AA@ 000000007403fadc     LIBCMT:undname.obj
 0002:00001ae0       ??_C@_02FDNJECIE@?$CB?$DN?$AA@ 000000007403fae0     LIBCMT:undname.obj
 0002:00001ae4       ??_C@_02EGOFBIJA@?$DN?$DN?$AA@ 000000007403fae4     LIBCMT:undname.obj
 0002:00001ae8       ??_C@_01DCLJPIOD@?$CB?$AA@ 000000007403fae8     LIBCMT:undname.obj
 0002:00001aec       ??_C@_02FODMEDOG@?$DM?$DM?$AA@ 000000007403faec     LIBCMT:undname.obj
 0002:00001af0       ??_C@_02GPIOPFAK@?$DO?$DO?$AA@ 000000007403faf0     LIBCMT:undname.obj
 0002:00001af8       ??_C@_07FPCDHGMM@?5delete?$AA@ 000000007403faf8     LIBCMT:undname.obj
 0002:00001b00       ??_C@_04NIHEBCM@?5new?$AA@ 000000007403fb00     LIBCMT:undname.obj
 0002:00001b08       ??_C@_0M@GFIIJFMG@__unaligned?$AA@ 000000007403fb08     LIBCMT:undname.obj
 0002:00001b18       ??_C@_0L@PILCLIHE@__restrict?$AA@ 000000007403fb18     LIBCMT:undname.obj
 0002:00001b28       ??_C@_07JOMMBBKO@__ptr64?$AA@ 000000007403fb28     LIBCMT:undname.obj
 0002:00001b30       ??_C@_06GHPCKEAG@__eabi?$AA@ 000000007403fb30     LIBCMT:undname.obj
 0002:00001b38       ??_C@_09HIJEGCPM@__clrcall?$AA@ 000000007403fb38     LIBCMT:undname.obj
 0002:00001b48       ??_C@_0L@JMKHOMEK@__fastcall?$AA@ 000000007403fb48     LIBCMT:undname.obj
 0002:00001b58       ??_C@_0L@NPHFGOKO@__thiscall?$AA@ 000000007403fb58     LIBCMT:undname.obj
 0002:00001b68       ??_C@_09IFJBGAPI@__stdcall?$AA@ 000000007403fb68     LIBCMT:undname.obj
 0002:00001b78       ??_C@_08GHMPAG@__pascal?$AA@ 000000007403fb78     LIBCMT:undname.obj
 0002:00001b88       ??_C@_07KOLFKCDI@__cdecl?$AA@ 000000007403fb88     LIBCMT:undname.obj
 0002:00001b90       ??_C@_08EHJDFFNH@__based?$CI?$AA@ 000000007403fb90     LIBCMT:undname.obj
 0002:00001ea8       ??_C@_0BI@DFKBFLJE@GetProcessWindowStation?$AA@ 000000007403fea8     LIBCMT:crtmboxw.obj
 0002:00001ec0       ??_C@_0BK@DEKFELLI@GetUserObjectInformationW?$AA@ 000000007403fec0     LIBCMT:crtmboxw.obj
 0002:00001ee0       ??_C@_0BD@HHGDFDBJ@GetLastActivePopup?$AA@ 000000007403fee0     LIBCMT:crtmboxw.obj
 0002:00001ef8       ??_C@_0BA@HNOPNCHB@GetActiveWindow?$AA@ 000000007403fef8     LIBCMT:crtmboxw.obj
 0002:00001f08       ??_C@_0M@DLDCCGNP@MessageBoxW?$AA@ 000000007403ff08     LIBCMT:crtmboxw.obj
 0002:00001f18       ??_C@_1BG@GOEBHBDC@?$AAU?$AAS?$AAE?$AAR?$AA3?$AA2?$AA?4?$AAD?$AAL?$AAL?$AA?$AA@ 000000007403ff18     LIBCMT:crtmboxw.obj
 0002:00001f30       __newctype                 000000007403ff30     LIBCMT:ctype.obj
 0002:00002230       _wctype                    0000000074040230     LIBCMT:ctype.obj
 0002:00002440       __newclmap                 0000000074040440     LIBCMT:ctype.obj
 0002:000025c0       __newcumap                 00000000740405c0     LIBCMT:ctype.obj
 0002:00002740       ??_C@_0L@KDOEJCKC@_nextafter?$AA@ 0000000074040740     LIBCMT:_fpexcept_.obj
 0002:0000274c       ??_C@_05JGDBENOH@_logb?$AA@ 000000007404074c     LIBCMT:_fpexcept_.obj
 0002:00002754       ??_C@_03ONILCKOB@_yn?$AA@  0000000074040754     LIBCMT:_fpexcept_.obj
 0002:00002758       ??_C@_03NAKIGLHK@_y1?$AA@  0000000074040758     LIBCMT:_fpexcept_.obj
 0002:0000275c       ??_C@_03MJLDFKDL@_y0?$AA@  000000007404075c     LIBCMT:_fpexcept_.obj
 0002:00002760       ??_C@_05GKKHEGJL@frexp?$AA@ 0000000074040760     LIBCMT:_fpexcept_.obj
 0002:00002768       ??_C@_04KEPJIHGP@fmod?$AA@ 0000000074040768     LIBCMT:_fpexcept_.obj
 0002:00002770       ??_C@_06MEIMCGCF@_hypot?$AA@ 0000000074040770     LIBCMT:_fpexcept_.obj
 0002:00002778       ??_C@_05KBKMEMPO@_cabs?$AA@ 0000000074040778     LIBCMT:_fpexcept_.obj
 0002:00002780       ??_C@_05CEJMAHNP@ldexp?$AA@ 0000000074040780     LIBCMT:_fpexcept_.obj
 0002:00002788       ??_C@_04EHEDPDJG@modf?$AA@ 0000000074040788     LIBCMT:_fpexcept_.obj
 0002:00002790       ??_C@_04ODHECPBC@fabs?$AA@ 0000000074040790     LIBCMT:_fpexcept_.obj
 0002:00002798       ??_C@_04GFPJNGEK@ceil?$AA@ 0000000074040798     LIBCMT:_fpexcept_.obj
 0002:000027a0       ??_C@_03IIINPABG@tan?$AA@  00000000740407a0     LIBCMT:_fpexcept_.obj
 0002:000027a4       ??_C@_03LALBNOCG@cos?$AA@  00000000740407a4     LIBCMT:_fpexcept_.obj
 0002:000027a8       ??_C@_03BLEJJJBH@sin?$AA@  00000000740407a8     LIBCMT:_fpexcept_.obj
 0002:000027ac       ??_C@_04EIAKFFMI@sqrt?$AA@ 00000000740407ac     LIBCMT:_fpexcept_.obj
 0002:000027b4       ??_C@_05KNGEOGJB@atan2?$AA@ 00000000740407b4     LIBCMT:_fpexcept_.obj
 0002:000027bc       ??_C@_04MLLJIGOK@atan?$AA@ 00000000740407bc     LIBCMT:_fpexcept_.obj
 0002:000027c4       ??_C@_04PDIFKINK@acos?$AA@ 00000000740407c4     LIBCMT:_fpexcept_.obj
 0002:000027cc       ??_C@_04FIHNOPOL@asin?$AA@ 00000000740407cc     LIBCMT:_fpexcept_.obj
 0002:000027d4       ??_C@_04FJHINJAO@tanh?$AA@ 00000000740407d4     LIBCMT:_fpexcept_.obj
 0002:000027dc       ??_C@_04HPJJNFIM@cosh?$AA@ 00000000740407dc     LIBCMT:_fpexcept_.obj
 0002:000027e4       ??_C@_04COOMCNPB@sinh?$AA@ 00000000740407e4     LIBCMT:_fpexcept_.obj
 0002:000027ec       ??_C@_05HGHHAHAP@log10?$AA@ 00000000740407ec     LIBCMT:_fpexcept_.obj
 0002:000027f4       ??_C@_03MGHMBJCF@log?$AA@  00000000740407f4     LIBCMT:_fpexcept_.obj
 0002:000027f8       ??_C@_03JGHBODFD@pow?$AA@  00000000740407f8     LIBCMT:_fpexcept_.obj
 0002:000027fc       ??_C@_03KHJOGHMM@exp?$AA@  00000000740407fc     LIBCMT:_fpexcept_.obj
 0002:00002800       __real@0000000000000000    0000000074040800     LIBCMT:_fpexcept_.obj
 0002:00002808       ??_C@_05KLBDPFGC@e?$CL000?$AA@ 0000000074040808     LIBCMT:cvt.obj
 0002:00002810       ??_C@_1O@CEDCILHN@?$AA?$CI?$AAn?$AAu?$AAl?$AAl?$AA?$CJ?$AA?$AA@ 0000000074040810     LIBCMT:output.obj
 0002:00002820       ??_C@_06OJHGLDPL@?$CInull?$CJ?$AA@ 0000000074040820     LIBCMT:output.obj
 0002:00002830       __lookuptable              0000000074040830     LIBCMT:output.obj
 0002:00002890       __lookuptable_s            0000000074040890     LIBCMT:outputs.obj
 0002:00002900       ??_C@_06IMKFLFPG@1?$CDQNAN?$AA@ 0000000074040900     LIBCMT:_x10fout_.obj
 0002:00002908       ??_C@_05DNEBIAHO@1?$CDINF?$AA@ 0000000074040908     LIBCMT:_x10fout_.obj
 0002:00002910       ??_C@_05PHHOCPM@1?$CDIND?$AA@ 0000000074040910     LIBCMT:_x10fout_.obj
 0002:00002918       ??_C@_06PGGFOGJG@1?$CDSNAN?$AA@ 0000000074040918     LIBCMT:_x10fout_.obj
 0002:00002920       ??_C@_1BA@BALFACEM@?$AAC?$AAO?$AAN?$AAO?$AAU?$AAT?$AA$?$AA?$AA@ 0000000074040920     LIBCMT:initcon.obj
 0002:00002930       ??_C@_1M@PHNCLBLI@?$AA?5?$AA?$CI?$AA?$CF?$AAu?$AA?$CJ?$AA?$AA@ 0000000074040930     plugin.obj
 0002:00002940       c_plugin_guid              0000000074040940     plugin.obj
 0002:00002950       c_disk_menu_guid           0000000074040950     plugin.obj
 0002:00002960       c_plugin_menu_guid         0000000074040960     plugin.obj
 0002:00002970       c_config_menu_guid         0000000074040970     plugin.obj
 0002:00002980       c_progress_dialog_guid     0000000074040980     plugin.obj
 0002:00002990       c_copy_files_dialog_guid   0000000074040990     plugin.obj
 0002:000029a0       c_overwrite_dialog_guid    00000000740409a0     plugin.obj
 0002:000029b0       c_delete_files_dialog_guid 00000000740409b0     plugin.obj
 0002:000029c0       c_create_dir_dialog_guid   00000000740409c0     plugin.obj
 0002:000029d0       c_def_option_values_dialog 00000000740409d0     plugin.obj
 0002:000029e0       c_hot_keys_dialog_guid     00000000740409e0     plugin.obj
 0002:000029f0       c_plugin_options_dialog_guid 00000000740409f0     plugin.obj
 0002:00002a00       c_run_dialog_guid          0000000074040a00     plugin.obj
 0002:00002a10       c_attr_dialog_guid         0000000074040a10     plugin.obj
 0002:00002a20       c_filter_dialog_guid       0000000074040a20     plugin.obj
 0002:00002a30       c_error_dialog_guid        0000000074040a30     plugin.obj
 0002:00002a40       c_interrupt_dialog_guid    0000000074040a40     plugin.obj
 0002:00002a50       c_device_list_menu_guid    0000000074040a50     plugin.obj
 0002:00002a60       c_copy_files_stats_dialog_guid 0000000074040a60     plugin.obj
 0002:00002a70       c_delete_files_stats_dialog_guid 0000000074040a70     plugin.obj
 0002:00002a80       c_far_guid                 0000000074040a80     plugin.obj
 0002:00002a90       ??_C@_1DI@ECGCCBAF@?$AA?$CF?$AAS?$AA?3?$AA?$CF?$AAu?$AA?5?$AAv?$AA?4?$AA?$CF?$AAu?$AA?4?$AA?$CF?$AAu?$AA?4?$AA?$CF?$AAu?$AA?4?$AA?$CF?$AAu?$AA?5?$AAu?$AAn?$AAi?$AA?5?$AAx?$AA6?$AA4?$AA?$AA@ 0000000074040a90     plugin.obj
 0002:00002ac8       ??_C@_1CM@BEEGPJIK@?$AAv?$AA?4?$AA?$CF?$AAu?$AA?4?$AA?$CF?$AAu?$AA?4?$AA?$CF?$AAu?$AA?4?$AA?$CF?$AAu?$AA?5?$AAu?$AAn?$AAi?$AA?5?$AAx?$AA6?$AA4?$AA?$AA@ 0000000074040ac8     plugin.obj
 0002:00002af8       ??_C@_1BI@HEEKLFNP@?$AAW?$AAM?$AA?5?$AAE?$AAx?$AAp?$AAl?$AAo?$AAr?$AAe?$AAr?$AA?$AA@ 0000000074040af8     plugin.obj
 0002:00002b10       ??_C@_1DM@FDNIMIBB@?$AAW?$AAM?$AA?5?$AAE?$AAx?$AAp?$AAl?$AAo?$AAr?$AAe?$AAr?$AA?5?$AAf?$AAo?$AAr?$AA?5?$AAF?$AAa?$AAr?$AA?5?$AAM?$AAa?$AAn?$AAa?$AAg?$AAe?$AAr?$AA?5?$AA3?$AA?$AA@ 0000000074040b10     plugin.obj
 0002:00002b50       ??_C@_1BM@JIIAFIHJ@?$AAO?$AAl?$AAe?$AAg?$AA?5?$AAM?$AAa?$AAk?$AAo?$AAv?$AAs?$AAk?$AAi?$AA?$AA@ 0000000074040b50     plugin.obj
 0002:00002b70       ??_C@_1BC@IIOGDLPJ@?$AAP?$AAo?$AAc?$AAk?$AAe?$AAt?$AAP?$AAC?$AA?$AA@ 0000000074040b70     plugin.obj
 0002:00002b88       ??_C@_1BG@POFIGNHI@?$AAS?$AAm?$AAa?$AAr?$AAt?$AAP?$AAh?$AAo?$AAn?$AAe?$AA?$AA@ 0000000074040b88     plugin.obj
 0002:00002ba0       ??_C@_0L@MBOHGIBE@plugin?4cpp?$AA@ 0000000074040ba0     plugin.obj
 0002:00002bb0       ??_C@_1BG@CHBAPDPL@?$AA?$CF?$AAS?$AA?5?$AA?$CF?$AAS?$AA?5?$AA?$CI?$AA?$CF?$AAS?$AA?$CJ?$AA?$AA@ 0000000074040bb0     plugin.obj
 0002:00002bc8       ??_C@_13FPGAJAPJ@?$AA?2?$AA?$AA@ 0000000074040bc8     plugin.obj
 0002:00002bd0       ??_C@_1BE@DFJGMLNM@?$AA?6?$AAF?$AAa?$AAi?$AAl?$AAu?$AAr?$AAe?$AA?$CB?$AA?$AA@ 0000000074040bd0     plugin.obj
 0002:00002be4       ??_C@_13EBCNDICG@?$AA?3?$AA?$AA@ 0000000074040be4     plugin.obj
 0002:00002be8       ??_C@_15DDHGOCBH@?$AA?4?$AA?4?$AA?$AA@ 0000000074040be8     plugin.obj
 0002:00002bf0       ??_C@_11LOCGONAA@?$AA?$AA@ 0000000074040bf0     plugin.obj
 0002:00002c00       ??_C@_1MO@LHCKDOPI@?$AAe?$AAx?$AAp?$AAl?$AAo?$AAr?$AAe?$AAr?$AA?4?$AAe?$AAx?$AAe?$AA?5?$AA?1?$AAr?$AAo?$AAo?$AAt?$AA?0?$AA?0?$AA?3?$AA?3?$AA?$HL?$AA2?$AA0?$AAD?$AA0?$AA4?$AAF?$AAE?$AA0?$AA?9@ 0000000074040c00     plugin.obj
 0002:00002cd8       ??_7Error@@6B@             0000000074040cd8     plugin.obj
 0002:00002ce8       ??_7MsgError@@6B@          0000000074040ce8     plugin.obj
 0002:00002cf8       ??_7CustomError@@6B@       0000000074040cf8     plugin.obj
 0002:00002d08       ??_7SystemError@@6B@       0000000074040d08     plugin.obj
 0002:00002d10       ??_C@_0P@GHFPNOJB@bad?5allocation?$AA@ 0000000074040d10     plugin.obj
 0002:00002d20       ??_C@_1BC@MKKNECAI@?$AAD?$AAI?$AAS?$AAP?$AAA?$AAT?$AAC?$AAH?$AA?$AA@ 0000000074040d20     rapi_proc.obj
 0002:00002d38       ??_C@_17IFGPLEFA@?$AAI?$AAT?$AAF?$AA?$AA@ 0000000074040d38     rapi_proc.obj
 0002:00002d40       ??_C@_19CIJIHAKK@?$AAN?$AAU?$AAL?$AAL?$AA?$AA@ 0000000074040d40     rapi_proc.obj
 0002:00002d50       ??_C@_17IPBCLAJ@?$AAR?$AAP?$AAC?$AA?$AA@ 0000000074040d50     rapi_proc.obj
 0002:00002d58       ??_C@_1BA@GIMEKCOG@?$AAS?$AAT?$AAO?$AAR?$AAA?$AAG?$AAE?$AA?$AA@ 0000000074040d58     rapi_proc.obj
 0002:00002d68       ??_C@_1M@EKLNDDIP@?$AAW?$AAI?$AAN?$AA3?$AA2?$AA?$AA@ 0000000074040d68     rapi_proc.obj
 0002:00002d78       ??_C@_1BA@LPIGAHHM@?$AAW?$AAI?$AAN?$AAD?$AAO?$AAW?$AAS?$AA?$AA@ 0000000074040d78     rapi_proc.obj
 0002:00002d88       ??_C@_15EFLNJKHH@?$AA?$CF?$AAu?$AA?$AA@ 0000000074040d88     rapi_proc.obj
 0002:00002d90       ??_C@_1EI@ONAHOFLJ@?$AAC?$AAO?$AAM?$AA?5?$AAe?$AAr?$AAr?$AAo?$AAr?$AA?3?$AA?5?$AA0?$AAx?$AA?$CF?$AAx?$AA?5?$AA?$CI?$AAf?$AAa?$AAc?$AAi?$AAl?$AAi?$AAt?$AAy?$AA?5?$AA?$DN?$AA?5?$AA?$CF?$AAS?$AA?$CJ?$AA?3@ 0000000074040d90     rapi_proc.obj
 0002:00002de0       ??_C@_1FG@GLFMMMMC@?$AAC?$AAO?$AAM?$AA?5?$AAe?$AAr?$AAr?$AAo?$AAr?$AA?3?$AA?5?$AA0?$AAx?$AA?$CF?$AAx?$AA?5?$AA?$CI?$AAf?$AAa?$AAc?$AAi?$AAl?$AAi?$AAt?$AAy?$AA?5?$AA?$DN?$AA?5?$AA?$CF?$AAS?$AA?0?$AA?5@ 0000000074040de0     rapi_proc.obj
 0002:00002e38       IID_ICeFileFilter          0000000074040e38     file_filters.obj
 0002:00002e48       IID_ICeFileFilterSite      0000000074040e48     file_filters.obj
 0002:00002e58       ?c_pb_black@@3_WB          0000000074040e58     dlgapi.obj
 0002:00002e5c       ?c_pb_white@@3_WB          0000000074040e5c     dlgapi.obj
 0002:00002e60       CLSID_RAPI                 0000000074040e60     rapi_proc.obj
 0002:00002e70       IID_IRAPIDesktop           0000000074040e70     rapi_proc.obj
 0002:00002e80       ??_C@_19MJCDBCKE@?$AA?2?$AA?2?$AA?$DP?$AA?2?$AA?$AA@ 0000000074040e80     rapi_proc.obj
 0002:00002e90       ??_C@_19BKJMDJK@?$AA?2?$AA?2?$AA?4?$AA?2?$AA?$AA@ 0000000074040e90     rapi_proc.obj
 0002:00002ea0       ??_C@_19JHEHLFPM@?$AA?2?$AA?$DP?$AA?$DP?$AA?2?$AA?$AA@ 0000000074040ea0     rapi_proc.obj
 0002:00002eac       ??_C@_15LEKKCGMK@?$AA?2?$AA?2?$AA?$AA@ 0000000074040eac     rapi_proc.obj
 0002:00002eb8       ??_C@_1BA@BFGBFLGI@?$AA?2?$AA?2?$AA?$DP?$AA?2?$AAU?$AAN?$AAC?$AA?$AA@ 0000000074040eb8     rapi_proc.obj
 0002:00002ec8       ??_C@_1BG@KBEDDDA@?$AAc?$AAe?$AAu?$AAt?$AAi?$AAl?$AA?4?$AAd?$AAl?$AAl?$AA?$AA@ 0000000074040ec8     rapi_proc.obj
 0002:00002ee0       ??_C@_0O@HAAIMKGJ@rapi_proc?4cpp?$AA@ 0000000074040ee0     rapi_proc.obj
 0002:00002ef0       ??_C@_0L@MLDFDPOL@CeSvcOpenW?$AA@ 0000000074040ef0     rapi_proc.obj
 0002:00002f00       ??_C@_0L@IPNEABCF@CeSvcClose?$AA@ 0000000074040f00     rapi_proc.obj
 0002:00002f10       ??_C@_0BC@CACKGLHO@CeSvcEnumProfiles?$AA@ 0000000074040f10     rapi_proc.obj
 0002:00002f28       ??_C@_0N@FOOEKBEA@CeSvcOpenExW?$AA@ 0000000074040f28     rapi_proc.obj
 0002:00002f38       ??_C@_1BC@JHBGCMAL@?$AAr?$AAa?$AAp?$AAi?$AA?4?$AAd?$AAl?$AAl?$AA?$AA@ 0000000074040f38     rapi_proc.obj
 0002:00002f50       ??_C@_0N@GDGIOMEM@CeRapiInitEx?$AA@ 0000000074040f50     rapi_proc.obj
 0002:00002f60       ??_C@_0N@GBFAFNIF@CeRapiUninit?$AA@ 0000000074040f60     rapi_proc.obj
 0002:00002f70       ??_C@_0P@PNIPBOKK@CeFindAllFiles?$AA@ 0000000074040f70     rapi_proc.obj
 0002:00002f80       ??_C@_0BB@NCPJFNNA@CeRapiFreeBuffer?$AA@ 0000000074040f80     rapi_proc.obj
 0002:00002f98       ??_C@_0BA@HMMANAMF@CeFindFirstFile?$AA@ 0000000074040f98     rapi_proc.obj
 0002:00002fa8       ??_C@_0P@IAFMBCJE@CeFindNextFile?$AA@ 0000000074040fa8     rapi_proc.obj
 0002:00002fb8       ??_C@_0M@MDNOLALN@CeFindClose?$AA@ 0000000074040fb8     rapi_proc.obj
 0002:00002fc8       ??_C@_0N@HPFKMDJC@CeCreateFile?$AA@ 0000000074040fc8     rapi_proc.obj
 0002:00002fd8       ??_C@_0O@BDPHLBKN@CeCloseHandle?$AA@ 0000000074040fd8     rapi_proc.obj
 0002:00002fe8       ??_C@_0L@FOMNILDN@CeReadFile?$AA@ 0000000074040fe8     rapi_proc.obj
 0002:00002ff8       ??_C@_0M@CAKJHJAP@CeWriteFile?$AA@ 0000000074040ff8     rapi_proc.obj
 0002:00003008       ??_C@_0N@LLPKPECB@CeDeleteFile?$AA@ 0000000074041008     rapi_proc.obj
 0002:00003018       ??_C@_0BE@GJNNDMHP@CeGetFileAttributes?$AA@ 0000000074041018     rapi_proc.obj
 0002:00003030       ??_C@_0BE@EMNGLHGB@CeSetFileAttributes?$AA@ 0000000074041030     rapi_proc.obj
 0002:00003048       ??_C@_0O@DALPMFEN@CeSetFileTime?$AA@ 0000000074041048     rapi_proc.obj
 0002:00003058       ??_C@_0BC@CDIJKKMM@CeCreateDirectory?$AA@ 0000000074041058     rapi_proc.obj
 0002:00003070       ??_C@_0BC@JBCBBJIP@CeRemoveDirectory?$AA@ 0000000074041070     rapi_proc.obj
 0002:00003088       ??_C@_0L@NFFBGLLA@CeMoveFile?$AA@ 0000000074041088     rapi_proc.obj
 0002:00003098       ??_C@_0L@KFHEHPI@CeCopyFile?$AA@ 0000000074041098     rapi_proc.obj
 0002:000030a8       ??_C@_0P@CKPMENJG@CeGetVersionEx?$AA@ 00000000740410a8     rapi_proc.obj
 0002:000030b8       ??_C@_0BF@JHPKBFMP@CeGlobalMemoryStatus?$AA@ 00000000740410b8     rapi_proc.obj
 0002:000030d0       ??_C@_0BF@HIJIFFOL@CeGetDiskFreeSpaceEx?$AA@ 00000000740410d0     rapi_proc.obj
 0002:000030e8       ??_C@_0P@DEEBEBAP@CeRegOpenKeyEx?$AA@ 00000000740410e8     rapi_proc.obj
 0002:000030f8       ??_C@_0BC@BCPNLBJP@CeRegQueryValueEx?$AA@ 00000000740410f8     rapi_proc.obj
 0002:00003110       ??_C@_0O@PPINPJJP@CeRegCloseKey?$AA@ 0000000074041110     rapi_proc.obj
 0002:00003120       ??_C@_0BA@BNHKNMBN@CeCreateProcess?$AA@ 0000000074041120     rapi_proc.obj
 0002:00003130       ??_C@_0BJ@HHHLNCKG@CeGetSystemPowerStatusEx?$AA@ 0000000074041130     rapi_proc.obj
 0002:00003150       ??_C@_0P@HDHFGGEO@CeGetLastError?$AA@ 0000000074041150     rapi_proc.obj
 0002:00003160       ??_C@_0P@ILMJDAGL@CeRapiGetError?$AA@ 0000000074041160     rapi_proc.obj
 0002:00003170       ??_C@_17DMBMDHNL@?$AAU?$AAS?$AAB?$AA?$AA@ 0000000074041170     rapi_proc.obj
 0002:00003178       ??_C@_1BC@LKJMJNKP@?$AAI?$AAn?$AAf?$AAr?$AAa?$AAR?$AAe?$AAd?$AA?$AA@ 0000000074041178     rapi_proc.obj
 0002:00003190       ??_C@_1O@EKJPAJBH@?$AAS?$AAe?$AAr?$AAi?$AAa?$AAl?$AA?$AA@ 0000000074041190     rapi_proc.obj
 0002:000031a0       ??_C@_1BA@IFBJBPAK@?$AAN?$AAe?$AAt?$AAw?$AAo?$AAr?$AAk?$AA?$AA@ 00000000740411a0     rapi_proc.obj
 0002:000031b0       ??_C@_1BA@LEPJIIOK@?$AAU?$AAn?$AAk?$AAn?$AAo?$AAw?$AAn?$AA?$AA@ 00000000740411b0     rapi_proc.obj
 0002:000031c0       ??_C@_13BBDEGPLJ@?$AA?$CK?$AA?$AA@ 00000000740411c0     rapi_proc.obj
 0002:000031c4       ??_C@_13JOFGPIOO@?$AA?4?$AA?$AA@ 00000000740411c4     rapi_proc.obj
 0002:000031c8       ??_C@_1BC@PFBGPMEJ@?$AA?$CF?$AAu?$AA?4?$AA?$CF?$AAu?$AA?4?$AA?$CF?$AAu?$AA?$AA@ 00000000740411c8     rapi_proc.obj
 0002:000031dc       ??_C@_15PKPONJIK@?$AA?2?$AA?$CK?$AA?$AA@ 00000000740411dc     rapi_proc.obj
 0002:000031e8       ??_C@_19JBDMALGA@?$AA?$CF?$AAu?$AA?$CF?$AA?$CF?$AA?$AA@ 00000000740411e8     rapi_proc.obj
 0002:000031f8       ??_C@_1M@IDADAHFF@?$AAs?$AAh?$AAe?$AAl?$AAl?$AA?$AA@ 00000000740411f8     rapi_proc.obj
 0002:00003208       ??_C@_19BDAJEHDN@?$AAo?$AAp?$AAe?$AAn?$AA?$AA@ 0000000074041208     rapi_proc.obj
 0002:00003218       ??_C@_1BA@NBJLPKHN@?$AAc?$AAo?$AAm?$AAm?$AAa?$AAn?$AAd?$AA?$AA@ 0000000074041218     rapi_proc.obj
 0002:00003228       ??_C@_15FBMLFFBN@?$AA?$CF?$AA1?$AA?$AA@ 0000000074041228     rapi_proc.obj
 0002:00003230       ??_C@_15NGNDIFID@?$AA?$CF?$AA?$CK?$AA?$AA@ 0000000074041230     rapi_proc.obj
 0002:00003240       ??_7ComError@@6B@          0000000074041240     rapi_proc.obj
 0002:00003248       ??_C@_08MGGMOMJI@util?4cpp?$AA@ 0000000074041248     util.obj
 0002:00003258       ??_C@_1M@OABOHDNA@?$AA?$CF?$AAg?$AA?5?$AA?$CF?$AAs?$AA?$AA@ 0000000074041258     util.obj
 0002:00003268       ??_C@_1CE@NFHCALDA@?$AA?$CF?$AA0?$AA2?$AAL?$AAu?$AA?3?$AA?$CF?$AA0?$AA2?$AAL?$AAu?$AA?3?$AA?$CF?$AA0?$AA2?$AAL?$AAu?$AA?$AA@ 0000000074041268     util.obj
 0002:00003290       ??_C@_17LGKOMLJ@?$AA?4?$AA?4?$AA?4?$AA?$AA@ 0000000074041290     util.obj
 0002:00003298       ??_C@_1BG@IACMLO@?$AA?$CF?$AA?4?$AA?$CK?$AAc?$AA?$CF?$AAS?$AA?$CF?$AA?4?$AA?$CK?$AAc?$AA?$AA@ 0000000074041298     util.obj
 0002:000032b0       ??_C@_17IENKKDKK@?$AAw?$AAm?$AAe?$AA?$AA@ 00000000740412b0     util.obj
 0002:000032b8       ??_C@_06NPJEFJLB@ui?4cpp?$AA@ 00000000740412b8     ui.obj
 0002:000032c0       ??_C@_17ECMKOHFH@?$AAl?$AAo?$AAg?$AA?$AA@ 00000000740412c0     ui.obj
 0002:000032c8       ??_C@_1BO@JKMIDHMB@?$AA?$CF?$AAS?$AA?3?$AA?5?$AA?8?$AA?$CF?$AAS?$AA?8?$AA?5?$AA?$CI?$AA?$CF?$AAS?$AA?$CJ?$AA?6?$AA?$AA@ 00000000740412c8     ui.obj
 0002:000032e8       ??_C@_1BO@OLMIBJEF@?$AAc?$AAo?$AAp?$AAy?$AA?4?$AAf?$AAi?$AAl?$AAe?$AAs?$AA?4?$AAd?$AAl?$AAg?$AA?$AA@ 00000000740412e8     ui.obj
 0002:00003308       ??_C@_1BC@JMFGLOEF@?$AA?$CF?$AA?4?$AA?$CK?$AAc?$AA?$CF?$AA?4?$AA?$CK?$AAc?$AA?$AA@ 0000000074041308     ui.obj
 0002:0000331c       ??_C@_13GGAHEHIG@?$AA?$AB?$AA?$AA@ 000000007404131c     ui.obj
 0002:00003320       ??_C@_1BE@KMFEPBAA@?$AA?$HL?$AA?$CF?$AAu?$AA?$CF?$AA?$CF?$AA?$HN?$AA?5?$AA?$CF?$AAS?$AA?$AA@ 0000000074041320     ui.obj
 0002:00003338       ??_C@_1CC@EHODMNNH@?$AAd?$AAe?$AAl?$AAe?$AAt?$AAe?$AA?4?$AAf?$AAi?$AAl?$AAe?$AAs?$AA?4?$AAd?$AAl?$AAg?$AA?$AA@ 0000000074041338     ui.obj
 0002:00003360       ??_C@_1O@BJPKKLLM@?$AAC?$AAo?$AAn?$AAf?$AAi?$AAg?$AA?$AA@ 0000000074041360     ui.obj
 0002:00003370       ??_C@_13LBAGMAIH@?$AA?6?$AA?$AA@ 0000000074041370     ui.obj
 0002:00003378       ??_C@_19LMEHJHGD@?$AA9?$AA9?$AA9?$AA9?$AA?$AA@ 0000000074041378     ui.obj
 0002:00003388       ??_C@_1BM@JAEEJKPI@?$AAW?$AAM?$AAE?$AAx?$AAp?$AAl?$AAo?$AAr?$AAe?$AAr?$AAR?$AAu?$AAn?$AA?$AA@ 0000000074041388     ui.obj
 0002:000033a4       ??_C@_13FLOCNAAB@?$AA?$CG?$AA?$AA@ 00000000740413a4     ui.obj
 0002:000033a8       ??_C@_13DIBMAFH@?$AA?$CJ?$AA?$AA@ 00000000740413a8     ui.obj
 0002:000033ac       ??_C@_15CMBHNMLL@?$AA?5?$AA?$CI?$AA?$AA@ 00000000740413ac     ui.obj
 0002:000033b8       ??_C@_17FPIFMLJN@?$AAE?$AAs?$AAc?$AA?$AA@ 00000000740413b8     options.obj
 0002:000033c0       ??_C@_1BG@BBLLCINI@?$AAC?$AAo?$AAp?$AAy?$AAO?$AAp?$AAe?$AAn?$AAe?$AAd?$AA?$AA@ 00000000740413c0     options.obj
 0002:000033d8       ??_C@_1BG@IKEJNDME@?$AAC?$AAt?$AAr?$AAl?$AAS?$AAh?$AAi?$AAf?$AAt?$AAA?$AA?$AA@ 00000000740413d8     options.obj
 0002:000033f0       ??_C@_1BG@HAFJEMNA@?$AAC?$AAt?$AAr?$AAl?$AAS?$AAh?$AAi?$AAf?$AAt?$AAS?$AA?$AA@ 00000000740413f0     options.obj
 0002:00003408       ??_C@_1BG@EPPNPLCL@?$AAC?$AAt?$AAr?$AAl?$AAS?$AAh?$AAi?$AAf?$AAt?$AAI?$AA?$AA@ 0000000074041408     options.obj
 0002:00003420       ??_C@_1CG@JLJFFNEG@?$AAa?$AAd?$AAd?$AA_?$AAt?$AAo?$AA_?$AAp?$AAl?$AAu?$AAg?$AAi?$AAn?$AA_?$AAm?$AAe?$AAn?$AAu?$AA?$AA@ 0000000074041420     options.obj
 0002:00003448       ??_C@_1CC@JGIEKCPH@?$AAa?$AAd?$AAd?$AA_?$AAt?$AAo?$AA_?$AAd?$AAi?$AAs?$AAk?$AA_?$AAm?$AAe?$AAn?$AAu?$AA?$AA@ 0000000074041448     options.obj
 0002:00003470       ??_C@_1BM@CKEEBHHJ@?$AAa?$AAc?$AAc?$AAe?$AAs?$AAs?$AA_?$AAm?$AAe?$AAt?$AAh?$AAo?$AAd?$AA?$AA@ 0000000074041470     options.obj
 0002:00003490       ??_C@_1BM@ONDNPLFB@?$AAh?$AAi?$AAd?$AAe?$AA_?$AAc?$AAo?$AAp?$AAy?$AA_?$AAd?$AAl?$AAg?$AA?$AA@ 0000000074041490     options.obj
 0002:000034b0       ??_C@_1BM@JFDBLCI@?$AAs?$AAa?$AAv?$AAe?$AA_?$AAl?$AAa?$AAs?$AAt?$AA_?$AAd?$AAi?$AAr?$AA?$AA@ 00000000740414b0     options.obj
 0002:000034d0       ??_C@_1BM@KCLCDDBP@?$AAc?$AAo?$AAp?$AAy?$AA_?$AAb?$AAu?$AAf?$AA_?$AAs?$AAi?$AAz?$AAe?$AA?$AA@ 00000000740414d0     options.obj
 0002:000034f0       ??_C@_1BO@JOJJFMCK@?$AAh?$AAi?$AAd?$AAe?$AA_?$AAr?$AAo?$AAm?$AA_?$AAf?$AAi?$AAl?$AAe?$AAs?$AA?$AA@ 00000000740414f0     options.obj
 0002:00003510       ??_C@_1CA@GFJCDJDA@?$AAe?$AAx?$AAi?$AAt?$AA_?$AAo?$AAn?$AA_?$AAd?$AAo?$AAt?$AA_?$AAd?$AAo?$AAt?$AA?$AA@ 0000000074041510     options.obj
 0002:00003530       ??_C@_1O@KMGAJKPP@?$AAp?$AAr?$AAe?$AAf?$AAi?$AAx?$AA?$AA@ 0000000074041530     options.obj
 0002:00003540       ??_C@_1CA@FCIPPAOJ@?$AAs?$AAh?$AAo?$AAw?$AA_?$AAf?$AAr?$AAe?$AAe?$AA_?$AAs?$AAp?$AAa?$AAc?$AAe?$AA?$AA@ 0000000074041540     options.obj
 0002:00003560       ??_C@_1BM@NLHOIHKK@?$AAi?$AAg?$AAn?$AAo?$AAr?$AAe?$AA_?$AAe?$AAr?$AAr?$AAo?$AAr?$AAs?$AA?$AA@ 0000000074041560     options.obj
 0002:00003580       ??_C@_1BE@NNDNCFFC@?$AAo?$AAv?$AAe?$AAr?$AAw?$AAr?$AAi?$AAt?$AAe?$AA?$AA@ 0000000074041580     options.obj
 0002:00003598       ??_C@_1BM@NJOKMHBC@?$AAs?$AAh?$AAo?$AAw?$AA_?$AAo?$AAp?$AA_?$AAs?$AAt?$AAa?$AAt?$AAs?$AA?$AA@ 0000000074041598     options.obj
 0002:000035b8       ??_C@_1CC@CDDPMAFJ@?$AAu?$AAs?$AAe?$AA_?$AAf?$AAi?$AAl?$AAe?$AA_?$AAf?$AAi?$AAl?$AAt?$AAe?$AAr?$AAs?$AA?$AA@ 00000000740415b8     options.obj
 0002:000035e0       ??_C@_1CA@NLGCHOFL@?$AAs?$AAa?$AAv?$AAe?$AA_?$AAd?$AAe?$AAf?$AA_?$AAv?$AAa?$AAl?$AAu?$AAe?$AAs?$AA?$AA@ 00000000740415e0     options.obj
 0002:00003600       ??_C@_1BM@NKCCBHAC@?$AAl?$AAa?$AAs?$AAt?$AA_?$AAd?$AAe?$AAv?$AA_?$AAt?$AAy?$AAp?$AAe?$AA?$AA@ 0000000074041600     options.obj
 0002:00003620       ??_C@_1BC@IMIMIFIB@?$AAk?$AAe?$AAy?$AA_?$AAa?$AAt?$AAt?$AAr?$AA?$AA@ 0000000074041620     options.obj
 0002:00003638       ??_C@_1BI@DKKEFCAF@?$AAk?$AAe?$AAy?$AA_?$AAe?$AAx?$AAe?$AAc?$AAu?$AAt?$AAe?$AA?$AA@ 0000000074041638     options.obj
 0002:00003650       ??_C@_1CG@GAMLIOBK@?$AAk?$AAe?$AAy?$AA_?$AAh?$AAi?$AAd?$AAe?$AA_?$AAr?$AAo?$AAm?$AA_?$AAf?$AAi?$AAl?$AAe?$AAs?$AA?$AA@ 0000000074041650     options.obj
 0002:00003678       ??_C@_1BE@INCPIFFJ@?$AAl?$AAa?$AAs?$AAt?$AA_?$AAd?$AAi?$AAr?$AA_?$AA?$AA@ 0000000074041678     options.obj
 0002:00003690       ??_C@_0BB@OPDAFNPE@file_filters?4cpp?$AA@ 0000000074041690     file_filters.obj
 0002:000036a8       ??_C@_1BI@BEJLNIIO@?$AAB?$AAi?$AAn?$AAa?$AAr?$AAy?$AA?5?$AAC?$AAo?$AAp?$AAy?$AA?$AA@ 00000000740416a8     file_filters.obj
 0002:000036c0       ??_C@_1BM@BCLFIFJ@?$AAD?$AAe?$AAf?$AAa?$AAu?$AAl?$AAt?$AAE?$AAx?$AAp?$AAo?$AAr?$AAt?$AA?$AA@ 00000000740416c0     file_filters.obj
 0002:000036e0       ??_C@_1BM@LPGFFDJI@?$AAD?$AAe?$AAf?$AAa?$AAu?$AAl?$AAt?$AAI?$AAm?$AAp?$AAo?$AAr?$AAt?$AA?$AA@ 00000000740416e0     file_filters.obj
 0002:00003700       ??_C@_1CC@DHBPDCJA@?$AAI?$AAn?$AAs?$AAt?$AAa?$AAl?$AAl?$AAe?$AAd?$AAF?$AAi?$AAl?$AAt?$AAe?$AAr?$AAs?$AA?$AA@ 0000000074041700     file_filters.obj
 0002:00003728       ??_C@_1BO@NPHHINBF@?$AA?2?$AAP?$AAe?$AAg?$AAa?$AAs?$AAu?$AAs?$AAF?$AAi?$AAl?$AAt?$AAe?$AAr?$AA?$AA@ 0000000074041728     file_filters.obj
 0002:00003748       ??_C@_1O@FHBGLCIO@?$AAC?$AAL?$AAS?$AAI?$AAD?$AA?2?$AA?$AA@ 0000000074041748     file_filters.obj
 0002:00003758       ??_C@_1BK@LCGILPGE@?$AAN?$AAe?$AAw?$AAE?$AAx?$AAt?$AAe?$AAn?$AAs?$AAi?$AAo?$AAn?$AA?$AA@ 0000000074041758     file_filters.obj
 0002:00003778       ??_C@_1BI@DLMANABL@?$AAD?$AAe?$AAs?$AAc?$AAr?$AAi?$AAp?$AAt?$AAi?$AAo?$AAn?$AA?$AA@ 0000000074041778     file_filters.obj
 0002:00003790       ??_C@_1O@JECNEECA@?$AAE?$AAx?$AAp?$AAo?$AAr?$AAt?$AA?$AA@ 0000000074041790     file_filters.obj
 0002:000037a0       ??_C@_1O@CKGDEPOB@?$AAI?$AAm?$AAp?$AAo?$AAr?$AAt?$AA?$AA@ 00000000740417a0     file_filters.obj
 0002:000037b0       ??_C@_1BA@DJLBFCNB@?$AAF?$AAi?$AAl?$AAt?$AAe?$AAr?$AAs?$AA?$AA@ 00000000740417b0     file_filters.obj
 0002:000037c0       ??_C@_1BO@NJEHKMMM@?$AAF?$AAi?$AAl?$AAt?$AAe?$AAr?$AA?5?$AAe?$AAr?$AAr?$AAo?$AAr?$AA?3?$AA?5?$AA?$AA@ 00000000740417c0     file_filters.obj
 0002:000037e8       ??_7FileStream@@6B@        00000000740417e8     file_filters.obj
 0002:00003868       ??_7FileFilterSite@@6B@    0000000074041868     file_filters.obj
 0002:000038b0       __real@3fe0000000000000    00000000740418b0      CIL library: CIL module
 0002:000038b8       __real@43e0000000000000    00000000740418b8      CIL library: CIL module
 0002:000038c0       __real@43f0000000000000    00000000740418c0      CIL library: CIL module
 0002:00003d78       __real@3ff0000000000000    0000000074041d78      CIL library: CIL module
 0002:00003d80       __real@4059000000000000    0000000074041d80      CIL library: CIL module
 0002:00003d88       __real@4024000000000000    0000000074041d88      CIL library: CIL module
 0002:00003d90       __real@4090000000000000    0000000074041d90      CIL library: CIL module
 0002:00003d98       __real@3f50000000000000    0000000074041d98      CIL library: CIL module
 0002:00004fb8       _pDestructExceptionObject  0000000074042fb8     LIBCMT:frame.obj
 0002:00004fc8       ??_7bad_exception@std@@6B@ 0000000074042fc8     LIBCMT:frame.obj
 0002:00004fd8       ??_C@_0O@DPKOEFFH@bad?5exception?$AA@ 0000000074042fd8     LIBCMT:frame.obj
 0002:00005038       ??_R4exception@std@@6B@    0000000074043038     LIBCMT:stdexcpt.obj
 0002:00005060       ??_R4type_info@@6B@        0000000074043060     LIBCMT:typinfo.obj
 0002:00005088       ??_R3type_info@@8          0000000074043088     LIBCMT:typinfo.obj
 0002:000050a0       ??_R2type_info@@8          00000000740430a0     LIBCMT:typinfo.obj
 0002:000050b0       ??_R1A@?0A@EA@type_info@@8 00000000740430b0     LIBCMT:typinfo.obj
 0002:000050d8       ??_R4bad_alloc@std@@6B@    00000000740430d8     plugin.obj
 0002:00005100       ??_R3bad_alloc@std@@8      0000000074043100     plugin.obj
 0002:00005118       ??_R2bad_alloc@std@@8      0000000074043118     plugin.obj
 0002:00005130       ??_R1A@?0A@EA@exception@std@@8 0000000074043130     plugin.obj
 0002:00005158       ??_R3exception@std@@8      0000000074043158     plugin.obj
 0002:00005170       ??_R2exception@std@@8      0000000074043170     plugin.obj
 0002:00005180       ??_R1A@?0A@EA@bad_alloc@std@@8 0000000074043180     plugin.obj
 0002:000051a8       ??_R4SystemError@@6B@      00000000740431a8     plugin.obj
 0002:000051d0       ??_R3SystemError@@8        00000000740431d0     plugin.obj
 0002:000051e8       ??_R2SystemError@@8        00000000740431e8     plugin.obj
 0002:00005200       ??_R1A@?0A@EA@SystemError@@8 0000000074043200     plugin.obj
 0002:00005228       ??_R4CustomError@@6B@      0000000074043228     plugin.obj
 0002:00005250       ??_R3CustomError@@8        0000000074043250     plugin.obj
 0002:00005268       ??_R2CustomError@@8        0000000074043268     plugin.obj
 0002:00005280       ??_R1A@?0A@EA@CustomError@@8 0000000074043280     plugin.obj
 0002:000052a8       ??_R4MsgError@@6B@         00000000740432a8     plugin.obj
 0002:000052d0       ??_R3MsgError@@8           00000000740432d0     plugin.obj
 0002:000052e8       ??_R2MsgError@@8           00000000740432e8     plugin.obj
 0002:00005300       ??_R1A@?0A@EA@MsgError@@8  0000000074043300     plugin.obj
 0002:00005328       ??_R4Error@@6B@            0000000074043328     plugin.obj
 0002:00005350       ??_R3Error@@8              0000000074043350     plugin.obj
 0002:00005368       ??_R2Error@@8              0000000074043368     plugin.obj
 0002:00005378       ??_R1A@?0A@EA@Error@@8     0000000074043378     plugin.obj
 0002:000053a0       ??_R4ComError@@6B@         00000000740433a0     rapi_proc.obj
 0002:000053c8       ??_R3ComError@@8           00000000740433c8     rapi_proc.obj
 0002:000053e0       ??_R2ComError@@8           00000000740433e0     rapi_proc.obj
 0002:000053f8       ??_R1A@?0A@EA@ComError@@8  00000000740433f8     rapi_proc.obj
 0002:00005420       ??_R4FileFilterSite@@6B@   0000000074043420     file_filters.obj
 0002:00005448       ??_R3FileFilterSite@@8     0000000074043448     file_filters.obj
 0002:00005460       ??_R2FileFilterSite@@8     0000000074043460     file_filters.obj
 0002:00005480       ??_R1A@?0A@EA@ICeFileFilterSite@@8 0000000074043480     file_filters.obj
 0002:000054a8       ??_R3ICeFileFilterSite@@8  00000000740434a8     file_filters.obj
 0002:000054c0       ??_R2ICeFileFilterSite@@8  00000000740434c0     file_filters.obj
 0002:000054d8       ??_R1A@?0A@EA@FileFilterSite@@8 00000000740434d8     file_filters.obj
 0002:00005500       ??_R4FileStream@@6B@       0000000074043500     file_filters.obj
 0002:00005528       ??_R3FileStream@@8         0000000074043528     file_filters.obj
 0002:00005540       ??_R2FileStream@@8         0000000074043540     file_filters.obj
 0002:00005568       ??_R1A@?0A@EA@IStream@@8   0000000074043568     file_filters.obj
 0002:00005590       ??_R3IStream@@8            0000000074043590     file_filters.obj
 0002:000055a8       ??_R2IStream@@8            00000000740435a8     file_filters.obj
 0002:000055c8       ??_R1A@?0A@EA@ISequentialStream@@8 00000000740435c8     file_filters.obj
 0002:000055f0       ??_R3ISequentialStream@@8  00000000740435f0     file_filters.obj
 0002:00005608       ??_R2ISequentialStream@@8  0000000074043608     file_filters.obj
 0002:00005620       ??_R1A@?0A@EA@IUnknown@@8  0000000074043620     file_filters.obj
 0002:00005648       ??_R3IUnknown@@8           0000000074043648     file_filters.obj
 0002:00005660       ??_R2IUnknown@@8           0000000074043660     file_filters.obj
 0002:00005670       ??_R1A@?0A@EA@FileStream@@8 0000000074043670     file_filters.obj
 0002:00005698       ??_R4bad_exception@std@@6B@ 0000000074043698     LIBCMT:frame.obj
 0002:000056c0       ??_R3bad_exception@std@@8  00000000740436c0     LIBCMT:frame.obj
 0002:000056d8       ??_R2bad_exception@std@@8  00000000740436d8     LIBCMT:frame.obj
 0002:000056f0       ??_R1A@?0A@EA@bad_exception@std@@8 00000000740436f0     LIBCMT:frame.obj
 0002:00005718       __rtc_iaa                  0000000074043718     LIBCMT:_initsect_.obj
 0002:00005720       __rtc_izz                  0000000074043720     LIBCMT:_initsect_.obj
 0002:00005728       __rtc_taa                  0000000074043728     LIBCMT:_initsect_.obj
 0002:00005730       __rtc_tzz                  0000000074043730     LIBCMT:_initsect_.obj
 0002:00013040       _CT??_R0?AVMsgError@@@8??0MsgError@@QEAA@AEBV0@@Z32 0000000074051040     plugin.obj
 0002:00013068       _CT??_R0?AVError@@@8??0Error@@QEAA@AEBV0@@Z24 0000000074051068     plugin.obj
 0002:00013090       _CT??_R0?AVBreak@@@81      0000000074051090     plugin.obj
 0002:000130b8       _CTA2?AVMsgError@@         00000000740510b8     plugin.obj
 0002:000130d0       _CTA1?AVBreak@@            00000000740510d0     plugin.obj
 0002:000130e0       _TI2?AVMsgError@@          00000000740510e0     plugin.obj
 0002:00013100       _TI1?AVBreak@@             0000000074051100     plugin.obj
 0002:00013120       _CT??_R0?AVSystemError@@@8??0SystemError@@QEAA@AEBV0@@Z32 0000000074051120     plugin.obj
 0002:00013148       _CTA2?AVSystemError@@      0000000074051148     plugin.obj
 0002:00013160       _TI2?AVSystemError@@       0000000074051160     plugin.obj
 0002:00013180       _CT??_R0?AVCustomError@@@8??0CustomError@@QEAA@AEBV0@@Z40 0000000074051180     plugin.obj
 0002:000131a8       _CTA2?AVCustomError@@      00000000740511a8     plugin.obj
 0002:000131c0       _TI2?AVCustomError@@       00000000740511c0     plugin.obj
 0002:000131e0       _CT??_R0?AVbad_alloc@std@@@8??0bad_alloc@std@@QEAA@AEBV01@@Z24 00000000740511e0     plugin.obj
 0002:00013208       _CT??_R0?AVexception@std@@@8??0exception@std@@QEAA@AEBV01@@Z24 0000000074051208     plugin.obj
 0002:00013230       _CTA2?AVbad_alloc@std@@    0000000074051230     plugin.obj
 0002:00013248       _TI2?AVbad_alloc@std@@     0000000074051248     plugin.obj
 0002:00013268       _CT??_R0?AVComError@@@8??0ComError@@QEAA@AEBV0@@Z32 0000000074051268     rapi_proc.obj
 0002:00013290       _CTA2?AVComError@@         0000000074051290     rapi_proc.obj
 0002:000132a8       _TI2?AVComError@@          00000000740512a8     rapi_proc.obj
 0002:000132c8       _TI2?AVbad_exception@std@@ 00000000740512c8     LIBCMT:frame.obj
 0002:000132e8       _CTA2?AVbad_exception@std@@ 00000000740512e8     LIBCMT:frame.obj
 0002:00013300       _CT??_R0?AVbad_exception@std@@@8??0bad_exception@std@@QEAA@AEBV01@@Z24 0000000074051300     LIBCMT:frame.obj
 0002:00013324       __IMPORT_DESCRIPTOR_USER32 0000000074051324     user32:USER32.dll
 0002:00013338       __IMPORT_DESCRIPTOR_ADVAPI32 0000000074051338     advapi32:ADVAPI32.dll
 0002:0001334c       __IMPORT_DESCRIPTOR_VERSION 000000007405134c     version:VERSION.dll
 0002:00013360       __IMPORT_DESCRIPTOR_ole32  0000000074051360     ole32:ole32.dll
 0002:00013374       __IMPORT_DESCRIPTOR_OLEAUT32 0000000074051374     oleaut32:OLEAUT32.dll
 0002:00013388       __IMPORT_DESCRIPTOR_KERNEL32 0000000074051388     kernel32:KERNEL32.dll
 0002:0001339c       __NULL_IMPORT_DESCRIPTOR   000000007405139c     user32:USER32.dll
 0003:00000000       ??_R0?AVtype_info@@@8      0000000074053000     LIBCMT:typinfo.obj
 0003:00000020       __security_cookie          0000000074053020     LIBCMT:gs_cookie.obj
 0003:00000028       __security_cookie_complement 0000000074053028     LIBCMT:gs_cookie.obj
 0003:000001a0       __abort_behavior           00000000740531a0     LIBCMT:abort.obj
 0003:000001b0       __initialmbcinfo           00000000740531b0     LIBCMT:mbctype.obj
 0003:000003d0       _mbctype                   00000000740533d0     LIBCMT:mbctype.obj
 0003:000004e0       _mbcasemap                 00000000740534e0     LIBCMT:mbctype.obj
 0003:000005e0       __ptmbcinfo                00000000740535e0     LIBCMT:mbctype.obj
 0003:000006e0       __globallocalestatus       00000000740536e0     LIBCMT:glstatus.obj
 0003:000006e4       __clocalestr               00000000740536e4     LIBCMT:nlsdata2.obj
 0003:000006f0       __lc_time_c                00000000740536f0     LIBCMT:nlsdata2.obj
 0003:000009b0       __initiallocinfo           00000000740539b0     LIBCMT:nlsdata2.obj
 0003:00000b10       __ptlocinfo                0000000074053b10     LIBCMT:nlsdata2.obj
 0003:00000b18       __flsindex                 0000000074053b18     LIBCMT:tidtable.obj
 0003:00000b28       _fltused                   0000000074053b28     LIBCMT:_fpinit_.obj
 0003:00000b2c       _ldused                    0000000074053b2c     LIBCMT:_fpinit_.obj
 0003:00000b30       __badioinfo                0000000074053b30     LIBCMT:ioinit.obj
 0003:00000dd0       _cfltcvt_tab               0000000074053dd0     LIBCMT:cmiscdat.obj
 0003:00000e20       __lconv_static_decimal     0000000074053e20     LIBCMT:lconv.obj
 0003:00000e24       __lconv_static_W_decimal   0000000074053e24     LIBCMT:lconv.obj
 0003:00000e28       __lconv                    0000000074053e28     LIBCMT:lconv.obj
 0003:00000e30       __lconv_c                  0000000074053e30     LIBCMT:lconv.obj
 0003:00000ec8       _pctype                    0000000074053ec8     LIBCMT:ctype.obj
 0003:00000ed0       _pwctype                   0000000074053ed0     LIBCMT:ctype.obj
 0003:00000ed8       __mb_cur_max               0000000074053ed8     LIBCMT:nlsdata1.obj
 0003:00000edc       __decimal_point            0000000074053edc     LIBCMT:nlsdata1.obj
 0003:00000ee0       __decimal_point_length     0000000074053ee0     LIBCMT:nlsdata1.obj
 0003:000010c0       _matherr_flag              00000000740540c0     LIBCMT:_matherr_.obj
 0003:000010d0       _iob                       00000000740540d0     LIBCMT:_file.obj
 0003:00001490       __nullstring               0000000074054490     LIBCMT:output.obj
 0003:00001498       __wnullstring              0000000074054498     LIBCMT:output.obj
 0003:000014a0       _d_inf                     00000000740544a0     LIBCMT:_util_.obj
 0003:000014a8       _d_ind                     00000000740544a8     LIBCMT:_util_.obj
 0003:000014b0       _d_max                     00000000740544b0     LIBCMT:_util_.obj
 0003:000014b8       _d_min                     00000000740544b8     LIBCMT:_util_.obj
 0003:000014c0       _d_mzero                   00000000740544c0     LIBCMT:_util_.obj
 0003:00001500       _confh                     0000000074054500     LIBCMT:initcon.obj
 0003:00001510       _pow10pos                  0000000074054510     LIBCMT:_constpow_.obj
 0003:00001670       _pow10neg                  0000000074054670     LIBCMT:_constpow_.obj
 0003:000017d0       ??_R0?AVMsgError@@@8       00000000740547d0     plugin.obj
 0003:000017f0       ??_R0?AVError@@@8          00000000740547f0     plugin.obj
 0003:00001810       ??_R0?AVBreak@@@8          0000000074054810     plugin.obj
 0003:00001830       ??_R0?AVCustomError@@@8    0000000074054830     plugin.obj
 0003:00001858       ??_R0?AVComError@@@8       0000000074054858     plugin.obj
 0003:00001878       ??_R0?AVSystemError@@@8    0000000074054878     plugin.obj
 0003:000018a0       ??_R0?AVbad_alloc@std@@@8  00000000740548a0     plugin.obj
 0003:000018c8       ??_R0?AVexception@std@@@8  00000000740548c8     plugin.obj
 0003:000018f0       ?c_root_dir@@3PEB_WEB      00000000740548f0     options.obj
 0003:000018f8       ?c_copy_opened_files_option@@3PEB_WEB 00000000740548f8     options.obj
 0003:00001900       ?c_esc_confirmation_option@@3PEB_WEB 0000000074054900     options.obj
 0003:00001908       ??_R0?AUICeFileFilterSite@@@8 0000000074054908     file_filters.obj
 0003:00001930       ??_R0?AVFileFilterSite@@@8 0000000074054930     file_filters.obj
 0003:00001958       ??_R0?AUIUnknown@@@8       0000000074054958     file_filters.obj
 0003:00001978       ??_R0?AUISequentialStream@@@8 0000000074054978     file_filters.obj
 0003:000019a0       ??_R0?AUIStream@@@8        00000000740549a0     file_filters.obj
 0003:000019c0       ??_R0?AVFileStream@@@8     00000000740549c0     file_filters.obj
 0003:000019e8       ??_R0?AVbad_exception@std@@@8 00000000740549e8     LIBCMT:frame.obj
 0003:00001a44       __error_mode               0000000074054a44     LIBCMT:dllcrt0.obj
 0003:00001a48       _aenvptr                   0000000074054a48     LIBCMT:dllcrt0.obj
 0003:00001a50       _wenvptr                   0000000074054a50     LIBCMT:dllcrt0.obj
 0003:00001a58       __app_type                 0000000074054a58     LIBCMT:dllcrt0.obj
 0003:00001fd0       _crtheap                   0000000074054fd0     LIBCMT:heapinit.obj
 0003:00001fe8       _umaskval                  0000000074054fe8     LIBCMT:crt0dat.obj
 0003:00001fec       __argc                     0000000074054fec     LIBCMT:crt0dat.obj
 0003:00001ff0       __argv                     0000000074054ff0     LIBCMT:crt0dat.obj
 0003:00001ff8       __wargv                    0000000074054ff8     LIBCMT:crt0dat.obj
 0003:00002000       _environ                   0000000074055000     LIBCMT:crt0dat.obj
 0003:00002008       __initenv                  0000000074055008     LIBCMT:crt0dat.obj
 0003:00002010       _wenviron                  0000000074055010     LIBCMT:crt0dat.obj
 0003:00002018       __winitenv                 0000000074055018     LIBCMT:crt0dat.obj
 0003:00002020       _pgmptr                    0000000074055020     LIBCMT:crt0dat.obj
 0003:00002028       _wpgmptr                   0000000074055028     LIBCMT:crt0dat.obj
 0003:00002030       _exitflag                  0000000074055030     LIBCMT:crt0dat.obj
 0003:00002034       _C_Termination_Done        0000000074055034     LIBCMT:crt0dat.obj
 0003:00002038       _C_Exit_Done               0000000074055038     LIBCMT:crt0dat.obj
 0003:00002668       ?_pnhHeap@@3P6AH_K@ZEA     0000000074055668     LIBCMT:handler.obj
 0003:00002670       _newmode                   0000000074055670     LIBCMT:_newmode.obj
 0003:00002674       _maxwait                   0000000074055674     LIBCMT:crtheap.obj
 0003:00002678       __pInvalidArgHandler       0000000074055678     LIBCMT:invarg.obj
 0003:00002680       __pPurecall                0000000074055680     LIBCMT:inithelp.obj
 0003:00002690       __mbulinfo                 0000000074055690     LIBCMT:mbctype.obj
 0003:0000269c       __mbcodepage               000000007405569c     LIBCMT:mbctype.obj
 0003:000026a0       __ismbcodepage             00000000740556a0     LIBCMT:mbctype.obj
 0003:000026a4       __mblcid                   00000000740556a4     LIBCMT:mbctype.obj
 0003:000026a8       __locale_changed           00000000740556a8     LIBCMT:setlocal.obj
 0003:000026ac       __fastflag                 00000000740556ac     LIBCMT:_fpinit_.obj
 0003:000029f0       ?pArgList@UnDecorator@@0PEAVReplicator@@EA 00000000740559f0     LIBCMT:undname.obj
 0003:00002a20       ?pZNameList@UnDecorator@@0PEAVReplicator@@EA 0000000074055a20     LIBCMT:undname.obj
 0003:00002a28       ?pTemplateArgList@UnDecorator@@0PEAVReplicator@@EA 0000000074055a28     LIBCMT:undname.obj
 0003:00002a30       ?gName@UnDecorator@@0PEBDEB 0000000074055a30     LIBCMT:undname.obj
 0003:00002a38       ?name@UnDecorator@@0PEBDEB 0000000074055a38     LIBCMT:undname.obj
 0003:00002a40       ?outputString@UnDecorator@@0PEADEA 0000000074055a40     LIBCMT:undname.obj
 0003:00002a48       ?maxStringLength@UnDecorator@@0HA 0000000074055a48     LIBCMT:undname.obj
 0003:00002a4c       ?disableFlags@UnDecorator@@0KA 0000000074055a4c     LIBCMT:undname.obj
 0003:00002a50       ?m_pGetParameter@UnDecorator@@0P6APEADJ@ZEA 0000000074055a50     LIBCMT:undname.obj
 0003:00002a58       ?fExplicitTemplateParams@UnDecorator@@0_NA 0000000074055a58     LIBCMT:undname.obj
 0003:00002a59       ?fGetTemplateArgumentList@UnDecorator@@0_NA 0000000074055a59     LIBCMT:undname.obj
 0003:00002a60       ?__pInconsistency@@3P6AXXZEA 0000000074055a60     LIBCMT:hooks.obj
 0003:00002ac0       __lconv_static_null        0000000074055ac0     LIBCMT:lconv.obj
 0003:00002ac4       __lconv_static_W_null      0000000074055ac4     LIBCMT:lconv.obj
 0003:00002ac8       _cflush                    0000000074055ac8     LIBCMT:_file.obj
 0003:00002ad8       _outputformat              0000000074055ad8     LIBCMT:outputformat.obj
 0003:00002ae0       _stdbuf                    0000000074055ae0     LIBCMT:_sftbuf.obj
 0003:00002af0       ?config_menu@@3PAPEB_WA    0000000074055af0     plugin.obj
 0003:00002af8       ?plugin_menu@@3PAPEB_WA    0000000074055af8     plugin.obj
 0003:00002b00       ?disk_menu@@3PAPEB_WA      0000000074055b00     plugin.obj
 0003:00002b08       ?g_time_freq@@3_KA         0000000074055b08     plugin.obj
 0003:00002b10       ?g_version@@3UModuleVersion@@A 0000000074055b10     plugin.obj
 0003:00002b20       ?g_fsf@@3UFarStandardFunctions@@A 0000000074055b20     plugin.obj
 0003:00002c98       g_h_module                 0000000074055c98     plugin.obj
 0003:00002ca0       ?g_far@@3UPluginStartupInfo@@A 0000000074055ca0     plugin.obj
 0003:00002da8       ?ceutil@@3UCeUtilLibrary@@A 0000000074055da8     rapi_proc.obj
 0003:00002dc8       __@@_PchSym_@00@UwvevoUuzikoftUdnvckoliviUivovzhvOcGEUsvzwvihOlyq@ 0000000074055dc8     headers.obj
 0003:00002dd0       ?rapi@@3URapiLibrary@@A    0000000074055dd0     rapi_proc.obj
 0003:00002eb8       ?g_rapi2@@3_NA             0000000074055eb8     rapi_proc.obj
 0003:00002eb9       ?com_init@@3_NA            0000000074055eb9     rapi_proc.obj
 0003:00002ec0       ?desktop@@3PEAUIRAPIDesktop@@EA 0000000074055ec0     rapi_proc.obj
 0003:00002ec8       ?h_rapi_lib@@3PEAUHINSTANCE__@@EA 0000000074055ec8     rapi_proc.obj
 0003:00002ed0       ?h_ceutil_lib@@3PEAUHINSTANCE__@@EA 0000000074055ed0     rapi_proc.obj
 0003:00002ed8       ?g_colors@@3V?$Array@UFarColor@@@col@@A 0000000074055ed8     plugin.obj
 0003:00002ee0       ?g_plugin_options@@3UPluginOptions@@A 0000000074055ee0     plugin.obj
 0003:00002f30       ?g_plugin_objects@@3V?$Array@PEAUPluginInstance@@@col@@A 0000000074055f30     plugin.obj
 0003:00002f38       ?g_plugin_format@@3VUnicodeString@col@@A 0000000074055f38     plugin.obj
 0003:00002f40       ?export_filter_list@@3V?$ObjectArray@UFileFilters@@@col@@A 0000000074055f40     file_filters.obj
 0003:00002f48       ?import_filter_list@@3V?$ObjectArray@UFileFilters@@@col@@A 0000000074055f48     file_filters.obj
 0003:00002f78       __piob                     0000000074055f78     <common>
 0003:00002f80       _bufin                     0000000074055f80     <common>
 0003:00003f80       _nstream                   0000000074056f80     <common>
 0003:00003f84       _debugger_hook_dummy       0000000074056f84     <common>
 0003:00003f88       _nhandle                   0000000074056f88     <common>
 0003:00003fa0       __pioinfo                  0000000074056fa0     <common>
 0003:000041a0       __env_initialized          00000000740571a0     <common>
 0003:000041a8       __onexitend                00000000740571a8     <common>
 0003:000041b0       __onexitbegin              00000000740571b0     <common>
 0003:000041b8       __mbctype_initialized      00000000740571b8     <common>
 0003:000041c0       __dyn_tls_init_callback    00000000740571c0     <common>
 0003:000041c8       _acmdln                    00000000740571c8     <common>

 entry point at        0001:00025d2c

 Static symbols

 0001:000256a0       shortsort                  00000000740266a0 f   LIBCMT:qsort.obj
 0001:00025c10       __DllMainCRTStartup        0000000074026c10 f   LIBCMT:dllcrt0.obj
 0001:000261e0       _initterm                  00000000740271e0 f   LIBCMT:crt0dat.obj
 0001:00026300       doexit                     0000000074027300 f   LIBCMT:crt0dat.obj
 0001:00026eb8       ?setSBCS@@YAXPEAUthreadmbcinfostruct@@@Z 0000000074027eb8 f   LIBCMT:mbctype.obj
 0001:00026f44       ?setSBUpLow@@YAXPEAUthreadmbcinfostruct@@@Z 0000000074027f44 f   LIBCMT:mbctype.obj
 0001:000271f0       ?getSystemCP@@YAHH@Z       00000000740281f0 f   LIBCMT:mbctype.obj
 0001:00027ee4       _exception_enabled         0000000074028ee4 f   LIBCMT:_libm_error_.obj
 0001:00028310       write_char                 0000000074029310 f   LIBCMT:woutput.obj
 0001:00028348       write_multi_char           0000000074029348 f   LIBCMT:woutput.obj
 0001:0002839c       write_string               000000007402939c f   LIBCMT:woutput.obj
 0001:00028f2c       ?wcstoxl@@YAKPEB_WPEAPEB_WHH@Z 0000000074029f2c f   LIBCMT:wcstol.obj
 0001:00029594       parse_cmdline              000000007402a594 f   LIBCMT:stdargv.obj
 0001:0002a830       ?__crtLCMapStringA_stat@@YAHPEAUlocaleinfo_struct@@KKPEBDHPEADHHH@Z 000000007402b830 f   LIBCMT:a_map.obj
 0001:0002ab94       ?__crtGetStringTypeA_stat@@YAHPEAUlocaleinfo_struct@@KPEBDHPEAGHHH@Z 000000007402bb94 f   LIBCMT:a_str.obj
 0001:0002ba40       _cftoe2_l                  000000007402ca40 f   LIBCMT:cvt.obj
 0001:0002c14c       _cftof2_l                  000000007402d14c f   LIBCMT:cvt.obj
 0001:0002d818       ?x_ismbbtype_l@@YAHPEAUlocaleinfo_struct@@IHH@Z 000000007402e818 f   LIBCMT:ismbbyte.obj
 0001:0002e3c4       flsall                     000000007402f3c4 f   LIBCMT:fflush.obj
 0001:000319b4       ?IsInExceptionSpec@@YAEPEAUEHExceptionRecord@@PEBU_s_ESTypeList@@@Z 00000000740329b4 f   LIBCMT:frame.obj
 0001:00031f50       ?CatchIt@@YAXPEAUEHExceptionRecord@@PEA_KPEAU_CONTEXT@@PEAU_xDISPATCHER_CONTEXT@@PEBU_s_FuncInfo@@PEBU_s_HandlerType@@PEBU_s_CatchableType@@PEBU_s_TryBlockMapEntry@@H1EE@Z 0000000074032f50 f   LIBCMT:frame.obj
 0001:00032014       ?FindHandlerForForeignException@@YAXPEAUEHExceptionRecord@@PEA_KPEAU_CONTEXT@@PEAU_xDISPATCHER_CONTEXT@@PEBU_s_FuncInfo@@HH1@Z 0000000074033014 f   LIBCMT:frame.obj
 0001:0003224c       ?FindHandler@@YAXPEAUEHExceptionRecord@@PEA_KPEAU_CONTEXT@@PEAU_xDISPATCHER_CONTEXT@@PEBU_s_FuncInfo@@EH1@Z 000000007403324c f   LIBCMT:frame.obj
 0001:000329e0       _onexit$fin$0              00000000740339e0 f   LIBCMT:onexit.obj
 0001:000329f6       _CRT_INIT$fin$0            00000000740339f6 f   LIBCMT:dllcrt0.obj
 0001:00032a1c       __DllMainCRTStartup$filt$0 0000000074033a1c f   LIBCMT:dllcrt0.obj
 0001:00032a3a       ?fin$0@?0??_Type_info_dtor@type_info@@CAXPEAV1@@Z@4HA 0000000074033a3a f   LIBCMT:typname.obj
 0001:00032a55       doexit$fin$0               0000000074033a55 f   LIBCMT:crt0dat.obj
 0001:00032a79       __updatetmbcinfo$fin$0     0000000074033a79 f   LIBCMT:mbctype.obj
 0001:00032a79       _setmbcp$fin$0             0000000074033a79 f   LIBCMT:mbctype.obj
 0001:00032a94       __updatetlocinfo$fin$0     0000000074033a94 f   LIBCMT:localref.obj
 0001:00032aaf       _initptd$fin$1             0000000074033aaf f   LIBCMT:tidtable.obj
 0001:00032aaf       _freefls$fin$1             0000000074033aaf f   LIBCMT:tidtable.obj
 0001:00032acf       _initptd$fin$0             0000000074033acf f   LIBCMT:tidtable.obj
 0001:00032acf       _freefls$fin$0             0000000074033acf f   LIBCMT:tidtable.obj
 0001:00032aea       _mtinitlocknum$fin$0       0000000074033aea f   LIBCMT:mlock.obj
 0001:00032b08       raise$fin$0                0000000074033b08 f   LIBCMT:winsig.obj
 0001:00032b30       _IsNonwritableInCurrentImage$filt$0 0000000074033b30 f   LIBCMT:pesect.obj
 0001:00032b52       _ctrlfp$filt$0             0000000074033b52 f   LIBCMT:_fpctrl_.obj
 0001:00032b7e       _lseeki64$fin$0            0000000074033b7e f   LIBCMT:write.obj
 0001:00032b7e       _write$fin$0               0000000074033b7e f   LIBCMT:write.obj
 0001:00032b97       __lock_fhandle$fin$0       0000000074033b97 f   LIBCMT:osfinfo.obj
 0001:00032bb2       _fcloseall$fin$0           0000000074033bb2 f   LIBCMT:closeall.obj
 0001:00032bcd       flsall$fin$0               0000000074033bcd f   LIBCMT:fflush.obj
 0001:00032bfd       flsall$fin$1               0000000074033bfd f   LIBCMT:fflush.obj
 0001:00032c18       fclose$fin$0               0000000074033c18 f   LIBCMT:fclose.obj
 0001:00032c32       _commit$fin$0              0000000074033c32 f   LIBCMT:commit.obj
 0001:00032c32       _close$fin$0               0000000074033c32 f   LIBCMT:commit.obj
 0001:00032c4b       ?catch$0@?0??create@?$ObjectArray@UListData@FarDialog@@@col@@CAPEAUBuffer@12@PEBUListData@FarDialog@@I@Z@4HA 0000000074033c4b f    CIL library: CIL module
 0001:00032c5b       __catch$?create@?$ObjectArray@UListData@FarDialog@@@col@@CAPEAUBuffer@12@PEBUListData@FarDialog@@I@Z$0 0000000074033c5b f    CIL library: CIL module
 0001:00032cb7       ?dtor$0@?0???Hcol@@YA?AVUnicodeString@0@AEB_WAEBV10@@Z@4HA 0000000074033cb7 f    CIL library: CIL module
 0001:00032cb7       ?dtor$0@?0???Hcol@@YA?AVUnicodeString@0@AEBV10@AEB_W@Z@4HA 0000000074033cb7 f    CIL library: CIL module
 0001:00032cb7       ?dtor$0@?0???Hcol@@YA?AVUnicodeString@0@AEBV10@0@Z@4HA 0000000074033cb7 f    CIL library: CIL module
 0001:00032cb7       ?dtor$0@?0???Hcol@@YA?AVUnicodeString@0@AEBV10@PEB_W@Z@4HA 0000000074033cb7 f    CIL library: CIL module
 0001:00032cb7       ?dtor$0@?0???Hcol@@YA?AVUnicodeString@0@PEB_WAEBV10@@Z@4HA 0000000074033cb7 f    CIL library: CIL module
 0001:00032cc3       ?catch$0@?0??create@?$ObjectArray@UFileInfo@@@col@@CAPEAUBuffer@12@PEBUFileInfo@@I@Z@4HA 0000000074033cc3 f    CIL library: CIL module
 0001:00032cd3       __catch$?create@?$ObjectArray@UFileInfo@@@col@@CAPEAUBuffer@12@PEBUFileInfo@@I@Z$0 0000000074033cd3 f    CIL library: CIL module
 0001:00032d1a       ?catch$0@?0??create@?$ObjectArray@VUnicodeString@col@@@col@@CAPEAUBuffer@12@PEBVUnicodeString@2@I@Z@4HA 0000000074033d1a f    CIL library: CIL module
 0001:00032d2a       __catch$?create@?$ObjectArray@VUnicodeString@col@@@col@@CAPEAUBuffer@12@PEBVUnicodeString@2@I@Z$0 0000000074033d2a f    CIL library: CIL module
 0001:00032d6a       ?catch$0@?0??open_if_needed@FileStream@@AEAAXXZ@4HA 0000000074033d6a f    CIL library: CIL module
 0001:00032d77       __catch$?open_if_needed@FileStream@@AEAAXXZ$0 0000000074033d77 f    CIL library: CIL module
 0001:00032d97       ?dtor$0@?0???1FilterInterface@@QEAA@XZ@4HA 0000000074033d97 f    CIL library: CIL module
 0001:00032da7       ?dtor$1@?0???1FilterInterface@@QEAA@XZ@4HA 0000000074033da7 f    CIL library: CIL module
 0001:00032db7       ?catch$0@?0??create_interface@@YAPEAUICeFileFilter@@AEBVUnicodeString@col@@@Z@4HA 0000000074033db7 f    CIL library: CIL module
 0001:00032dc4       __catch$?create_interface@@YAPEAUICeFileFilter@@AEBVUnicodeString@col@@@Z$0 0000000074033dc4 f    CIL library: CIL module
 0001:00032de7       ?catch$1@?0??create_interface@@YAPEAUICeFileFilter@@AEBVUnicodeString@col@@@Z@4HA 0000000074033de7 f    CIL library: CIL module
 0001:00032df4       __catch$?create_interface@@YAPEAUICeFileFilter@@AEBVUnicodeString@col@@@Z$2 0000000074033df4 f    CIL library: CIL module
 0001:00032e14       ?catch$0@?0??replace@?$ObjectArray@UListData@FarDialog@@@col@@QEAAAEAV12@IIPEBUListData@FarDialog@@I@Z@4HA 0000000074033e14 f    CIL library: CIL module
 0001:00032e24       __catch$?replace@?$ObjectArray@UListData@FarDialog@@@col@@QEAAAEAV12@IIPEBUListData@FarDialog@@I@Z$0 0000000074033e24 f    CIL library: CIL module
 0001:00032e94       ?catch$1@?0??replace@?$ObjectArray@UListData@FarDialog@@@col@@QEAAAEAV12@IIPEBUListData@FarDialog@@I@Z@4HA 0000000074033e94 f    CIL library: CIL module
 0001:00032ea8       __catch$?replace@?$ObjectArray@UListData@FarDialog@@@col@@QEAAAEAV12@IIPEBUListData@FarDialog@@I@Z$2 0000000074033ea8 f    CIL library: CIL module
 0001:00032f44       ?dtor$0@?0??far_get_selected_panel_item@@YAPEAUPluginPanelItem@@PEAX_JAEBUPanelInfo@@@Z@4HA 0000000074033f44 f    CIL library: CIL module
 0001:00032f5a       ?dtor$0@?0??far_get_panel_item@@YAPEAUPluginPanelItem@@PEAX_JAEBUPanelInfo@@@Z@4HA 0000000074033f5a f    CIL library: CIL module
 0001:00032f70       ?catch$0@?0??replace@?$ObjectArray@UFileInfo@@@col@@QEAAAEAV12@IIPEBUFileInfo@@I@Z@4HA 0000000074033f70 f    CIL library: CIL module
 0001:00032f80       __catch$?replace@?$ObjectArray@UFileInfo@@@col@@QEAAAEAV12@IIPEBUFileInfo@@I@Z$0 0000000074033f80 f    CIL library: CIL module
 0001:00032fe0       ?catch$1@?0??replace@?$ObjectArray@UFileInfo@@@col@@QEAAAEAV12@IIPEBUFileInfo@@I@Z@4HA 0000000074033fe0 f    CIL library: CIL module
 0001:00032ff2       __catch$?replace@?$ObjectArray@UFileInfo@@@col@@QEAAAEAV12@IIPEBUFileInfo@@I@Z$2 0000000074033ff2 f    CIL library: CIL module
 0001:00033076       ?catch$0@?0??ref_resize@?$ObjectArray@VUnicodeString@col@@@col@@AEAAXI@Z@4HA 0000000074034076 f    CIL library: CIL module
 0001:00033086       __catch$?ref_resize@?$ObjectArray@VUnicodeString@col@@@col@@AEAAXI@Z$0 0000000074034086 f    CIL library: CIL module
 0001:000330d0       ?catch$0@?0??ref_resize@?$ObjectArray@UFileInfo@@@col@@AEAAXI@Z@4HA 00000000740340d0 f    CIL library: CIL module
 0001:000330e0       __catch$?ref_resize@?$ObjectArray@UFileInfo@@@col@@AEAAXI@Z$0 00000000740340e0 f    CIL library: CIL module
 0001:00033131       ?catch$0@?0??create_process@@YAXAEBVUnicodeString@col@@0PEAUIRAPISession@@@Z@4HA 0000000074034131 f    CIL library: CIL module
 0001:0003313e       __catch$?create_process@@YAXAEBVUnicodeString@col@@0PEAUIRAPISession@@@Z$0 000000007403413e f    CIL library: CIL module
 0001:00033161       ?catch$1@?0??create_process@@YAXAEBVUnicodeString@col@@0PEAUIRAPISession@@@Z@4HA 0000000074034161 f    CIL library: CIL module
 0001:0003316e       __catch$?create_process@@YAXAEBVUnicodeString@col@@0PEAUIRAPISession@@@Z$2 000000007403416e f    CIL library: CIL module
 0001:0003318e       ?catch$0@?0??replace@?$ObjectArray@VUnicodeString@col@@@col@@QEAAAEAV12@IIPEBVUnicodeString@2@I@Z@4HA 000000007403418e f    CIL library: CIL module
 0001:0003319e       __catch$?replace@?$ObjectArray@VUnicodeString@col@@@col@@QEAAAEAV12@IIPEBVUnicodeString@2@I@Z$0 000000007403419e f    CIL library: CIL module
 0001:000331ee       ?catch$1@?0??replace@?$ObjectArray@VUnicodeString@col@@@col@@QEAAAEAV12@IIPEBVUnicodeString@2@I@Z@4HA 00000000740341ee f    CIL library: CIL module
 0001:00033200       __catch$?replace@?$ObjectArray@VUnicodeString@col@@@col@@QEAAAEAV12@IIPEBVUnicodeString@2@I@Z$2 0000000074034200 f    CIL library: CIL module
 0001:00033280       ?catch$0@?0??create@?$ObjectArray@UPanelFileInfo@@@col@@CAPEAUBuffer@12@PEBUPanelFileInfo@@I@Z@4HA 0000000074034280 f    CIL library: CIL module
 0001:00033290       __catch$?create@?$ObjectArray@UPanelFileInfo@@@col@@CAPEAUBuffer@12@PEBUPanelFileInfo@@I@Z$0 0000000074034290 f    CIL library: CIL module
 0001:000332eb       ?catch$0@?0??create@?$ObjectArray@V?$ObjectArray@UFileInfo@@@col@@@col@@CAPEAUBuffer@12@PEBV?$ObjectArray@UFileInfo@@@2@I@Z@4HA 00000000740342eb f    CIL library: CIL module
 0001:000332fb       __catch$?create@?$ObjectArray@V?$ObjectArray@UFileInfo@@@col@@@col@@CAPEAUBuffer@12@PEBV?$ObjectArray@UFileInfo@@@2@I@Z$0 00000000740342fb f    CIL library: CIL module
 0001:0003332d       ?catch$0@?0??create@?$ObjectArray@UDeviceInfo@@@col@@CAPEAUBuffer@12@PEBUDeviceInfo@@I@Z@4HA 000000007403432d f    CIL library: CIL module
 0001:0003333d       __catch$?create@?$ObjectArray@UDeviceInfo@@@col@@CAPEAUBuffer@12@PEBUDeviceInfo@@I@Z$0 000000007403433d f    CIL library: CIL module
 0001:000333a9       ?catch$0@?0??create@?$ObjectArray@UPluginItemList@@@col@@CAPEAUBuffer@12@PEBUPluginItemList@@I@Z@4HA 00000000740343a9 f    CIL library: CIL module
 0001:000333b9       __catch$?create@?$ObjectArray@UPluginItemList@@@col@@CAPEAUBuffer@12@PEBUPluginItemList@@I@Z$0 00000000740343b9 f    CIL library: CIL module
 0001:0003340a       ?catch$0@?0??create@?$ObjectArray@ULogRecord@@@col@@CAPEAUBuffer@12@PEBULogRecord@@I@Z@4HA 000000007403440a f    CIL library: CIL module
 0001:0003341a       __catch$?create@?$ObjectArray@ULogRecord@@@col@@CAPEAUBuffer@12@PEBULogRecord@@I@Z$0 000000007403441a f    CIL library: CIL module
 0001:00033472       ?catch$0@?0??create@?$ObjectArray@UFilter@@@col@@CAPEAUBuffer@12@PEBUFilter@@I@Z@4HA 0000000074034472 f    CIL library: CIL module
 0001:00033482       __catch$?create@?$ObjectArray@UFilter@@@col@@CAPEAUBuffer@12@PEBUFilter@@I@Z$0 0000000074034482 f    CIL library: CIL module
 0001:000334ee       ?catch$0@?0??Stat@FileStream@@UEAAJPEAUtagSTATSTG@@K@Z@4HA 00000000740344ee f    CIL library: CIL module
 0001:000334fb       __catch$?Stat@FileStream@@UEAAJPEAUtagSTATSTG@@K@Z$0 00000000740344fb f    CIL library: CIL module
 0001:0003351e       ?catch$1@?0??Stat@FileStream@@UEAAJPEAUtagSTATSTG@@K@Z@4HA 000000007403451e f    CIL library: CIL module
 0001:0003352b       __catch$?Stat@FileStream@@UEAAJPEAUtagSTATSTG@@K@Z$2 000000007403452b f    CIL library: CIL module
 0001:0003354e       ?catch$2@?0??Stat@FileStream@@UEAAJPEAUtagSTATSTG@@K@Z@4HA 000000007403454e f    CIL library: CIL module
 0001:0003355b       __catch$?Stat@FileStream@@UEAAJPEAUtagSTATSTG@@K@Z$4 000000007403455b f    CIL library: CIL module
 0001:0003358e       ?catch$3@?0??Stat@FileStream@@UEAAJPEAUtagSTATSTG@@K@Z@4HA 000000007403458e f    CIL library: CIL module
 0001:0003359b       __catch$?Stat@FileStream@@UEAAJPEAUtagSTATSTG@@K@Z$5 000000007403459b f    CIL library: CIL module
 0001:000335be       ?catch$4@?0??Stat@FileStream@@UEAAJPEAUtagSTATSTG@@K@Z@4HA 00000000740345be f    CIL library: CIL module
 0001:000335cb       __catch$?Stat@FileStream@@UEAAJPEAUtagSTATSTG@@K@Z$6 00000000740345cb f    CIL library: CIL module
 0001:000335d9       ?catch$0@?0??Seek@FileStream@@UEAAJT_LARGE_INTEGER@@KPEAT_ULARGE_INTEGER@@@Z@4HA 00000000740345d9 f    CIL library: CIL module
 0001:000335e6       __catch$?Seek@FileStream@@UEAAJT_LARGE_INTEGER@@KPEAT_ULARGE_INTEGER@@@Z$0 00000000740345e6 f    CIL library: CIL module
 0001:00033609       ?catch$1@?0??Seek@FileStream@@UEAAJT_LARGE_INTEGER@@KPEAT_ULARGE_INTEGER@@@Z@4HA 0000000074034609 f    CIL library: CIL module
 0001:00033616       __catch$?Seek@FileStream@@UEAAJT_LARGE_INTEGER@@KPEAT_ULARGE_INTEGER@@@Z$2 0000000074034616 f    CIL library: CIL module
 0001:00033649       ?catch$2@?0??Seek@FileStream@@UEAAJT_LARGE_INTEGER@@KPEAT_ULARGE_INTEGER@@@Z@4HA 0000000074034649 f    CIL library: CIL module
 0001:00033656       __catch$?Seek@FileStream@@UEAAJT_LARGE_INTEGER@@KPEAT_ULARGE_INTEGER@@@Z$3 0000000074034656 f    CIL library: CIL module
 0001:00033679       ?catch$3@?0??Seek@FileStream@@UEAAJT_LARGE_INTEGER@@KPEAT_ULARGE_INTEGER@@@Z@4HA 0000000074034679 f    CIL library: CIL module
 0001:00033686       __catch$?Seek@FileStream@@UEAAJT_LARGE_INTEGER@@KPEAT_ULARGE_INTEGER@@@Z$4 0000000074034686 f    CIL library: CIL module
 0001:00033694       ?catch$0@?0??Write@FileStream@@UEAAJPEBXKPEAK@Z@4HA 0000000074034694 f    CIL library: CIL module
 0001:000336a1       __catch$?Write@FileStream@@UEAAJPEBXKPEAK@Z$0 00000000740346a1 f    CIL library: CIL module
 0001:000336c4       ?catch$1@?0??Write@FileStream@@UEAAJPEBXKPEAK@Z@4HA 00000000740346c4 f    CIL library: CIL module
 0001:000336d1       __catch$?Write@FileStream@@UEAAJPEBXKPEAK@Z$2 00000000740346d1 f    CIL library: CIL module
 0001:00033704       ?catch$2@?0??Write@FileStream@@UEAAJPEBXKPEAK@Z@4HA 0000000074034704 f    CIL library: CIL module
 0001:00033711       __catch$?Write@FileStream@@UEAAJPEBXKPEAK@Z$3 0000000074034711 f    CIL library: CIL module
 0001:00033734       ?catch$3@?0??Write@FileStream@@UEAAJPEBXKPEAK@Z@4HA 0000000074034734 f    CIL library: CIL module
 0001:00033741       __catch$?Write@FileStream@@UEAAJPEBXKPEAK@Z$4 0000000074034741 f    CIL library: CIL module
 0001:0003374f       ?catch$0@?0??Read@FileStream@@UEAAJPEAXKPEAK@Z@4HA 000000007403474f f    CIL library: CIL module
 0001:0003375c       __catch$?Read@FileStream@@UEAAJPEAXKPEAK@Z$0 000000007403475c f    CIL library: CIL module
 0001:0003377f       ?catch$1@?0??Read@FileStream@@UEAAJPEAXKPEAK@Z@4HA 000000007403477f f    CIL library: CIL module
 0001:0003378c       __catch$?Read@FileStream@@UEAAJPEAXKPEAK@Z$2 000000007403478c f    CIL library: CIL module
 0001:000337bf       ?catch$2@?0??Read@FileStream@@UEAAJPEAXKPEAK@Z@4HA 00000000740347bf f    CIL library: CIL module
 0001:000337cc       __catch$?Read@FileStream@@UEAAJPEAXKPEAK@Z$3 00000000740347cc f    CIL library: CIL module
 0001:000337ef       ?catch$3@?0??Read@FileStream@@UEAAJPEAXKPEAK@Z@4HA 00000000740347ef f    CIL library: CIL module
 0001:000337fc       __catch$?Read@FileStream@@UEAAJPEAXKPEAK@Z$4 00000000740347fc f    CIL library: CIL module
 0001:0003380a       ?dtor$0@?0??get_app_option@@YA_N_KPEB_W_N@Z@4HA 000000007403480a f    CIL library: CIL module
 0001:00033816       ?dtor$0@?0???0PluginOptions@@QEAA@XZ@4HA 0000000074034816 f    CIL library: CIL module
 0001:00033826       ?dtor$1@?0???0PluginOptions@@QEAA@XZ@4HA 0000000074034826 f    CIL library: CIL module
 0001:00033836       ?dtor$2@?0???0PluginOptions@@QEAA@XZ@4HA 0000000074034836 f    CIL library: CIL module
 0001:00033846       ?dtor$0@?0??word_wrap@@YA?AVUnicodeString@col@@AEBV12@I@Z@4HA 0000000074034846 f    CIL library: CIL module
 0001:0003386c       ?catch$0@?0??ansi_to_unicode@@YAXAEAVUnicodeString@col@@AEBVAnsiString@2@@Z@4HA 000000007403486c f    CIL library: CIL module
 0001:00033879       __catch$?ansi_to_unicode@@YAXAEAVUnicodeString@col@@AEBVAnsiString@2@@Z$0 0000000074034879 f    CIL library: CIL module
 0001:00033899       ?catch$0@?0??unicode_to_ansi@@YAXAEAVAnsiString@col@@AEBVUnicodeString@2@@Z@4HA 0000000074034899 f    CIL library: CIL module
 0001:000338a6       __catch$?unicode_to_ansi@@YAXAEAVAnsiString@col@@AEBVUnicodeString@2@@Z$0 00000000740348a6 f    CIL library: CIL module
 0001:000338c6       ?catch$0@?0??oem_to_unicode@@YAXAEAVUnicodeString@col@@AEBVAnsiString@2@@Z@4HA 00000000740348c6 f    CIL library: CIL module
 0001:000338d3       __catch$?oem_to_unicode@@YAXAEAVUnicodeString@col@@AEBVAnsiString@2@@Z$0 00000000740348d3 f    CIL library: CIL module
 0001:000338f3       ?catch$0@?0??replace@?$ObjectArray@UPanelFileInfo@@@col@@QEAAAEAV12@IIPEBUPanelFileInfo@@I@Z@4HA 00000000740348f3 f    CIL library: CIL module
 0001:00033903       __catch$?replace@?$ObjectArray@UPanelFileInfo@@@col@@QEAAAEAV12@IIPEBUPanelFileInfo@@I@Z$0 0000000074034903 f    CIL library: CIL module
 0001:00033973       ?catch$1@?0??replace@?$ObjectArray@UPanelFileInfo@@@col@@QEAAAEAV12@IIPEBUPanelFileInfo@@I@Z@4HA 0000000074034973 f    CIL library: CIL module
 0001:00033987       __catch$?replace@?$ObjectArray@UPanelFileInfo@@@col@@QEAAAEAV12@IIPEBUPanelFileInfo@@I@Z$2 0000000074034987 f    CIL library: CIL module
 0001:00033a20       ?catch$0@?0??replace@?$ObjectArray@ULogRecord@@@col@@QEAAAEAV12@IIPEBULogRecord@@I@Z@4HA 0000000074034a20 f    CIL library: CIL module
 0001:00033a30       __catch$?replace@?$ObjectArray@ULogRecord@@@col@@QEAAAEAV12@IIPEBULogRecord@@I@Z$0 0000000074034a30 f    CIL library: CIL module
 0001:00033aa0       ?catch$1@?0??replace@?$ObjectArray@ULogRecord@@@col@@QEAAAEAV12@IIPEBULogRecord@@I@Z@4HA 0000000074034aa0 f    CIL library: CIL module
 0001:00033ab4       __catch$?replace@?$ObjectArray@ULogRecord@@@col@@QEAAAEAV12@IIPEBULogRecord@@I@Z$2 0000000074034ab4 f    CIL library: CIL module
 0001:00033b57       ?catch$0@?0??ref_resize@?$ObjectArray@UPanelFileInfo@@@col@@AEAAXI@Z@4HA 0000000074034b57 f    CIL library: CIL module
 0001:00033b67       __catch$?ref_resize@?$ObjectArray@UPanelFileInfo@@@col@@AEAAXI@Z$0 0000000074034b67 f    CIL library: CIL module
 0001:00033bcc       ?catch$0@?0??set_file_attr@@YAXAEBVUnicodeString@col@@KPEAUIRAPISession@@PEAUPluginInstance@@@Z@4HA 0000000074034bcc f    CIL library: CIL module
 0001:00033bd9       __catch$?set_file_attr@@YAXAEBVUnicodeString@col@@KPEAUIRAPISession@@PEAUPluginInstance@@@Z$0 0000000074034bd9 f    CIL library: CIL module
 0001:00033bfc       ?catch$1@?0??set_file_attr@@YAXAEBVUnicodeString@col@@KPEAUIRAPISession@@PEAUPluginInstance@@@Z@4HA 0000000074034bfc f    CIL library: CIL module
 0001:00033c09       __catch$?set_file_attr@@YAXAEBVUnicodeString@col@@KPEAUIRAPISession@@PEAUPluginInstance@@@Z$2 0000000074034c09 f    CIL library: CIL module
 0001:00033c29       ?catch$0@?0??create_session@@YAXU_GUID@@PEAUPluginInstance@@@Z@4HA 0000000074034c29 f    CIL library: CIL module
 0001:00033c36       __catch$?create_session@@YAXU_GUID@@PEAUPluginInstance@@@Z$0 0000000074034c36 f    CIL library: CIL module
 0001:00033c59       ?catch$1@?0??create_session@@YAXU_GUID@@PEAUPluginInstance@@@Z@4HA 0000000074034c59 f    CIL library: CIL module
 0001:00033c66       __catch$?create_session@@YAXU_GUID@@PEAUPluginInstance@@@Z$2 0000000074034c66 f    CIL library: CIL module
 0001:00033c89       ?catch$2@?0??create_session@@YAXU_GUID@@PEAUPluginInstance@@@Z@4HA 0000000074034c89 f    CIL library: CIL module
 0001:00033c96       __catch$?create_session@@YAXU_GUID@@PEAUPluginInstance@@@Z$4 0000000074034c96 f    CIL library: CIL module
 0001:00033cb9       ?catch$3@?0??create_session@@YAXU_GUID@@PEAUPluginInstance@@@Z@4HA 0000000074034cb9 f    CIL library: CIL module
 0001:00033cc6       __catch$?create_session@@YAXU_GUID@@PEAUPluginInstance@@@Z$6 0000000074034cc6 f    CIL library: CIL module
 0001:00033ce9       ?catch$4@?0??create_session@@YAXU_GUID@@PEAUPluginInstance@@@Z@4HA 0000000074034ce9 f    CIL library: CIL module
 0001:00033cf6       __catch$?create_session@@YAXU_GUID@@PEAUPluginInstance@@@Z$8 0000000074034cf6 f    CIL library: CIL module
 0001:00033d19       ?dtor$0@?0??create_session@@YAXU_GUID@@PEAUPluginInstance@@@Z@4HA 0000000074034d19 f    CIL library: CIL module
 0001:00033d29       ?catch$5@?0??create_session@@YAXU_GUID@@PEAUPluginInstance@@@Z@4HA 0000000074034d29 f    CIL library: CIL module
 0001:00033d36       __catch$?create_session@@YAXU_GUID@@PEAUPluginInstance@@@Z$10 0000000074034d36 f    CIL library: CIL module
 0001:00033d59       ?catch$6@?0??create_session@@YAXU_GUID@@PEAUPluginInstance@@@Z@4HA 0000000074034d59 f    CIL library: CIL module
 0001:00033d66       __catch$?create_session@@YAXU_GUID@@PEAUPluginInstance@@@Z$12 0000000074034d66 f    CIL library: CIL module
 0001:00033d89       ?catch$7@?0??create_session@@YAXU_GUID@@PEAUPluginInstance@@@Z@4HA 0000000074034d89 f    CIL library: CIL module
 0001:00033d96       __catch$?create_session@@YAXU_GUID@@PEAUPluginInstance@@@Z$14 0000000074034d96 f    CIL library: CIL module
 0001:00033da6       ?dtor$0@?0??init_if_needed@@YAXXZ@4HA 0000000074034da6 f    CIL library: CIL module
 0001:00033db6       ?catch$0@?0??init_if_needed@@YAXXZ@4HA 0000000074034db6 f    CIL library: CIL module
 0001:00033dc3       __catch$?init_if_needed@@YAXXZ$0 0000000074034dc3 f    CIL library: CIL module
 0001:00033de6       ?catch$1@?0??init_if_needed@@YAXXZ@4HA 0000000074034de6 f    CIL library: CIL module
 0001:00033df3       __catch$?init_if_needed@@YAXXZ$2 0000000074034df3 f    CIL library: CIL module
 0001:00033e16       ?catch$2@?0??init_if_needed@@YAXXZ@4HA 0000000074034e16 f    CIL library: CIL module
 0001:00033e23       __catch$?init_if_needed@@YAXXZ$4 0000000074034e23 f    CIL library: CIL module
 0001:00033e46       ?catch$3@?0??init_if_needed@@YAXXZ@4HA 0000000074034e46 f    CIL library: CIL module
 0001:00033e53       __catch$?init_if_needed@@YAXXZ$6 0000000074034e53 f    CIL library: CIL module
 0001:00033e76       ?catch$4@?0??init_if_needed@@YAXXZ@4HA 0000000074034e76 f    CIL library: CIL module
 0001:00033e83       __catch$?init_if_needed@@YAXXZ$8 0000000074034e83 f    CIL library: CIL module
 0001:00033ea6       ?catch$5@?0??init_if_needed@@YAXXZ@4HA 0000000074034ea6 f    CIL library: CIL module
 0001:00033eb3       __catch$?init_if_needed@@YAXXZ$10 0000000074034eb3 f    CIL library: CIL module
 0001:00033ed6       ?catch$6@?0??init_if_needed@@YAXXZ@4HA 0000000074034ed6 f    CIL library: CIL module
 0001:00033ee3       __catch$?init_if_needed@@YAXXZ$12 0000000074034ee3 f    CIL library: CIL module
 0001:00033f16       ?dtor$1@?0??init_if_needed@@YAXXZ@4HA 0000000074034f16 f    CIL library: CIL module
 0001:00033f26       ?catch$7@?0??init_if_needed@@YAXXZ@4HA 0000000074034f26 f    CIL library: CIL module
 0001:00033f33       __catch$?init_if_needed@@YAXXZ$14 0000000074034f33 f    CIL library: CIL module
 0001:00033f56       ?catch$8@?0??init_if_needed@@YAXXZ@4HA 0000000074034f56 f    CIL library: CIL module
 0001:00033f63       __catch$?init_if_needed@@YAXXZ$16 0000000074034f63 f    CIL library: CIL module
 0001:00033f86       ?catch$9@?0??init_if_needed@@YAXXZ@4HA 0000000074034f86 f    CIL library: CIL module
 0001:00033f93       __catch$?init_if_needed@@YAXXZ$18 0000000074034f93 f    CIL library: CIL module
 0001:00033fb6       ?dtor$2@?0??init_if_needed@@YAXXZ@4HA 0000000074034fb6 f    CIL library: CIL module
 0001:00033fc6       ?catch$10@?0??init_if_needed@@YAXXZ@4HA 0000000074034fc6 f    CIL library: CIL module
 0001:00033fd3       __catch$?init_if_needed@@YAXXZ$20 0000000074034fd3 f    CIL library: CIL module
 0001:00033ff6       ?catch$11@?0??init_if_needed@@YAXXZ@4HA 0000000074034ff6 f    CIL library: CIL module
 0001:00034003       __catch$?init_if_needed@@YAXXZ$22 0000000074035003 f    CIL library: CIL module
 0001:00034026       ?dtor$3@?0??init_if_needed@@YAXXZ@4HA 0000000074035026 f    CIL library: CIL module
 0001:00034036       ?catch$12@?0??init_if_needed@@YAXXZ@4HA 0000000074035036 f    CIL library: CIL module
 0001:00034043       __catch$?init_if_needed@@YAXXZ$24 0000000074035043 f    CIL library: CIL module
 0001:00034066       ?catch$13@?0??init_if_needed@@YAXXZ@4HA 0000000074035066 f    CIL library: CIL module
 0001:00034073       __catch$?init_if_needed@@YAXXZ$26 0000000074035073 f    CIL library: CIL module
 0001:00034096       ?dtor$4@?0??init_if_needed@@YAXXZ@4HA 0000000074035096 f    CIL library: CIL module
 0001:000340a6       ?catch$14@?0??init_if_needed@@YAXXZ@4HA 00000000740350a6 f    CIL library: CIL module
 0001:000340b3       __catch$?init_if_needed@@YAXXZ$28 00000000740350b3 f    CIL library: CIL module
 0001:000340d6       ?catch$15@?0??init_if_needed@@YAXXZ@4HA 00000000740350d6 f    CIL library: CIL module
 0001:000340e3       __catch$?init_if_needed@@YAXXZ$30 00000000740350e3 f    CIL library: CIL module
 0001:00034106       ?catch$16@?0??init_if_needed@@YAXXZ@4HA 0000000074035106 f    CIL library: CIL module
 0001:00034113       __catch$?init_if_needed@@YAXXZ$32 0000000074035113 f    CIL library: CIL module
 0001:00034136       ?catch$17@?0??init_if_needed@@YAXXZ@4HA 0000000074035136 f    CIL library: CIL module
 0001:00034143       __catch$?init_if_needed@@YAXXZ$34 0000000074035143 f    CIL library: CIL module
 0001:00034166       ?catch$18@?0??init_if_needed@@YAXXZ@4HA 0000000074035166 f    CIL library: CIL module
 0001:00034173       __catch$?init_if_needed@@YAXXZ$36 0000000074035173 f    CIL library: CIL module
 0001:00034196       ?catch$19@?0??init_if_needed@@YAXXZ@4HA 0000000074035196 f    CIL library: CIL module
 0001:000341a3       __catch$?init_if_needed@@YAXXZ$38 00000000740351a3 f    CIL library: CIL module
 0001:000341c6       ?catch$20@?0??init_if_needed@@YAXXZ@4HA 00000000740351c6 f    CIL library: CIL module
 0001:000341d3       __catch$?init_if_needed@@YAXXZ$40 00000000740351d3 f    CIL library: CIL module
 0001:000341f6       ?catch$21@?0??init_if_needed@@YAXXZ@4HA 00000000740351f6 f    CIL library: CIL module
 0001:00034203       __catch$?init_if_needed@@YAXXZ$42 0000000074035203 f    CIL library: CIL module
 0001:00034226       ?catch$22@?0??init_if_needed@@YAXXZ@4HA 0000000074035226 f    CIL library: CIL module
 0001:00034233       __catch$?init_if_needed@@YAXXZ$44 0000000074035233 f    CIL library: CIL module
 0001:00034256       ?catch$23@?0??init_if_needed@@YAXXZ@4HA 0000000074035256 f    CIL library: CIL module
 0001:00034263       __catch$?init_if_needed@@YAXXZ$46 0000000074035263 f    CIL library: CIL module
 0001:00034286       ?catch$24@?0??init_if_needed@@YAXXZ@4HA 0000000074035286 f    CIL library: CIL module
 0001:00034293       __catch$?init_if_needed@@YAXXZ$48 0000000074035293 f    CIL library: CIL module
 0001:000342b6       ?catch$25@?0??init_if_needed@@YAXXZ@4HA 00000000740352b6 f    CIL library: CIL module
 0001:000342c3       __catch$?init_if_needed@@YAXXZ$50 00000000740352c3 f    CIL library: CIL module
 0001:000342e6       ?catch$26@?0??init_if_needed@@YAXXZ@4HA 00000000740352e6 f    CIL library: CIL module
 0001:000342f3       __catch$?init_if_needed@@YAXXZ$52 00000000740352f3 f    CIL library: CIL module
 0001:00034316       ?catch$27@?0??init_if_needed@@YAXXZ@4HA 0000000074035316 f    CIL library: CIL module
 0001:00034323       __catch$?init_if_needed@@YAXXZ$54 0000000074035323 f    CIL library: CIL module
 0001:00034346       ?catch$28@?0??init_if_needed@@YAXXZ@4HA 0000000074035346 f    CIL library: CIL module
 0001:00034353       __catch$?init_if_needed@@YAXXZ$56 0000000074035353 f    CIL library: CIL module
 0001:00034376       ?catch$29@?0??init_if_needed@@YAXXZ@4HA 0000000074035376 f    CIL library: CIL module
 0001:00034383       __catch$?init_if_needed@@YAXXZ$58 0000000074035383 f    CIL library: CIL module
 0001:000343a6       ?catch$30@?0??init_if_needed@@YAXXZ@4HA 00000000740353a6 f    CIL library: CIL module
 0001:000343b3       __catch$?init_if_needed@@YAXXZ$60 00000000740353b3 f    CIL library: CIL module
 0001:000343d6       ?catch$31@?0??init_if_needed@@YAXXZ@4HA 00000000740353d6 f    CIL library: CIL module
 0001:000343e3       __catch$?init_if_needed@@YAXXZ$62 00000000740353e3 f    CIL library: CIL module
 0001:00034406       ?catch$32@?0??init_if_needed@@YAXXZ@4HA 0000000074035406 f    CIL library: CIL module
 0001:00034413       __catch$?init_if_needed@@YAXXZ$64 0000000074035413 f    CIL library: CIL module
 0001:00034436       ?catch$33@?0??init_if_needed@@YAXXZ@4HA 0000000074035436 f    CIL library: CIL module
 0001:00034443       __catch$?init_if_needed@@YAXXZ$66 0000000074035443 f    CIL library: CIL module
 0001:00034466       ?catch$34@?0??init_if_needed@@YAXXZ@4HA 0000000074035466 f    CIL library: CIL module
 0001:00034473       __catch$?init_if_needed@@YAXXZ$68 0000000074035473 f    CIL library: CIL module
 0001:00034496       ?catch$35@?0??init_if_needed@@YAXXZ@4HA 0000000074035496 f    CIL library: CIL module
 0001:000344a3       __catch$?init_if_needed@@YAXXZ$70 00000000740354a3 f    CIL library: CIL module
 0001:000344c6       ?catch$36@?0??init_if_needed@@YAXXZ@4HA 00000000740354c6 f    CIL library: CIL module
 0001:000344d3       __catch$?init_if_needed@@YAXXZ$72 00000000740354d3 f    CIL library: CIL module
 0001:000344f6       ?catch$37@?0??init_if_needed@@YAXXZ@4HA 00000000740354f6 f    CIL library: CIL module
 0001:00034503       __catch$?init_if_needed@@YAXXZ$74 0000000074035503 f    CIL library: CIL module
 0001:00034526       ?catch$38@?0??init_if_needed@@YAXXZ@4HA 0000000074035526 f    CIL library: CIL module
 0001:00034533       __catch$?init_if_needed@@YAXXZ$76 0000000074035533 f    CIL library: CIL module
 0001:00034556       ?catch$39@?0??init_if_needed@@YAXXZ@4HA 0000000074035556 f    CIL library: CIL module
 0001:00034563       __catch$?init_if_needed@@YAXXZ$78 0000000074035563 f    CIL library: CIL module
 0001:00034586       ?catch$40@?0??init_if_needed@@YAXXZ@4HA 0000000074035586 f    CIL library: CIL module
 0001:00034593       __catch$?init_if_needed@@YAXXZ$80 0000000074035593 f    CIL library: CIL module
 0001:000345b6       ?catch$41@?0??init_if_needed@@YAXXZ@4HA 00000000740355b6 f    CIL library: CIL module
 0001:000345c3       __catch$?init_if_needed@@YAXXZ$82 00000000740355c3 f    CIL library: CIL module
 0001:000345e6       ?catch$42@?0??init_if_needed@@YAXXZ@4HA 00000000740355e6 f    CIL library: CIL module
 0001:000345f3       __catch$?init_if_needed@@YAXXZ$84 00000000740355f3 f    CIL library: CIL module
 0001:00034616       ?catch$43@?0??init_if_needed@@YAXXZ@4HA 0000000074035616 f    CIL library: CIL module
 0001:00034623       __catch$?init_if_needed@@YAXXZ$86 0000000074035623 f    CIL library: CIL module
 0001:00034646       ?catch$44@?0??init_if_needed@@YAXXZ@4HA 0000000074035646 f    CIL library: CIL module
 0001:00034653       __catch$?init_if_needed@@YAXXZ$88 0000000074035653 f    CIL library: CIL module
 0001:00034676       ?catch$45@?0??init_if_needed@@YAXXZ@4HA 0000000074035676 f    CIL library: CIL module
 0001:00034683       __catch$?init_if_needed@@YAXXZ$90 0000000074035683 f    CIL library: CIL module
 0001:000346a2       ?dtor$1@?0??long_path@@YA?AVUnicodeString@col@@AEBV12@@Z@4HA 00000000740356a2 f    CIL library: CIL module
 0001:000346b2       ?dtor$2@?0??long_path@@YA?AVUnicodeString@col@@AEBV12@@Z@4HA 00000000740356b2 f    CIL library: CIL module
 0001:000346be       ?dtor$0@?0??do_format@UnicodeString@col@@AEAAAEAV12@PEB_WPEAD@Z@4HA 00000000740356be f    CIL library: CIL module
 0001:000346ca       ?dtor$0@?0??format@UnicodeString@col@@SA?AV12@PEB_WZZ@4HA 00000000740356ca f    CIL library: CIL module
 0001:000346f0       ?catch$0@?0??replace@?$ObjectArray@V?$ObjectArray@UFileInfo@@@col@@@col@@QEAAAEAV12@IIPEBV?$ObjectArray@UFileInfo@@@2@I@Z@4HA 00000000740356f0 f    CIL library: CIL module
 0001:00034700       __catch$?replace@?$ObjectArray@V?$ObjectArray@UFileInfo@@@col@@@col@@QEAAAEAV12@IIPEBV?$ObjectArray@UFileInfo@@@2@I@Z$0 0000000074035700 f    CIL library: CIL module
 0001:00034750       ?catch$1@?0??replace@?$ObjectArray@V?$ObjectArray@UFileInfo@@@col@@@col@@QEAAAEAV12@IIPEBV?$ObjectArray@UFileInfo@@@2@I@Z@4HA 0000000074035750 f    CIL library: CIL module
 0001:00034762       __catch$?replace@?$ObjectArray@V?$ObjectArray@UFileInfo@@@col@@@col@@QEAAAEAV12@IIPEBV?$ObjectArray@UFileInfo@@@2@I@Z$2 0000000074035762 f    CIL library: CIL module
 0001:000347d4       ?catch$0@?0??replace@?$ObjectArray@UDeviceInfo@@@col@@QEAAAEAV12@IIPEBUDeviceInfo@@I@Z@4HA 00000000740357d4 f    CIL library: CIL module
 0001:000347e4       __catch$?replace@?$ObjectArray@UDeviceInfo@@@col@@QEAAAEAV12@IIPEBUDeviceInfo@@I@Z$0 00000000740357e4 f    CIL library: CIL module
 0001:00034864       ?catch$1@?0??replace@?$ObjectArray@UDeviceInfo@@@col@@QEAAAEAV12@IIPEBUDeviceInfo@@I@Z@4HA 0000000074035864 f    CIL library: CIL module
 0001:00034878       __catch$?replace@?$ObjectArray@UDeviceInfo@@@col@@QEAAAEAV12@IIPEBUDeviceInfo@@I@Z$2 0000000074035878 f    CIL library: CIL module
 0001:00034930       ?catch$0@?0??replace@?$ObjectArray@UPluginItemList@@@col@@QEAAAEAV12@IIPEBUPluginItemList@@I@Z@4HA 0000000074035930 f    CIL library: CIL module
 0001:00034940       __catch$?replace@?$ObjectArray@UPluginItemList@@@col@@QEAAAEAV12@IIPEBUPluginItemList@@I@Z$0 0000000074035940 f    CIL library: CIL module
 0001:000349b0       ?catch$1@?0??replace@?$ObjectArray@UPluginItemList@@@col@@QEAAAEAV12@IIPEBUPluginItemList@@I@Z@4HA 00000000740359b0 f    CIL library: CIL module
 0001:000349c4       __catch$?replace@?$ObjectArray@UPluginItemList@@@col@@QEAAAEAV12@IIPEBUPluginItemList@@I@Z$2 00000000740359c4 f    CIL library: CIL module
 0001:00034a58       ?dtor$0@?0???_GPluginInstance@@QEAAPEAXI@Z@4HA 0000000074035a58 f    CIL library: CIL module
 0001:00034a68       ?dtor$1@?0???_GPluginInstance@@QEAAPEAXI@Z@4HA 0000000074035a68 f    CIL library: CIL module
 0001:00034a78       ?dtor$2@?0???_GPluginInstance@@QEAAPEAXI@Z@4HA 0000000074035a78 f    CIL library: CIL module
 0001:00034a88       ?dtor$3@?0???_GPluginInstance@@QEAAPEAXI@Z@4HA 0000000074035a88 f    CIL library: CIL module
 0001:00034a98       ?dtor$4@?0???_GPluginInstance@@QEAAPEAXI@Z@4HA 0000000074035a98 f    CIL library: CIL module
 0001:00034aa8       ?dtor$5@?0???_GPluginInstance@@QEAAPEAXI@Z@4HA 0000000074035aa8 f    CIL library: CIL module
 0001:00034ab8       ?dtor$6@?0???_GPluginInstance@@QEAAPEAXI@Z@4HA 0000000074035ab8 f    CIL library: CIL module
 0001:00034ac8       ?dtor$7@?0???_GPluginInstance@@QEAAPEAXI@Z@4HA 0000000074035ac8 f    CIL library: CIL module
 0001:00034ad8       ?dtor$0@?0??msg_dlg@@YAXAEBVUnicodeString@col@@@Z@4HA 0000000074035ad8 f    CIL library: CIL module
 0001:00034ae8       ?dtor$1@?0??msg_dlg@@YAXAEBVUnicodeString@col@@@Z@4HA 0000000074035ae8 f    CIL library: CIL module
 0001:00034af8       ?dtor$2@?0??msg_dlg@@YAXAEBVUnicodeString@col@@@Z@4HA 0000000074035af8 f    CIL library: CIL module
 0001:00034b04       ?dtor$0@?0??strid@DeviceInfo@@QEAA?AVUnicodeString@col@@XZ@4HA 0000000074035b04 f    CIL library: CIL module
 0001:00034b2a       ?dtor$0@?0??get_partial_path@FilePath@@QEBA?AVUnicodeString@col@@I@Z@4HA 0000000074035b2a f    CIL library: CIL module
 0001:00034b59       ?catch$0@?0??replace@?$ObjectArray@UFilter@@@col@@QEAAAEAV12@IIPEBUFilter@@I@Z@4HA 0000000074035b59 f    CIL library: CIL module
 0001:00034b69       __catch$?replace@?$ObjectArray@UFilter@@@col@@QEAAAEAV12@IIPEBUFilter@@I@Z$0 0000000074035b69 f    CIL library: CIL module
 0001:00034be9       ?catch$1@?0??replace@?$ObjectArray@UFilter@@@col@@QEAAAEAV12@IIPEBUFilter@@I@Z@4HA 0000000074035be9 f    CIL library: CIL module
 0001:00034bfd       __catch$?replace@?$ObjectArray@UFilter@@@col@@QEAAAEAV12@IIPEBUFilter@@I@Z$2 0000000074035bfd f    CIL library: CIL module
 0001:00034cb5       ?catch$0@?0??create@?$ObjectArray@UFileFilters@@@col@@CAPEAUBuffer@12@PEBUFileFilters@@I@Z@4HA 0000000074035cb5 f    CIL library: CIL module
 0001:00034cc5       __catch$?create@?$ObjectArray@UFileFilters@@@col@@CAPEAUBuffer@12@PEBUFileFilters@@I@Z$0 0000000074035cc5 f    CIL library: CIL module
 0001:00034d14       ?dtor$0@?0??reg_read_string@@YA?AVUnicodeString@col@@PEAUHKEY__@@AEBV12@1@Z@4HA 0000000074035d14 f    CIL library: CIL module
 0001:00034d44       ?dtor$1@?0??reg_read_string@@YA?AVUnicodeString@col@@PEAUHKEY__@@AEBV12@1@Z@4HA 0000000074035d44 f    CIL library: CIL module
 0001:00034d50       ?dtor$0@?0??save_last_dir@@YAXAEBVUnicodeString@col@@0@Z@4HA 0000000074035d50 f    CIL library: CIL module
 0001:00034d60       ?dtor$1@?0??save_last_dir@@YAXAEBVUnicodeString@col@@0@Z@4HA 0000000074035d60 f    CIL library: CIL module
 0001:00034d70       ?dtor$2@?0??save_last_dir@@YAXAEBVUnicodeString@col@@0@Z@4HA 0000000074035d70 f    CIL library: CIL module
 0001:00034d7c       ?dtor$0@?0??save_def_option_values@@YAXAEBUPluginOptions@@@Z@4HA 0000000074035d7c f    CIL library: CIL module
 0001:00034d7c       ?dtor$0@?0??save_plugin_options@@YAXAEBUPluginOptions@@@Z@4HA 0000000074035d7c f    CIL library: CIL module
 0001:00034d8c       ?dtor$1@?0??save_plugin_options@@YAXAEBUPluginOptions@@@Z@4HA 0000000074035d8c f    CIL library: CIL module
 0001:00034d8c       ?dtor$1@?0??save_def_option_values@@YAXAEBUPluginOptions@@@Z@4HA 0000000074035d8c f    CIL library: CIL module
 0001:00034d98       ?dtor$0@?0??get_size_suffixes@@YA?AV?$ObjectArray@VUnicodeString@col@@@col@@XZ@4HA 0000000074035d98 f    CIL library: CIL module
 0001:00034d98       ?dtor$0@?0??get_speed_suffixes@@YA?AV?$ObjectArray@VUnicodeString@col@@@col@@XZ@4HA 0000000074035d98 f    CIL library: CIL module
 0001:00034dc8       ?dtor$1@?0??get_size_suffixes@@YA?AV?$ObjectArray@VUnicodeString@col@@@col@@XZ@4HA 0000000074035dc8 f    CIL library: CIL module
 0001:00034dc8       ?dtor$1@?0??get_speed_suffixes@@YA?AV?$ObjectArray@VUnicodeString@col@@@col@@XZ@4HA 0000000074035dc8 f    CIL library: CIL module
 0001:00034dd8       ?dtor$2@?0??get_size_suffixes@@YA?AV?$ObjectArray@VUnicodeString@col@@@col@@XZ@4HA 0000000074035dd8 f    CIL library: CIL module
 0001:00034dd8       ?dtor$2@?0??get_speed_suffixes@@YA?AV?$ObjectArray@VUnicodeString@col@@@col@@XZ@4HA 0000000074035dd8 f    CIL library: CIL module
 0001:00034de8       ?dtor$3@?0??get_speed_suffixes@@YA?AV?$ObjectArray@VUnicodeString@col@@@col@@XZ@4HA 0000000074035de8 f    CIL library: CIL module
 0001:00034de8       ?dtor$3@?0??get_size_suffixes@@YA?AV?$ObjectArray@VUnicodeString@col@@@col@@XZ@4HA 0000000074035de8 f    CIL library: CIL module
 0001:00034df8       ?dtor$4@?0??get_speed_suffixes@@YA?AV?$ObjectArray@VUnicodeString@col@@@col@@XZ@4HA 0000000074035df8 f    CIL library: CIL module
 0001:00034df8       ?dtor$4@?0??get_size_suffixes@@YA?AV?$ObjectArray@VUnicodeString@col@@@col@@XZ@4HA 0000000074035df8 f    CIL library: CIL module
 0001:00034e08       ?dtor$5@?0??get_speed_suffixes@@YA?AV?$ObjectArray@VUnicodeString@col@@@col@@XZ@4HA 0000000074035e08 f    CIL library: CIL module
 0001:00034e08       ?dtor$5@?0??get_size_suffixes@@YA?AV?$ObjectArray@VUnicodeString@col@@@col@@XZ@4HA 0000000074035e08 f    CIL library: CIL module
 0001:00034e14       ?dtor$0@?0??update_needed@UiLink@@QEAA_NXZ@4HA 0000000074035e14 f    CIL library: CIL module
 0001:00034e24       ?dtor$1@?0??update_needed@UiLink@@QEAA_NXZ@4HA 0000000074035e24 f    CIL library: CIL module
 0001:00034e34       ?catch$0@?0??update_needed@UiLink@@QEAA_NXZ@4HA 0000000074035e34 f    CIL library: CIL module
 0001:00034e41       __catch$?update_needed@UiLink@@QEAA_NXZ$0 0000000074035e41 f    CIL library: CIL module
 0001:00034e64       ?catch$1@?0??update_needed@UiLink@@QEAA_NXZ@4HA 0000000074035e64 f    CIL library: CIL module
 0001:00034e71       __catch$?update_needed@UiLink@@QEAA_NXZ$2 0000000074035e71 f    CIL library: CIL module
 0001:00034e91       ?dtor$0@?0??far_get_text@@YA?AVUnicodeString@col@@PEAXI@Z@4HA 0000000074035e91 f    CIL library: CIL module
 0001:00034eb7       ?dtor$1@?0??format_file_time@@YA?AVUnicodeString@col@@AEBU_FILETIME@@@Z@4HA 0000000074035eb7 f    CIL library: CIL module
 0001:00034ec7       ?dtor$2@?0??format_file_time@@YA?AVUnicodeString@col@@AEBU_FILETIME@@@Z@4HA 0000000074035ec7 f    CIL library: CIL module
 0001:00034ed7       ?dtor$3@?0??format_file_time@@YA?AVUnicodeString@col@@AEBU_FILETIME@@@Z@4HA 0000000074035ed7 f    CIL library: CIL module
 0001:00034ee3       ?dtor$0@?0??make_temp_file@@YA?AVUnicodeString@col@@XZ@4HA 0000000074035ee3 f    CIL library: CIL module
 0001:00034ef3       ?catch$0@?0??make_temp_file@@YA?AVUnicodeString@col@@XZ@4HA 0000000074035ef3 f    CIL library: CIL module
 0001:00034f00       __catch$?make_temp_file@@YA?AVUnicodeString@col@@XZ$0 0000000074035f00 f    CIL library: CIL module
 0001:00034f23       ?dtor$1@?0??make_temp_file@@YA?AVUnicodeString@col@@XZ@4HA 0000000074035f23 f    CIL library: CIL module
 0001:00034f33       ?catch$1@?0??make_temp_file@@YA?AVUnicodeString@col@@XZ@4HA 0000000074035f33 f    CIL library: CIL module
 0001:00034f40       __catch$?make_temp_file@@YA?AVUnicodeString@col@@XZ$2 0000000074035f40 f    CIL library: CIL module
 0001:00034f60       ?dtor$0@?0??get_module_version@@YA?AUModuleVersion@@PEAUHINSTANCE__@@@Z@4HA 0000000074035f60 f    CIL library: CIL module
 0001:00034f70       ?dtor$1@?0??get_module_version@@YA?AUModuleVersion@@PEAUHINSTANCE__@@@Z@4HA 0000000074035f70 f    CIL library: CIL module
 0001:00034f7c       ?dtor$0@?0??ansi_to_unicode@@YA?AVUnicodeString@col@@AEBVAnsiString@2@@Z@4HA 0000000074035f7c f    CIL library: CIL module
 0001:00034f7c       ?dtor$0@?0??oem_to_unicode@@YA?AVUnicodeString@col@@AEBVAnsiString@2@@Z@4HA 0000000074035f7c f    CIL library: CIL module
 0001:00034f7c       ?dtor$0@?0??unicode_to_ansi@@YA?AVAnsiString@col@@AEBVUnicodeString@2@@Z@4HA 0000000074035f7c f    CIL library: CIL module
 0001:00034fa2       ?dtor$0@?0??get_open_command@@YA?AVUnicodeString@col@@AEBV12@0PEAUIRAPISession@@@Z@4HA 0000000074035fa2 f    CIL library: CIL module
 0001:00034fd2       ?dtor$1@?0??get_open_command@@YA?AVUnicodeString@col@@AEBV12@0PEAUIRAPISession@@@Z@4HA 0000000074035fd2 f    CIL library: CIL module
 0001:00034fe2       ?catch$0@?0??get_open_command@@YA?AVUnicodeString@col@@AEBV12@0PEAUIRAPISession@@@Z@4HA 0000000074035fe2 f    CIL library: CIL module
 0001:00034fef       __catch$?get_open_command@@YA?AVUnicodeString@col@@AEBV12@0PEAUIRAPISession@@@Z$0 0000000074035fef f    CIL library: CIL module
 0001:00035012       ?dtor$2@?0??get_open_command@@YA?AVUnicodeString@col@@AEBV12@0PEAUIRAPISession@@@Z@4HA 0000000074036012 f    CIL library: CIL module
 0001:00035022       ?dtor$3@?0??get_open_command@@YA?AVUnicodeString@col@@AEBV12@0PEAUIRAPISession@@@Z@4HA 0000000074036022 f    CIL library: CIL module
 0001:00035032       ?catch$1@?0??get_open_command@@YA?AVUnicodeString@col@@AEBV12@0PEAUIRAPISession@@@Z@4HA 0000000074036032 f    CIL library: CIL module
 0001:0003503f       __catch$?get_open_command@@YA?AVUnicodeString@col@@AEBV12@0PEAUIRAPISession@@@Z$2 000000007403603f f    CIL library: CIL module
 0001:00035062       ?catch$2@?0??get_open_command@@YA?AVUnicodeString@col@@AEBV12@0PEAUIRAPISession@@@Z@4HA 0000000074036062 f    CIL library: CIL module
 0001:0003506f       __catch$?get_open_command@@YA?AVUnicodeString@col@@AEBV12@0PEAUIRAPISession@@@Z$4 000000007403606f f    CIL library: CIL module
 0001:00035092       ?dtor$4@?0??get_open_command@@YA?AVUnicodeString@col@@AEBV12@0PEAUIRAPISession@@@Z@4HA 0000000074036092 f    CIL library: CIL module
 0001:000350a2       ?catch$3@?0??get_open_command@@YA?AVUnicodeString@col@@AEBV12@0PEAUIRAPISession@@@Z@4HA 00000000740360a2 f    CIL library: CIL module
 0001:000350af       __catch$?get_open_command@@YA?AVUnicodeString@col@@AEBV12@0PEAUIRAPISession@@@Z$6 00000000740360af f    CIL library: CIL module
 0001:000350d2       ?catch$15@?0??get_open_command@@YA?AVUnicodeString@col@@AEBV12@0PEAUIRAPISession@@@Z@4HA 00000000740360d2 f    CIL library: CIL module
 0001:000350df       __catch$?get_open_command@@YA?AVUnicodeString@col@@AEBV12@0PEAUIRAPISession@@@Z$8 00000000740360df f    CIL library: CIL module
 0001:00035112       ?catch$4@?0??get_open_command@@YA?AVUnicodeString@col@@AEBV12@0PEAUIRAPISession@@@Z@4HA 0000000074036112 f    CIL library: CIL module
 0001:0003511f       __catch$?get_open_command@@YA?AVUnicodeString@col@@AEBV12@0PEAUIRAPISession@@@Z$10 000000007403611f f    CIL library: CIL module
 0001:00035142       ?catch$5@?0??get_open_command@@YA?AVUnicodeString@col@@AEBV12@0PEAUIRAPISession@@@Z@4HA 0000000074036142 f    CIL library: CIL module
 0001:0003514f       __catch$?get_open_command@@YA?AVUnicodeString@col@@AEBV12@0PEAUIRAPISession@@@Z$12 000000007403614f f    CIL library: CIL module
 0001:00035172       ?catch$6@?0??get_open_command@@YA?AVUnicodeString@col@@AEBV12@0PEAUIRAPISession@@@Z@4HA 0000000074036172 f    CIL library: CIL module
 0001:0003517f       __catch$?get_open_command@@YA?AVUnicodeString@col@@AEBV12@0PEAUIRAPISession@@@Z$14 000000007403617f f    CIL library: CIL module
 0001:000351a2       ?catch$7@?0??get_open_command@@YA?AVUnicodeString@col@@AEBV12@0PEAUIRAPISession@@@Z@4HA 00000000740361a2 f    CIL library: CIL module
 0001:000351af       __catch$?get_open_command@@YA?AVUnicodeString@col@@AEBV12@0PEAUIRAPISession@@@Z$16 00000000740361af f    CIL library: CIL module
 0001:000351d2       ?catch$8@?0??get_open_command@@YA?AVUnicodeString@col@@AEBV12@0PEAUIRAPISession@@@Z@4HA 00000000740361d2 f    CIL library: CIL module
 0001:000351df       __catch$?get_open_command@@YA?AVUnicodeString@col@@AEBV12@0PEAUIRAPISession@@@Z$18 00000000740361df f    CIL library: CIL module
 0001:00035202       ?dtor$5@?0??get_open_command@@YA?AVUnicodeString@col@@AEBV12@0PEAUIRAPISession@@@Z@4HA 0000000074036202 f    CIL library: CIL module
 0001:00035212       ?catch$9@?0??get_open_command@@YA?AVUnicodeString@col@@AEBV12@0PEAUIRAPISession@@@Z@4HA 0000000074036212 f    CIL library: CIL module
 0001:0003521f       __catch$?get_open_command@@YA?AVUnicodeString@col@@AEBV12@0PEAUIRAPISession@@@Z$20 000000007403621f f    CIL library: CIL module
 0001:00035242       ?catch$11@?0??get_open_command@@YA?AVUnicodeString@col@@AEBV12@0PEAUIRAPISession@@@Z@4HA 0000000074036242 f    CIL library: CIL module
 0001:0003524f       __catch$?get_open_command@@YA?AVUnicodeString@col@@AEBV12@0PEAUIRAPISession@@@Z$22 000000007403624f f    CIL library: CIL module
 0001:00035282       ?catch$12@?0??get_open_command@@YA?AVUnicodeString@col@@AEBV12@0PEAUIRAPISession@@@Z@4HA 0000000074036282 f    CIL library: CIL module
 0001:0003528f       __catch$?get_open_command@@YA?AVUnicodeString@col@@AEBV12@0PEAUIRAPISession@@@Z$24 000000007403628f f    CIL library: CIL module
 0001:000352c2       ?catch$13@?0??get_open_command@@YA?AVUnicodeString@col@@AEBV12@0PEAUIRAPISession@@@Z@4HA 00000000740362c2 f    CIL library: CIL module
 0001:000352cf       __catch$?get_open_command@@YA?AVUnicodeString@col@@AEBV12@0PEAUIRAPISession@@@Z$26 00000000740362cf f    CIL library: CIL module
 0001:00035302       ?catch$14@?0??get_open_command@@YA?AVUnicodeString@col@@AEBV12@0PEAUIRAPISession@@@Z@4HA 0000000074036302 f    CIL library: CIL module
 0001:0003530f       __catch$?get_open_command@@YA?AVUnicodeString@col@@AEBV12@0PEAUIRAPISession@@@Z$28 000000007403630f f    CIL library: CIL module
 0001:00035342       ?dtor$6@?0??get_open_command@@YA?AVUnicodeString@col@@AEBV12@0PEAUIRAPISession@@@Z@4HA 0000000074036342 f    CIL library: CIL module
 0001:00035352       ?dtor$7@?0??get_open_command@@YA?AVUnicodeString@col@@AEBV12@0PEAUIRAPISession@@@Z@4HA 0000000074036352 f    CIL library: CIL module
 0001:00035362       ?dtor$8@?0??get_open_command@@YA?AVUnicodeString@col@@AEBV12@0PEAUIRAPISession@@@Z@4HA 0000000074036362 f    CIL library: CIL module
 0001:00035372       ?catch$10@?0??get_open_command@@YA?AVUnicodeString@col@@AEBV12@0PEAUIRAPISession@@@Z@4HA 0000000074036372 f    CIL library: CIL module
 0001:0003537f       __catch$?get_open_command@@YA?AVUnicodeString@col@@AEBV12@0PEAUIRAPISession@@@Z$30 000000007403637f f    CIL library: CIL module
 0001:000353a2       ?dtor$0@?0??gen_file_list@@YAXAEBVUnicodeString@col@@PEAUIRAPISession@@AEAUPluginItemList@@AEBUFileListOptions@@AEAVUiLink@@@Z@4HA 00000000740363a2 f    CIL library: CIL module
 0001:000353d2       ?dtor$1@?0??gen_file_list@@YAXAEBVUnicodeString@col@@PEAUIRAPISession@@AEAUPluginItemList@@AEBUFileListOptions@@AEAVUiLink@@@Z@4HA 00000000740363d2 f    CIL library: CIL module
 0001:00035402       ?dtor$2@?0??gen_file_list@@YAXAEBVUnicodeString@col@@PEAUIRAPISession@@AEAUPluginItemList@@AEBUFileListOptions@@AEAVUiLink@@@Z@4HA 0000000074036402 f    CIL library: CIL module
 0001:00035432       ?dtor$3@?0??gen_file_list@@YAXAEBVUnicodeString@col@@PEAUIRAPISession@@AEAUPluginItemList@@AEBUFileListOptions@@AEAVUiLink@@@Z@4HA 0000000074036432 f    CIL library: CIL module
 0001:00035462       ?catch$0@?0??gen_file_list@@YAXAEBVUnicodeString@col@@PEAUIRAPISession@@AEAUPluginItemList@@AEBUFileListOptions@@AEAVUiLink@@@Z@4HA 0000000074036462 f    CIL library: CIL module
 0001:0003546f       __catch$?gen_file_list@@YAXAEBVUnicodeString@col@@PEAUIRAPISession@@AEAUPluginItemList@@AEBUFileListOptions@@AEAVUiLink@@@Z$0 000000007403646f f    CIL library: CIL module
 0001:00035492       ?catch$1@?0??gen_file_list@@YAXAEBVUnicodeString@col@@PEAUIRAPISession@@AEAUPluginItemList@@AEBUFileListOptions@@AEAVUiLink@@@Z@4HA 0000000074036492 f    CIL library: CIL module
 0001:0003549f       __catch$?gen_file_list@@YAXAEBVUnicodeString@col@@PEAUIRAPISession@@AEAUPluginItemList@@AEBUFileListOptions@@AEAVUiLink@@@Z$2 000000007403649f f    CIL library: CIL module
 0001:000354c2       ?dtor$4@?0??gen_file_list@@YAXAEBVUnicodeString@col@@PEAUIRAPISession@@AEAUPluginItemList@@AEBUFileListOptions@@AEAVUiLink@@@Z@4HA 00000000740364c2 f    CIL library: CIL module
 0001:000354d2       ?catch$2@?0??gen_file_list@@YAXAEBVUnicodeString@col@@PEAUIRAPISession@@AEAUPluginItemList@@AEBUFileListOptions@@AEAVUiLink@@@Z@4HA 00000000740364d2 f    CIL library: CIL module
 0001:000354df       __catch$?gen_file_list@@YAXAEBVUnicodeString@col@@PEAUIRAPISession@@AEAUPluginItemList@@AEBUFileListOptions@@AEAVUiLink@@@Z$4 00000000740364df f    CIL library: CIL module
 0001:0003550c       ?dtor$1@?0??add@Log@@QEAAXW4LogOpType@@AEBVUnicodeString@col@@1@Z@4HA 000000007403650c f    CIL library: CIL module
 0001:0003551c       ?dtor$0@?0??add@Log@@QEAAXW4LogOpType@@AEBVUnicodeString@col@@1@Z@4HA 000000007403651c f    CIL library: CIL module
 0001:00035528       ?dtor$0@?0??copy_item@?$ObjectArray@UFilterInterface@@@col@@CAXPEAUFilterInterface@@PEBU3@@Z@4HA 0000000074036528 f    CIL library: CIL module
 0001:00035548       ?dtor$1@?0??copy_item@?$ObjectArray@UFilterInterface@@@col@@CAXPEAUFilterInterface@@PEBU3@@Z@4HA 0000000074036548 f    CIL library: CIL module
 0001:00035558       ?dtor$2@?0??copy_item@?$ObjectArray@UFilterInterface@@@col@@CAXPEAUFilterInterface@@PEBU3@@Z@4HA 0000000074036558 f    CIL library: CIL module
 0001:00035568       ?catch$0@?0??create@?$ObjectArray@UFilterInterface@@@col@@CAPEAUBuffer@12@PEBUFilterInterface@@I@Z@4HA 0000000074036568 f    CIL library: CIL module
 0001:00035578       __catch$?create@?$ObjectArray@UFilterInterface@@@col@@CAPEAUBuffer@12@PEBUFilterInterface@@I@Z$0 0000000074036578 f    CIL library: CIL module
 0001:000355ae       ?dtor$0@?0??error_dlg@@YAXAEBVexception@std@@@Z@4HA 00000000740365ae f    CIL library: CIL module
 0001:000355be       ?dtor$1@?0??error_dlg@@YAXAEBVexception@std@@@Z@4HA 00000000740365be f    CIL library: CIL module
 0001:000355ce       ?dtor$2@?0??error_dlg@@YAXAEBVexception@std@@@Z@4HA 00000000740365ce f    CIL library: CIL module
 0001:000355de       ?dtor$3@?0??error_dlg@@YAXAEBVexception@std@@@Z@4HA 00000000740365de f    CIL library: CIL module
 0001:000355ee       ?dtor$4@?0??error_dlg@@YAXAEBVexception@std@@@Z@4HA 00000000740365ee f    CIL library: CIL module
 0001:000355fa       ?dtor$0@?0??error_dlg@@YAXAEAVError@@AEBVUnicodeString@col@@@Z@4HA 00000000740365fa f    CIL library: CIL module
 0001:0003560a       ?dtor$1@?0??error_dlg@@YAXAEAVError@@AEBVUnicodeString@col@@@Z@4HA 000000007403660a f    CIL library: CIL module
 0001:0003561a       ?dtor$2@?0??error_dlg@@YAXAEAVError@@AEBVUnicodeString@col@@@Z@4HA 000000007403661a f    CIL library: CIL module
 0001:0003562a       ?dtor$3@?0??error_dlg@@YAXAEAVError@@AEBVUnicodeString@col@@@Z@4HA 000000007403662a f    CIL library: CIL module
 0001:0003563a       ?dtor$4@?0??error_dlg@@YAXAEAVError@@AEBVUnicodeString@col@@@Z@4HA 000000007403663a f    CIL library: CIL module
 0001:0003564a       ?dtor$5@?0??error_dlg@@YAXAEAVError@@AEBVUnicodeString@col@@@Z@4HA 000000007403664a f    CIL library: CIL module
 0001:0003565a       ?dtor$6@?0??error_dlg@@YAXAEAVError@@AEBVUnicodeString@col@@@Z@4HA 000000007403665a f    CIL library: CIL module
 0001:0003566a       ?dtor$7@?0??error_dlg@@YAXAEAVError@@AEBVUnicodeString@col@@@Z@4HA 000000007403666a f    CIL library: CIL module
 0001:00035676       ?dtor$0@?0??get_system_message@@YA?AVUnicodeString@col@@K@Z@4HA 0000000074036676 f    CIL library: CIL module
 0001:000356a6       ?catch$0@?0??get_system_message@@YA?AVUnicodeString@col@@K@Z@4HA 00000000740366a6 f    CIL library: CIL module
 0001:000356b3       __catch$?get_system_message@@YA?AVUnicodeString@col@@K@Z$0 00000000740366b3 f    CIL library: CIL module
 0001:000356ca       ?dtor$0@?0???0FileInfo@@QEAA@AEBU_WIN32_FIND_DATAW@@@Z@4HA 00000000740366ca f    CIL library: CIL module
 0001:000356ca       ?dtor$0@?0???0FileInfo@@QEAA@AEBUCE_FIND_DATA@@@Z@4HA 00000000740366ca f    CIL library: CIL module
 0001:000356d6       ?catch$0@?0??replace@?$ObjectArray@UFileFilters@@@col@@QEAAAEAV12@IIPEBUFileFilters@@I@Z@4HA 00000000740366d6 f    CIL library: CIL module
 0001:000356e6       __catch$?replace@?$ObjectArray@UFileFilters@@@col@@QEAAAEAV12@IIPEBUFileFilters@@I@Z$0 00000000740366e6 f    CIL library: CIL module
 0001:00035746       ?catch$1@?0??replace@?$ObjectArray@UFileFilters@@@col@@QEAAAEAV12@IIPEBUFileFilters@@I@Z@4HA 0000000074036746 f    CIL library: CIL module
 0001:0003575a       __catch$?replace@?$ObjectArray@UFileFilters@@@col@@QEAAAEAV12@IIPEBUFileFilters@@I@Z$2 000000007403675a f    CIL library: CIL module
 0001:000357ed       ?catch$0@?0??ref_resize@?$ObjectArray@UFileFilters@@@col@@AEAAXI@Z@4HA 00000000740367ed f    CIL library: CIL module
 0001:000357fd       __catch$?ref_resize@?$ObjectArray@UFileFilters@@@col@@AEAAXI@Z$0 00000000740367fd f    CIL library: CIL module
 0001:00035856       ?dtor$4@?0??split_path@@YA?AUFilePathParts@@AEBVUnicodeString@col@@@Z@4HA 0000000074036856 f    CIL library: CIL module
 0001:00035866       ?dtor$5@?0??split_path@@YA?AUFilePathParts@@AEBVUnicodeString@col@@@Z@4HA 0000000074036866 f    CIL library: CIL module
 0001:00035876       ?dtor$0@?0??split_path@@YA?AUFilePathParts@@AEBVUnicodeString@col@@@Z@4HA 0000000074036876 f    CIL library: CIL module
 0001:000358a6       ?dtor$1@?0??split_path@@YA?AUFilePathParts@@AEBVUnicodeString@col@@@Z@4HA 00000000740368a6 f    CIL library: CIL module
 0001:000358b6       ?catch$0@?0??split_path@@YA?AUFilePathParts@@AEBVUnicodeString@col@@@Z@4HA 00000000740368b6 f    CIL library: CIL module
 0001:000358c3       __catch$?split_path@@YA?AUFilePathParts@@AEBVUnicodeString@col@@@Z$0 00000000740368c3 f    CIL library: CIL module
 0001:000358e3       ?dtor$0@?0??convert_path@FilePath@@AEAAXAEBVUnicodeString@col@@@Z@4HA 00000000740368e3 f    CIL library: CIL module
 0001:000358f3       ?dtor$2@?0??convert_path@FilePath@@AEAAXAEBVUnicodeString@col@@@Z@4HA 00000000740368f3 f    CIL library: CIL module
 0001:000358ff       ?dtor$0@?0??verify_hot_key@@YA_NPEAXH@Z@4HA 00000000740368ff f    CIL library: CIL module
 0001:0003590f       ?dtor$1@?0??verify_hot_key@@YA_NPEAXH@Z@4HA 000000007403690f f    CIL library: CIL module
 0001:0003591f       ?dtor$2@?0??verify_hot_key@@YA_NPEAXH@Z@4HA 000000007403691f f    CIL library: CIL module
 0001:0003592f       ?dtor$3@?0??verify_hot_key@@YA_NPEAXH@Z@4HA 000000007403692f f    CIL library: CIL module
 0001:0003593f       ?dtor$4@?0??verify_hot_key@@YA_NPEAXH@Z@4HA 000000007403693f f    CIL library: CIL module
 0001:0003594f       ?dtor$5@?0??verify_hot_key@@YA_NPEAXH@Z@4HA 000000007403694f f    CIL library: CIL module
 0001:0003595b       ?dtor$0@?0??show_log@@YAXAEBULog@@@Z@4HA 000000007403695b f    CIL library: CIL module
 0001:0003596b       ?catch$0@?0??show_log@@YAXAEBULog@@@Z@4HA 000000007403696b f    CIL library: CIL module
 0001:00035978       __catch$?show_log@@YAXAEBULog@@@Z$0 0000000074036978 f    CIL library: CIL module
 0001:0003599b       ?dtor$1@?0??show_log@@YAXAEBULog@@@Z@4HA 000000007403699b f    CIL library: CIL module
 0001:000359ab       ?catch$1@?0??show_log@@YAXAEBULog@@@Z@4HA 00000000740369ab f    CIL library: CIL module
 0001:000359b8       __catch$?show_log@@YAXAEBULog@@@Z$2 00000000740369b8 f    CIL library: CIL module
 0001:000359db       ?catch$2@?0??show_log@@YAXAEBULog@@@Z@4HA 00000000740369db f    CIL library: CIL module
 0001:000359e8       __catch$?show_log@@YAXAEBULog@@@Z$4 00000000740369e8 f    CIL library: CIL module
 0001:00035a0b       ?catch$3@?0??show_log@@YAXAEBULog@@@Z@4HA 0000000074036a0b f    CIL library: CIL module
 0001:00035a18       __catch$?show_log@@YAXAEBULog@@@Z$6 0000000074036a18 f    CIL library: CIL module
 0001:00035a3b       ?dtor$2@?0??show_log@@YAXAEBULog@@@Z@4HA 0000000074036a3b f    CIL library: CIL module
 0001:00035a4b       ?dtor$3@?0??show_log@@YAXAEBULog@@@Z@4HA 0000000074036a4b f    CIL library: CIL module
 0001:00035a5b       ?catch$4@?0??show_log@@YAXAEBULog@@@Z@4HA 0000000074036a5b f    CIL library: CIL module
 0001:00035a68       __catch$?show_log@@YAXAEBULog@@@Z$8 0000000074036a68 f    CIL library: CIL module
 0001:00035a8b       ?catch$5@?0??show_log@@YAXAEBULog@@@Z@4HA 0000000074036a8b f    CIL library: CIL module
 0001:00035a98       __catch$?show_log@@YAXAEBULog@@@Z$10 0000000074036a98 f    CIL library: CIL module
 0001:00035abb       ?dtor$9@?0??show_log@@YAXAEBULog@@@Z@4HA 0000000074036abb f    CIL library: CIL module
 0001:00035acb       ?catch$6@?0??show_log@@YAXAEBULog@@@Z@4HA 0000000074036acb f    CIL library: CIL module
 0001:00035ad8       __catch$?show_log@@YAXAEBULog@@@Z$12 0000000074036ad8 f    CIL library: CIL module
 0001:00035afb       ?catch$7@?0??show_log@@YAXAEBULog@@@Z@4HA 0000000074036afb f    CIL library: CIL module
 0001:00035b08       __catch$?show_log@@YAXAEBULog@@@Z$14 0000000074036b08 f    CIL library: CIL module
 0001:00035b16       ?dtor$0@?0??draw_text_box@@YAXAEBVUnicodeString@col@@AEBV?$ObjectArray@VUnicodeString@col@@@2@I@Z@4HA 0000000074036b16 f    CIL library: CIL module
 0001:00035b26       ?dtor$1@?0??draw_text_box@@YAXAEBVUnicodeString@col@@AEBV?$ObjectArray@VUnicodeString@col@@@2@I@Z@4HA 0000000074036b26 f    CIL library: CIL module
 0001:00035b32       ?dtor$1@?0??fit_str@@YA?AVUnicodeString@col@@AEBV12@I@Z@4HA 0000000074036b32 f    CIL library: CIL module
 0001:00035b42       ?dtor$2@?0??fit_str@@YA?AVUnicodeString@col@@AEBV12@I@Z@4HA 0000000074036b42 f    CIL library: CIL module
 0001:00035b52       ?dtor$3@?0??fit_str@@YA?AVUnicodeString@col@@AEBV12@I@Z@4HA 0000000074036b52 f    CIL library: CIL module
 0001:00035b5e       ?dtor$1@?0??panel_items_to_file_list@@YAXPEAUPluginPanelItem@@_KAEAV?$ObjectArray@UFileInfo@@@col@@@Z@4HA 0000000074036b5e f    CIL library: CIL module
 0001:00035b6e       ?dtor$0@?0??panel_items_to_file_list@@YAXPEAUPluginPanelItem@@_KAEAV?$ObjectArray@UFileInfo@@@col@@@Z@4HA 0000000074036b6e f    CIL library: CIL module
 0001:00035b7a       ?dtor$0@?0??refresh_system_info@@YAXPEAUPluginInstance@@@Z@4HA 0000000074036b7a f    CIL library: CIL module
 0001:00035b8a       ?dtor$1@?0??refresh_system_info@@YAXPEAUPluginInstance@@@Z@4HA 0000000074036b8a f    CIL library: CIL module
 0001:00035b9a       ?dtor$2@?0??refresh_system_info@@YAXPEAUPluginInstance@@@Z@4HA 0000000074036b9a f    CIL library: CIL module
 0001:00035baa       ?dtor$3@?0??refresh_system_info@@YAXPEAUPluginInstance@@@Z@4HA 0000000074036baa f    CIL library: CIL module
 0001:00035bba       ?dtor$4@?0??refresh_system_info@@YAXPEAUPluginInstance@@@Z@4HA 0000000074036bba f    CIL library: CIL module
 0001:00035bca       ?dtor$5@?0??refresh_system_info@@YAXPEAUPluginInstance@@@Z@4HA 0000000074036bca f    CIL library: CIL module
 0001:00035bda       ?dtor$6@?0??refresh_system_info@@YAXPEAUPluginInstance@@@Z@4HA 0000000074036bda f    CIL library: CIL module
 0001:00035bea       ?dtor$7@?0??refresh_system_info@@YAXPEAUPluginInstance@@@Z@4HA 0000000074036bea f    CIL library: CIL module
 0001:00035bfa       ?dtor$8@?0??refresh_system_info@@YAXPEAUPluginInstance@@@Z@4HA 0000000074036bfa f    CIL library: CIL module
 0001:00035c0a       ?dtor$9@?0??refresh_system_info@@YAXPEAUPluginInstance@@@Z@4HA 0000000074036c0a f    CIL library: CIL module
 0001:00035c1a       ?dtor$10@?0??refresh_system_info@@YAXPEAUPluginInstance@@@Z@4HA 0000000074036c1a f    CIL library: CIL module
 0001:00035c2a       ?dtor$11@?0??refresh_system_info@@YAXPEAUPluginInstance@@@Z@4HA 0000000074036c2a f    CIL library: CIL module
 0001:00035c3a       ?dtor$12@?0??refresh_system_info@@YAXPEAUPluginInstance@@@Z@4HA 0000000074036c3a f    CIL library: CIL module
 0001:00035c4a       ?dtor$13@?0??refresh_system_info@@YAXPEAUPluginInstance@@@Z@4HA 0000000074036c4a f    CIL library: CIL module
 0001:00035c5a       ?dtor$14@?0??refresh_system_info@@YAXPEAUPluginInstance@@@Z@4HA 0000000074036c5a f    CIL library: CIL module
 0001:00035c6a       ?dtor$15@?0??refresh_system_info@@YAXPEAUPluginInstance@@@Z@4HA 0000000074036c6a f    CIL library: CIL module
 0001:00035c7a       ?dtor$16@?0??refresh_system_info@@YAXPEAUPluginInstance@@@Z@4HA 0000000074036c7a f    CIL library: CIL module
 0001:00035c8a       ?dtor$17@?0??refresh_system_info@@YAXPEAUPluginInstance@@@Z@4HA 0000000074036c8a f    CIL library: CIL module
 0001:00035c9a       ?dtor$18@?0??refresh_system_info@@YAXPEAUPluginInstance@@@Z@4HA 0000000074036c9a f    CIL library: CIL module
 0001:00035caa       ?dtor$19@?0??refresh_system_info@@YAXPEAUPluginInstance@@@Z@4HA 0000000074036caa f    CIL library: CIL module
 0001:00035cba       ?dtor$20@?0??refresh_system_info@@YAXPEAUPluginInstance@@@Z@4HA 0000000074036cba f    CIL library: CIL module
 0001:00035cca       ?dtor$21@?0??refresh_system_info@@YAXPEAUPluginInstance@@@Z@4HA 0000000074036cca f    CIL library: CIL module
 0001:00035cda       ?dtor$22@?0??refresh_system_info@@YAXPEAUPluginInstance@@@Z@4HA 0000000074036cda f    CIL library: CIL module
 0001:00035cea       ?catch$0@?0??refresh_system_info@@YAXPEAUPluginInstance@@@Z@4HA 0000000074036cea f    CIL library: CIL module
 0001:00035cf7       __catch$?refresh_system_info@@YAXPEAUPluginInstance@@@Z$0 0000000074036cf7 f    CIL library: CIL module
 0001:00035d1a       ?catch$1@?0??refresh_system_info@@YAXPEAUPluginInstance@@@Z@4HA 0000000074036d1a f    CIL library: CIL module
 0001:00035d27       __catch$?refresh_system_info@@YAXPEAUPluginInstance@@@Z$2 0000000074036d27 f    CIL library: CIL module
 0001:00035d4a       ?dtor$23@?0??refresh_system_info@@YAXPEAUPluginInstance@@@Z@4HA 0000000074036d4a f    CIL library: CIL module
 0001:00035d5a       ?catch$2@?0??refresh_system_info@@YAXPEAUPluginInstance@@@Z@4HA 0000000074036d5a f    CIL library: CIL module
 0001:00035d67       __catch$?refresh_system_info@@YAXPEAUPluginInstance@@@Z$4 0000000074036d67 f    CIL library: CIL module
 0001:00035d9a       ?dtor$24@?0??refresh_system_info@@YAXPEAUPluginInstance@@@Z@4HA 0000000074036d9a f    CIL library: CIL module
 0001:00035dca       ?dtor$25@?0??refresh_system_info@@YAXPEAUPluginInstance@@@Z@4HA 0000000074036dca f    CIL library: CIL module
 0001:00035dfa       ?dtor$26@?0??refresh_system_info@@YAXPEAUPluginInstance@@@Z@4HA 0000000074036dfa f    CIL library: CIL module
 0001:00035e0a       ?dtor$27@?0??refresh_system_info@@YAXPEAUPluginInstance@@@Z@4HA 0000000074036e0a f    CIL library: CIL module
 0001:00035e1a       ?dtor$28@?0??refresh_system_info@@YAXPEAUPluginInstance@@@Z@4HA 0000000074036e1a f    CIL library: CIL module
 0001:00035e2a       ?dtor$29@?0??refresh_system_info@@YAXPEAUPluginInstance@@@Z@4HA 0000000074036e2a f    CIL library: CIL module
 0001:00035e3a       ?dtor$30@?0??refresh_system_info@@YAXPEAUPluginInstance@@@Z@4HA 0000000074036e3a f    CIL library: CIL module
 0001:00035e4a       ?dtor$31@?0??refresh_system_info@@YAXPEAUPluginInstance@@@Z@4HA 0000000074036e4a f    CIL library: CIL module
 0001:00035e5a       ?dtor$32@?0??refresh_system_info@@YAXPEAUPluginInstance@@@Z@4HA 0000000074036e5a f    CIL library: CIL module
 0001:00035e6a       ?dtor$33@?0??refresh_system_info@@YAXPEAUPluginInstance@@@Z@4HA 0000000074036e6a f    CIL library: CIL module
 0001:00035e7a       ?dtor$34@?0??refresh_system_info@@YAXPEAUPluginInstance@@@Z@4HA 0000000074036e7a f    CIL library: CIL module
 0001:00035e8a       ?dtor$35@?0??refresh_system_info@@YAXPEAUPluginInstance@@@Z@4HA 0000000074036e8a f    CIL library: CIL module
 0001:00035e9a       ?dtor$36@?0??refresh_system_info@@YAXPEAUPluginInstance@@@Z@4HA 0000000074036e9a f    CIL library: CIL module
 0001:00035eaa       ?dtor$37@?0??refresh_system_info@@YAXPEAUPluginInstance@@@Z@4HA 0000000074036eaa f    CIL library: CIL module
 0001:00035eba       ?dtor$41@?0??refresh_system_info@@YAXPEAUPluginInstance@@@Z@4HA 0000000074036eba f    CIL library: CIL module
 0001:00035eca       ?dtor$42@?0??refresh_system_info@@YAXPEAUPluginInstance@@@Z@4HA 0000000074036eca f    CIL library: CIL module
 0001:00035eda       ?dtor$43@?0??refresh_system_info@@YAXPEAUPluginInstance@@@Z@4HA 0000000074036eda f    CIL library: CIL module
 0001:00035eea       ?dtor$44@?0??refresh_system_info@@YAXPEAUPluginInstance@@@Z@4HA 0000000074036eea f    CIL library: CIL module
 0001:00035efa       ?dtor$45@?0??refresh_system_info@@YAXPEAUPluginInstance@@@Z@4HA 0000000074036efa f    CIL library: CIL module
 0001:00035f0a       ?dtor$46@?0??refresh_system_info@@YAXPEAUPluginInstance@@@Z@4HA 0000000074036f0a f    CIL library: CIL module
 0001:00035f1a       ?dtor$47@?0??refresh_system_info@@YAXPEAUPluginInstance@@@Z@4HA 0000000074036f1a f    CIL library: CIL module
 0001:00035f26       ?dtor$0@?0??find_real_file_path@@YAXAEAVFilePath@@PEAUIRAPISession@@@Z@4HA 0000000074036f26 f    CIL library: CIL module
 0001:00035f56       ?dtor$1@?0??find_real_file_path@@YAXAEAVFilePath@@PEAUIRAPISession@@@Z@4HA 0000000074036f56 f    CIL library: CIL module
 0001:00035f7c       ?catch$0@?0??get_device_list@@YAXAEAV?$ObjectArray@UDeviceInfo@@@col@@@Z@4HA 0000000074036f7c f    CIL library: CIL module
 0001:00035f89       __catch$?get_device_list@@YAXAEAV?$ObjectArray@UDeviceInfo@@@col@@@Z$0 0000000074036f89 f    CIL library: CIL module
 0001:00035fac       ?catch$1@?0??get_device_list@@YAXAEAV?$ObjectArray@UDeviceInfo@@@col@@@Z@4HA 0000000074036fac f    CIL library: CIL module
 0001:00035fb9       __catch$?get_device_list@@YAXAEAV?$ObjectArray@UDeviceInfo@@@col@@@Z$2 0000000074036fb9 f    CIL library: CIL module
 0001:00035fdc       ?dtor$2@?0??get_device_list@@YAXAEAV?$ObjectArray@UDeviceInfo@@@col@@@Z@4HA 0000000074036fdc f    CIL library: CIL module
 0001:00035fec       ?dtor$3@?0??get_device_list@@YAXAEAV?$ObjectArray@UDeviceInfo@@@col@@@Z@4HA 0000000074036fec f    CIL library: CIL module
 0001:00035ffc       ?dtor$0@?0??get_device_list@@YAXAEAV?$ObjectArray@UDeviceInfo@@@col@@@Z@4HA 0000000074036ffc f    CIL library: CIL module
 0001:0003600c       ?catch$2@?0??get_device_list@@YAXAEAV?$ObjectArray@UDeviceInfo@@@col@@@Z@4HA 000000007403700c f    CIL library: CIL module
 0001:00036019       __catch$?get_device_list@@YAXAEAV?$ObjectArray@UDeviceInfo@@@col@@@Z$4 0000000074037019 f    CIL library: CIL module
 0001:0003603c       ?catch$3@?0??get_device_list@@YAXAEAV?$ObjectArray@UDeviceInfo@@@col@@@Z@4HA 000000007403703c f    CIL library: CIL module
 0001:00036049       __catch$?get_device_list@@YAXAEAV?$ObjectArray@UDeviceInfo@@@col@@@Z$6 0000000074037049 f    CIL library: CIL module
 0001:0003606c       ?catch$4@?0??get_device_list@@YAXAEAV?$ObjectArray@UDeviceInfo@@@col@@@Z@4HA 000000007403706c f    CIL library: CIL module
 0001:00036079       __catch$?get_device_list@@YAXAEAV?$ObjectArray@UDeviceInfo@@@col@@@Z$8 0000000074037079 f    CIL library: CIL module
 0001:0003609c       ?catch$6@?0??get_device_list@@YAXAEAV?$ObjectArray@UDeviceInfo@@@col@@@Z@4HA 000000007403709c f    CIL library: CIL module
 0001:000360a9       __catch$?get_device_list@@YAXAEAV?$ObjectArray@UDeviceInfo@@@col@@@Z$10 00000000740370a9 f    CIL library: CIL module
 0001:000360dc       ?catch$5@?0??get_device_list@@YAXAEAV?$ObjectArray@UDeviceInfo@@@col@@@Z@4HA 00000000740370dc f    CIL library: CIL module
 0001:000360e9       __catch$?get_device_list@@YAXAEAV?$ObjectArray@UDeviceInfo@@@col@@@Z$12 00000000740370e9 f    CIL library: CIL module
 0001:0003610c       ?catch$7@?0??get_device_list@@YAXAEAV?$ObjectArray@UDeviceInfo@@@col@@@Z@4HA 000000007403710c f    CIL library: CIL module
 0001:00036119       __catch$?get_device_list@@YAXAEAV?$ObjectArray@UDeviceInfo@@@col@@@Z$14 0000000074037119 f    CIL library: CIL module
 0001:0003613c       ?catch$8@?0??get_device_list@@YAXAEAV?$ObjectArray@UDeviceInfo@@@col@@@Z@4HA 000000007403713c f    CIL library: CIL module
 0001:00036149       __catch$?get_device_list@@YAXAEAV?$ObjectArray@UDeviceInfo@@@col@@@Z$16 0000000074037149 f    CIL library: CIL module
 0001:0003616c       ?dtor$5@?0??get_device_list@@YAXAEAV?$ObjectArray@UDeviceInfo@@@col@@@Z@4HA 000000007403716c f    CIL library: CIL module
 0001:0003617c       ?dtor$6@?0??get_device_list@@YAXAEAV?$ObjectArray@UDeviceInfo@@@col@@@Z@4HA 000000007403717c f    CIL library: CIL module
 0001:0003618c       ?dtor$1@?0??get_device_list@@YAXAEAV?$ObjectArray@UDeviceInfo@@@col@@@Z@4HA 000000007403718c f    CIL library: CIL module
 0001:00036198       ?dtor$0@?0??error_dlg@@YA_JAEAVError@@AEBVUnicodeString@col@@@Z@4HA 0000000074037198 f    CIL library: CIL module
 0001:000361a8       ?dtor$1@?0??error_dlg@@YA_JAEAVError@@AEBVUnicodeString@col@@@Z@4HA 00000000740371a8 f    CIL library: CIL module
 0001:000361b8       ?dtor$2@?0??error_dlg@@YA_JAEAVError@@AEBVUnicodeString@col@@@Z@4HA 00000000740371b8 f    CIL library: CIL module
 0001:000361c8       ?dtor$3@?0??error_dlg@@YA_JAEAVError@@AEBVUnicodeString@col@@@Z@4HA 00000000740371c8 f    CIL library: CIL module
 0001:000361d8       ?dtor$4@?0??error_dlg@@YA_JAEAVError@@AEBVUnicodeString@col@@@Z@4HA 00000000740371d8 f    CIL library: CIL module
 0001:000361e8       ?dtor$5@?0??error_dlg@@YA_JAEAVError@@AEBVUnicodeString@col@@@Z@4HA 00000000740371e8 f    CIL library: CIL module
 0001:000361f8       ?dtor$6@?0??error_dlg@@YA_JAEAVError@@AEBVUnicodeString@col@@@Z@4HA 00000000740371f8 f    CIL library: CIL module
 0001:00036208       ?dtor$7@?0??error_dlg@@YA_JAEAVError@@AEBVUnicodeString@col@@@Z@4HA 0000000074037208 f    CIL library: CIL module
 0001:00036218       ?dtor$8@?0??error_dlg@@YA_JAEAVError@@AEBVUnicodeString@col@@@Z@4HA 0000000074037218 f    CIL library: CIL module
 0001:00036228       ?dtor$9@?0??error_dlg@@YA_JAEAVError@@AEBVUnicodeString@col@@@Z@4HA 0000000074037228 f    CIL library: CIL module
 0001:00036238       ?dtor$10@?0??error_dlg@@YA_JAEAVError@@AEBVUnicodeString@col@@@Z@4HA 0000000074037238 f    CIL library: CIL module
 0001:00036248       ?dtor$11@?0??error_dlg@@YA_JAEAVError@@AEBVUnicodeString@col@@@Z@4HA 0000000074037248 f    CIL library: CIL module
 0001:00036254       ?dtor$0@?0??message@ComError@@UEBA?AVUnicodeString@col@@XZ@4HA 0000000074037254 f    CIL library: CIL module
 0001:00036264       ?dtor$1@?0??message@ComError@@UEBA?AVUnicodeString@col@@XZ@4HA 0000000074037264 f    CIL library: CIL module
 0001:00036270       ?catch$0@?0??replace@?$ObjectArray@UFilterInterface@@@col@@QEAAAEAV12@IIPEBUFilterInterface@@I@Z@4HA 0000000074037270 f    CIL library: CIL module
 0001:00036280       __catch$?replace@?$ObjectArray@UFilterInterface@@@col@@QEAAAEAV12@IIPEBUFilterInterface@@I@Z$0 0000000074037280 f    CIL library: CIL module
 0001:000362d0       ?catch$1@?0??replace@?$ObjectArray@UFilterInterface@@@col@@QEAAAEAV12@IIPEBUFilterInterface@@I@Z@4HA 00000000740372d0 f    CIL library: CIL module
 0001:000362e2       __catch$?replace@?$ObjectArray@UFilterInterface@@@col@@QEAAAEAV12@IIPEBUFilterInterface@@I@Z$2 00000000740372e2 f    CIL library: CIL module
 0001:0003635f       GetPluginInfoW$dtor$0      000000007403735f f    CIL library: CIL module
 0001:0003636f       GetPluginInfoW$catch$0     000000007403736f f    CIL library: CIL module
 0001:0003637c       __catch$GetPluginInfoW$0   000000007403737c f    CIL library: CIL module
 0001:000363a5       ?dtor$0@?0??error_dlg@@YAXAEAVCustomError@@@Z@4HA 00000000740373a5 f    CIL library: CIL module
 0001:000363b5       ?dtor$1@?0??error_dlg@@YAXAEAVCustomError@@@Z@4HA 00000000740373b5 f    CIL library: CIL module
 0001:000363c5       ?dtor$3@?0??error_dlg@@YAXAEAVCustomError@@@Z@4HA 00000000740373c5 f    CIL library: CIL module
 0001:000363d5       ?dtor$4@?0??error_dlg@@YAXAEAVCustomError@@@Z@4HA 00000000740373d5 f    CIL library: CIL module
 0001:000363e5       ?dtor$6@?0??error_dlg@@YAXAEAVCustomError@@@Z@4HA 00000000740373e5 f    CIL library: CIL module
 0001:000363f5       ?dtor$7@?0??error_dlg@@YAXAEAVCustomError@@@Z@4HA 00000000740373f5 f    CIL library: CIL module
 0001:00036405       ?dtor$8@?0??error_dlg@@YAXAEAVCustomError@@@Z@4HA 0000000074037405 f    CIL library: CIL module
 0001:00036415       ?dtor$9@?0??error_dlg@@YAXAEAVCustomError@@@Z@4HA 0000000074037415 f    CIL library: CIL module
 0001:00036425       ?dtor$10@?0??error_dlg@@YAXAEAVCustomError@@@Z@4HA 0000000074037425 f    CIL library: CIL module
 0001:00036431       ?dtor$2@?0??convert_file@@YAXPEAUICeFileFilter@@AEBVUnicodeString@col@@1_N@Z@4HA 0000000074037431 f    CIL library: CIL module
 0001:00036441       ?dtor$3@?0??convert_file@@YAXPEAUICeFileFilter@@AEBVUnicodeString@col@@1_N@Z@4HA 0000000074037441 f    CIL library: CIL module
 0001:00036451       ?dtor$5@?0??convert_file@@YAXPEAUICeFileFilter@@AEBVUnicodeString@col@@1_N@Z@4HA 0000000074037451 f    CIL library: CIL module
 0001:00036461       ?dtor$8@?0??convert_file@@YAXPEAUICeFileFilter@@AEBVUnicodeString@col@@1_N@Z@4HA 0000000074037461 f    CIL library: CIL module
 0001:00036471       ?dtor$11@?0??convert_file@@YAXPEAUICeFileFilter@@AEBVUnicodeString@col@@1_N@Z@4HA 0000000074037471 f    CIL library: CIL module
 0001:00036481       ?dtor$14@?0??convert_file@@YAXPEAUICeFileFilter@@AEBVUnicodeString@col@@1_N@Z@4HA 0000000074037481 f    CIL library: CIL module
 0001:00036491       ?catch$0@?0??convert_file@@YAXPEAUICeFileFilter@@AEBVUnicodeString@col@@1_N@Z@4HA 0000000074037491 f    CIL library: CIL module
 0001:0003649e       __catch$?convert_file@@YAXPEAUICeFileFilter@@AEBVUnicodeString@col@@1_N@Z$0 000000007403749e f    CIL library: CIL module
 0001:000364c1       ?dtor$16@?0??convert_file@@YAXPEAUICeFileFilter@@AEBVUnicodeString@col@@1_N@Z@4HA 00000000740374c1 f    CIL library: CIL module
 0001:000364d1       ?dtor$18@?0??convert_file@@YAXPEAUICeFileFilter@@AEBVUnicodeString@col@@1_N@Z@4HA 00000000740374d1 f    CIL library: CIL module
 0001:000364e1       ?dtor$21@?0??convert_file@@YAXPEAUICeFileFilter@@AEBVUnicodeString@col@@1_N@Z@4HA 00000000740374e1 f    CIL library: CIL module
 0001:000364f1       ?dtor$24@?0??convert_file@@YAXPEAUICeFileFilter@@AEBVUnicodeString@col@@1_N@Z@4HA 00000000740374f1 f    CIL library: CIL module
 0001:00036501       ?dtor$27@?0??convert_file@@YAXPEAUICeFileFilter@@AEBVUnicodeString@col@@1_N@Z@4HA 0000000074037501 f    CIL library: CIL module
 0001:00036511       ?dtor$29@?0??convert_file@@YAXPEAUICeFileFilter@@AEBVUnicodeString@col@@1_N@Z@4HA 0000000074037511 f    CIL library: CIL module
 0001:00036521       ?dtor$30@?0??convert_file@@YAXPEAUICeFileFilter@@AEBVUnicodeString@col@@1_N@Z@4HA 0000000074037521 f    CIL library: CIL module
 0001:00036531       ?dtor$31@?0??convert_file@@YAXPEAUICeFileFilter@@AEBVUnicodeString@col@@1_N@Z@4HA 0000000074037531 f    CIL library: CIL module
 0001:00036541       ?catch$1@?0??convert_file@@YAXPEAUICeFileFilter@@AEBVUnicodeString@col@@1_N@Z@4HA 0000000074037541 f    CIL library: CIL module
 0001:0003654e       __catch$?convert_file@@YAXPEAUICeFileFilter@@AEBVUnicodeString@col@@1_N@Z$2 000000007403754e f    CIL library: CIL module
 0001:00036571       ?catch$2@?0??convert_file@@YAXPEAUICeFileFilter@@AEBVUnicodeString@col@@1_N@Z@4HA 0000000074037571 f    CIL library: CIL module
 0001:0003657e       __catch$?convert_file@@YAXPEAUICeFileFilter@@AEBVUnicodeString@col@@1_N@Z$4 000000007403757e f    CIL library: CIL module
 0001:000365a1       ?catch$3@?0??convert_file@@YAXPEAUICeFileFilter@@AEBVUnicodeString@col@@1_N@Z@4HA 00000000740375a1 f    CIL library: CIL module
 0001:000365ae       __catch$?convert_file@@YAXPEAUICeFileFilter@@AEBVUnicodeString@col@@1_N@Z$6 00000000740375ae f    CIL library: CIL module
 0001:000365d1       ?dtor$0@?0??load_file_filters@@YAXPEAUHKEY__@@@Z@4HA 00000000740375d1 f    CIL library: CIL module
 0001:000365e1       ?catch$0@?0??load_file_filters@@YAXPEAUHKEY__@@@Z@4HA 00000000740375e1 f    CIL library: CIL module
 0001:000365ee       __catch$?load_file_filters@@YAXPEAUHKEY__@@@Z$0 00000000740375ee f    CIL library: CIL module
 0001:00036611       ?dtor$18@?0??load_file_filters@@YAXPEAUHKEY__@@@Z@4HA 0000000074037611 f    CIL library: CIL module
 0001:00036621       ?dtor$1@?0??load_file_filters@@YAXPEAUHKEY__@@@Z@4HA 0000000074037621 f    CIL library: CIL module
 0001:00036631       ?dtor$20@?0??load_file_filters@@YAXPEAUHKEY__@@@Z@4HA 0000000074037631 f    CIL library: CIL module
 0001:00036641       ?dtor$2@?0??load_file_filters@@YAXPEAUHKEY__@@@Z@4HA 0000000074037641 f    CIL library: CIL module
 0001:00036651       ?catch$1@?0??load_file_filters@@YAXPEAUHKEY__@@@Z@4HA 0000000074037651 f    CIL library: CIL module
 0001:0003665e       __catch$?load_file_filters@@YAXPEAUHKEY__@@@Z$2 000000007403765e f    CIL library: CIL module
 0001:00036681       ?dtor$4@?0??load_file_filters@@YAXPEAUHKEY__@@@Z@4HA 0000000074037681 f    CIL library: CIL module
 0001:00036691       ?dtor$5@?0??load_file_filters@@YAXPEAUHKEY__@@@Z@4HA 0000000074037691 f    CIL library: CIL module
 0001:000366a1       ?dtor$6@?0??load_file_filters@@YAXPEAUHKEY__@@@Z@4HA 00000000740376a1 f    CIL library: CIL module
 0001:000366b1       ?dtor$7@?0??load_file_filters@@YAXPEAUHKEY__@@@Z@4HA 00000000740376b1 f    CIL library: CIL module
 0001:000366c1       ?dtor$8@?0??load_file_filters@@YAXPEAUHKEY__@@@Z@4HA 00000000740376c1 f    CIL library: CIL module
 0001:000366d1       ?dtor$9@?0??load_file_filters@@YAXPEAUHKEY__@@@Z@4HA 00000000740376d1 f    CIL library: CIL module
 0001:000366e1       ?catch$2@?0??load_file_filters@@YAXPEAUHKEY__@@@Z@4HA 00000000740376e1 f    CIL library: CIL module
 0001:000366ee       __catch$?load_file_filters@@YAXPEAUHKEY__@@@Z$4 00000000740376ee f    CIL library: CIL module
 0001:00036711       ?dtor$22@?0??load_file_filters@@YAXPEAUHKEY__@@@Z@4HA 0000000074037711 f    CIL library: CIL module
 0001:00036721       ?dtor$23@?0??load_file_filters@@YAXPEAUHKEY__@@@Z@4HA 0000000074037721 f    CIL library: CIL module
 0001:00036731       ?dtor$10@?0??load_file_filters@@YAXPEAUHKEY__@@@Z@4HA 0000000074037731 f    CIL library: CIL module
 0001:00036741       ?catch$3@?0??load_file_filters@@YAXPEAUHKEY__@@@Z@4HA 0000000074037741 f    CIL library: CIL module
 0001:0003674e       __catch$?load_file_filters@@YAXPEAUHKEY__@@@Z$6 000000007403774e f    CIL library: CIL module
 0001:00036771       ?dtor$11@?0??load_file_filters@@YAXPEAUHKEY__@@@Z@4HA 0000000074037771 f    CIL library: CIL module
 0001:00036781       ?catch$4@?0??load_file_filters@@YAXPEAUHKEY__@@@Z@4HA 0000000074037781 f    CIL library: CIL module
 0001:0003678e       __catch$?load_file_filters@@YAXPEAUHKEY__@@@Z$8 000000007403778e f    CIL library: CIL module
 0001:000367b1       ?dtor$13@?0??load_file_filters@@YAXPEAUHKEY__@@@Z@4HA 00000000740377b1 f    CIL library: CIL module
 0001:000367c1       ?dtor$14@?0??load_file_filters@@YAXPEAUHKEY__@@@Z@4HA 00000000740377c1 f    CIL library: CIL module
 0001:000367d1       ?dtor$16@?0??load_file_filters@@YAXPEAUHKEY__@@@Z@4HA 00000000740377d1 f    CIL library: CIL module
 0001:000367e1       ?catch$5@?0??load_file_filters@@YAXPEAUHKEY__@@@Z@4HA 00000000740377e1 f    CIL library: CIL module
 0001:000367ee       __catch$?load_file_filters@@YAXPEAUHKEY__@@@Z$10 00000000740377ee f    CIL library: CIL module
 0001:00036811       ?catch$6@?0??load_file_filters@@YAXPEAUHKEY__@@@Z@4HA 0000000074037811 f    CIL library: CIL module
 0001:0003681e       __catch$?load_file_filters@@YAXPEAUHKEY__@@@Z$12 000000007403781e f    CIL library: CIL module
 0001:00036841       ?catch$7@?0??load_file_filters@@YAXPEAUHKEY__@@@Z@4HA 0000000074037841 f    CIL library: CIL module
 0001:0003684e       __catch$?load_file_filters@@YAXPEAUHKEY__@@@Z$14 000000007403784e f    CIL library: CIL module
 0001:00036862       ?dtor$0@?0??get_str@Options@@QEAA?AVUnicodeString@col@@_KPEB_WAEBV23@@Z@4HA 0000000074037862 f    CIL library: CIL module
 0001:0003686e       ?dtor$2@?0??combo_box@FarDialog@@QEAAIAEBV?$ObjectArray@VUnicodeString@col@@@col@@IIK@Z@4HA 000000007403786e f    CIL library: CIL module
 0001:0003687e       ?dtor$0@?0??combo_box@FarDialog@@QEAAIAEBV?$ObjectArray@VUnicodeString@col@@@col@@IIK@Z@4HA 000000007403787e f    CIL library: CIL module
 0001:0003688e       ?dtor$1@?0??combo_box@FarDialog@@QEAAIAEBV?$ObjectArray@VUnicodeString@col@@@col@@IIK@Z@4HA 000000007403788e f    CIL library: CIL module
 0001:0003689a       ?dtor$0@?0???0FarDialog@@QEAA@AEBU_GUID@@AEBVUnicodeString@col@@I@Z@4HA 000000007403789a f    CIL library: CIL module
 0001:000368aa       ?dtor$1@?0???0FarDialog@@QEAA@AEBU_GUID@@AEBVUnicodeString@col@@I@Z@4HA 00000000740378aa f    CIL library: CIL module
 0001:000368ba       ?dtor$2@?0???0FarDialog@@QEAA@AEBU_GUID@@AEBVUnicodeString@col@@I@Z@4HA 00000000740378ba f    CIL library: CIL module
 0001:000368ca       ?dtor$13@?0??show_filters_dlg@@YA_NAEBV?$ObjectArray@UFileFilters@@@col@@AEAV?$Array@UFilterSelection@@@2@@Z@4HA 00000000740378ca f    CIL library: CIL module
 0001:000368da       ?dtor$0@?0??show_filters_dlg@@YA_NAEBV?$ObjectArray@UFileFilters@@@col@@AEAV?$Array@UFilterSelection@@@2@@Z@4HA 00000000740378da f    CIL library: CIL module
 0001:000368ea       ?dtor$1@?0??show_filters_dlg@@YA_NAEBV?$ObjectArray@UFileFilters@@@col@@AEAV?$Array@UFilterSelection@@@2@@Z@4HA 00000000740378ea f    CIL library: CIL module
 0001:000368fa       ?dtor$2@?0??show_filters_dlg@@YA_NAEBV?$ObjectArray@UFileFilters@@@col@@AEAV?$Array@UFilterSelection@@@2@@Z@4HA 00000000740378fa f    CIL library: CIL module
 0001:0003690a       ?dtor$3@?0??show_filters_dlg@@YA_NAEBV?$ObjectArray@UFileFilters@@@col@@AEAV?$Array@UFilterSelection@@@2@@Z@4HA 000000007403790a f    CIL library: CIL module
 0001:0003691a       ?dtor$4@?0??show_filters_dlg@@YA_NAEBV?$ObjectArray@UFileFilters@@@col@@AEAV?$Array@UFilterSelection@@@2@@Z@4HA 000000007403791a f    CIL library: CIL module
 0001:0003692a       ?dtor$5@?0??show_filters_dlg@@YA_NAEBV?$ObjectArray@UFileFilters@@@col@@AEAV?$Array@UFilterSelection@@@2@@Z@4HA 000000007403792a f    CIL library: CIL module
 0001:0003693a       ?dtor$6@?0??show_filters_dlg@@YA_NAEBV?$ObjectArray@UFileFilters@@@col@@AEAV?$Array@UFilterSelection@@@2@@Z@4HA 000000007403793a f    CIL library: CIL module
 0001:0003694a       ?dtor$7@?0??show_filters_dlg@@YA_NAEBV?$ObjectArray@UFileFilters@@@col@@AEAV?$Array@UFilterSelection@@@2@@Z@4HA 000000007403794a f    CIL library: CIL module
 0001:0003695a       ?dtor$8@?0??show_filters_dlg@@YA_NAEBV?$ObjectArray@UFileFilters@@@col@@AEAV?$Array@UFilterSelection@@@2@@Z@4HA 000000007403795a f    CIL library: CIL module
 0001:0003696a       ?dtor$9@?0??show_filters_dlg@@YA_NAEBV?$ObjectArray@UFileFilters@@@col@@AEAV?$Array@UFilterSelection@@@2@@Z@4HA 000000007403796a f    CIL library: CIL module
 0001:0003697a       ?dtor$10@?0??show_filters_dlg@@YA_NAEBV?$ObjectArray@UFileFilters@@@col@@AEAV?$Array@UFilterSelection@@@2@@Z@4HA 000000007403797a f    CIL library: CIL module
 0001:0003698a       ?dtor$11@?0??show_filters_dlg@@YA_NAEBV?$ObjectArray@UFileFilters@@@col@@AEAV?$Array@UFilterSelection@@@2@@Z@4HA 000000007403798a f    CIL library: CIL module
 0001:0003699a       ?dtor$12@?0??show_filters_dlg@@YA_NAEBV?$ObjectArray@UFileFilters@@@col@@AEAV?$Array@UFilterSelection@@@2@@Z@4HA 000000007403799a f    CIL library: CIL module
 0001:000369a6       ?dtor$0@?0??show_file_attr_dlg@@YA_NAEAUFileAttrOptions@@@Z@4HA 00000000740379a6 f    CIL library: CIL module
 0001:000369b6       ?dtor$1@?0??show_file_attr_dlg@@YA_NAEAUFileAttrOptions@@@Z@4HA 00000000740379b6 f    CIL library: CIL module
 0001:000369c6       ?dtor$2@?0??show_file_attr_dlg@@YA_NAEAUFileAttrOptions@@@Z@4HA 00000000740379c6 f    CIL library: CIL module
 0001:000369d6       ?dtor$3@?0??show_file_attr_dlg@@YA_NAEAUFileAttrOptions@@@Z@4HA 00000000740379d6 f    CIL library: CIL module
 0001:000369e6       ?dtor$4@?0??show_file_attr_dlg@@YA_NAEAUFileAttrOptions@@@Z@4HA 00000000740379e6 f    CIL library: CIL module
 0001:000369f6       ?dtor$5@?0??show_file_attr_dlg@@YA_NAEAUFileAttrOptions@@@Z@4HA 00000000740379f6 f    CIL library: CIL module
 0001:00036a06       ?dtor$6@?0??show_file_attr_dlg@@YA_NAEAUFileAttrOptions@@@Z@4HA 0000000074037a06 f    CIL library: CIL module
 0001:00036a16       ?dtor$7@?0??show_file_attr_dlg@@YA_NAEAUFileAttrOptions@@@Z@4HA 0000000074037a16 f    CIL library: CIL module
 0001:00036a26       ?dtor$8@?0??show_file_attr_dlg@@YA_NAEAUFileAttrOptions@@@Z@4HA 0000000074037a26 f    CIL library: CIL module
 0001:00036a36       ?dtor$9@?0??show_file_attr_dlg@@YA_NAEAUFileAttrOptions@@@Z@4HA 0000000074037a36 f    CIL library: CIL module
 0001:00036a46       ?dtor$10@?0??show_file_attr_dlg@@YA_NAEAUFileAttrOptions@@@Z@4HA 0000000074037a46 f    CIL library: CIL module
 0001:00036a56       ?dtor$11@?0??show_file_attr_dlg@@YA_NAEAUFileAttrOptions@@@Z@4HA 0000000074037a56 f    CIL library: CIL module
 0001:00036a66       ?dtor$12@?0??show_file_attr_dlg@@YA_NAEAUFileAttrOptions@@@Z@4HA 0000000074037a66 f    CIL library: CIL module
 0001:00036a76       ?dtor$13@?0??show_file_attr_dlg@@YA_NAEAUFileAttrOptions@@@Z@4HA 0000000074037a76 f    CIL library: CIL module
 0001:00036a86       ?dtor$14@?0??show_file_attr_dlg@@YA_NAEAUFileAttrOptions@@@Z@4HA 0000000074037a86 f    CIL library: CIL module
 0001:00036a92       ?dtor$0@?0??show_def_option_values_dlg@@YA_NAEAUPluginOptions@@@Z@4HA 0000000074037a92 f    CIL library: CIL module
 0001:00036aa2       ?dtor$1@?0??show_def_option_values_dlg@@YA_NAEAUPluginOptions@@@Z@4HA 0000000074037aa2 f    CIL library: CIL module
 0001:00036ab2       ?dtor$2@?0??show_def_option_values_dlg@@YA_NAEAUPluginOptions@@@Z@4HA 0000000074037ab2 f    CIL library: CIL module
 0001:00036ac2       ?dtor$3@?0??show_def_option_values_dlg@@YA_NAEAUPluginOptions@@@Z@4HA 0000000074037ac2 f    CIL library: CIL module
 0001:00036ad2       ?dtor$4@?0??show_def_option_values_dlg@@YA_NAEAUPluginOptions@@@Z@4HA 0000000074037ad2 f    CIL library: CIL module
 0001:00036ae2       ?dtor$5@?0??show_def_option_values_dlg@@YA_NAEAUPluginOptions@@@Z@4HA 0000000074037ae2 f    CIL library: CIL module
 0001:00036af2       ?dtor$6@?0??show_def_option_values_dlg@@YA_NAEAUPluginOptions@@@Z@4HA 0000000074037af2 f    CIL library: CIL module
 0001:00036b02       ?dtor$7@?0??show_def_option_values_dlg@@YA_NAEAUPluginOptions@@@Z@4HA 0000000074037b02 f    CIL library: CIL module
 0001:00036b12       ?dtor$8@?0??show_def_option_values_dlg@@YA_NAEAUPluginOptions@@@Z@4HA 0000000074037b12 f    CIL library: CIL module
 0001:00036b22       ?dtor$9@?0??show_def_option_values_dlg@@YA_NAEAUPluginOptions@@@Z@4HA 0000000074037b22 f    CIL library: CIL module
 0001:00036b32       ?dtor$10@?0??show_def_option_values_dlg@@YA_NAEAUPluginOptions@@@Z@4HA 0000000074037b32 f    CIL library: CIL module
 0001:00036b42       ?dtor$11@?0??show_def_option_values_dlg@@YA_NAEAUPluginOptions@@@Z@4HA 0000000074037b42 f    CIL library: CIL module
 0001:00036b52       ?dtor$12@?0??show_def_option_values_dlg@@YA_NAEAUPluginOptions@@@Z@4HA 0000000074037b52 f    CIL library: CIL module
 0001:00036b62       ?dtor$13@?0??show_def_option_values_dlg@@YA_NAEAUPluginOptions@@@Z@4HA 0000000074037b62 f    CIL library: CIL module
 0001:00036b72       ?dtor$14@?0??show_def_option_values_dlg@@YA_NAEAUPluginOptions@@@Z@4HA 0000000074037b72 f    CIL library: CIL module
 0001:00036b7e       ?dtor$0@?0??show_run_dlg@@YA_NAEAURunOptions@@@Z@4HA 0000000074037b7e f    CIL library: CIL module
 0001:00036b7e       ?dtor$0@?0??show_create_dir_dlg@@YA_NAEAUCreateDirOptions@@@Z@4HA 0000000074037b7e f    CIL library: CIL module
 0001:00036b8e       ?dtor$1@?0??show_run_dlg@@YA_NAEAURunOptions@@@Z@4HA 0000000074037b8e f    CIL library: CIL module
 0001:00036b8e       ?dtor$1@?0??show_create_dir_dlg@@YA_NAEAUCreateDirOptions@@@Z@4HA 0000000074037b8e f    CIL library: CIL module
 0001:00036b9e       ?dtor$2@?0??show_run_dlg@@YA_NAEAURunOptions@@@Z@4HA 0000000074037b9e f    CIL library: CIL module
 0001:00036b9e       ?dtor$2@?0??show_create_dir_dlg@@YA_NAEAUCreateDirOptions@@@Z@4HA 0000000074037b9e f    CIL library: CIL module
 0001:00036bae       ?dtor$3@?0??show_run_dlg@@YA_NAEAURunOptions@@@Z@4HA 0000000074037bae f    CIL library: CIL module
 0001:00036bae       ?dtor$3@?0??show_create_dir_dlg@@YA_NAEAUCreateDirOptions@@@Z@4HA 0000000074037bae f    CIL library: CIL module
 0001:00036bbe       ?dtor$4@?0??show_create_dir_dlg@@YA_NAEAUCreateDirOptions@@@Z@4HA 0000000074037bbe f    CIL library: CIL module
 0001:00036bbe       ?dtor$4@?0??show_run_dlg@@YA_NAEAURunOptions@@@Z@4HA 0000000074037bbe f    CIL library: CIL module
 0001:00036bca       ?dtor$0@?0??show_copy_files_results_dlg@@YAXAEBUCopyFilesStats@@AEBULog@@@Z@4HA 0000000074037bca f    CIL library: CIL module
 0001:00036bca       ?dtor$0@?0??show_delete_files_results_dlg@@YAXAEBUDeleteFilesStats@@AEBULog@@@Z@4HA 0000000074037bca f    CIL library: CIL module
 0001:00036bda       ?dtor$1@?0??show_copy_files_results_dlg@@YAXAEBUCopyFilesStats@@AEBULog@@@Z@4HA 0000000074037bda f    CIL library: CIL module
 0001:00036bda       ?dtor$1@?0??show_delete_files_results_dlg@@YAXAEBUDeleteFilesStats@@AEBULog@@@Z@4HA 0000000074037bda f    CIL library: CIL module
 0001:00036bea       ?dtor$2@?0??show_copy_files_results_dlg@@YAXAEBUCopyFilesStats@@AEBULog@@@Z@4HA 0000000074037bea f    CIL library: CIL module
 0001:00036bea       ?dtor$2@?0??show_delete_files_results_dlg@@YAXAEBUDeleteFilesStats@@AEBULog@@@Z@4HA 0000000074037bea f    CIL library: CIL module
 0001:00036bfa       ?dtor$3@?0??show_copy_files_results_dlg@@YAXAEBUCopyFilesStats@@AEBULog@@@Z@4HA 0000000074037bfa f    CIL library: CIL module
 0001:00036bfa       ?dtor$3@?0??show_delete_files_results_dlg@@YAXAEBUDeleteFilesStats@@AEBULog@@@Z@4HA 0000000074037bfa f    CIL library: CIL module
 0001:00036c0a       ?dtor$4@?0??show_copy_files_results_dlg@@YAXAEBUCopyFilesStats@@AEBULog@@@Z@4HA 0000000074037c0a f    CIL library: CIL module
 0001:00036c0a       ?dtor$4@?0??show_delete_files_results_dlg@@YAXAEBUDeleteFilesStats@@AEBULog@@@Z@4HA 0000000074037c0a f    CIL library: CIL module
 0001:00036c1a       ?dtor$5@?0??show_copy_files_results_dlg@@YAXAEBUCopyFilesStats@@AEBULog@@@Z@4HA 0000000074037c1a f    CIL library: CIL module
 0001:00036c1a       ?dtor$5@?0??show_delete_files_results_dlg@@YAXAEBUDeleteFilesStats@@AEBULog@@@Z@4HA 0000000074037c1a f    CIL library: CIL module
 0001:00036c2a       ?dtor$6@?0??show_delete_files_results_dlg@@YAXAEBUDeleteFilesStats@@AEBULog@@@Z@4HA 0000000074037c2a f    CIL library: CIL module
 0001:00036c2a       ?dtor$6@?0??show_copy_files_results_dlg@@YAXAEBUCopyFilesStats@@AEBULog@@@Z@4HA 0000000074037c2a f    CIL library: CIL module
 0001:00036c36       ?dtor$0@?0??draw_delete_files_progress@@YAXAEBUDeleteFilesProgress@@AEBUDeleteFilesStats@@@Z@4HA 0000000074037c36 f    CIL library: CIL module
 0001:00036c46       ?dtor$1@?0??draw_delete_files_progress@@YAXAEBUDeleteFilesProgress@@AEBUDeleteFilesStats@@@Z@4HA 0000000074037c46 f    CIL library: CIL module
 0001:00036c56       ?dtor$2@?0??draw_delete_files_progress@@YAXAEBUDeleteFilesProgress@@AEBUDeleteFilesStats@@@Z@4HA 0000000074037c56 f    CIL library: CIL module
 0001:00036c66       ?dtor$3@?0??draw_delete_files_progress@@YAXAEBUDeleteFilesProgress@@AEBUDeleteFilesStats@@@Z@4HA 0000000074037c66 f    CIL library: CIL module
 0001:00036c76       ?dtor$4@?0??draw_delete_files_progress@@YAXAEBUDeleteFilesProgress@@AEBUDeleteFilesStats@@@Z@4HA 0000000074037c76 f    CIL library: CIL module
 0001:00036c86       ?dtor$6@?0??draw_delete_files_progress@@YAXAEBUDeleteFilesProgress@@AEBUDeleteFilesStats@@@Z@4HA 0000000074037c86 f    CIL library: CIL module
 0001:00036c96       ?dtor$7@?0??draw_delete_files_progress@@YAXAEBUDeleteFilesProgress@@AEBUDeleteFilesStats@@@Z@4HA 0000000074037c96 f    CIL library: CIL module
 0001:00036ca6       ?dtor$8@?0??draw_delete_files_progress@@YAXAEBUDeleteFilesProgress@@AEBUDeleteFilesStats@@@Z@4HA 0000000074037ca6 f    CIL library: CIL module
 0001:00036cb6       ?dtor$9@?0??draw_delete_files_progress@@YAXAEBUDeleteFilesProgress@@AEBUDeleteFilesStats@@@Z@4HA 0000000074037cb6 f    CIL library: CIL module
 0001:00036cc6       ?dtor$10@?0??draw_delete_files_progress@@YAXAEBUDeleteFilesProgress@@AEBUDeleteFilesStats@@@Z@4HA 0000000074037cc6 f    CIL library: CIL module
 0001:00036cd6       ?dtor$11@?0??draw_delete_files_progress@@YAXAEBUDeleteFilesProgress@@AEBUDeleteFilesStats@@@Z@4HA 0000000074037cd6 f    CIL library: CIL module
 0001:00036ce6       ?dtor$12@?0??draw_delete_files_progress@@YAXAEBUDeleteFilesProgress@@AEBUDeleteFilesStats@@@Z@4HA 0000000074037ce6 f    CIL library: CIL module
 0001:00036cf6       ?dtor$13@?0??draw_delete_files_progress@@YAXAEBUDeleteFilesProgress@@AEBUDeleteFilesStats@@@Z@4HA 0000000074037cf6 f    CIL library: CIL module
 0001:00036d06       ?dtor$14@?0??draw_delete_files_progress@@YAXAEBUDeleteFilesProgress@@AEBUDeleteFilesStats@@@Z@4HA 0000000074037d06 f    CIL library: CIL module
 0001:00036d16       ?dtor$15@?0??draw_delete_files_progress@@YAXAEBUDeleteFilesProgress@@AEBUDeleteFilesStats@@@Z@4HA 0000000074037d16 f    CIL library: CIL module
 0001:00036d22       ?dtor$0@?0??show_delete_files_dlg@@YA_NAEAUDeleteFilesOptions@@@Z@4HA 0000000074037d22 f    CIL library: CIL module
 0001:00036d32       ?dtor$1@?0??show_delete_files_dlg@@YA_NAEAUDeleteFilesOptions@@@Z@4HA 0000000074037d32 f    CIL library: CIL module
 0001:00036d42       ?dtor$2@?0??show_delete_files_dlg@@YA_NAEAUDeleteFilesOptions@@@Z@4HA 0000000074037d42 f    CIL library: CIL module
 0001:00036d52       ?dtor$3@?0??show_delete_files_dlg@@YA_NAEAUDeleteFilesOptions@@@Z@4HA 0000000074037d52 f    CIL library: CIL module
 0001:00036d62       ?dtor$4@?0??show_delete_files_dlg@@YA_NAEAUDeleteFilesOptions@@@Z@4HA 0000000074037d62 f    CIL library: CIL module
 0001:00036d72       ?dtor$5@?0??show_delete_files_dlg@@YA_NAEAUDeleteFilesOptions@@@Z@4HA 0000000074037d72 f    CIL library: CIL module
 0001:00036d82       ?dtor$6@?0??show_delete_files_dlg@@YA_NAEAUDeleteFilesOptions@@@Z@4HA 0000000074037d82 f    CIL library: CIL module
 0001:00036d92       ?dtor$7@?0??show_delete_files_dlg@@YA_NAEAUDeleteFilesOptions@@@Z@4HA 0000000074037d92 f    CIL library: CIL module
 0001:00036da2       ?dtor$8@?0??show_delete_files_dlg@@YA_NAEAUDeleteFilesOptions@@@Z@4HA 0000000074037da2 f    CIL library: CIL module
 0001:00036db2       ?dtor$9@?0??show_delete_files_dlg@@YA_NAEAUDeleteFilesOptions@@@Z@4HA 0000000074037db2 f    CIL library: CIL module
 0001:00036dbe       ?dtor$0@?0??draw_move_remote_files_progress@@YAXAEBUCopyFilesProgress@@AEBUCopyFilesStats@@@Z@4HA 0000000074037dbe f    CIL library: CIL module
 0001:00036dce       ?dtor$1@?0??draw_move_remote_files_progress@@YAXAEBUCopyFilesProgress@@AEBUCopyFilesStats@@@Z@4HA 0000000074037dce f    CIL library: CIL module
 0001:00036dde       ?dtor$2@?0??draw_move_remote_files_progress@@YAXAEBUCopyFilesProgress@@AEBUCopyFilesStats@@@Z@4HA 0000000074037dde f    CIL library: CIL module
 0001:00036dee       ?dtor$3@?0??draw_move_remote_files_progress@@YAXAEBUCopyFilesProgress@@AEBUCopyFilesStats@@@Z@4HA 0000000074037dee f    CIL library: CIL module
 0001:00036dfe       ?dtor$4@?0??draw_move_remote_files_progress@@YAXAEBUCopyFilesProgress@@AEBUCopyFilesStats@@@Z@4HA 0000000074037dfe f    CIL library: CIL module
 0001:00036e0e       ?dtor$5@?0??draw_move_remote_files_progress@@YAXAEBUCopyFilesProgress@@AEBUCopyFilesStats@@@Z@4HA 0000000074037e0e f    CIL library: CIL module
 0001:00036e1e       ?dtor$6@?0??draw_move_remote_files_progress@@YAXAEBUCopyFilesProgress@@AEBUCopyFilesStats@@@Z@4HA 0000000074037e1e f    CIL library: CIL module
 0001:00036e2e       ?dtor$7@?0??draw_move_remote_files_progress@@YAXAEBUCopyFilesProgress@@AEBUCopyFilesStats@@@Z@4HA 0000000074037e2e f    CIL library: CIL module
 0001:00036e3e       ?dtor$8@?0??draw_move_remote_files_progress@@YAXAEBUCopyFilesProgress@@AEBUCopyFilesStats@@@Z@4HA 0000000074037e3e f    CIL library: CIL module
 0001:00036e4e       ?dtor$9@?0??draw_move_remote_files_progress@@YAXAEBUCopyFilesProgress@@AEBUCopyFilesStats@@@Z@4HA 0000000074037e4e f    CIL library: CIL module
 0001:00036e5e       ?dtor$10@?0??draw_move_remote_files_progress@@YAXAEBUCopyFilesProgress@@AEBUCopyFilesStats@@@Z@4HA 0000000074037e5e f    CIL library: CIL module
 0001:00036e6e       ?dtor$11@?0??draw_move_remote_files_progress@@YAXAEBUCopyFilesProgress@@AEBUCopyFilesStats@@@Z@4HA 0000000074037e6e f    CIL library: CIL module
 0001:00036e7e       ?dtor$12@?0??draw_move_remote_files_progress@@YAXAEBUCopyFilesProgress@@AEBUCopyFilesStats@@@Z@4HA 0000000074037e7e f    CIL library: CIL module
 0001:00036e8e       ?dtor$13@?0??draw_move_remote_files_progress@@YAXAEBUCopyFilesProgress@@AEBUCopyFilesStats@@@Z@4HA 0000000074037e8e f    CIL library: CIL module
 0001:00036e9e       ?dtor$14@?0??draw_move_remote_files_progress@@YAXAEBUCopyFilesProgress@@AEBUCopyFilesStats@@@Z@4HA 0000000074037e9e f    CIL library: CIL module
 0001:00036eae       ?dtor$15@?0??draw_move_remote_files_progress@@YAXAEBUCopyFilesProgress@@AEBUCopyFilesStats@@@Z@4HA 0000000074037eae f    CIL library: CIL module
 0001:00036ebe       ?dtor$16@?0??draw_move_remote_files_progress@@YAXAEBUCopyFilesProgress@@AEBUCopyFilesStats@@@Z@4HA 0000000074037ebe f    CIL library: CIL module
 0001:00036eca       ?dtor$0@?0??draw_copy_files_progress@@YAXAEBUCopyFilesProgress@@AEBUCopyFilesStats@@_N@Z@4HA 0000000074037eca f    CIL library: CIL module
 0001:00036eda       ?dtor$1@?0??draw_copy_files_progress@@YAXAEBUCopyFilesProgress@@AEBUCopyFilesStats@@_N@Z@4HA 0000000074037eda f    CIL library: CIL module
 0001:00036eea       ?dtor$2@?0??draw_copy_files_progress@@YAXAEBUCopyFilesProgress@@AEBUCopyFilesStats@@_N@Z@4HA 0000000074037eea f    CIL library: CIL module
 0001:00036efa       ?dtor$3@?0??draw_copy_files_progress@@YAXAEBUCopyFilesProgress@@AEBUCopyFilesStats@@_N@Z@4HA 0000000074037efa f    CIL library: CIL module
 0001:00036f0a       ?dtor$4@?0??draw_copy_files_progress@@YAXAEBUCopyFilesProgress@@AEBUCopyFilesStats@@_N@Z@4HA 0000000074037f0a f    CIL library: CIL module
 0001:00036f1a       ?dtor$5@?0??draw_copy_files_progress@@YAXAEBUCopyFilesProgress@@AEBUCopyFilesStats@@_N@Z@4HA 0000000074037f1a f    CIL library: CIL module
 0001:00036f2a       ?dtor$6@?0??draw_copy_files_progress@@YAXAEBUCopyFilesProgress@@AEBUCopyFilesStats@@_N@Z@4HA 0000000074037f2a f    CIL library: CIL module
 0001:00036f3a       ?dtor$7@?0??draw_copy_files_progress@@YAXAEBUCopyFilesProgress@@AEBUCopyFilesStats@@_N@Z@4HA 0000000074037f3a f    CIL library: CIL module
 0001:00036f4a       ?dtor$8@?0??draw_copy_files_progress@@YAXAEBUCopyFilesProgress@@AEBUCopyFilesStats@@_N@Z@4HA 0000000074037f4a f    CIL library: CIL module
 0001:00036f5a       ?dtor$9@?0??draw_copy_files_progress@@YAXAEBUCopyFilesProgress@@AEBUCopyFilesStats@@_N@Z@4HA 0000000074037f5a f    CIL library: CIL module
 0001:00036f6a       ?dtor$10@?0??draw_copy_files_progress@@YAXAEBUCopyFilesProgress@@AEBUCopyFilesStats@@_N@Z@4HA 0000000074037f6a f    CIL library: CIL module
 0001:00036f7a       ?dtor$11@?0??draw_copy_files_progress@@YAXAEBUCopyFilesProgress@@AEBUCopyFilesStats@@_N@Z@4HA 0000000074037f7a f    CIL library: CIL module
 0001:00036f8a       ?dtor$12@?0??draw_copy_files_progress@@YAXAEBUCopyFilesProgress@@AEBUCopyFilesStats@@_N@Z@4HA 0000000074037f8a f    CIL library: CIL module
 0001:00036f9a       ?dtor$13@?0??draw_copy_files_progress@@YAXAEBUCopyFilesProgress@@AEBUCopyFilesStats@@_N@Z@4HA 0000000074037f9a f    CIL library: CIL module
 0001:00036faa       ?dtor$14@?0??draw_copy_files_progress@@YAXAEBUCopyFilesProgress@@AEBUCopyFilesStats@@_N@Z@4HA 0000000074037faa f    CIL library: CIL module
 0001:00036fba       ?dtor$15@?0??draw_copy_files_progress@@YAXAEBUCopyFilesProgress@@AEBUCopyFilesStats@@_N@Z@4HA 0000000074037fba f    CIL library: CIL module
 0001:00036fca       ?dtor$16@?0??draw_copy_files_progress@@YAXAEBUCopyFilesProgress@@AEBUCopyFilesStats@@_N@Z@4HA 0000000074037fca f    CIL library: CIL module
 0001:00036fda       ?dtor$17@?0??draw_copy_files_progress@@YAXAEBUCopyFilesProgress@@AEBUCopyFilesStats@@_N@Z@4HA 0000000074037fda f    CIL library: CIL module
 0001:00036fea       ?dtor$18@?0??draw_copy_files_progress@@YAXAEBUCopyFilesProgress@@AEBUCopyFilesStats@@_N@Z@4HA 0000000074037fea f    CIL library: CIL module
 0001:00036ffa       ?dtor$19@?0??draw_copy_files_progress@@YAXAEBUCopyFilesProgress@@AEBUCopyFilesStats@@_N@Z@4HA 0000000074037ffa f    CIL library: CIL module
 0001:0003700a       ?dtor$20@?0??draw_copy_files_progress@@YAXAEBUCopyFilesProgress@@AEBUCopyFilesStats@@_N@Z@4HA 000000007403800a f    CIL library: CIL module
 0001:0003701a       ?dtor$21@?0??draw_copy_files_progress@@YAXAEBUCopyFilesProgress@@AEBUCopyFilesStats@@_N@Z@4HA 000000007403801a f    CIL library: CIL module
 0001:0003702a       ?dtor$22@?0??draw_copy_files_progress@@YAXAEBUCopyFilesProgress@@AEBUCopyFilesStats@@_N@Z@4HA 000000007403802a f    CIL library: CIL module
 0001:0003703a       ?dtor$23@?0??draw_copy_files_progress@@YAXAEBUCopyFilesProgress@@AEBUCopyFilesStats@@_N@Z@4HA 000000007403803a f    CIL library: CIL module
 0001:0003704a       ?dtor$24@?0??draw_copy_files_progress@@YAXAEBUCopyFilesProgress@@AEBUCopyFilesStats@@_N@Z@4HA 000000007403804a f    CIL library: CIL module
 0001:0003705a       ?dtor$25@?0??draw_copy_files_progress@@YAXAEBUCopyFilesProgress@@AEBUCopyFilesStats@@_N@Z@4HA 000000007403805a f    CIL library: CIL module
 0001:0003706a       ?dtor$26@?0??draw_copy_files_progress@@YAXAEBUCopyFilesProgress@@AEBUCopyFilesStats@@_N@Z@4HA 000000007403806a f    CIL library: CIL module
 0001:0003707a       ?dtor$27@?0??draw_copy_files_progress@@YAXAEBUCopyFilesProgress@@AEBUCopyFilesStats@@_N@Z@4HA 000000007403807a f    CIL library: CIL module
 0001:0003708a       ?dtor$29@?0??draw_copy_files_progress@@YAXAEBUCopyFilesProgress@@AEBUCopyFilesStats@@_N@Z@4HA 000000007403808a f    CIL library: CIL module
 0001:0003709a       ?dtor$30@?0??draw_copy_files_progress@@YAXAEBUCopyFilesProgress@@AEBUCopyFilesStats@@_N@Z@4HA 000000007403809a f    CIL library: CIL module
 0001:000370aa       ?dtor$31@?0??draw_copy_files_progress@@YAXAEBUCopyFilesProgress@@AEBUCopyFilesStats@@_N@Z@4HA 00000000740380aa f    CIL library: CIL module
 0001:000370ba       ?dtor$32@?0??draw_copy_files_progress@@YAXAEBUCopyFilesProgress@@AEBUCopyFilesStats@@_N@Z@4HA 00000000740380ba f    CIL library: CIL module
 0001:000370ca       ?dtor$33@?0??draw_copy_files_progress@@YAXAEBUCopyFilesProgress@@AEBUCopyFilesStats@@_N@Z@4HA 00000000740380ca f    CIL library: CIL module
 0001:000370da       ?dtor$34@?0??draw_copy_files_progress@@YAXAEBUCopyFilesProgress@@AEBUCopyFilesStats@@_N@Z@4HA 00000000740380da f    CIL library: CIL module
 0001:000370ea       ?dtor$35@?0??draw_copy_files_progress@@YAXAEBUCopyFilesProgress@@AEBUCopyFilesStats@@_N@Z@4HA 00000000740380ea f    CIL library: CIL module
 0001:000370fa       ?dtor$36@?0??draw_copy_files_progress@@YAXAEBUCopyFilesProgress@@AEBUCopyFilesStats@@_N@Z@4HA 00000000740380fa f    CIL library: CIL module
 0001:0003710a       ?dtor$37@?0??draw_copy_files_progress@@YAXAEBUCopyFilesProgress@@AEBUCopyFilesStats@@_N@Z@4HA 000000007403810a f    CIL library: CIL module
 0001:0003711a       ?dtor$38@?0??draw_copy_files_progress@@YAXAEBUCopyFilesProgress@@AEBUCopyFilesStats@@_N@Z@4HA 000000007403811a f    CIL library: CIL module
 0001:00037126       ?dtor$0@?0??show_overwrite_dlg@@YA?AW4OverwriteAction@@AEBVUnicodeString@col@@AEBUFileInfo@@1@Z@4HA 0000000074038126 f    CIL library: CIL module
 0001:00037136       ?dtor$1@?0??show_overwrite_dlg@@YA?AW4OverwriteAction@@AEBVUnicodeString@col@@AEBUFileInfo@@1@Z@4HA 0000000074038136 f    CIL library: CIL module
 0001:00037146       ?dtor$2@?0??show_overwrite_dlg@@YA?AW4OverwriteAction@@AEBVUnicodeString@col@@AEBUFileInfo@@1@Z@4HA 0000000074038146 f    CIL library: CIL module
 0001:00037156       ?dtor$3@?0??show_overwrite_dlg@@YA?AW4OverwriteAction@@AEBVUnicodeString@col@@AEBUFileInfo@@1@Z@4HA 0000000074038156 f    CIL library: CIL module
 0001:00037166       ?dtor$4@?0??show_overwrite_dlg@@YA?AW4OverwriteAction@@AEBVUnicodeString@col@@AEBUFileInfo@@1@Z@4HA 0000000074038166 f    CIL library: CIL module
 0001:00037176       ?dtor$5@?0??show_overwrite_dlg@@YA?AW4OverwriteAction@@AEBVUnicodeString@col@@AEBUFileInfo@@1@Z@4HA 0000000074038176 f    CIL library: CIL module
 0001:00037186       ?dtor$6@?0??show_overwrite_dlg@@YA?AW4OverwriteAction@@AEBVUnicodeString@col@@AEBUFileInfo@@1@Z@4HA 0000000074038186 f    CIL library: CIL module
 0001:00037196       ?dtor$7@?0??show_overwrite_dlg@@YA?AW4OverwriteAction@@AEBVUnicodeString@col@@AEBUFileInfo@@1@Z@4HA 0000000074038196 f    CIL library: CIL module
 0001:000371a6       ?dtor$8@?0??show_overwrite_dlg@@YA?AW4OverwriteAction@@AEBVUnicodeString@col@@AEBUFileInfo@@1@Z@4HA 00000000740381a6 f    CIL library: CIL module
 0001:000371b6       ?dtor$9@?0??show_overwrite_dlg@@YA?AW4OverwriteAction@@AEBVUnicodeString@col@@AEBUFileInfo@@1@Z@4HA 00000000740381b6 f    CIL library: CIL module
 0001:000371c6       ?dtor$10@?0??show_overwrite_dlg@@YA?AW4OverwriteAction@@AEBVUnicodeString@col@@AEBUFileInfo@@1@Z@4HA 00000000740381c6 f    CIL library: CIL module
 0001:000371d6       ?dtor$11@?0??show_overwrite_dlg@@YA?AW4OverwriteAction@@AEBVUnicodeString@col@@AEBUFileInfo@@1@Z@4HA 00000000740381d6 f    CIL library: CIL module
 0001:000371e6       ?dtor$12@?0??show_overwrite_dlg@@YA?AW4OverwriteAction@@AEBVUnicodeString@col@@AEBUFileInfo@@1@Z@4HA 00000000740381e6 f    CIL library: CIL module
 0001:000371f6       ?dtor$13@?0??show_overwrite_dlg@@YA?AW4OverwriteAction@@AEBVUnicodeString@col@@AEBUFileInfo@@1@Z@4HA 00000000740381f6 f    CIL library: CIL module
 0001:00037206       ?dtor$14@?0??show_overwrite_dlg@@YA?AW4OverwriteAction@@AEBVUnicodeString@col@@AEBUFileInfo@@1@Z@4HA 0000000074038206 f    CIL library: CIL module
 0001:00037216       ?dtor$15@?0??show_overwrite_dlg@@YA?AW4OverwriteAction@@AEBVUnicodeString@col@@AEBUFileInfo@@1@Z@4HA 0000000074038216 f    CIL library: CIL module
 0001:00037226       ?dtor$16@?0??show_overwrite_dlg@@YA?AW4OverwriteAction@@AEBVUnicodeString@col@@AEBUFileInfo@@1@Z@4HA 0000000074038226 f    CIL library: CIL module
 0001:00037236       ?dtor$17@?0??show_overwrite_dlg@@YA?AW4OverwriteAction@@AEBVUnicodeString@col@@AEBUFileInfo@@1@Z@4HA 0000000074038236 f    CIL library: CIL module
 0001:00037246       ?dtor$18@?0??show_overwrite_dlg@@YA?AW4OverwriteAction@@AEBVUnicodeString@col@@AEBUFileInfo@@1@Z@4HA 0000000074038246 f    CIL library: CIL module
 0001:00037252       ?dtor$0@?0??show_copy_files_dlg@@YA_NAEAUCopyFilesOptions@@_N@Z@4HA 0000000074038252 f    CIL library: CIL module
 0001:00037262       ?dtor$1@?0??show_copy_files_dlg@@YA_NAEAUCopyFilesOptions@@_N@Z@4HA 0000000074038262 f    CIL library: CIL module
 0001:00037272       ?dtor$2@?0??show_copy_files_dlg@@YA_NAEAUCopyFilesOptions@@_N@Z@4HA 0000000074038272 f    CIL library: CIL module
 0001:00037282       ?dtor$3@?0??show_copy_files_dlg@@YA_NAEAUCopyFilesOptions@@_N@Z@4HA 0000000074038282 f    CIL library: CIL module
 0001:00037292       ?dtor$4@?0??show_copy_files_dlg@@YA_NAEAUCopyFilesOptions@@_N@Z@4HA 0000000074038292 f    CIL library: CIL module
 0001:000372a2       ?dtor$5@?0??show_copy_files_dlg@@YA_NAEAUCopyFilesOptions@@_N@Z@4HA 00000000740382a2 f    CIL library: CIL module
 0001:000372b2       ?dtor$6@?0??show_copy_files_dlg@@YA_NAEAUCopyFilesOptions@@_N@Z@4HA 00000000740382b2 f    CIL library: CIL module
 0001:000372c2       ?dtor$7@?0??show_copy_files_dlg@@YA_NAEAUCopyFilesOptions@@_N@Z@4HA 00000000740382c2 f    CIL library: CIL module
 0001:000372d2       ?dtor$8@?0??show_copy_files_dlg@@YA_NAEAUCopyFilesOptions@@_N@Z@4HA 00000000740382d2 f    CIL library: CIL module
 0001:000372e2       ?dtor$9@?0??show_copy_files_dlg@@YA_NAEAUCopyFilesOptions@@_N@Z@4HA 00000000740382e2 f    CIL library: CIL module
 0001:000372f2       ?dtor$10@?0??show_copy_files_dlg@@YA_NAEAUCopyFilesOptions@@_N@Z@4HA 00000000740382f2 f    CIL library: CIL module
 0001:00037302       ?dtor$11@?0??show_copy_files_dlg@@YA_NAEAUCopyFilesOptions@@_N@Z@4HA 0000000074038302 f    CIL library: CIL module
 0001:00037312       ?dtor$12@?0??show_copy_files_dlg@@YA_NAEAUCopyFilesOptions@@_N@Z@4HA 0000000074038312 f    CIL library: CIL module
 0001:00037322       ?dtor$13@?0??show_copy_files_dlg@@YA_NAEAUCopyFilesOptions@@_N@Z@4HA 0000000074038322 f    CIL library: CIL module
 0001:00037332       ?dtor$14@?0??show_copy_files_dlg@@YA_NAEAUCopyFilesOptions@@_N@Z@4HA 0000000074038332 f    CIL library: CIL module
 0001:00037342       ?dtor$15@?0??show_copy_files_dlg@@YA_NAEAUCopyFilesOptions@@_N@Z@4HA 0000000074038342 f    CIL library: CIL module
 0001:00037352       ?dtor$16@?0??show_copy_files_dlg@@YA_NAEAUCopyFilesOptions@@_N@Z@4HA 0000000074038352 f    CIL library: CIL module
 0001:0003735e       ?dtor$0@?0??draw_create_list_progress@@YAXAEBUCreateListStats@@@Z@4HA 000000007403835e f    CIL library: CIL module
 0001:0003736e       ?dtor$1@?0??draw_create_list_progress@@YAXAEBUCreateListStats@@@Z@4HA 000000007403836e f    CIL library: CIL module
 0001:0003737e       ?dtor$2@?0??draw_create_list_progress@@YAXAEBUCreateListStats@@@Z@4HA 000000007403837e f    CIL library: CIL module
 0001:0003738e       ?dtor$3@?0??draw_create_list_progress@@YAXAEBUCreateListStats@@@Z@4HA 000000007403838e f    CIL library: CIL module
 0001:0003739e       ?dtor$4@?0??draw_create_list_progress@@YAXAEBUCreateListStats@@@Z@4HA 000000007403839e f    CIL library: CIL module
 0001:000373ae       ?dtor$5@?0??draw_create_list_progress@@YAXAEBUCreateListStats@@@Z@4HA 00000000740383ae f    CIL library: CIL module
 0001:000373be       ?dtor$6@?0??draw_create_list_progress@@YAXAEBUCreateListStats@@@Z@4HA 00000000740383be f    CIL library: CIL module
 0001:000373ce       ?dtor$7@?0??draw_create_list_progress@@YAXAEBUCreateListStats@@@Z@4HA 00000000740383ce f    CIL library: CIL module
 0001:000373de       ?dtor$8@?0??draw_create_list_progress@@YAXAEBUCreateListStats@@@Z@4HA 00000000740383de f    CIL library: CIL module
 0001:000373ee       ?dtor$9@?0??draw_create_list_progress@@YAXAEBUCreateListStats@@@Z@4HA 00000000740383ee f    CIL library: CIL module
 0001:000373fa       ?dtor$0@?0??draw_progress_msg@@YAXAEBVUnicodeString@col@@@Z@4HA 00000000740383fa f    CIL library: CIL module
 0001:0003740a       ?dtor$1@?0??draw_progress_msg@@YAXAEBVUnicodeString@col@@@Z@4HA 000000007403840a f    CIL library: CIL module
 0001:0003741a       ?dtor$2@?0??draw_progress_msg@@YAXAEBVUnicodeString@col@@@Z@4HA 000000007403841a f    CIL library: CIL module
 0001:00037426       ?dtor$9@?0??file_panel_items_to_file_list@@YAXAEBVUnicodeString@col@@PEAUPluginPanelItem@@_KAEAV?$ObjectArray@UPanelFileInfo@@@2@AEAVUiLink@@PEAUPluginInstance@@@Z@4HA 0000000074038426 f    CIL library: CIL module
 0001:00037436       ?dtor$0@?0??file_panel_items_to_file_list@@YAXAEBVUnicodeString@col@@PEAUPluginPanelItem@@_KAEAV?$ObjectArray@UPanelFileInfo@@@2@AEAVUiLink@@PEAUPluginInstance@@@Z@4HA 0000000074038436 f    CIL library: CIL module
 0001:00037446       ?dtor$1@?0??file_panel_items_to_file_list@@YAXAEBVUnicodeString@col@@PEAUPluginPanelItem@@_KAEAV?$ObjectArray@UPanelFileInfo@@@2@AEAVUiLink@@PEAUPluginInstance@@@Z@4HA 0000000074038446 f    CIL library: CIL module
 0001:00037456       ?dtor$2@?0??file_panel_items_to_file_list@@YAXAEBVUnicodeString@col@@PEAUPluginPanelItem@@_KAEAV?$ObjectArray@UPanelFileInfo@@@2@AEAVUiLink@@PEAUPluginInstance@@@Z@4HA 0000000074038456 f    CIL library: CIL module
 0001:00037466       ?dtor$3@?0??file_panel_items_to_file_list@@YAXAEBVUnicodeString@col@@PEAUPluginPanelItem@@_KAEAV?$ObjectArray@UPanelFileInfo@@@2@AEAVUiLink@@PEAUPluginInstance@@@Z@4HA 0000000074038466 f    CIL library: CIL module
 0001:00037476       ?dtor$4@?0??file_panel_items_to_file_list@@YAXAEBVUnicodeString@col@@PEAUPluginPanelItem@@_KAEAV?$ObjectArray@UPanelFileInfo@@@2@AEAVUiLink@@PEAUPluginInstance@@@Z@4HA 0000000074038476 f    CIL library: CIL module
 0001:00037486       ?dtor$12@?0??file_panel_items_to_file_list@@YAXAEBVUnicodeString@col@@PEAUPluginPanelItem@@_KAEAV?$ObjectArray@UPanelFileInfo@@@2@AEAVUiLink@@PEAUPluginInstance@@@Z@4HA 0000000074038486 f    CIL library: CIL module
 0001:00037496       ?dtor$13@?0??file_panel_items_to_file_list@@YAXAEBVUnicodeString@col@@PEAUPluginPanelItem@@_KAEAV?$ObjectArray@UPanelFileInfo@@@2@AEAVUiLink@@PEAUPluginInstance@@@Z@4HA 0000000074038496 f    CIL library: CIL module
 0001:000374a6       ?dtor$5@?0??file_panel_items_to_file_list@@YAXAEBVUnicodeString@col@@PEAUPluginPanelItem@@_KAEAV?$ObjectArray@UPanelFileInfo@@@2@AEAVUiLink@@PEAUPluginInstance@@@Z@4HA 00000000740384a6 f    CIL library: CIL module
 0001:000374b2       ?dtor$3@?0??create_dir@@YAXAEBVUnicodeString@col@@0PEAUIRAPISession@@PEAUPluginInstance@@@Z@4HA 00000000740384b2 f    CIL library: CIL module
 0001:000374c2       ?dtor$4@?0??create_dir@@YAXAEBVUnicodeString@col@@0PEAUIRAPISession@@PEAUPluginInstance@@@Z@4HA 00000000740384c2 f    CIL library: CIL module
 0001:000374d2       ?dtor$0@?0??create_dir@@YAXAEBVUnicodeString@col@@0PEAUIRAPISession@@PEAUPluginInstance@@@Z@4HA 00000000740384d2 f    CIL library: CIL module
 0001:000374e2       ?dtor$5@?0??create_dir@@YAXAEBVUnicodeString@col@@0PEAUIRAPISession@@PEAUPluginInstance@@@Z@4HA 00000000740384e2 f    CIL library: CIL module
 0001:000374f2       ?dtor$6@?0??create_dir@@YAXAEBVUnicodeString@col@@0PEAUIRAPISession@@PEAUPluginInstance@@@Z@4HA 00000000740384f2 f    CIL library: CIL module
 0001:00037502       ?dtor$1@?0??create_dir@@YAXAEBVUnicodeString@col@@0PEAUIRAPISession@@PEAUPluginInstance@@@Z@4HA 0000000074038502 f    CIL library: CIL module
 0001:00037512       ?dtor$2@?0??create_dir@@YAXAEBVUnicodeString@col@@0PEAUIRAPISession@@PEAUPluginInstance@@@Z@4HA 0000000074038512 f    CIL library: CIL module
 0001:00037522       ?catch$0@?0??create_dir@@YAXAEBVUnicodeString@col@@0PEAUIRAPISession@@PEAUPluginInstance@@@Z@4HA 0000000074038522 f    CIL library: CIL module
 0001:0003752f       __catch$?create_dir@@YAXAEBVUnicodeString@col@@0PEAUIRAPISession@@PEAUPluginInstance@@@Z$0 000000007403852f f    CIL library: CIL module
 0001:00037552       ?catch$1@?0??create_dir@@YAXAEBVUnicodeString@col@@0PEAUIRAPISession@@PEAUPluginInstance@@@Z@4HA 0000000074038552 f    CIL library: CIL module
 0001:0003755f       __catch$?create_dir@@YAXAEBVUnicodeString@col@@0PEAUIRAPISession@@PEAUPluginInstance@@@Z$2 000000007403855f f    CIL library: CIL module
 0001:0003757f       ?dtor$0@?0??delete_files@@YAX_NAEBVUnicodeString@col@@AEBV?$ObjectArray@UFileInfo@@@2@AEAUDeleteFilesStats@@AEAUDeleteFilesProgress@@AEAUDeleteFilesOptions@@AEAVUiLink@@AEAULog@@PEAUIRAPISession@@PEAUPluginInstance@@@Z@4HA 000000007403857f f    CIL library: CIL module
 0001:0003758f       ?dtor$13@?0??delete_files@@YAX_NAEBVUnicodeString@col@@AEBV?$ObjectArray@UFileInfo@@@2@AEAUDeleteFilesStats@@AEAUDeleteFilesProgress@@AEAUDeleteFilesOptions@@AEAVUiLink@@AEAULog@@PEAUIRAPISession@@PEAUPluginInstance@@@Z@4HA 000000007403858f f    CIL library: CIL module
 0001:0003759f       ?dtor$14@?0??delete_files@@YAX_NAEBVUnicodeString@col@@AEBV?$ObjectArray@UFileInfo@@@2@AEAUDeleteFilesStats@@AEAUDeleteFilesProgress@@AEAUDeleteFilesOptions@@AEAVUiLink@@AEAULog@@PEAUIRAPISession@@PEAUPluginInstance@@@Z@4HA 000000007403859f f    CIL library: CIL module
 0001:000375af       ?dtor$1@?0??delete_files@@YAX_NAEBVUnicodeString@col@@AEBV?$ObjectArray@UFileInfo@@@2@AEAUDeleteFilesStats@@AEAUDeleteFilesProgress@@AEAUDeleteFilesOptions@@AEAVUiLink@@AEAULog@@PEAUIRAPISession@@PEAUPluginInstance@@@Z@4HA 00000000740385af f    CIL library: CIL module
 0001:000375bf       ?dtor$2@?0??delete_files@@YAX_NAEBVUnicodeString@col@@AEBV?$ObjectArray@UFileInfo@@@2@AEAUDeleteFilesStats@@AEAUDeleteFilesProgress@@AEAUDeleteFilesOptions@@AEAVUiLink@@AEAULog@@PEAUIRAPISession@@PEAUPluginInstance@@@Z@4HA 00000000740385bf f    CIL library: CIL module
 0001:000375cf       ?dtor$3@?0??delete_files@@YAX_NAEBVUnicodeString@col@@AEBV?$ObjectArray@UFileInfo@@@2@AEAUDeleteFilesStats@@AEAUDeleteFilesProgress@@AEAUDeleteFilesOptions@@AEAVUiLink@@AEAULog@@PEAUIRAPISession@@PEAUPluginInstance@@@Z@4HA 00000000740385cf f    CIL library: CIL module
 0001:000375df       ?catch$0@?0??delete_files@@YAX_NAEBVUnicodeString@col@@AEBV?$ObjectArray@UFileInfo@@@2@AEAUDeleteFilesStats@@AEAUDeleteFilesProgress@@AEAUDeleteFilesOptions@@AEAVUiLink@@AEAULog@@PEAUIRAPISession@@PEAUPluginInstance@@@Z@4HA 00000000740385df f    CIL library: CIL module
 0001:000375ec       __catch$?delete_files@@YAX_NAEBVUnicodeString@col@@AEBV?$ObjectArray@UFileInfo@@@2@AEAUDeleteFilesStats@@AEAUDeleteFilesProgress@@AEAUDeleteFilesOptions@@AEAVUiLink@@AEAULog@@PEAUIRAPISession@@PEAUPluginInstance@@@Z$0 00000000740385ec f    CIL library: CIL module
 0001:0003760f       ?catch$1@?0??delete_files@@YAX_NAEBVUnicodeString@col@@AEBV?$ObjectArray@UFileInfo@@@2@AEAUDeleteFilesStats@@AEAUDeleteFilesProgress@@AEAUDeleteFilesOptions@@AEAVUiLink@@AEAULog@@PEAUIRAPISession@@PEAUPluginInstance@@@Z@4HA 000000007403860f f    CIL library: CIL module
 0001:0003761c       __catch$?delete_files@@YAX_NAEBVUnicodeString@col@@AEBV?$ObjectArray@UFileInfo@@@2@AEAUDeleteFilesStats@@AEAUDeleteFilesProgress@@AEAUDeleteFilesOptions@@AEAVUiLink@@AEAULog@@PEAUIRAPISession@@PEAUPluginInstance@@@Z$2 000000007403861c f    CIL library: CIL module
 0001:0003763f       ?catch$2@?0??delete_files@@YAX_NAEBVUnicodeString@col@@AEBV?$ObjectArray@UFileInfo@@@2@AEAUDeleteFilesStats@@AEAUDeleteFilesProgress@@AEAUDeleteFilesOptions@@AEAVUiLink@@AEAULog@@PEAUIRAPISession@@PEAUPluginInstance@@@Z@4HA 000000007403863f f    CIL library: CIL module
 0001:0003764c       __catch$?delete_files@@YAX_NAEBVUnicodeString@col@@AEBV?$ObjectArray@UFileInfo@@@2@AEAUDeleteFilesStats@@AEAUDeleteFilesProgress@@AEAUDeleteFilesOptions@@AEAVUiLink@@AEAULog@@PEAUIRAPISession@@PEAUPluginInstance@@@Z$4 000000007403864c f    CIL library: CIL module
 0001:0003766f       ?catch$4@?0??delete_files@@YAX_NAEBVUnicodeString@col@@AEBV?$ObjectArray@UFileInfo@@@2@AEAUDeleteFilesStats@@AEAUDeleteFilesProgress@@AEAUDeleteFilesOptions@@AEAVUiLink@@AEAULog@@PEAUIRAPISession@@PEAUPluginInstance@@@Z@4HA 000000007403866f f    CIL library: CIL module
 0001:0003767e       __catch$?delete_files@@YAX_NAEBVUnicodeString@col@@AEBV?$ObjectArray@UFileInfo@@@2@AEAUDeleteFilesStats@@AEAUDeleteFilesProgress@@AEAUDeleteFilesOptions@@AEAVUiLink@@AEAULog@@PEAUIRAPISession@@PEAUPluginInstance@@@Z$6 000000007403867e f    CIL library: CIL module
 0001:0003774f       ?dtor$7@?0??delete_files@@YAX_NAEBVUnicodeString@col@@AEBV?$ObjectArray@UFileInfo@@@2@AEAUDeleteFilesStats@@AEAUDeleteFilesProgress@@AEAUDeleteFilesOptions@@AEAVUiLink@@AEAULog@@PEAUIRAPISession@@PEAUPluginInstance@@@Z@4HA 000000007403874f f    CIL library: CIL module
 0001:0003775f       ?catch$3@?0??delete_files@@YAX_NAEBVUnicodeString@col@@AEBV?$ObjectArray@UFileInfo@@@2@AEAUDeleteFilesStats@@AEAUDeleteFilesProgress@@AEAUDeleteFilesOptions@@AEAVUiLink@@AEAULog@@PEAUIRAPISession@@PEAUPluginInstance@@@Z@4HA 000000007403875f f    CIL library: CIL module
 0001:0003776c       __catch$?delete_files@@YAX_NAEBVUnicodeString@col@@AEBV?$ObjectArray@UFileInfo@@@2@AEAUDeleteFilesStats@@AEAUDeleteFilesProgress@@AEAUDeleteFilesOptions@@AEAVUiLink@@AEAULog@@PEAUIRAPISession@@PEAUPluginInstance@@@Z$7 000000007403876c f    CIL library: CIL module
 0001:0003778f       ?catch$5@?0??delete_files@@YAX_NAEBVUnicodeString@col@@AEBV?$ObjectArray@UFileInfo@@@2@AEAUDeleteFilesStats@@AEAUDeleteFilesProgress@@AEAUDeleteFilesOptions@@AEAVUiLink@@AEAULog@@PEAUIRAPISession@@PEAUPluginInstance@@@Z@4HA 000000007403878f f    CIL library: CIL module
 0001:0003779c       __catch$?delete_files@@YAX_NAEBVUnicodeString@col@@AEBV?$ObjectArray@UFileInfo@@@2@AEAUDeleteFilesStats@@AEAUDeleteFilesProgress@@AEAUDeleteFilesOptions@@AEAVUiLink@@AEAULog@@PEAUIRAPISession@@PEAUPluginInstance@@@Z$10 000000007403879c f    CIL library: CIL module
 0001:0003781f       ?dtor$8@?0??delete_files@@YAX_NAEBVUnicodeString@col@@AEBV?$ObjectArray@UFileInfo@@@2@AEAUDeleteFilesStats@@AEAUDeleteFilesProgress@@AEAUDeleteFilesOptions@@AEAVUiLink@@AEAULog@@PEAUIRAPISession@@PEAUPluginInstance@@@Z@4HA 000000007403881f f    CIL library: CIL module
 0001:0003782f       ?catch$6@?0??delete_files@@YAX_NAEBVUnicodeString@col@@AEBV?$ObjectArray@UFileInfo@@@2@AEAUDeleteFilesStats@@AEAUDeleteFilesProgress@@AEAUDeleteFilesOptions@@AEAVUiLink@@AEAULog@@PEAUIRAPISession@@PEAUPluginInstance@@@Z@4HA 000000007403882f f    CIL library: CIL module
 0001:0003783c       __catch$?delete_files@@YAX_NAEBVUnicodeString@col@@AEBV?$ObjectArray@UFileInfo@@@2@AEAUDeleteFilesStats@@AEAUDeleteFilesProgress@@AEAUDeleteFilesOptions@@AEAVUiLink@@AEAULog@@PEAUIRAPISession@@PEAUPluginInstance@@@Z$12 000000007403883c f    CIL library: CIL module
 0001:0003785f       ?catch$7@?0??delete_files@@YAX_NAEBVUnicodeString@col@@AEBV?$ObjectArray@UFileInfo@@@2@AEAUDeleteFilesStats@@AEAUDeleteFilesProgress@@AEAUDeleteFilesOptions@@AEAVUiLink@@AEAULog@@PEAUIRAPISession@@PEAUPluginInstance@@@Z@4HA 000000007403885f f    CIL library: CIL module
 0001:0003786c       __catch$?delete_files@@YAX_NAEBVUnicodeString@col@@AEBV?$ObjectArray@UFileInfo@@@2@AEAUDeleteFilesStats@@AEAUDeleteFilesProgress@@AEAUDeleteFilesOptions@@AEAVUiLink@@AEAULog@@PEAUIRAPISession@@PEAUPluginInstance@@@Z$14 000000007403886c f    CIL library: CIL module
 0001:0003788f       ?catch$8@?0??delete_files@@YAX_NAEBVUnicodeString@col@@AEBV?$ObjectArray@UFileInfo@@@2@AEAUDeleteFilesStats@@AEAUDeleteFilesProgress@@AEAUDeleteFilesOptions@@AEAVUiLink@@AEAULog@@PEAUIRAPISession@@PEAUPluginInstance@@@Z@4HA 000000007403888f f    CIL library: CIL module
 0001:0003789c       __catch$?delete_files@@YAX_NAEBVUnicodeString@col@@AEBV?$ObjectArray@UFileInfo@@@2@AEAUDeleteFilesStats@@AEAUDeleteFilesProgress@@AEAUDeleteFilesOptions@@AEAVUiLink@@AEAULog@@PEAUIRAPISession@@PEAUPluginInstance@@@Z$16 000000007403889c f    CIL library: CIL module
 0001:000378bf       ?catch$10@?0??delete_files@@YAX_NAEBVUnicodeString@col@@AEBV?$ObjectArray@UFileInfo@@@2@AEAUDeleteFilesStats@@AEAUDeleteFilesProgress@@AEAUDeleteFilesOptions@@AEAVUiLink@@AEAULog@@PEAUIRAPISession@@PEAUPluginInstance@@@Z@4HA 00000000740388bf f    CIL library: CIL module
 0001:000378ce       __catch$?delete_files@@YAX_NAEBVUnicodeString@col@@AEBV?$ObjectArray@UFileInfo@@@2@AEAUDeleteFilesStats@@AEAUDeleteFilesProgress@@AEAUDeleteFilesOptions@@AEAVUiLink@@AEAULog@@PEAUIRAPISession@@PEAUPluginInstance@@@Z$18 00000000740388ce f    CIL library: CIL module
 0001:0003799f       ?dtor$11@?0??delete_files@@YAX_NAEBVUnicodeString@col@@AEBV?$ObjectArray@UFileInfo@@@2@AEAUDeleteFilesStats@@AEAUDeleteFilesProgress@@AEAUDeleteFilesOptions@@AEAVUiLink@@AEAULog@@PEAUIRAPISession@@PEAUPluginInstance@@@Z@4HA 000000007403899f f    CIL library: CIL module
 0001:000379af       ?catch$9@?0??delete_files@@YAX_NAEBVUnicodeString@col@@AEBV?$ObjectArray@UFileInfo@@@2@AEAUDeleteFilesStats@@AEAUDeleteFilesProgress@@AEAUDeleteFilesOptions@@AEAVUiLink@@AEAULog@@PEAUIRAPISession@@PEAUPluginInstance@@@Z@4HA 00000000740389af f    CIL library: CIL module
 0001:000379bc       __catch$?delete_files@@YAX_NAEBVUnicodeString@col@@AEBV?$ObjectArray@UFileInfo@@@2@AEAUDeleteFilesStats@@AEAUDeleteFilesProgress@@AEAUDeleteFilesOptions@@AEAVUiLink@@AEAULog@@PEAUIRAPISession@@PEAUPluginInstance@@@Z$19 00000000740389bc f    CIL library: CIL module
 0001:000379df       ?catch$11@?0??delete_files@@YAX_NAEBVUnicodeString@col@@AEBV?$ObjectArray@UFileInfo@@@2@AEAUDeleteFilesStats@@AEAUDeleteFilesProgress@@AEAUDeleteFilesOptions@@AEAVUiLink@@AEAULog@@PEAUIRAPISession@@PEAUPluginInstance@@@Z@4HA 00000000740389df f    CIL library: CIL module
 0001:000379ec       __catch$?delete_files@@YAX_NAEBVUnicodeString@col@@AEBV?$ObjectArray@UFileInfo@@@2@AEAUDeleteFilesStats@@AEAUDeleteFilesProgress@@AEAUDeleteFilesOptions@@AEAVUiLink@@AEAULog@@PEAUIRAPISession@@PEAUPluginInstance@@@Z$22 00000000740389ec f    CIL library: CIL module
 0001:00037a6f       ?dtor$12@?0??delete_files@@YAX_NAEBVUnicodeString@col@@AEBV?$ObjectArray@UFileInfo@@@2@AEAUDeleteFilesStats@@AEAUDeleteFilesProgress@@AEAUDeleteFilesOptions@@AEAVUiLink@@AEAULog@@PEAUIRAPISession@@PEAUPluginInstance@@@Z@4HA 0000000074038a6f f    CIL library: CIL module
 0001:00037a7b       ?dtor$2@?0??prepare_target_path@@YAXAEBVUnicodeString@col@@PEAUIRAPISession@@PEAUPluginInstance@@@Z@4HA 0000000074038a7b f    CIL library: CIL module
 0001:00037a8b       ?dtor$3@?0??prepare_target_path@@YAXAEBVUnicodeString@col@@PEAUIRAPISession@@PEAUPluginInstance@@@Z@4HA 0000000074038a8b f    CIL library: CIL module
 0001:00037a9b       ?dtor$0@?0??prepare_target_path@@YAXAEBVUnicodeString@col@@PEAUIRAPISession@@PEAUPluginInstance@@@Z@4HA 0000000074038a9b f    CIL library: CIL module
 0001:00037aab       ?dtor$1@?0??prepare_target_path@@YAXAEBVUnicodeString@col@@PEAUIRAPISession@@PEAUPluginInstance@@@Z@4HA 0000000074038aab f    CIL library: CIL module
 0001:00037abb       ?catch$0@?0??prepare_target_path@@YAXAEBVUnicodeString@col@@PEAUIRAPISession@@PEAUPluginInstance@@@Z@4HA 0000000074038abb f    CIL library: CIL module
 0001:00037ac8       __catch$?prepare_target_path@@YAXAEBVUnicodeString@col@@PEAUIRAPISession@@PEAUPluginInstance@@@Z$0 0000000074038ac8 f    CIL library: CIL module
 0001:00037aeb       ?catch$1@?0??prepare_target_path@@YAXAEBVUnicodeString@col@@PEAUIRAPISession@@PEAUPluginInstance@@@Z@4HA 0000000074038aeb f    CIL library: CIL module
 0001:00037af8       __catch$?prepare_target_path@@YAXAEBVUnicodeString@col@@PEAUIRAPISession@@PEAUPluginInstance@@@Z$2 0000000074038af8 f    CIL library: CIL module
 0001:00037b18       ?dtor$3@?0??prepare_target_path@@YAXAEBVUnicodeString@col@@PEAUPluginInstance@@@Z@4HA 0000000074038b18 f    CIL library: CIL module
 0001:00037b28       ?dtor$4@?0??prepare_target_path@@YAXAEBVUnicodeString@col@@PEAUPluginInstance@@@Z@4HA 0000000074038b28 f    CIL library: CIL module
 0001:00037b38       ?dtor$0@?0??prepare_target_path@@YAXAEBVUnicodeString@col@@PEAUPluginInstance@@@Z@4HA 0000000074038b38 f    CIL library: CIL module
 0001:00037b48       ?dtor$1@?0??prepare_target_path@@YAXAEBVUnicodeString@col@@PEAUPluginInstance@@@Z@4HA 0000000074038b48 f    CIL library: CIL module
 0001:00037b58       ?catch$0@?0??prepare_target_path@@YAXAEBVUnicodeString@col@@PEAUPluginInstance@@@Z@4HA 0000000074038b58 f    CIL library: CIL module
 0001:00037b65       __catch$?prepare_target_path@@YAXAEBVUnicodeString@col@@PEAUPluginInstance@@@Z$0 0000000074038b65 f    CIL library: CIL module
 0001:00037b85       ?dtor$0@?0??list_add_file@@YAXAEBU_WIN32_FIND_DATAW@@AEAUCreateListStats@@AEAVUiLink@@AEAV?$ObjectArray@UFileInfo@@@col@@@Z@4HA 0000000074038b85 f    CIL library: CIL module
 0001:00037b85       ?dtor$0@?0??list_add_file@@YAXAEAUCE_FIND_DATA@@AEAUCreateListStats@@AEAVUiLink@@AEAV?$ObjectArray@UFileInfo@@@col@@@Z@4HA 0000000074038b85 f    CIL library: CIL module
 0001:00037b91       ?dtor$0@?0??overwrite_decision@@YAXAEBVUnicodeString@col@@AEBUFileInfo@@1AEA_NAEAW4OverwriteOption@@@Z@4HA 0000000074038b91 f    CIL library: CIL module
 0001:00037ba1       ?catch$0@?0??overwrite_decision@@YAXAEBVUnicodeString@col@@AEBUFileInfo@@1AEA_NAEAW4OverwriteOption@@@Z@4HA 0000000074038ba1 f    CIL library: CIL module
 0001:00037bae       __catch$?overwrite_decision@@YAXAEBVUnicodeString@col@@AEBUFileInfo@@1AEA_NAEAW4OverwriteOption@@@Z$0 0000000074038bae f    CIL library: CIL module
 0001:00037bd1       ?catch$1@?0??overwrite_decision@@YAXAEBVUnicodeString@col@@AEBUFileInfo@@1AEA_NAEAW4OverwriteOption@@@Z@4HA 0000000074038bd1 f    CIL library: CIL module
 0001:00037bde       __catch$?overwrite_decision@@YAXAEBVUnicodeString@col@@AEBUFileInfo@@1AEA_NAEAW4OverwriteOption@@@Z$2 0000000074038bde f    CIL library: CIL module
 0001:00037bfe       MakeDirectoryW$dtor$0      0000000074038bfe f    CIL library: CIL module
 0001:00037c0e       MakeDirectoryW$catch$0     0000000074038c0e f    CIL library: CIL module
 0001:00037c1b       __catch$MakeDirectoryW$0   0000000074038c1b f    CIL library: CIL module
 0001:00037c3e       MakeDirectoryW$dtor$10     0000000074038c3e f    CIL library: CIL module
 0001:00037c4e       MakeDirectoryW$dtor$11     0000000074038c4e f    CIL library: CIL module
 0001:00037c5e       MakeDirectoryW$dtor$1      0000000074038c5e f    CIL library: CIL module
 0001:00037c6e       MakeDirectoryW$dtor$2      0000000074038c6e f    CIL library: CIL module
 0001:00037c7e       MakeDirectoryW$dtor$12     0000000074038c7e f    CIL library: CIL module
 0001:00037c8e       MakeDirectoryW$dtor$13     0000000074038c8e f    CIL library: CIL module
 0001:00037c9e       MakeDirectoryW$catch$1     0000000074038c9e f    CIL library: CIL module
 0001:00037cab       __catch$MakeDirectoryW$2   0000000074038cab f    CIL library: CIL module
 0001:00037cbe       MakeDirectoryW$catch$2     0000000074038cbe f    CIL library: CIL module
 0001:00037ccb       __catch$MakeDirectoryW$3   0000000074038ccb f    CIL library: CIL module
 0001:00037cfe       MakeDirectoryW$catch$3     0000000074038cfe f    CIL library: CIL module
 0001:00037d0b       __catch$MakeDirectoryW$4   0000000074038d0b f    CIL library: CIL module
 0001:00037d5e       MakeDirectoryW$dtor$4      0000000074038d5e f    CIL library: CIL module
 0001:00037d6e       MakeDirectoryW$catch$4     0000000074038d6e f    CIL library: CIL module
 0001:00037d7c       __catch$MakeDirectoryW$5   0000000074038d7c f    CIL library: CIL module
 0001:00037e2e       MakeDirectoryW$dtor$5      0000000074038e2e f    CIL library: CIL module
 0001:00037e3e       MakeDirectoryW$dtor$6      0000000074038e3e f    CIL library: CIL module
 0001:00037e4e       MakeDirectoryW$catch$5     0000000074038e4e f    CIL library: CIL module
 0001:00037e5b       __catch$MakeDirectoryW$6   0000000074038e5b f    CIL library: CIL module
 0001:00037ebe       MakeDirectoryW$dtor$7      0000000074038ebe f    CIL library: CIL module
 0001:00037ece       MakeDirectoryW$catch$6     0000000074038ece f    CIL library: CIL module
 0001:00037edb       __catch$MakeDirectoryW$7   0000000074038edb f    CIL library: CIL module
 0001:00037efe       MakeDirectoryW$catch$7     0000000074038efe f    CIL library: CIL module
 0001:00037f0c       __catch$MakeDirectoryW$8   0000000074038f0c f    CIL library: CIL module
 0001:00037f7e       MakeDirectoryW$dtor$8      0000000074038f7e f    CIL library: CIL module
 0001:00037f8a       ?dtor$0@?0??set_dir@@YAHPEAUPluginInstance@@PEB_W_N@Z@4HA 0000000074038f8a f    CIL library: CIL module
 0001:00037f9a       ?dtor$5@?0??set_dir@@YAHPEAUPluginInstance@@PEB_W_N@Z@4HA 0000000074038f9a f    CIL library: CIL module
 0001:00037faa       ?dtor$6@?0??set_dir@@YAHPEAUPluginInstance@@PEB_W_N@Z@4HA 0000000074038faa f    CIL library: CIL module
 0001:00037fba       ?dtor$1@?0??set_dir@@YAHPEAUPluginInstance@@PEB_W_N@Z@4HA 0000000074038fba f    CIL library: CIL module
 0001:00037fca       ?dtor$7@?0??set_dir@@YAHPEAUPluginInstance@@PEB_W_N@Z@4HA 0000000074038fca f    CIL library: CIL module
 0001:00037fda       ?dtor$8@?0??set_dir@@YAHPEAUPluginInstance@@PEB_W_N@Z@4HA 0000000074038fda f    CIL library: CIL module
 0001:00037fea       ?dtor$2@?0??set_dir@@YAHPEAUPluginInstance@@PEB_W_N@Z@4HA 0000000074038fea f    CIL library: CIL module
 0001:00037ffa       ?dtor$3@?0??set_dir@@YAHPEAUPluginInstance@@PEB_W_N@Z@4HA 0000000074038ffa f    CIL library: CIL module
 0001:0003800a       ?dtor$4@?0??set_dir@@YAHPEAUPluginInstance@@PEB_W_N@Z@4HA 000000007403900a f    CIL library: CIL module
 0001:0003801a       ?catch$0@?0??set_dir@@YAHPEAUPluginInstance@@PEB_W_N@Z@4HA 000000007403901a f    CIL library: CIL module
 0001:00038027       __catch$?set_dir@@YAHPEAUPluginInstance@@PEB_W_N@Z$0 0000000074039027 f    CIL library: CIL module
 0001:00038047       SetDirectoryW$catch$0      0000000074039047 f    CIL library: CIL module
 0001:00038054       __catch$SetDirectoryW$0    0000000074039054 f    CIL library: CIL module
 0001:00038067       SetDirectoryW$catch$1      0000000074039067 f    CIL library: CIL module
 0001:00038074       __catch$SetDirectoryW$1    0000000074039074 f    CIL library: CIL module
 0001:00038097       SetDirectoryW$catch$2      0000000074039097 f    CIL library: CIL module
 0001:000380a4       __catch$SetDirectoryW$2    00000000740390a4 f    CIL library: CIL module
 0001:000380e7       SetDirectoryW$dtor$0       00000000740390e7 f    CIL library: CIL module
 0001:000380f7       SetDirectoryW$catch$3      00000000740390f7 f    CIL library: CIL module
 0001:00038105       __catch$SetDirectoryW$3    0000000074039105 f    CIL library: CIL module
 0001:00038197       SetDirectoryW$dtor$1       0000000074039197 f    CIL library: CIL module
 0001:000381a7       SetDirectoryW$dtor$2       00000000740391a7 f    CIL library: CIL module
 0001:000381b7       SetDirectoryW$catch$4      00000000740391b7 f    CIL library: CIL module
 0001:000381c4       __catch$SetDirectoryW$4    00000000740391c4 f    CIL library: CIL module
 0001:00038217       SetDirectoryW$dtor$3       0000000074039217 f    CIL library: CIL module
 0001:00038227       SetDirectoryW$catch$5      0000000074039227 f    CIL library: CIL module
 0001:00038234       __catch$SetDirectoryW$5    0000000074039234 f    CIL library: CIL module
 0001:00038257       SetDirectoryW$catch$6      0000000074039257 f    CIL library: CIL module
 0001:00038265       __catch$SetDirectoryW$6    0000000074039265 f    CIL library: CIL module
 0001:000382c7       SetDirectoryW$dtor$4       00000000740392c7 f    CIL library: CIL module
 0001:000382d3       GetFindDataW$dtor$0        00000000740392d3 f    CIL library: CIL module
 0001:000382e3       GetFindDataW$dtor$7        00000000740392e3 f    CIL library: CIL module
 0001:000382f3       GetFindDataW$dtor$1        00000000740392f3 f    CIL library: CIL module
 0001:00038303       GetFindDataW$catch$0       0000000074039303 f    CIL library: CIL module
 0001:00038310       __catch$GetFindDataW$0     0000000074039310 f    CIL library: CIL module
 0001:00038323       GetFindDataW$catch$1       0000000074039323 f    CIL library: CIL module
 0001:00038330       __catch$GetFindDataW$2     0000000074039330 f    CIL library: CIL module
 0001:00038343       GetFindDataW$catch$2       0000000074039343 f    CIL library: CIL module
 0001:00038350       __catch$GetFindDataW$3     0000000074039350 f    CIL library: CIL module
 0001:00038373       GetFindDataW$catch$3       0000000074039373 f    CIL library: CIL module
 0001:00038380       __catch$GetFindDataW$4     0000000074039380 f    CIL library: CIL module
 0001:000383d3       GetFindDataW$dtor$2        00000000740393d3 f    CIL library: CIL module
 0001:000383e3       GetFindDataW$catch$4       00000000740393e3 f    CIL library: CIL module
 0001:000383f2       __catch$GetFindDataW$5     00000000740393f2 f    CIL library: CIL module
 0001:000384a3       GetFindDataW$dtor$3        00000000740394a3 f    CIL library: CIL module
 0001:000384b3       GetFindDataW$dtor$4        00000000740394b3 f    CIL library: CIL module
 0001:000384c3       GetFindDataW$catch$5       00000000740394c3 f    CIL library: CIL module
 0001:000384d1       __catch$GetFindDataW$6     00000000740394d1 f    CIL library: CIL module
 0001:00038533       GetFindDataW$dtor$5        0000000074039533 f    CIL library: CIL module
 0001:00038543       GetFindDataW$catch$6       0000000074039543 f    CIL library: CIL module
 0001:00038550       __catch$GetFindDataW$7     0000000074039550 f    CIL library: CIL module
 0001:00038573       GetFindDataW$catch$7       0000000074039573 f    CIL library: CIL module
 0001:00038581       __catch$GetFindDataW$8     0000000074039581 f    CIL library: CIL module
 0001:000385f3       GetFindDataW$dtor$6        00000000740395f3 f    CIL library: CIL module
 0001:000385ff       ?catch$0@?0??load_file_filters@@YAXXZ@4HA 00000000740395ff f    CIL library: CIL module
 0001:0003860c       __catch$?load_file_filters@@YAXXZ$0 000000007403960c f    CIL library: CIL module
 0001:0003862f       ?catch$7@?0??load_file_filters@@YAXXZ@4HA 000000007403962f f    CIL library: CIL module
 0001:0003863c       __catch$?load_file_filters@@YAXXZ$2 000000007403963c f    CIL library: CIL module
 0001:0003865f       ?catch$1@?0??load_file_filters@@YAXXZ@4HA 000000007403965f f    CIL library: CIL module
 0001:0003866c       __catch$?load_file_filters@@YAXXZ$4 000000007403966c f    CIL library: CIL module
 0001:0003868f       ?catch$2@?0??load_file_filters@@YAXXZ@4HA 000000007403968f f    CIL library: CIL module
 0001:0003869c       __catch$?load_file_filters@@YAXXZ$6 000000007403969c f    CIL library: CIL module
 0001:000386bf       ?catch$3@?0??load_file_filters@@YAXXZ@4HA 00000000740396bf f    CIL library: CIL module
 0001:000386cc       __catch$?load_file_filters@@YAXXZ$8 00000000740396cc f    CIL library: CIL module
 0001:000386ef       ?catch$4@?0??load_file_filters@@YAXXZ@4HA 00000000740396ef f    CIL library: CIL module
 0001:000386fc       __catch$?load_file_filters@@YAXXZ$10 00000000740396fc f    CIL library: CIL module
 0001:0003871f       ?catch$5@?0??load_file_filters@@YAXXZ@4HA 000000007403971f f    CIL library: CIL module
 0001:0003872c       __catch$?load_file_filters@@YAXXZ$12 000000007403972c f    CIL library: CIL module
 0001:0003874f       ?catch$6@?0??load_file_filters@@YAXXZ@4HA 000000007403974f f    CIL library: CIL module
 0001:0003875c       __catch$?load_file_filters@@YAXXZ$14 000000007403975c f    CIL library: CIL module
 0001:00038778       ?dtor$0@?0??show_hot_key_options_dlg@@YA_NAEAUPluginOptions@@@Z@4HA 0000000074039778 f    CIL library: CIL module
 0001:00038788       ?dtor$1@?0??show_hot_key_options_dlg@@YA_NAEAUPluginOptions@@@Z@4HA 0000000074039788 f    CIL library: CIL module
 0001:00038798       ?dtor$2@?0??show_hot_key_options_dlg@@YA_NAEAUPluginOptions@@@Z@4HA 0000000074039798 f    CIL library: CIL module
 0001:000387a8       ?dtor$3@?0??show_hot_key_options_dlg@@YA_NAEAUPluginOptions@@@Z@4HA 00000000740397a8 f    CIL library: CIL module
 0001:000387b8       ?dtor$4@?0??show_hot_key_options_dlg@@YA_NAEAUPluginOptions@@@Z@4HA 00000000740397b8 f    CIL library: CIL module
 0001:000387e8       ?dtor$5@?0??show_hot_key_options_dlg@@YA_NAEAUPluginOptions@@@Z@4HA 00000000740397e8 f    CIL library: CIL module
 0001:00038818       ?dtor$6@?0??show_hot_key_options_dlg@@YA_NAEAUPluginOptions@@@Z@4HA 0000000074039818 f    CIL library: CIL module
 0001:00038828       ?dtor$7@?0??show_hot_key_options_dlg@@YA_NAEAUPluginOptions@@@Z@4HA 0000000074039828 f    CIL library: CIL module
 0001:00038858       ?dtor$8@?0??show_hot_key_options_dlg@@YA_NAEAUPluginOptions@@@Z@4HA 0000000074039858 f    CIL library: CIL module
 0001:00038888       ?dtor$9@?0??show_hot_key_options_dlg@@YA_NAEAUPluginOptions@@@Z@4HA 0000000074039888 f    CIL library: CIL module
 0001:000388b8       ?dtor$10@?0??show_hot_key_options_dlg@@YA_NAEAUPluginOptions@@@Z@4HA 00000000740398b8 f    CIL library: CIL module
 0001:000388e8       ?dtor$12@?0??show_hot_key_options_dlg@@YA_NAEAUPluginOptions@@@Z@4HA 00000000740398e8 f    CIL library: CIL module
 0001:000388f8       ?dtor$13@?0??show_hot_key_options_dlg@@YA_NAEAUPluginOptions@@@Z@4HA 00000000740398f8 f    CIL library: CIL module
 0001:00038908       ?dtor$14@?0??show_hot_key_options_dlg@@YA_NAEAUPluginOptions@@@Z@4HA 0000000074039908 f    CIL library: CIL module
 0001:00038918       ?dtor$15@?0??show_hot_key_options_dlg@@YA_NAEAUPluginOptions@@@Z@4HA 0000000074039918 f    CIL library: CIL module
 0001:00038928       ?dtor$16@?0??show_hot_key_options_dlg@@YA_NAEAUPluginOptions@@@Z@4HA 0000000074039928 f    CIL library: CIL module
 0001:00038934       ?dtor$0@?0??copy_files@@YAX_NAEBVUnicodeString@col@@AEBV?$ObjectArray@UFileInfo@@@2@011AEAUCopyFilesStats@@AEAUCopyFilesProgress@@AEAUCopyFilesOptions@@AEAVUiLink@@AEAUAutoBuffer@@AEAULog@@AEAV?$ObjectArray@UFilterInterface@@@2@PEAUIRAPISession@@PEAUPluginInstance@@@Z@4HA 0000000074039934 f    CIL library: CIL module
 0001:00038944       ?dtor$41@?0??copy_files@@YAX_NAEBVUnicodeString@col@@AEBV?$ObjectArray@UFileInfo@@@2@011AEAUCopyFilesStats@@AEAUCopyFilesProgress@@AEAUCopyFilesOptions@@AEAVUiLink@@AEAUAutoBuffer@@AEAULog@@AEAV?$ObjectArray@UFilterInterface@@@2@PEAUIRAPISession@@PEAUPluginInstance@@@Z@4HA 0000000074039944 f    CIL library: CIL module
 0001:00038954       ?dtor$42@?0??copy_files@@YAX_NAEBVUnicodeString@col@@AEBV?$ObjectArray@UFileInfo@@@2@011AEAUCopyFilesStats@@AEAUCopyFilesProgress@@AEAUCopyFilesOptions@@AEAVUiLink@@AEAUAutoBuffer@@AEAULog@@AEAV?$ObjectArray@UFilterInterface@@@2@PEAUIRAPISession@@PEAUPluginInstance@@@Z@4HA 0000000074039954 f    CIL library: CIL module
 0001:00038964       ?dtor$1@?0??copy_files@@YAX_NAEBVUnicodeString@col@@AEBV?$ObjectArray@UFileInfo@@@2@011AEAUCopyFilesStats@@AEAUCopyFilesProgress@@AEAUCopyFilesOptions@@AEAVUiLink@@AEAUAutoBuffer@@AEAULog@@AEAV?$ObjectArray@UFilterInterface@@@2@PEAUIRAPISession@@PEAUPluginInstance@@@Z@4HA 0000000074039964 f    CIL library: CIL module
 0001:00038974       ?dtor$43@?0??copy_files@@YAX_NAEBVUnicodeString@col@@AEBV?$ObjectArray@UFileInfo@@@2@011AEAUCopyFilesStats@@AEAUCopyFilesProgress@@AEAUCopyFilesOptions@@AEAVUiLink@@AEAUAutoBuffer@@AEAULog@@AEAV?$ObjectArray@UFilterInterface@@@2@PEAUIRAPISession@@PEAUPluginInstance@@@Z@4HA 0000000074039974 f    CIL library: CIL module
 0001:00038984       ?dtor$44@?0??copy_files@@YAX_NAEBVUnicodeString@col@@AEBV?$ObjectArray@UFileInfo@@@2@011AEAUCopyFilesStats@@AEAUCopyFilesProgress@@AEAUCopyFilesOptions@@AEAVUiLink@@AEAUAutoBuffer@@AEAULog@@AEAV?$ObjectArray@UFilterInterface@@@2@PEAUIRAPISession@@PEAUPluginInstance@@@Z@4HA 0000000074039984 f    CIL library: CIL module
 0001:00038994       ?dtor$2@?0??copy_files@@YAX_NAEBVUnicodeString@col@@AEBV?$ObjectArray@UFileInfo@@@2@011AEAUCopyFilesStats@@AEAUCopyFilesProgress@@AEAUCopyFilesOptions@@AEAVUiLink@@AEAUAutoBuffer@@AEAULog@@AEAV?$ObjectArray@UFilterInterface@@@2@PEAUIRAPISession@@PEAUPluginInstance@@@Z@4HA 0000000074039994 f    CIL library: CIL module
 0001:000389a4       ?dtor$3@?0??copy_files@@YAX_NAEBVUnicodeString@col@@AEBV?$ObjectArray@UFileInfo@@@2@011AEAUCopyFilesStats@@AEAUCopyFilesProgress@@AEAUCopyFilesOptions@@AEAVUiLink@@AEAUAutoBuffer@@AEAULog@@AEAV?$ObjectArray@UFilterInterface@@@2@PEAUIRAPISession@@PEAUPluginInstance@@@Z@4HA 00000000740399a4 f    CIL library: CIL module
 0001:000389b4       ?dtor$4@?0??copy_files@@YAX_NAEBVUnicodeString@col@@AEBV?$ObjectArray@UFileInfo@@@2@011AEAUCopyFilesStats@@AEAUCopyFilesProgress@@AEAUCopyFilesOptions@@AEAVUiLink@@AEAUAutoBuffer@@AEAULog@@AEAV?$ObjectArray@UFilterInterface@@@2@PEAUIRAPISession@@PEAUPluginInstance@@@Z@4HA 00000000740399b4 f    CIL library: CIL module
 0001:000389c4       ?dtor$5@?0??copy_files@@YAX_NAEBVUnicodeString@col@@AEBV?$ObjectArray@UFileInfo@@@2@011AEAUCopyFilesStats@@AEAUCopyFilesProgress@@AEAUCopyFilesOptions@@AEAVUiLink@@AEAUAutoBuffer@@AEAULog@@AEAV?$ObjectArray@UFilterInterface@@@2@PEAUIRAPISession@@PEAUPluginInstance@@@Z@4HA 00000000740399c4 f    CIL library: CIL module
 0001:000389d4       ?dtor$6@?0??copy_files@@YAX_NAEBVUnicodeString@col@@AEBV?$ObjectArray@UFileInfo@@@2@011AEAUCopyFilesStats@@AEAUCopyFilesProgress@@AEAUCopyFilesOptions@@AEAVUiLink@@AEAUAutoBuffer@@AEAULog@@AEAV?$ObjectArray@UFilterInterface@@@2@PEAUIRAPISession@@PEAUPluginInstance@@@Z@4HA 00000000740399d4 f    CIL library: CIL module
 0001:000389e4       ?dtor$9@?0??copy_files@@YAX_NAEBVUnicodeString@col@@AEBV?$ObjectArray@UFileInfo@@@2@011AEAUCopyFilesStats@@AEAUCopyFilesProgress@@AEAUCopyFilesOptions@@AEAVUiLink@@AEAUAutoBuffer@@AEAULog@@AEAV?$ObjectArray@UFilterInterface@@@2@PEAUIRAPISession@@PEAUPluginInstance@@@Z@4HA 00000000740399e4 f    CIL library: CIL module
 0001:000389f4       ?dtor$11@?0??copy_files@@YAX_NAEBVUnicodeString@col@@AEBV?$ObjectArray@UFileInfo@@@2@011AEAUCopyFilesStats@@AEAUCopyFilesProgress@@AEAUCopyFilesOptions@@AEAVUiLink@@AEAUAutoBuffer@@AEAULog@@AEAV?$ObjectArray@UFilterInterface@@@2@PEAUIRAPISession@@PEAUPluginInstance@@@Z@4HA 00000000740399f4 f    CIL library: CIL module
 0001:00038a04       ?catch$0@?0??copy_files@@YAX_NAEBVUnicodeString@col@@AEBV?$ObjectArray@UFileInfo@@@2@011AEAUCopyFilesStats@@AEAUCopyFilesProgress@@AEAUCopyFilesOptions@@AEAVUiLink@@AEAUAutoBuffer@@AEAULog@@AEAV?$ObjectArray@UFilterInterface@@@2@PEAUIRAPISession@@PEAUPluginInstance@@@Z@4HA 0000000074039a04 f    CIL library: CIL module
 0001:00038a11       __catch$?copy_files@@YAX_NAEBVUnicodeString@col@@AEBV?$ObjectArray@UFileInfo@@@2@011AEAUCopyFilesStats@@AEAUCopyFilesProgress@@AEAUCopyFilesOptions@@AEAVUiLink@@AEAUAutoBuffer@@AEAULog@@AEAV?$ObjectArray@UFilterInterface@@@2@PEAUIRAPISession@@PEAUPluginInstance@@@Z$0 0000000074039a11 f    CIL library: CIL module
 0001:00038a34       ?catch$1@?0??copy_files@@YAX_NAEBVUnicodeString@col@@AEBV?$ObjectArray@UFileInfo@@@2@011AEAUCopyFilesStats@@AEAUCopyFilesProgress@@AEAUCopyFilesOptions@@AEAVUiLink@@AEAUAutoBuffer@@AEAULog@@AEAV?$ObjectArray@UFilterInterface@@@2@PEAUIRAPISession@@PEAUPluginInstance@@@Z@4HA 0000000074039a34 f    CIL library: CIL module
 0001:00038a41       __catch$?copy_files@@YAX_NAEBVUnicodeString@col@@AEBV?$ObjectArray@UFileInfo@@@2@011AEAUCopyFilesStats@@AEAUCopyFilesProgress@@AEAUCopyFilesOptions@@AEAVUiLink@@AEAUAutoBuffer@@AEAULog@@AEAV?$ObjectArray@UFilterInterface@@@2@PEAUIRAPISession@@PEAUPluginInstance@@@Z$2 0000000074039a41 f    CIL library: CIL module
 0001:00038a64       ?catch$2@?0??copy_files@@YAX_NAEBVUnicodeString@col@@AEBV?$ObjectArray@UFileInfo@@@2@011AEAUCopyFilesStats@@AEAUCopyFilesProgress@@AEAUCopyFilesOptions@@AEAVUiLink@@AEAUAutoBuffer@@AEAULog@@AEAV?$ObjectArray@UFilterInterface@@@2@PEAUIRAPISession@@PEAUPluginInstance@@@Z@4HA 0000000074039a64 f    CIL library: CIL module
 0001:00038a71       __catch$?copy_files@@YAX_NAEBVUnicodeString@col@@AEBV?$ObjectArray@UFileInfo@@@2@011AEAUCopyFilesStats@@AEAUCopyFilesProgress@@AEAUCopyFilesOptions@@AEAVUiLink@@AEAUAutoBuffer@@AEAULog@@AEAV?$ObjectArray@UFilterInterface@@@2@PEAUIRAPISession@@PEAUPluginInstance@@@Z$4 0000000074039a71 f    CIL library: CIL module
 0001:00038a94       ?catch$4@?0??copy_files@@YAX_NAEBVUnicodeString@col@@AEBV?$ObjectArray@UFileInfo@@@2@011AEAUCopyFilesStats@@AEAUCopyFilesProgress@@AEAUCopyFilesOptions@@AEAVUiLink@@AEAUAutoBuffer@@AEAULog@@AEAV?$ObjectArray@UFilterInterface@@@2@PEAUIRAPISession@@PEAUPluginInstance@@@Z@4HA 0000000074039a94 f    CIL library: CIL module
 0001:00038aa3       __catch$?copy_files@@YAX_NAEBVUnicodeString@col@@AEBV?$ObjectArray@UFileInfo@@@2@011AEAUCopyFilesStats@@AEAUCopyFilesProgress@@AEAUCopyFilesOptions@@AEAVUiLink@@AEAUAutoBuffer@@AEAULog@@AEAV?$ObjectArray@UFilterInterface@@@2@PEAUIRAPISession@@PEAUPluginInstance@@@Z$6 0000000074039aa3 f    CIL library: CIL module
 0001:00038b84       ?dtor$13@?0??copy_files@@YAX_NAEBVUnicodeString@col@@AEBV?$ObjectArray@UFileInfo@@@2@011AEAUCopyFilesStats@@AEAUCopyFilesProgress@@AEAUCopyFilesOptions@@AEAVUiLink@@AEAUAutoBuffer@@AEAULog@@AEAV?$ObjectArray@UFilterInterface@@@2@PEAUIRAPISession@@PEAUPluginInstance@@@Z@4HA 0000000074039b84 f    CIL library: CIL module
 0001:00038b94       ?catch$3@?0??copy_files@@YAX_NAEBVUnicodeString@col@@AEBV?$ObjectArray@UFileInfo@@@2@011AEAUCopyFilesStats@@AEAUCopyFilesProgress@@AEAUCopyFilesOptions@@AEAVUiLink@@AEAUAutoBuffer@@AEAULog@@AEAV?$ObjectArray@UFilterInterface@@@2@PEAUIRAPISession@@PEAUPluginInstance@@@Z@4HA 0000000074039b94 f    CIL library: CIL module
 0001:00038ba1       __catch$?copy_files@@YAX_NAEBVUnicodeString@col@@AEBV?$ObjectArray@UFileInfo@@@2@011AEAUCopyFilesStats@@AEAUCopyFilesProgress@@AEAUCopyFilesOptions@@AEAVUiLink@@AEAUAutoBuffer@@AEAULog@@AEAV?$ObjectArray@UFilterInterface@@@2@PEAUIRAPISession@@PEAUPluginInstance@@@Z$7 0000000074039ba1 f    CIL library: CIL module
 0001:00038bc4       ?catch$5@?0??copy_files@@YAX_NAEBVUnicodeString@col@@AEBV?$ObjectArray@UFileInfo@@@2@011AEAUCopyFilesStats@@AEAUCopyFilesProgress@@AEAUCopyFilesOptions@@AEAVUiLink@@AEAUAutoBuffer@@AEAULog@@AEAV?$ObjectArray@UFilterInterface@@@2@PEAUIRAPISession@@PEAUPluginInstance@@@Z@4HA 0000000074039bc4 f    CIL library: CIL module
 0001:00038bd1       __catch$?copy_files@@YAX_NAEBVUnicodeString@col@@AEBV?$ObjectArray@UFileInfo@@@2@011AEAUCopyFilesStats@@AEAUCopyFilesProgress@@AEAUCopyFilesOptions@@AEAVUiLink@@AEAUAutoBuffer@@AEAULog@@AEAV?$ObjectArray@UFilterInterface@@@2@PEAUIRAPISession@@PEAUPluginInstance@@@Z$10 0000000074039bd1 f    CIL library: CIL module
 0001:00038bf4       ?catch$6@?0??copy_files@@YAX_NAEBVUnicodeString@col@@AEBV?$ObjectArray@UFileInfo@@@2@011AEAUCopyFilesStats@@AEAUCopyFilesProgress@@AEAUCopyFilesOptions@@AEAVUiLink@@AEAUAutoBuffer@@AEAULog@@AEAV?$ObjectArray@UFilterInterface@@@2@PEAUIRAPISession@@PEAUPluginInstance@@@Z@4HA 0000000074039bf4 f    CIL library: CIL module
 0001:00038c01       __catch$?copy_files@@YAX_NAEBVUnicodeString@col@@AEBV?$ObjectArray@UFileInfo@@@2@011AEAUCopyFilesStats@@AEAUCopyFilesProgress@@AEAUCopyFilesOptions@@AEAVUiLink@@AEAUAutoBuffer@@AEAULog@@AEAV?$ObjectArray@UFilterInterface@@@2@PEAUIRAPISession@@PEAUPluginInstance@@@Z$12 0000000074039c01 f    CIL library: CIL module
 0001:00038c24       ?catch$8@?0??copy_files@@YAX_NAEBVUnicodeString@col@@AEBV?$ObjectArray@UFileInfo@@@2@011AEAUCopyFilesStats@@AEAUCopyFilesProgress@@AEAUCopyFilesOptions@@AEAVUiLink@@AEAUAutoBuffer@@AEAULog@@AEAV?$ObjectArray@UFilterInterface@@@2@PEAUIRAPISession@@PEAUPluginInstance@@@Z@4HA 0000000074039c24 f    CIL library: CIL module
 0001:00038c33       __catch$?copy_files@@YAX_NAEBVUnicodeString@col@@AEBV?$ObjectArray@UFileInfo@@@2@011AEAUCopyFilesStats@@AEAUCopyFilesProgress@@AEAUCopyFilesOptions@@AEAVUiLink@@AEAUAutoBuffer@@AEAULog@@AEAV?$ObjectArray@UFilterInterface@@@2@PEAUIRAPISession@@PEAUPluginInstance@@@Z$14 0000000074039c33 f    CIL library: CIL module
 0001:00038d14       ?dtor$15@?0??copy_files@@YAX_NAEBVUnicodeString@col@@AEBV?$ObjectArray@UFileInfo@@@2@011AEAUCopyFilesStats@@AEAUCopyFilesProgress@@AEAUCopyFilesOptions@@AEAVUiLink@@AEAUAutoBuffer@@AEAULog@@AEAV?$ObjectArray@UFilterInterface@@@2@PEAUIRAPISession@@PEAUPluginInstance@@@Z@4HA 0000000074039d14 f    CIL library: CIL module
 0001:00038d24       ?catch$7@?0??copy_files@@YAX_NAEBVUnicodeString@col@@AEBV?$ObjectArray@UFileInfo@@@2@011AEAUCopyFilesStats@@AEAUCopyFilesProgress@@AEAUCopyFilesOptions@@AEAVUiLink@@AEAUAutoBuffer@@AEAULog@@AEAV?$ObjectArray@UFilterInterface@@@2@PEAUIRAPISession@@PEAUPluginInstance@@@Z@4HA 0000000074039d24 f    CIL library: CIL module
 0001:00038d31       __catch$?copy_files@@YAX_NAEBVUnicodeString@col@@AEBV?$ObjectArray@UFileInfo@@@2@011AEAUCopyFilesStats@@AEAUCopyFilesProgress@@AEAUCopyFilesOptions@@AEAVUiLink@@AEAUAutoBuffer@@AEAULog@@AEAV?$ObjectArray@UFilterInterface@@@2@PEAUIRAPISession@@PEAUPluginInstance@@@Z$15 0000000074039d31 f    CIL library: CIL module
 0001:00038d54       ?catch$9@?0??copy_files@@YAX_NAEBVUnicodeString@col@@AEBV?$ObjectArray@UFileInfo@@@2@011AEAUCopyFilesStats@@AEAUCopyFilesProgress@@AEAUCopyFilesOptions@@AEAVUiLink@@AEAUAutoBuffer@@AEAULog@@AEAV?$ObjectArray@UFilterInterface@@@2@PEAUIRAPISession@@PEAUPluginInstance@@@Z@4HA 0000000074039d54 f    CIL library: CIL module
 0001:00038d61       __catch$?copy_files@@YAX_NAEBVUnicodeString@col@@AEBV?$ObjectArray@UFileInfo@@@2@011AEAUCopyFilesStats@@AEAUCopyFilesProgress@@AEAUCopyFilesOptions@@AEAVUiLink@@AEAUAutoBuffer@@AEAULog@@AEAV?$ObjectArray@UFilterInterface@@@2@PEAUIRAPISession@@PEAUPluginInstance@@@Z$18 0000000074039d61 f    CIL library: CIL module
 0001:00038de4       ?dtor$16@?0??copy_files@@YAX_NAEBVUnicodeString@col@@AEBV?$ObjectArray@UFileInfo@@@2@011AEAUCopyFilesStats@@AEAUCopyFilesProgress@@AEAUCopyFilesOptions@@AEAVUiLink@@AEAUAutoBuffer@@AEAULog@@AEAV?$ObjectArray@UFilterInterface@@@2@PEAUIRAPISession@@PEAUPluginInstance@@@Z@4HA 0000000074039de4 f    CIL library: CIL module
 0001:00038df4       ?dtor$17@?0??copy_files@@YAX_NAEBVUnicodeString@col@@AEBV?$ObjectArray@UFileInfo@@@2@011AEAUCopyFilesStats@@AEAUCopyFilesProgress@@AEAUCopyFilesOptions@@AEAVUiLink@@AEAUAutoBuffer@@AEAULog@@AEAV?$ObjectArray@UFilterInterface@@@2@PEAUIRAPISession@@PEAUPluginInstance@@@Z@4HA 0000000074039df4 f    CIL library: CIL module
 0001:00038e04       ?catch$10@?0??copy_files@@YAX_NAEBVUnicodeString@col@@AEBV?$ObjectArray@UFileInfo@@@2@011AEAUCopyFilesStats@@AEAUCopyFilesProgress@@AEAUCopyFilesOptions@@AEAVUiLink@@AEAUAutoBuffer@@AEAULog@@AEAV?$ObjectArray@UFilterInterface@@@2@PEAUIRAPISession@@PEAUPluginInstance@@@Z@4HA 0000000074039e04 f    CIL library: CIL module
 0001:00038e11       __catch$?copy_files@@YAX_NAEBVUnicodeString@col@@AEBV?$ObjectArray@UFileInfo@@@2@011AEAUCopyFilesStats@@AEAUCopyFilesProgress@@AEAUCopyFilesOptions@@AEAVUiLink@@AEAUAutoBuffer@@AEAULog@@AEAV?$ObjectArray@UFilterInterface@@@2@PEAUIRAPISession@@PEAUPluginInstance@@@Z$20 0000000074039e11 f    CIL library: CIL module
 0001:00038e34       ?catch$11@?0??copy_files@@YAX_NAEBVUnicodeString@col@@AEBV?$ObjectArray@UFileInfo@@@2@011AEAUCopyFilesStats@@AEAUCopyFilesProgress@@AEAUCopyFilesOptions@@AEAVUiLink@@AEAUAutoBuffer@@AEAULog@@AEAV?$ObjectArray@UFilterInterface@@@2@PEAUIRAPISession@@PEAUPluginInstance@@@Z@4HA 0000000074039e34 f    CIL library: CIL module
 0001:00038e41       __catch$?copy_files@@YAX_NAEBVUnicodeString@col@@AEBV?$ObjectArray@UFileInfo@@@2@011AEAUCopyFilesStats@@AEAUCopyFilesProgress@@AEAUCopyFilesOptions@@AEAVUiLink@@AEAUAutoBuffer@@AEAULog@@AEAV?$ObjectArray@UFilterInterface@@@2@PEAUIRAPISession@@PEAUPluginInstance@@@Z$22 0000000074039e41 f    CIL library: CIL module
 0001:00038e64       ?catch$13@?0??copy_files@@YAX_NAEBVUnicodeString@col@@AEBV?$ObjectArray@UFileInfo@@@2@011AEAUCopyFilesStats@@AEAUCopyFilesProgress@@AEAUCopyFilesOptions@@AEAVUiLink@@AEAUAutoBuffer@@AEAULog@@AEAV?$ObjectArray@UFilterInterface@@@2@PEAUIRAPISession@@PEAUPluginInstance@@@Z@4HA 0000000074039e64 f    CIL library: CIL module
 0001:00038e73       __catch$?copy_files@@YAX_NAEBVUnicodeString@col@@AEBV?$ObjectArray@UFileInfo@@@2@011AEAUCopyFilesStats@@AEAUCopyFilesProgress@@AEAUCopyFilesOptions@@AEAVUiLink@@AEAUAutoBuffer@@AEAULog@@AEAV?$ObjectArray@UFilterInterface@@@2@PEAUIRAPISession@@PEAUPluginInstance@@@Z$24 0000000074039e73 f    CIL library: CIL module
 0001:00038f54       ?dtor$18@?0??copy_files@@YAX_NAEBVUnicodeString@col@@AEBV?$ObjectArray@UFileInfo@@@2@011AEAUCopyFilesStats@@AEAUCopyFilesProgress@@AEAUCopyFilesOptions@@AEAVUiLink@@AEAUAutoBuffer@@AEAULog@@AEAV?$ObjectArray@UFilterInterface@@@2@PEAUIRAPISession@@PEAUPluginInstance@@@Z@4HA 0000000074039f54 f    CIL library: CIL module
 0001:00038f64       ?catch$12@?0??copy_files@@YAX_NAEBVUnicodeString@col@@AEBV?$ObjectArray@UFileInfo@@@2@011AEAUCopyFilesStats@@AEAUCopyFilesProgress@@AEAUCopyFilesOptions@@AEAVUiLink@@AEAUAutoBuffer@@AEAULog@@AEAV?$ObjectArray@UFilterInterface@@@2@PEAUIRAPISession@@PEAUPluginInstance@@@Z@4HA 0000000074039f64 f    CIL library: CIL module
 0001:00038f71       __catch$?copy_files@@YAX_NAEBVUnicodeString@col@@AEBV?$ObjectArray@UFileInfo@@@2@011AEAUCopyFilesStats@@AEAUCopyFilesProgress@@AEAUCopyFilesOptions@@AEAVUiLink@@AEAUAutoBuffer@@AEAULog@@AEAV?$ObjectArray@UFilterInterface@@@2@PEAUIRAPISession@@PEAUPluginInstance@@@Z$25 0000000074039f71 f    CIL library: CIL module
 0001:00038f94       ?dtor$19@?0??copy_files@@YAX_NAEBVUnicodeString@col@@AEBV?$ObjectArray@UFileInfo@@@2@011AEAUCopyFilesStats@@AEAUCopyFilesProgress@@AEAUCopyFilesOptions@@AEAVUiLink@@AEAUAutoBuffer@@AEAULog@@AEAV?$ObjectArray@UFilterInterface@@@2@PEAUIRAPISession@@PEAUPluginInstance@@@Z@4HA 0000000074039f94 f    CIL library: CIL module
 0001:00038fa4       ?dtor$20@?0??copy_files@@YAX_NAEBVUnicodeString@col@@AEBV?$ObjectArray@UFileInfo@@@2@011AEAUCopyFilesStats@@AEAUCopyFilesProgress@@AEAUCopyFilesOptions@@AEAVUiLink@@AEAUAutoBuffer@@AEAULog@@AEAV?$ObjectArray@UFilterInterface@@@2@PEAUIRAPISession@@PEAUPluginInstance@@@Z@4HA 0000000074039fa4 f    CIL library: CIL module
 0001:00038fb4       ?dtor$22@?0??copy_files@@YAX_NAEBVUnicodeString@col@@AEBV?$ObjectArray@UFileInfo@@@2@011AEAUCopyFilesStats@@AEAUCopyFilesProgress@@AEAUCopyFilesOptions@@AEAVUiLink@@AEAUAutoBuffer@@AEAULog@@AEAV?$ObjectArray@UFilterInterface@@@2@PEAUIRAPISession@@PEAUPluginInstance@@@Z@4HA 0000000074039fb4 f    CIL library: CIL module
 0001:00038fc4       ?dtor$23@?0??copy_files@@YAX_NAEBVUnicodeString@col@@AEBV?$ObjectArray@UFileInfo@@@2@011AEAUCopyFilesStats@@AEAUCopyFilesProgress@@AEAUCopyFilesOptions@@AEAVUiLink@@AEAUAutoBuffer@@AEAULog@@AEAV?$ObjectArray@UFilterInterface@@@2@PEAUIRAPISession@@PEAUPluginInstance@@@Z@4HA 0000000074039fc4 f    CIL library: CIL module
 0001:00038fd4       ?dtor$24@?0??copy_files@@YAX_NAEBVUnicodeString@col@@AEBV?$ObjectArray@UFileInfo@@@2@011AEAUCopyFilesStats@@AEAUCopyFilesProgress@@AEAUCopyFilesOptions@@AEAVUiLink@@AEAUAutoBuffer@@AEAULog@@AEAV?$ObjectArray@UFilterInterface@@@2@PEAUIRAPISession@@PEAUPluginInstance@@@Z@4HA 0000000074039fd4 f    CIL library: CIL module
 0001:00038fe4       ?dtor$25@?0??copy_files@@YAX_NAEBVUnicodeString@col@@AEBV?$ObjectArray@UFileInfo@@@2@011AEAUCopyFilesStats@@AEAUCopyFilesProgress@@AEAUCopyFilesOptions@@AEAVUiLink@@AEAUAutoBuffer@@AEAULog@@AEAV?$ObjectArray@UFilterInterface@@@2@PEAUIRAPISession@@PEAUPluginInstance@@@Z@4HA 0000000074039fe4 f    CIL library: CIL module
 0001:00038ff4       ?catch$14@?0??copy_files@@YAX_NAEBVUnicodeString@col@@AEBV?$ObjectArray@UFileInfo@@@2@011AEAUCopyFilesStats@@AEAUCopyFilesProgress@@AEAUCopyFilesOptions@@AEAVUiLink@@AEAUAutoBuffer@@AEAULog@@AEAV?$ObjectArray@UFilterInterface@@@2@PEAUIRAPISession@@PEAUPluginInstance@@@Z@4HA 0000000074039ff4 f    CIL library: CIL module
 0001:00039001       __catch$?copy_files@@YAX_NAEBVUnicodeString@col@@AEBV?$ObjectArray@UFileInfo@@@2@011AEAUCopyFilesStats@@AEAUCopyFilesProgress@@AEAUCopyFilesOptions@@AEAVUiLink@@AEAUAutoBuffer@@AEAULog@@AEAV?$ObjectArray@UFilterInterface@@@2@PEAUIRAPISession@@PEAUPluginInstance@@@Z$28 000000007403a001 f    CIL library: CIL module
 0001:00039024       ?catch$15@?0??copy_files@@YAX_NAEBVUnicodeString@col@@AEBV?$ObjectArray@UFileInfo@@@2@011AEAUCopyFilesStats@@AEAUCopyFilesProgress@@AEAUCopyFilesOptions@@AEAVUiLink@@AEAUAutoBuffer@@AEAULog@@AEAV?$ObjectArray@UFilterInterface@@@2@PEAUIRAPISession@@PEAUPluginInstance@@@Z@4HA 000000007403a024 f    CIL library: CIL module
 0001:00039031       __catch$?copy_files@@YAX_NAEBVUnicodeString@col@@AEBV?$ObjectArray@UFileInfo@@@2@011AEAUCopyFilesStats@@AEAUCopyFilesProgress@@AEAUCopyFilesOptions@@AEAVUiLink@@AEAUAutoBuffer@@AEAULog@@AEAV?$ObjectArray@UFilterInterface@@@2@PEAUIRAPISession@@PEAUPluginInstance@@@Z$30 000000007403a031 f    CIL library: CIL module
 0001:00039054       ?catch$16@?0??copy_files@@YAX_NAEBVUnicodeString@col@@AEBV?$ObjectArray@UFileInfo@@@2@011AEAUCopyFilesStats@@AEAUCopyFilesProgress@@AEAUCopyFilesOptions@@AEAVUiLink@@AEAUAutoBuffer@@AEAULog@@AEAV?$ObjectArray@UFilterInterface@@@2@PEAUIRAPISession@@PEAUPluginInstance@@@Z@4HA 000000007403a054 f    CIL library: CIL module
 0001:00039061       __catch$?copy_files@@YAX_NAEBVUnicodeString@col@@AEBV?$ObjectArray@UFileInfo@@@2@011AEAUCopyFilesStats@@AEAUCopyFilesProgress@@AEAUCopyFilesOptions@@AEAVUiLink@@AEAUAutoBuffer@@AEAULog@@AEAV?$ObjectArray@UFilterInterface@@@2@PEAUIRAPISession@@PEAUPluginInstance@@@Z$32 000000007403a061 f    CIL library: CIL module
 0001:00039084       ?catch$18@?0??copy_files@@YAX_NAEBVUnicodeString@col@@AEBV?$ObjectArray@UFileInfo@@@2@011AEAUCopyFilesStats@@AEAUCopyFilesProgress@@AEAUCopyFilesOptions@@AEAVUiLink@@AEAUAutoBuffer@@AEAULog@@AEAV?$ObjectArray@UFilterInterface@@@2@PEAUIRAPISession@@PEAUPluginInstance@@@Z@4HA 000000007403a084 f    CIL library: CIL module
 0001:00039093       __catch$?copy_files@@YAX_NAEBVUnicodeString@col@@AEBV?$ObjectArray@UFileInfo@@@2@011AEAUCopyFilesStats@@AEAUCopyFilesProgress@@AEAUCopyFilesOptions@@AEAVUiLink@@AEAUAutoBuffer@@AEAULog@@AEAV?$ObjectArray@UFilterInterface@@@2@PEAUIRAPISession@@PEAUPluginInstance@@@Z$34 000000007403a093 f    CIL library: CIL module
 0001:00039174       ?dtor$27@?0??copy_files@@YAX_NAEBVUnicodeString@col@@AEBV?$ObjectArray@UFileInfo@@@2@011AEAUCopyFilesStats@@AEAUCopyFilesProgress@@AEAUCopyFilesOptions@@AEAVUiLink@@AEAUAutoBuffer@@AEAULog@@AEAV?$ObjectArray@UFilterInterface@@@2@PEAUIRAPISession@@PEAUPluginInstance@@@Z@4HA 000000007403a174 f    CIL library: CIL module
 0001:00039184       ?catch$17@?0??copy_files@@YAX_NAEBVUnicodeString@col@@AEBV?$ObjectArray@UFileInfo@@@2@011AEAUCopyFilesStats@@AEAUCopyFilesProgress@@AEAUCopyFilesOptions@@AEAVUiLink@@AEAUAutoBuffer@@AEAULog@@AEAV?$ObjectArray@UFilterInterface@@@2@PEAUIRAPISession@@PEAUPluginInstance@@@Z@4HA 000000007403a184 f    CIL library: CIL module
 0001:00039191       __catch$?copy_files@@YAX_NAEBVUnicodeString@col@@AEBV?$ObjectArray@UFileInfo@@@2@011AEAUCopyFilesStats@@AEAUCopyFilesProgress@@AEAUCopyFilesOptions@@AEAVUiLink@@AEAUAutoBuffer@@AEAULog@@AEAV?$ObjectArray@UFilterInterface@@@2@PEAUIRAPISession@@PEAUPluginInstance@@@Z$35 000000007403a191 f    CIL library: CIL module
 0001:000391b4       ?dtor$28@?0??copy_files@@YAX_NAEBVUnicodeString@col@@AEBV?$ObjectArray@UFileInfo@@@2@011AEAUCopyFilesStats@@AEAUCopyFilesProgress@@AEAUCopyFilesOptions@@AEAVUiLink@@AEAUAutoBuffer@@AEAULog@@AEAV?$ObjectArray@UFilterInterface@@@2@PEAUIRAPISession@@PEAUPluginInstance@@@Z@4HA 000000007403a1b4 f    CIL library: CIL module
 0001:000391c4       ?dtor$30@?0??copy_files@@YAX_NAEBVUnicodeString@col@@AEBV?$ObjectArray@UFileInfo@@@2@011AEAUCopyFilesStats@@AEAUCopyFilesProgress@@AEAUCopyFilesOptions@@AEAVUiLink@@AEAUAutoBuffer@@AEAULog@@AEAV?$ObjectArray@UFilterInterface@@@2@PEAUIRAPISession@@PEAUPluginInstance@@@Z@4HA 000000007403a1c4 f    CIL library: CIL module
 0001:000391d4       ?catch$19@?0??copy_files@@YAX_NAEBVUnicodeString@col@@AEBV?$ObjectArray@UFileInfo@@@2@011AEAUCopyFilesStats@@AEAUCopyFilesProgress@@AEAUCopyFilesOptions@@AEAVUiLink@@AEAUAutoBuffer@@AEAULog@@AEAV?$ObjectArray@UFilterInterface@@@2@PEAUIRAPISession@@PEAUPluginInstance@@@Z@4HA 000000007403a1d4 f    CIL library: CIL module
 0001:000391e1       __catch$?copy_files@@YAX_NAEBVUnicodeString@col@@AEBV?$ObjectArray@UFileInfo@@@2@011AEAUCopyFilesStats@@AEAUCopyFilesProgress@@AEAUCopyFilesOptions@@AEAVUiLink@@AEAUAutoBuffer@@AEAULog@@AEAV?$ObjectArray@UFilterInterface@@@2@PEAUIRAPISession@@PEAUPluginInstance@@@Z$38 000000007403a1e1 f    CIL library: CIL module
 0001:00039204       ?catch$20@?0??copy_files@@YAX_NAEBVUnicodeString@col@@AEBV?$ObjectArray@UFileInfo@@@2@011AEAUCopyFilesStats@@AEAUCopyFilesProgress@@AEAUCopyFilesOptions@@AEAVUiLink@@AEAUAutoBuffer@@AEAULog@@AEAV?$ObjectArray@UFilterInterface@@@2@PEAUIRAPISession@@PEAUPluginInstance@@@Z@4HA 000000007403a204 f    CIL library: CIL module
 0001:00039211       __catch$?copy_files@@YAX_NAEBVUnicodeString@col@@AEBV?$ObjectArray@UFileInfo@@@2@011AEAUCopyFilesStats@@AEAUCopyFilesProgress@@AEAUCopyFilesOptions@@AEAVUiLink@@AEAUAutoBuffer@@AEAULog@@AEAV?$ObjectArray@UFilterInterface@@@2@PEAUIRAPISession@@PEAUPluginInstance@@@Z$40 000000007403a211 f    CIL library: CIL module
 0001:00039234       ?catch$21@?0??copy_files@@YAX_NAEBVUnicodeString@col@@AEBV?$ObjectArray@UFileInfo@@@2@011AEAUCopyFilesStats@@AEAUCopyFilesProgress@@AEAUCopyFilesOptions@@AEAVUiLink@@AEAUAutoBuffer@@AEAULog@@AEAV?$ObjectArray@UFilterInterface@@@2@PEAUIRAPISession@@PEAUPluginInstance@@@Z@4HA 000000007403a234 f    CIL library: CIL module
 0001:00039241       __catch$?copy_files@@YAX_NAEBVUnicodeString@col@@AEBV?$ObjectArray@UFileInfo@@@2@011AEAUCopyFilesStats@@AEAUCopyFilesProgress@@AEAUCopyFilesOptions@@AEAVUiLink@@AEAUAutoBuffer@@AEAULog@@AEAV?$ObjectArray@UFilterInterface@@@2@PEAUIRAPISession@@PEAUPluginInstance@@@Z$42 000000007403a241 f    CIL library: CIL module
 0001:00039264       ?catch$23@?0??copy_files@@YAX_NAEBVUnicodeString@col@@AEBV?$ObjectArray@UFileInfo@@@2@011AEAUCopyFilesStats@@AEAUCopyFilesProgress@@AEAUCopyFilesOptions@@AEAVUiLink@@AEAUAutoBuffer@@AEAULog@@AEAV?$ObjectArray@UFilterInterface@@@2@PEAUIRAPISession@@PEAUPluginInstance@@@Z@4HA 000000007403a264 f    CIL library: CIL module
 0001:00039273       __catch$?copy_files@@YAX_NAEBVUnicodeString@col@@AEBV?$ObjectArray@UFileInfo@@@2@011AEAUCopyFilesStats@@AEAUCopyFilesProgress@@AEAUCopyFilesOptions@@AEAVUiLink@@AEAUAutoBuffer@@AEAULog@@AEAV?$ObjectArray@UFilterInterface@@@2@PEAUIRAPISession@@PEAUPluginInstance@@@Z$44 000000007403a273 f    CIL library: CIL module
 0001:00039354       ?dtor$33@?0??copy_files@@YAX_NAEBVUnicodeString@col@@AEBV?$ObjectArray@UFileInfo@@@2@011AEAUCopyFilesStats@@AEAUCopyFilesProgress@@AEAUCopyFilesOptions@@AEAVUiLink@@AEAUAutoBuffer@@AEAULog@@AEAV?$ObjectArray@UFilterInterface@@@2@PEAUIRAPISession@@PEAUPluginInstance@@@Z@4HA 000000007403a354 f    CIL library: CIL module
 0001:00039364       ?catch$22@?0??copy_files@@YAX_NAEBVUnicodeString@col@@AEBV?$ObjectArray@UFileInfo@@@2@011AEAUCopyFilesStats@@AEAUCopyFilesProgress@@AEAUCopyFilesOptions@@AEAVUiLink@@AEAUAutoBuffer@@AEAULog@@AEAV?$ObjectArray@UFilterInterface@@@2@PEAUIRAPISession@@PEAUPluginInstance@@@Z@4HA 000000007403a364 f    CIL library: CIL module
 0001:00039371       __catch$?copy_files@@YAX_NAEBVUnicodeString@col@@AEBV?$ObjectArray@UFileInfo@@@2@011AEAUCopyFilesStats@@AEAUCopyFilesProgress@@AEAUCopyFilesOptions@@AEAVUiLink@@AEAUAutoBuffer@@AEAULog@@AEAV?$ObjectArray@UFilterInterface@@@2@PEAUIRAPISession@@PEAUPluginInstance@@@Z$45 000000007403a371 f    CIL library: CIL module
 0001:00039394       ?catch$24@?0??copy_files@@YAX_NAEBVUnicodeString@col@@AEBV?$ObjectArray@UFileInfo@@@2@011AEAUCopyFilesStats@@AEAUCopyFilesProgress@@AEAUCopyFilesOptions@@AEAVUiLink@@AEAUAutoBuffer@@AEAULog@@AEAV?$ObjectArray@UFilterInterface@@@2@PEAUIRAPISession@@PEAUPluginInstance@@@Z@4HA 000000007403a394 f    CIL library: CIL module
 0001:000393a1       __catch$?copy_files@@YAX_NAEBVUnicodeString@col@@AEBV?$ObjectArray@UFileInfo@@@2@011AEAUCopyFilesStats@@AEAUCopyFilesProgress@@AEAUCopyFilesOptions@@AEAVUiLink@@AEAUAutoBuffer@@AEAULog@@AEAV?$ObjectArray@UFilterInterface@@@2@PEAUIRAPISession@@PEAUPluginInstance@@@Z$48 000000007403a3a1 f    CIL library: CIL module
 0001:000393c4       ?catch$25@?0??copy_files@@YAX_NAEBVUnicodeString@col@@AEBV?$ObjectArray@UFileInfo@@@2@011AEAUCopyFilesStats@@AEAUCopyFilesProgress@@AEAUCopyFilesOptions@@AEAVUiLink@@AEAUAutoBuffer@@AEAULog@@AEAV?$ObjectArray@UFilterInterface@@@2@PEAUIRAPISession@@PEAUPluginInstance@@@Z@4HA 000000007403a3c4 f    CIL library: CIL module
 0001:000393d1       __catch$?copy_files@@YAX_NAEBVUnicodeString@col@@AEBV?$ObjectArray@UFileInfo@@@2@011AEAUCopyFilesStats@@AEAUCopyFilesProgress@@AEAUCopyFilesOptions@@AEAVUiLink@@AEAUAutoBuffer@@AEAULog@@AEAV?$ObjectArray@UFilterInterface@@@2@PEAUIRAPISession@@PEAUPluginInstance@@@Z$50 000000007403a3d1 f    CIL library: CIL module
 0001:000393f4       ?catch$26@?0??copy_files@@YAX_NAEBVUnicodeString@col@@AEBV?$ObjectArray@UFileInfo@@@2@011AEAUCopyFilesStats@@AEAUCopyFilesProgress@@AEAUCopyFilesOptions@@AEAVUiLink@@AEAUAutoBuffer@@AEAULog@@AEAV?$ObjectArray@UFilterInterface@@@2@PEAUIRAPISession@@PEAUPluginInstance@@@Z@4HA 000000007403a3f4 f    CIL library: CIL module
 0001:00039401       __catch$?copy_files@@YAX_NAEBVUnicodeString@col@@AEBV?$ObjectArray@UFileInfo@@@2@011AEAUCopyFilesStats@@AEAUCopyFilesProgress@@AEAUCopyFilesOptions@@AEAVUiLink@@AEAUAutoBuffer@@AEAULog@@AEAV?$ObjectArray@UFilterInterface@@@2@PEAUIRAPISession@@PEAUPluginInstance@@@Z$52 000000007403a401 f    CIL library: CIL module
 0001:00039424       ?catch$28@?0??copy_files@@YAX_NAEBVUnicodeString@col@@AEBV?$ObjectArray@UFileInfo@@@2@011AEAUCopyFilesStats@@AEAUCopyFilesProgress@@AEAUCopyFilesOptions@@AEAVUiLink@@AEAUAutoBuffer@@AEAULog@@AEAV?$ObjectArray@UFilterInterface@@@2@PEAUIRAPISession@@PEAUPluginInstance@@@Z@4HA 000000007403a424 f    CIL library: CIL module
 0001:00039433       __catch$?copy_files@@YAX_NAEBVUnicodeString@col@@AEBV?$ObjectArray@UFileInfo@@@2@011AEAUCopyFilesStats@@AEAUCopyFilesProgress@@AEAUCopyFilesOptions@@AEAVUiLink@@AEAUAutoBuffer@@AEAULog@@AEAV?$ObjectArray@UFilterInterface@@@2@PEAUIRAPISession@@PEAUPluginInstance@@@Z$54 000000007403a433 f    CIL library: CIL module
 0001:00039514       ?dtor$34@?0??copy_files@@YAX_NAEBVUnicodeString@col@@AEBV?$ObjectArray@UFileInfo@@@2@011AEAUCopyFilesStats@@AEAUCopyFilesProgress@@AEAUCopyFilesOptions@@AEAVUiLink@@AEAUAutoBuffer@@AEAULog@@AEAV?$ObjectArray@UFilterInterface@@@2@PEAUIRAPISession@@PEAUPluginInstance@@@Z@4HA 000000007403a514 f    CIL library: CIL module
 0001:00039524       ?catch$27@?0??copy_files@@YAX_NAEBVUnicodeString@col@@AEBV?$ObjectArray@UFileInfo@@@2@011AEAUCopyFilesStats@@AEAUCopyFilesProgress@@AEAUCopyFilesOptions@@AEAVUiLink@@AEAUAutoBuffer@@AEAULog@@AEAV?$ObjectArray@UFilterInterface@@@2@PEAUIRAPISession@@PEAUPluginInstance@@@Z@4HA 000000007403a524 f    CIL library: CIL module
 0001:00039531       __catch$?copy_files@@YAX_NAEBVUnicodeString@col@@AEBV?$ObjectArray@UFileInfo@@@2@011AEAUCopyFilesStats@@AEAUCopyFilesProgress@@AEAUCopyFilesOptions@@AEAVUiLink@@AEAUAutoBuffer@@AEAULog@@AEAV?$ObjectArray@UFilterInterface@@@2@PEAUIRAPISession@@PEAUPluginInstance@@@Z$55 000000007403a531 f    CIL library: CIL module
 0001:00039554       ?catch$39@?0??copy_files@@YAX_NAEBVUnicodeString@col@@AEBV?$ObjectArray@UFileInfo@@@2@011AEAUCopyFilesStats@@AEAUCopyFilesProgress@@AEAUCopyFilesOptions@@AEAVUiLink@@AEAUAutoBuffer@@AEAULog@@AEAV?$ObjectArray@UFilterInterface@@@2@PEAUIRAPISession@@PEAUPluginInstance@@@Z@4HA 000000007403a554 f    CIL library: CIL module
 0001:00039561       __catch$?copy_files@@YAX_NAEBVUnicodeString@col@@AEBV?$ObjectArray@UFileInfo@@@2@011AEAUCopyFilesStats@@AEAUCopyFilesProgress@@AEAUCopyFilesOptions@@AEAVUiLink@@AEAUAutoBuffer@@AEAULog@@AEAV?$ObjectArray@UFilterInterface@@@2@PEAUIRAPISession@@PEAUPluginInstance@@@Z$58 000000007403a561 f    CIL library: CIL module
 0001:00039584       ?catch$40@?0??copy_files@@YAX_NAEBVUnicodeString@col@@AEBV?$ObjectArray@UFileInfo@@@2@011AEAUCopyFilesStats@@AEAUCopyFilesProgress@@AEAUCopyFilesOptions@@AEAVUiLink@@AEAUAutoBuffer@@AEAULog@@AEAV?$ObjectArray@UFilterInterface@@@2@PEAUIRAPISession@@PEAUPluginInstance@@@Z@4HA 000000007403a584 f    CIL library: CIL module
 0001:00039591       __catch$?copy_files@@YAX_NAEBVUnicodeString@col@@AEBV?$ObjectArray@UFileInfo@@@2@011AEAUCopyFilesStats@@AEAUCopyFilesProgress@@AEAUCopyFilesOptions@@AEAVUiLink@@AEAUAutoBuffer@@AEAULog@@AEAV?$ObjectArray@UFilterInterface@@@2@PEAUIRAPISession@@PEAUPluginInstance@@@Z$60 000000007403a591 f    CIL library: CIL module
 0001:000395b4       ?catch$41@?0??copy_files@@YAX_NAEBVUnicodeString@col@@AEBV?$ObjectArray@UFileInfo@@@2@011AEAUCopyFilesStats@@AEAUCopyFilesProgress@@AEAUCopyFilesOptions@@AEAVUiLink@@AEAUAutoBuffer@@AEAULog@@AEAV?$ObjectArray@UFilterInterface@@@2@PEAUIRAPISession@@PEAUPluginInstance@@@Z@4HA 000000007403a5b4 f    CIL library: CIL module
 0001:000395c1       __catch$?copy_files@@YAX_NAEBVUnicodeString@col@@AEBV?$ObjectArray@UFileInfo@@@2@011AEAUCopyFilesStats@@AEAUCopyFilesProgress@@AEAUCopyFilesOptions@@AEAVUiLink@@AEAUAutoBuffer@@AEAULog@@AEAV?$ObjectArray@UFilterInterface@@@2@PEAUIRAPISession@@PEAUPluginInstance@@@Z$62 000000007403a5c1 f    CIL library: CIL module
 0001:000395e4       ?catch$43@?0??copy_files@@YAX_NAEBVUnicodeString@col@@AEBV?$ObjectArray@UFileInfo@@@2@011AEAUCopyFilesStats@@AEAUCopyFilesProgress@@AEAUCopyFilesOptions@@AEAVUiLink@@AEAUAutoBuffer@@AEAULog@@AEAV?$ObjectArray@UFilterInterface@@@2@PEAUIRAPISession@@PEAUPluginInstance@@@Z@4HA 000000007403a5e4 f    CIL library: CIL module
 0001:000395f3       __catch$?copy_files@@YAX_NAEBVUnicodeString@col@@AEBV?$ObjectArray@UFileInfo@@@2@011AEAUCopyFilesStats@@AEAUCopyFilesProgress@@AEAUCopyFilesOptions@@AEAVUiLink@@AEAUAutoBuffer@@AEAULog@@AEAV?$ObjectArray@UFilterInterface@@@2@PEAUIRAPISession@@PEAUPluginInstance@@@Z$64 000000007403a5f3 f    CIL library: CIL module
 0001:000396d4       ?dtor$35@?0??copy_files@@YAX_NAEBVUnicodeString@col@@AEBV?$ObjectArray@UFileInfo@@@2@011AEAUCopyFilesStats@@AEAUCopyFilesProgress@@AEAUCopyFilesOptions@@AEAVUiLink@@AEAUAutoBuffer@@AEAULog@@AEAV?$ObjectArray@UFilterInterface@@@2@PEAUIRAPISession@@PEAUPluginInstance@@@Z@4HA 000000007403a6d4 f    CIL library: CIL module
 0001:000396e4       ?catch$42@?0??copy_files@@YAX_NAEBVUnicodeString@col@@AEBV?$ObjectArray@UFileInfo@@@2@011AEAUCopyFilesStats@@AEAUCopyFilesProgress@@AEAUCopyFilesOptions@@AEAVUiLink@@AEAUAutoBuffer@@AEAULog@@AEAV?$ObjectArray@UFilterInterface@@@2@PEAUIRAPISession@@PEAUPluginInstance@@@Z@4HA 000000007403a6e4 f    CIL library: CIL module
 0001:000396f1       __catch$?copy_files@@YAX_NAEBVUnicodeString@col@@AEBV?$ObjectArray@UFileInfo@@@2@011AEAUCopyFilesStats@@AEAUCopyFilesProgress@@AEAUCopyFilesOptions@@AEAVUiLink@@AEAUAutoBuffer@@AEAULog@@AEAV?$ObjectArray@UFilterInterface@@@2@PEAUIRAPISession@@PEAUPluginInstance@@@Z$65 000000007403a6f1 f    CIL library: CIL module
 0001:00039714       ?catch$29@?0??copy_files@@YAX_NAEBVUnicodeString@col@@AEBV?$ObjectArray@UFileInfo@@@2@011AEAUCopyFilesStats@@AEAUCopyFilesProgress@@AEAUCopyFilesOptions@@AEAVUiLink@@AEAUAutoBuffer@@AEAULog@@AEAV?$ObjectArray@UFilterInterface@@@2@PEAUIRAPISession@@PEAUPluginInstance@@@Z@4HA 000000007403a714 f    CIL library: CIL module
 0001:00039721       __catch$?copy_files@@YAX_NAEBVUnicodeString@col@@AEBV?$ObjectArray@UFileInfo@@@2@011AEAUCopyFilesStats@@AEAUCopyFilesProgress@@AEAUCopyFilesOptions@@AEAVUiLink@@AEAUAutoBuffer@@AEAULog@@AEAV?$ObjectArray@UFilterInterface@@@2@PEAUIRAPISession@@PEAUPluginInstance@@@Z$68 000000007403a721 f    CIL library: CIL module
 0001:00039744       ?catch$30@?0??copy_files@@YAX_NAEBVUnicodeString@col@@AEBV?$ObjectArray@UFileInfo@@@2@011AEAUCopyFilesStats@@AEAUCopyFilesProgress@@AEAUCopyFilesOptions@@AEAVUiLink@@AEAUAutoBuffer@@AEAULog@@AEAV?$ObjectArray@UFilterInterface@@@2@PEAUIRAPISession@@PEAUPluginInstance@@@Z@4HA 000000007403a744 f    CIL library: CIL module
 0001:00039751       __catch$?copy_files@@YAX_NAEBVUnicodeString@col@@AEBV?$ObjectArray@UFileInfo@@@2@011AEAUCopyFilesStats@@AEAUCopyFilesProgress@@AEAUCopyFilesOptions@@AEAVUiLink@@AEAUAutoBuffer@@AEAULog@@AEAV?$ObjectArray@UFilterInterface@@@2@PEAUIRAPISession@@PEAUPluginInstance@@@Z$70 000000007403a751 f    CIL library: CIL module
 0001:00039774       ?catch$31@?0??copy_files@@YAX_NAEBVUnicodeString@col@@AEBV?$ObjectArray@UFileInfo@@@2@011AEAUCopyFilesStats@@AEAUCopyFilesProgress@@AEAUCopyFilesOptions@@AEAVUiLink@@AEAUAutoBuffer@@AEAULog@@AEAV?$ObjectArray@UFilterInterface@@@2@PEAUIRAPISession@@PEAUPluginInstance@@@Z@4HA 000000007403a774 f    CIL library: CIL module
 0001:00039781       __catch$?copy_files@@YAX_NAEBVUnicodeString@col@@AEBV?$ObjectArray@UFileInfo@@@2@011AEAUCopyFilesStats@@AEAUCopyFilesProgress@@AEAUCopyFilesOptions@@AEAVUiLink@@AEAUAutoBuffer@@AEAULog@@AEAV?$ObjectArray@UFilterInterface@@@2@PEAUIRAPISession@@PEAUPluginInstance@@@Z$72 000000007403a781 f    CIL library: CIL module
 0001:000397a4       ?catch$33@?0??copy_files@@YAX_NAEBVUnicodeString@col@@AEBV?$ObjectArray@UFileInfo@@@2@011AEAUCopyFilesStats@@AEAUCopyFilesProgress@@AEAUCopyFilesOptions@@AEAVUiLink@@AEAUAutoBuffer@@AEAULog@@AEAV?$ObjectArray@UFilterInterface@@@2@PEAUIRAPISession@@PEAUPluginInstance@@@Z@4HA 000000007403a7a4 f    CIL library: CIL module
 0001:000397b3       __catch$?copy_files@@YAX_NAEBVUnicodeString@col@@AEBV?$ObjectArray@UFileInfo@@@2@011AEAUCopyFilesStats@@AEAUCopyFilesProgress@@AEAUCopyFilesOptions@@AEAVUiLink@@AEAUAutoBuffer@@AEAULog@@AEAV?$ObjectArray@UFilterInterface@@@2@PEAUIRAPISession@@PEAUPluginInstance@@@Z$74 000000007403a7b3 f    CIL library: CIL module
 0001:00039894       ?dtor$36@?0??copy_files@@YAX_NAEBVUnicodeString@col@@AEBV?$ObjectArray@UFileInfo@@@2@011AEAUCopyFilesStats@@AEAUCopyFilesProgress@@AEAUCopyFilesOptions@@AEAVUiLink@@AEAUAutoBuffer@@AEAULog@@AEAV?$ObjectArray@UFilterInterface@@@2@PEAUIRAPISession@@PEAUPluginInstance@@@Z@4HA 000000007403a894 f    CIL library: CIL module
 0001:000398a4       ?catch$32@?0??copy_files@@YAX_NAEBVUnicodeString@col@@AEBV?$ObjectArray@UFileInfo@@@2@011AEAUCopyFilesStats@@AEAUCopyFilesProgress@@AEAUCopyFilesOptions@@AEAVUiLink@@AEAUAutoBuffer@@AEAULog@@AEAV?$ObjectArray@UFilterInterface@@@2@PEAUIRAPISession@@PEAUPluginInstance@@@Z@4HA 000000007403a8a4 f    CIL library: CIL module
 0001:000398b1       __catch$?copy_files@@YAX_NAEBVUnicodeString@col@@AEBV?$ObjectArray@UFileInfo@@@2@011AEAUCopyFilesStats@@AEAUCopyFilesProgress@@AEAUCopyFilesOptions@@AEAVUiLink@@AEAUAutoBuffer@@AEAULog@@AEAV?$ObjectArray@UFilterInterface@@@2@PEAUIRAPISession@@PEAUPluginInstance@@@Z$75 000000007403a8b1 f    CIL library: CIL module
 0001:000398d4       ?catch$44@?0??copy_files@@YAX_NAEBVUnicodeString@col@@AEBV?$ObjectArray@UFileInfo@@@2@011AEAUCopyFilesStats@@AEAUCopyFilesProgress@@AEAUCopyFilesOptions@@AEAVUiLink@@AEAUAutoBuffer@@AEAULog@@AEAV?$ObjectArray@UFilterInterface@@@2@PEAUIRAPISession@@PEAUPluginInstance@@@Z@4HA 000000007403a8d4 f    CIL library: CIL module
 0001:000398e2       __catch$?copy_files@@YAX_NAEBVUnicodeString@col@@AEBV?$ObjectArray@UFileInfo@@@2@011AEAUCopyFilesStats@@AEAUCopyFilesProgress@@AEAUCopyFilesOptions@@AEAVUiLink@@AEAUAutoBuffer@@AEAULog@@AEAV?$ObjectArray@UFilterInterface@@@2@PEAUIRAPISession@@PEAUPluginInstance@@@Z$78 000000007403a8e2 f    CIL library: CIL module
 0001:000399a4       ?catch$45@?0??copy_files@@YAX_NAEBVUnicodeString@col@@AEBV?$ObjectArray@UFileInfo@@@2@011AEAUCopyFilesStats@@AEAUCopyFilesProgress@@AEAUCopyFilesOptions@@AEAVUiLink@@AEAUAutoBuffer@@AEAULog@@AEAV?$ObjectArray@UFilterInterface@@@2@PEAUIRAPISession@@PEAUPluginInstance@@@Z@4HA 000000007403a9a4 f    CIL library: CIL module
 0001:000399b1       __catch$?copy_files@@YAX_NAEBVUnicodeString@col@@AEBV?$ObjectArray@UFileInfo@@@2@011AEAUCopyFilesStats@@AEAUCopyFilesProgress@@AEAUCopyFilesOptions@@AEAVUiLink@@AEAUAutoBuffer@@AEAULog@@AEAV?$ObjectArray@UFilterInterface@@@2@PEAUIRAPISession@@PEAUPluginInstance@@@Z$80 000000007403a9b1 f    CIL library: CIL module
 0001:00039a04       ?catch$34@?0??copy_files@@YAX_NAEBVUnicodeString@col@@AEBV?$ObjectArray@UFileInfo@@@2@011AEAUCopyFilesStats@@AEAUCopyFilesProgress@@AEAUCopyFilesOptions@@AEAVUiLink@@AEAUAutoBuffer@@AEAULog@@AEAV?$ObjectArray@UFilterInterface@@@2@PEAUIRAPISession@@PEAUPluginInstance@@@Z@4HA 000000007403aa04 f    CIL library: CIL module
 0001:00039a11       __catch$?copy_files@@YAX_NAEBVUnicodeString@col@@AEBV?$ObjectArray@UFileInfo@@@2@011AEAUCopyFilesStats@@AEAUCopyFilesProgress@@AEAUCopyFilesOptions@@AEAVUiLink@@AEAUAutoBuffer@@AEAULog@@AEAV?$ObjectArray@UFilterInterface@@@2@PEAUIRAPISession@@PEAUPluginInstance@@@Z$82 000000007403aa11 f    CIL library: CIL module
 0001:00039a34       ?catch$35@?0??copy_files@@YAX_NAEBVUnicodeString@col@@AEBV?$ObjectArray@UFileInfo@@@2@011AEAUCopyFilesStats@@AEAUCopyFilesProgress@@AEAUCopyFilesOptions@@AEAVUiLink@@AEAUAutoBuffer@@AEAULog@@AEAV?$ObjectArray@UFilterInterface@@@2@PEAUIRAPISession@@PEAUPluginInstance@@@Z@4HA 000000007403aa34 f    CIL library: CIL module
 0001:00039a41       __catch$?copy_files@@YAX_NAEBVUnicodeString@col@@AEBV?$ObjectArray@UFileInfo@@@2@011AEAUCopyFilesStats@@AEAUCopyFilesProgress@@AEAUCopyFilesOptions@@AEAVUiLink@@AEAUAutoBuffer@@AEAULog@@AEAV?$ObjectArray@UFilterInterface@@@2@PEAUIRAPISession@@PEAUPluginInstance@@@Z$84 000000007403aa41 f    CIL library: CIL module
 0001:00039a64       ?catch$36@?0??copy_files@@YAX_NAEBVUnicodeString@col@@AEBV?$ObjectArray@UFileInfo@@@2@011AEAUCopyFilesStats@@AEAUCopyFilesProgress@@AEAUCopyFilesOptions@@AEAVUiLink@@AEAUAutoBuffer@@AEAULog@@AEAV?$ObjectArray@UFilterInterface@@@2@PEAUIRAPISession@@PEAUPluginInstance@@@Z@4HA 000000007403aa64 f    CIL library: CIL module
 0001:00039a71       __catch$?copy_files@@YAX_NAEBVUnicodeString@col@@AEBV?$ObjectArray@UFileInfo@@@2@011AEAUCopyFilesStats@@AEAUCopyFilesProgress@@AEAUCopyFilesOptions@@AEAVUiLink@@AEAUAutoBuffer@@AEAULog@@AEAV?$ObjectArray@UFilterInterface@@@2@PEAUIRAPISession@@PEAUPluginInstance@@@Z$86 000000007403aa71 f    CIL library: CIL module
 0001:00039a94       ?catch$38@?0??copy_files@@YAX_NAEBVUnicodeString@col@@AEBV?$ObjectArray@UFileInfo@@@2@011AEAUCopyFilesStats@@AEAUCopyFilesProgress@@AEAUCopyFilesOptions@@AEAVUiLink@@AEAUAutoBuffer@@AEAULog@@AEAV?$ObjectArray@UFilterInterface@@@2@PEAUIRAPISession@@PEAUPluginInstance@@@Z@4HA 000000007403aa94 f    CIL library: CIL module
 0001:00039aa3       __catch$?copy_files@@YAX_NAEBVUnicodeString@col@@AEBV?$ObjectArray@UFileInfo@@@2@011AEAUCopyFilesStats@@AEAUCopyFilesProgress@@AEAUCopyFilesOptions@@AEAVUiLink@@AEAUAutoBuffer@@AEAULog@@AEAV?$ObjectArray@UFilterInterface@@@2@PEAUIRAPISession@@PEAUPluginInstance@@@Z$88 000000007403aaa3 f    CIL library: CIL module
 0001:00039b84       ?dtor$39@?0??copy_files@@YAX_NAEBVUnicodeString@col@@AEBV?$ObjectArray@UFileInfo@@@2@011AEAUCopyFilesStats@@AEAUCopyFilesProgress@@AEAUCopyFilesOptions@@AEAVUiLink@@AEAUAutoBuffer@@AEAULog@@AEAV?$ObjectArray@UFilterInterface@@@2@PEAUIRAPISession@@PEAUPluginInstance@@@Z@4HA 000000007403ab84 f    CIL library: CIL module
 0001:00039b94       ?catch$37@?0??copy_files@@YAX_NAEBVUnicodeString@col@@AEBV?$ObjectArray@UFileInfo@@@2@011AEAUCopyFilesStats@@AEAUCopyFilesProgress@@AEAUCopyFilesOptions@@AEAVUiLink@@AEAUAutoBuffer@@AEAULog@@AEAV?$ObjectArray@UFilterInterface@@@2@PEAUIRAPISession@@PEAUPluginInstance@@@Z@4HA 000000007403ab94 f    CIL library: CIL module
 0001:00039ba1       __catch$?copy_files@@YAX_NAEBVUnicodeString@col@@AEBV?$ObjectArray@UFileInfo@@@2@011AEAUCopyFilesStats@@AEAUCopyFilesProgress@@AEAUCopyFilesOptions@@AEAVUiLink@@AEAUAutoBuffer@@AEAULog@@AEAV?$ObjectArray@UFilterInterface@@@2@PEAUIRAPISession@@PEAUPluginInstance@@@Z$89 000000007403aba1 f    CIL library: CIL module
 0001:00039bc4       ?catch$46@?0??copy_files@@YAX_NAEBVUnicodeString@col@@AEBV?$ObjectArray@UFileInfo@@@2@011AEAUCopyFilesStats@@AEAUCopyFilesProgress@@AEAUCopyFilesOptions@@AEAVUiLink@@AEAUAutoBuffer@@AEAULog@@AEAV?$ObjectArray@UFilterInterface@@@2@PEAUIRAPISession@@PEAUPluginInstance@@@Z@4HA 000000007403abc4 f    CIL library: CIL module
 0001:00039bd1       __catch$?copy_files@@YAX_NAEBVUnicodeString@col@@AEBV?$ObjectArray@UFileInfo@@@2@011AEAUCopyFilesStats@@AEAUCopyFilesProgress@@AEAUCopyFilesOptions@@AEAVUiLink@@AEAUAutoBuffer@@AEAULog@@AEAV?$ObjectArray@UFilterInterface@@@2@PEAUIRAPISession@@PEAUPluginInstance@@@Z$92 000000007403abd1 f    CIL library: CIL module
 0001:00039bf4       ?catch$47@?0??copy_files@@YAX_NAEBVUnicodeString@col@@AEBV?$ObjectArray@UFileInfo@@@2@011AEAUCopyFilesStats@@AEAUCopyFilesProgress@@AEAUCopyFilesOptions@@AEAVUiLink@@AEAUAutoBuffer@@AEAULog@@AEAV?$ObjectArray@UFilterInterface@@@2@PEAUIRAPISession@@PEAUPluginInstance@@@Z@4HA 000000007403abf4 f    CIL library: CIL module
 0001:00039c01       __catch$?copy_files@@YAX_NAEBVUnicodeString@col@@AEBV?$ObjectArray@UFileInfo@@@2@011AEAUCopyFilesStats@@AEAUCopyFilesProgress@@AEAUCopyFilesOptions@@AEAVUiLink@@AEAUAutoBuffer@@AEAULog@@AEAV?$ObjectArray@UFilterInterface@@@2@PEAUIRAPISession@@PEAUPluginInstance@@@Z$94 000000007403ac01 f    CIL library: CIL module
 0001:00039c84       ?dtor$40@?0??copy_files@@YAX_NAEBVUnicodeString@col@@AEBV?$ObjectArray@UFileInfo@@@2@011AEAUCopyFilesStats@@AEAUCopyFilesProgress@@AEAUCopyFilesOptions@@AEAVUiLink@@AEAUAutoBuffer@@AEAULog@@AEAV?$ObjectArray@UFilterInterface@@@2@PEAUIRAPISession@@PEAUPluginInstance@@@Z@4HA 000000007403ac84 f    CIL library: CIL module
 0001:00039c90       ?dtor$0@?0??list_add_dir@@YAXAEBVUnicodeString@col@@AEAUCE_FIND_DATA@@AEAUCreateListStats@@AEAUCreateListOptions@@AEAVUiLink@@AEAULog@@PEAUIRAPISession@@PEAUPluginInstance@@AEAV?$ObjectArray@UFileInfo@@@2@@Z@4HA 000000007403ac90 f    CIL library: CIL module
 0001:00039ca0       ?dtor$1@?0??list_add_dir@@YAXAEBVUnicodeString@col@@AEAUCE_FIND_DATA@@AEAUCreateListStats@@AEAUCreateListOptions@@AEAVUiLink@@AEAULog@@PEAUIRAPISession@@PEAUPluginInstance@@AEAV?$ObjectArray@UFileInfo@@@2@@Z@4HA 000000007403aca0 f    CIL library: CIL module
 0001:00039cb0       ?dtor$2@?0??list_add_dir@@YAXAEBVUnicodeString@col@@AEAUCE_FIND_DATA@@AEAUCreateListStats@@AEAUCreateListOptions@@AEAVUiLink@@AEAULog@@PEAUIRAPISession@@PEAUPluginInstance@@AEAV?$ObjectArray@UFileInfo@@@2@@Z@4HA 000000007403acb0 f    CIL library: CIL module
 0001:00039ce0       ?dtor$3@?0??list_add_dir@@YAXAEBVUnicodeString@col@@AEAUCE_FIND_DATA@@AEAUCreateListStats@@AEAUCreateListOptions@@AEAVUiLink@@AEAULog@@PEAUIRAPISession@@PEAUPluginInstance@@AEAV?$ObjectArray@UFileInfo@@@2@@Z@4HA 000000007403ace0 f    CIL library: CIL module
 0001:00039d10       ?dtor$4@?0??list_add_dir@@YAXAEBVUnicodeString@col@@AEAUCE_FIND_DATA@@AEAUCreateListStats@@AEAUCreateListOptions@@AEAVUiLink@@AEAULog@@PEAUIRAPISession@@PEAUPluginInstance@@AEAV?$ObjectArray@UFileInfo@@@2@@Z@4HA 000000007403ad10 f    CIL library: CIL module
 0001:00039d40       ?dtor$5@?0??list_add_dir@@YAXAEBVUnicodeString@col@@AEAUCE_FIND_DATA@@AEAUCreateListStats@@AEAUCreateListOptions@@AEAVUiLink@@AEAULog@@PEAUIRAPISession@@PEAUPluginInstance@@AEAV?$ObjectArray@UFileInfo@@@2@@Z@4HA 000000007403ad40 f    CIL library: CIL module
 0001:00039d70       ?catch$0@?0??list_add_dir@@YAXAEBVUnicodeString@col@@AEAUCE_FIND_DATA@@AEAUCreateListStats@@AEAUCreateListOptions@@AEAVUiLink@@AEAULog@@PEAUIRAPISession@@PEAUPluginInstance@@AEAV?$ObjectArray@UFileInfo@@@2@@Z@4HA 000000007403ad70 f    CIL library: CIL module
 0001:00039d7d       __catch$?list_add_dir@@YAXAEBVUnicodeString@col@@AEAUCE_FIND_DATA@@AEAUCreateListStats@@AEAUCreateListOptions@@AEAVUiLink@@AEAULog@@PEAUIRAPISession@@PEAUPluginInstance@@AEAV?$ObjectArray@UFileInfo@@@2@@Z$0 000000007403ad7d f    CIL library: CIL module
 0001:00039da0       ?catch$1@?0??list_add_dir@@YAXAEBVUnicodeString@col@@AEAUCE_FIND_DATA@@AEAUCreateListStats@@AEAUCreateListOptions@@AEAVUiLink@@AEAULog@@PEAUIRAPISession@@PEAUPluginInstance@@AEAV?$ObjectArray@UFileInfo@@@2@@Z@4HA 000000007403ada0 f    CIL library: CIL module
 0001:00039dad       __catch$?list_add_dir@@YAXAEBVUnicodeString@col@@AEAUCE_FIND_DATA@@AEAUCreateListStats@@AEAUCreateListOptions@@AEAVUiLink@@AEAULog@@PEAUIRAPISession@@PEAUPluginInstance@@AEAV?$ObjectArray@UFileInfo@@@2@@Z$2 000000007403adad f    CIL library: CIL module
 0001:00039dd0       ?catch$3@?0??list_add_dir@@YAXAEBVUnicodeString@col@@AEAUCE_FIND_DATA@@AEAUCreateListStats@@AEAUCreateListOptions@@AEAVUiLink@@AEAULog@@PEAUIRAPISession@@PEAUPluginInstance@@AEAV?$ObjectArray@UFileInfo@@@2@@Z@4HA 000000007403add0 f    CIL library: CIL module
 0001:00039ddf       __catch$?list_add_dir@@YAXAEBVUnicodeString@col@@AEAUCE_FIND_DATA@@AEAUCreateListStats@@AEAUCreateListOptions@@AEAVUiLink@@AEAULog@@PEAUIRAPISession@@PEAUPluginInstance@@AEAV?$ObjectArray@UFileInfo@@@2@@Z$4 000000007403addf f    CIL library: CIL module
 0001:00039eb0       ?dtor$6@?0??list_add_dir@@YAXAEBVUnicodeString@col@@AEAUCE_FIND_DATA@@AEAUCreateListStats@@AEAUCreateListOptions@@AEAVUiLink@@AEAULog@@PEAUIRAPISession@@PEAUPluginInstance@@AEAV?$ObjectArray@UFileInfo@@@2@@Z@4HA 000000007403aeb0 f    CIL library: CIL module
 0001:00039ec0       ?catch$2@?0??list_add_dir@@YAXAEBVUnicodeString@col@@AEAUCE_FIND_DATA@@AEAUCreateListStats@@AEAUCreateListOptions@@AEAVUiLink@@AEAULog@@PEAUIRAPISession@@PEAUPluginInstance@@AEAV?$ObjectArray@UFileInfo@@@2@@Z@4HA 000000007403aec0 f    CIL library: CIL module
 0001:00039ecd       __catch$?list_add_dir@@YAXAEBVUnicodeString@col@@AEAUCE_FIND_DATA@@AEAUCreateListStats@@AEAUCreateListOptions@@AEAVUiLink@@AEAULog@@PEAUIRAPISession@@PEAUPluginInstance@@AEAV?$ObjectArray@UFileInfo@@@2@@Z$5 000000007403aecd f    CIL library: CIL module
 0001:00039ef0       ?catch$4@?0??list_add_dir@@YAXAEBVUnicodeString@col@@AEAUCE_FIND_DATA@@AEAUCreateListStats@@AEAUCreateListOptions@@AEAVUiLink@@AEAULog@@PEAUIRAPISession@@PEAUPluginInstance@@AEAV?$ObjectArray@UFileInfo@@@2@@Z@4HA 000000007403aef0 f    CIL library: CIL module
 0001:00039efd       __catch$?list_add_dir@@YAXAEBVUnicodeString@col@@AEAUCE_FIND_DATA@@AEAUCreateListStats@@AEAUCreateListOptions@@AEAVUiLink@@AEAULog@@PEAUIRAPISession@@PEAUPluginInstance@@AEAV?$ObjectArray@UFileInfo@@@2@@Z$8 000000007403aefd f    CIL library: CIL module
 0001:00039f30       ?catch$5@?0??list_add_dir@@YAXAEBVUnicodeString@col@@AEAUCE_FIND_DATA@@AEAUCreateListStats@@AEAUCreateListOptions@@AEAVUiLink@@AEAULog@@PEAUIRAPISession@@PEAUPluginInstance@@AEAV?$ObjectArray@UFileInfo@@@2@@Z@4HA 000000007403af30 f    CIL library: CIL module
 0001:00039f3d       __catch$?list_add_dir@@YAXAEBVUnicodeString@col@@AEAUCE_FIND_DATA@@AEAUCreateListStats@@AEAUCreateListOptions@@AEAVUiLink@@AEAULog@@PEAUIRAPISession@@PEAUPluginInstance@@AEAV?$ObjectArray@UFileInfo@@@2@@Z$10 000000007403af3d f    CIL library: CIL module
 0001:00039fc0       ?dtor$7@?0??list_add_dir@@YAXAEBVUnicodeString@col@@AEAUCE_FIND_DATA@@AEAUCreateListStats@@AEAUCreateListOptions@@AEAVUiLink@@AEAULog@@PEAUIRAPISession@@PEAUPluginInstance@@AEAV?$ObjectArray@UFileInfo@@@2@@Z@4HA 000000007403afc0 f    CIL library: CIL module
 0001:00039fcc       ?dtor$0@?0??list_add_dir@@YAXAEBVUnicodeString@col@@AEAU_WIN32_FIND_DATAW@@AEAUCreateListStats@@AEAUCreateListOptions@@AEAVUiLink@@AEAULog@@PEAUPluginInstance@@AEAV?$ObjectArray@UFileInfo@@@2@@Z@4HA 000000007403afcc f    CIL library: CIL module
 0001:00039fdc       ?dtor$1@?0??list_add_dir@@YAXAEBVUnicodeString@col@@AEAU_WIN32_FIND_DATAW@@AEAUCreateListStats@@AEAUCreateListOptions@@AEAVUiLink@@AEAULog@@PEAUPluginInstance@@AEAV?$ObjectArray@UFileInfo@@@2@@Z@4HA 000000007403afdc f    CIL library: CIL module
 0001:00039fec       ?dtor$2@?0??list_add_dir@@YAXAEBVUnicodeString@col@@AEAU_WIN32_FIND_DATAW@@AEAUCreateListStats@@AEAUCreateListOptions@@AEAVUiLink@@AEAULog@@PEAUPluginInstance@@AEAV?$ObjectArray@UFileInfo@@@2@@Z@4HA 000000007403afec f    CIL library: CIL module
 0001:00039ffc       ?dtor$3@?0??list_add_dir@@YAXAEBVUnicodeString@col@@AEAU_WIN32_FIND_DATAW@@AEAUCreateListStats@@AEAUCreateListOptions@@AEAVUiLink@@AEAULog@@PEAUPluginInstance@@AEAV?$ObjectArray@UFileInfo@@@2@@Z@4HA 000000007403affc f    CIL library: CIL module
 0001:0003a00c       ?catch$0@?0??list_add_dir@@YAXAEBVUnicodeString@col@@AEAU_WIN32_FIND_DATAW@@AEAUCreateListStats@@AEAUCreateListOptions@@AEAVUiLink@@AEAULog@@PEAUPluginInstance@@AEAV?$ObjectArray@UFileInfo@@@2@@Z@4HA 000000007403b00c f    CIL library: CIL module
 0001:0003a019       __catch$?list_add_dir@@YAXAEBVUnicodeString@col@@AEAU_WIN32_FIND_DATAW@@AEAUCreateListStats@@AEAUCreateListOptions@@AEAVUiLink@@AEAULog@@PEAUPluginInstance@@AEAV?$ObjectArray@UFileInfo@@@2@@Z$0 000000007403b019 f    CIL library: CIL module
 0001:0003a03c       ?catch$2@?0??list_add_dir@@YAXAEBVUnicodeString@col@@AEAU_WIN32_FIND_DATAW@@AEAUCreateListStats@@AEAUCreateListOptions@@AEAVUiLink@@AEAULog@@PEAUPluginInstance@@AEAV?$ObjectArray@UFileInfo@@@2@@Z@4HA 000000007403b03c f    CIL library: CIL module
 0001:0003a04b       __catch$?list_add_dir@@YAXAEBVUnicodeString@col@@AEAU_WIN32_FIND_DATAW@@AEAUCreateListStats@@AEAUCreateListOptions@@AEAVUiLink@@AEAULog@@PEAUPluginInstance@@AEAV?$ObjectArray@UFileInfo@@@2@@Z$2 000000007403b04b f    CIL library: CIL module
 0001:0003a11c       ?dtor$5@?0??list_add_dir@@YAXAEBVUnicodeString@col@@AEAU_WIN32_FIND_DATAW@@AEAUCreateListStats@@AEAUCreateListOptions@@AEAVUiLink@@AEAULog@@PEAUPluginInstance@@AEAV?$ObjectArray@UFileInfo@@@2@@Z@4HA 000000007403b11c f    CIL library: CIL module
 0001:0003a12c       ?catch$1@?0??list_add_dir@@YAXAEBVUnicodeString@col@@AEAU_WIN32_FIND_DATAW@@AEAUCreateListStats@@AEAUCreateListOptions@@AEAVUiLink@@AEAULog@@PEAUPluginInstance@@AEAV?$ObjectArray@UFileInfo@@@2@@Z@4HA 000000007403b12c f    CIL library: CIL module
 0001:0003a139       __catch$?list_add_dir@@YAXAEBVUnicodeString@col@@AEAU_WIN32_FIND_DATAW@@AEAUCreateListStats@@AEAUCreateListOptions@@AEAVUiLink@@AEAULog@@PEAUPluginInstance@@AEAV?$ObjectArray@UFileInfo@@@2@@Z$3 000000007403b139 f    CIL library: CIL module
 0001:0003a15c       ?catch$3@?0??list_add_dir@@YAXAEBVUnicodeString@col@@AEAU_WIN32_FIND_DATAW@@AEAUCreateListStats@@AEAUCreateListOptions@@AEAVUiLink@@AEAULog@@PEAUPluginInstance@@AEAV?$ObjectArray@UFileInfo@@@2@@Z@4HA 000000007403b15c f    CIL library: CIL module
 0001:0003a169       __catch$?list_add_dir@@YAXAEBVUnicodeString@col@@AEAU_WIN32_FIND_DATAW@@AEAUCreateListStats@@AEAUCreateListOptions@@AEAVUiLink@@AEAULog@@PEAUPluginInstance@@AEAV?$ObjectArray@UFileInfo@@@2@@Z$6 000000007403b169 f    CIL library: CIL module
 0001:0003a18c       ?catch$5@?0??list_add_dir@@YAXAEBVUnicodeString@col@@AEAU_WIN32_FIND_DATAW@@AEAUCreateListStats@@AEAUCreateListOptions@@AEAVUiLink@@AEAULog@@PEAUPluginInstance@@AEAV?$ObjectArray@UFileInfo@@@2@@Z@4HA 000000007403b18c f    CIL library: CIL module
 0001:0003a19b       __catch$?list_add_dir@@YAXAEBVUnicodeString@col@@AEAU_WIN32_FIND_DATAW@@AEAUCreateListStats@@AEAUCreateListOptions@@AEAVUiLink@@AEAULog@@PEAUPluginInstance@@AEAV?$ObjectArray@UFileInfo@@@2@@Z$8 000000007403b19b f    CIL library: CIL module
 0001:0003a26c       ?dtor$6@?0??list_add_dir@@YAXAEBVUnicodeString@col@@AEAU_WIN32_FIND_DATAW@@AEAUCreateListStats@@AEAUCreateListOptions@@AEAVUiLink@@AEAULog@@PEAUPluginInstance@@AEAV?$ObjectArray@UFileInfo@@@2@@Z@4HA 000000007403b26c f    CIL library: CIL module
 0001:0003a27c       ?catch$4@?0??list_add_dir@@YAXAEBVUnicodeString@col@@AEAU_WIN32_FIND_DATAW@@AEAUCreateListStats@@AEAUCreateListOptions@@AEAVUiLink@@AEAULog@@PEAUPluginInstance@@AEAV?$ObjectArray@UFileInfo@@@2@@Z@4HA 000000007403b27c f    CIL library: CIL module
 0001:0003a289       __catch$?list_add_dir@@YAXAEBVUnicodeString@col@@AEAU_WIN32_FIND_DATAW@@AEAUCreateListStats@@AEAUCreateListOptions@@AEAVUiLink@@AEAULog@@PEAUPluginInstance@@AEAV?$ObjectArray@UFileInfo@@@2@@Z$9 000000007403b289 f    CIL library: CIL module
 0001:0003a2ac       ?catch$6@?0??list_add_dir@@YAXAEBVUnicodeString@col@@AEAU_WIN32_FIND_DATAW@@AEAUCreateListStats@@AEAUCreateListOptions@@AEAVUiLink@@AEAULog@@PEAUPluginInstance@@AEAV?$ObjectArray@UFileInfo@@@2@@Z@4HA 000000007403b2ac f    CIL library: CIL module
 0001:0003a2b9       __catch$?list_add_dir@@YAXAEBVUnicodeString@col@@AEAU_WIN32_FIND_DATAW@@AEAUCreateListStats@@AEAUCreateListOptions@@AEAVUiLink@@AEAULog@@PEAUPluginInstance@@AEAV?$ObjectArray@UFileInfo@@@2@@Z$12 000000007403b2b9 f    CIL library: CIL module
 0001:0003a2dc       ?catch$7@?0??list_add_dir@@YAXAEBVUnicodeString@col@@AEAU_WIN32_FIND_DATAW@@AEAUCreateListStats@@AEAUCreateListOptions@@AEAVUiLink@@AEAULog@@PEAUPluginInstance@@AEAV?$ObjectArray@UFileInfo@@@2@@Z@4HA 000000007403b2dc f    CIL library: CIL module
 0001:0003a2e9       __catch$?list_add_dir@@YAXAEBVUnicodeString@col@@AEAU_WIN32_FIND_DATAW@@AEAUCreateListStats@@AEAUCreateListOptions@@AEAVUiLink@@AEAULog@@PEAUPluginInstance@@AEAV?$ObjectArray@UFileInfo@@@2@@Z$14 000000007403b2e9 f    CIL library: CIL module
 0001:0003a36c       ?dtor$7@?0??list_add_dir@@YAXAEBVUnicodeString@col@@AEAU_WIN32_FIND_DATAW@@AEAUCreateListStats@@AEAUCreateListOptions@@AEAVUiLink@@AEAULog@@PEAUPluginInstance@@AEAV?$ObjectArray@UFileInfo@@@2@@Z@4HA 000000007403b36c f    CIL library: CIL module
 0001:0003a378       ?dtor$0@?0??load_last_dir@@YA?AVUnicodeString@col@@AEBV12@@Z@4HA 000000007403b378 f    CIL library: CIL module
 0001:0003a388       ?dtor$1@?0??load_last_dir@@YA?AVUnicodeString@col@@AEBV12@@Z@4HA 000000007403b388 f    CIL library: CIL module
 0001:0003a3b8       ?dtor$2@?0??load_last_dir@@YA?AVUnicodeString@col@@AEBV12@@Z@4HA 000000007403b3b8 f    CIL library: CIL module
 0001:0003a3c8       ?dtor$3@?0??load_last_dir@@YA?AVUnicodeString@col@@AEBV12@@Z@4HA 000000007403b3c8 f    CIL library: CIL module
 0001:0003a3d4       ?dtor$0@?0??load_plugin_options@@YAXAEAUPluginOptions@@@Z@4HA 000000007403b3d4 f    CIL library: CIL module
 0001:0003a3e4       ?dtor$1@?0??load_plugin_options@@YAXAEAUPluginOptions@@@Z@4HA 000000007403b3e4 f    CIL library: CIL module
 0001:0003a3f0       ?dtor$0@?0??plugin_options_dlg_proc@@YA_JPEAX_J10@Z@4HA 000000007403b3f0 f    CIL library: CIL module
 0001:0003a400       ?dtor$1@?0??plugin_options_dlg_proc@@YA_JPEAX_J10@Z@4HA 000000007403b400 f    CIL library: CIL module
 0001:0003a410       ?dtor$2@?0??plugin_options_dlg_proc@@YA_JPEAX_J10@Z@4HA 000000007403b410 f    CIL library: CIL module
 0001:0003a420       ?dtor$3@?0??plugin_options_dlg_proc@@YA_JPEAX_J10@Z@4HA 000000007403b420 f    CIL library: CIL module
 0001:0003a430       ?dtor$4@?0??plugin_options_dlg_proc@@YA_JPEAX_J10@Z@4HA 000000007403b430 f    CIL library: CIL module
 0001:0003a43c       ?dtor$0@?0??create_file_list@@YA?AV?$ObjectArray@UFileInfo@@@col@@AEBVUnicodeString@2@0AEAUCreateListStats@@AEAUCreateListOptions@@AEAVUiLink@@AEAULog@@PEAUIRAPISession@@PEAUPluginInstance@@@Z@4HA 000000007403b43c f    CIL library: CIL module
 0001:0003a46c       ?dtor$1@?0??create_file_list@@YA?AV?$ObjectArray@UFileInfo@@@col@@AEBVUnicodeString@2@0AEAUCreateListStats@@AEAUCreateListOptions@@AEAVUiLink@@AEAULog@@PEAUIRAPISession@@PEAUPluginInstance@@@Z@4HA 000000007403b46c f    CIL library: CIL module
 0001:0003a47c       ?dtor$2@?0??create_file_list@@YA?AV?$ObjectArray@UFileInfo@@@col@@AEBVUnicodeString@2@0AEAUCreateListStats@@AEAUCreateListOptions@@AEAVUiLink@@AEAULog@@PEAUIRAPISession@@PEAUPluginInstance@@@Z@4HA 000000007403b47c f    CIL library: CIL module
 0001:0003a48c       ?catch$0@?0??create_file_list@@YA?AV?$ObjectArray@UFileInfo@@@col@@AEBVUnicodeString@2@0AEAUCreateListStats@@AEAUCreateListOptions@@AEAVUiLink@@AEAULog@@PEAUIRAPISession@@PEAUPluginInstance@@@Z@4HA 000000007403b48c f    CIL library: CIL module
 0001:0003a499       __catch$?create_file_list@@YA?AV?$ObjectArray@UFileInfo@@@col@@AEBVUnicodeString@2@0AEAUCreateListStats@@AEAUCreateListOptions@@AEAVUiLink@@AEAULog@@PEAUIRAPISession@@PEAUPluginInstance@@@Z$0 000000007403b499 f    CIL library: CIL module
 0001:0003a4bc       ?catch$1@?0??create_file_list@@YA?AV?$ObjectArray@UFileInfo@@@col@@AEBVUnicodeString@2@0AEAUCreateListStats@@AEAUCreateListOptions@@AEAVUiLink@@AEAULog@@PEAUIRAPISession@@PEAUPluginInstance@@@Z@4HA 000000007403b4bc f    CIL library: CIL module
 0001:0003a4c9       __catch$?create_file_list@@YA?AV?$ObjectArray@UFileInfo@@@col@@AEBVUnicodeString@2@0AEAUCreateListStats@@AEAUCreateListOptions@@AEAVUiLink@@AEAULog@@PEAUIRAPISession@@PEAUPluginInstance@@@Z$2 000000007403b4c9 f    CIL library: CIL module
 0001:0003a4ec       ?catch$3@?0??create_file_list@@YA?AV?$ObjectArray@UFileInfo@@@col@@AEBVUnicodeString@2@0AEAUCreateListStats@@AEAUCreateListOptions@@AEAVUiLink@@AEAULog@@PEAUIRAPISession@@PEAUPluginInstance@@@Z@4HA 000000007403b4ec f    CIL library: CIL module
 0001:0003a4fb       __catch$?create_file_list@@YA?AV?$ObjectArray@UFileInfo@@@col@@AEBVUnicodeString@2@0AEAUCreateListStats@@AEAUCreateListOptions@@AEAVUiLink@@AEAULog@@PEAUIRAPISession@@PEAUPluginInstance@@@Z$4 000000007403b4fb f    CIL library: CIL module
 0001:0003a5cc       ?dtor$3@?0??create_file_list@@YA?AV?$ObjectArray@UFileInfo@@@col@@AEBVUnicodeString@2@0AEAUCreateListStats@@AEAUCreateListOptions@@AEAVUiLink@@AEAULog@@PEAUIRAPISession@@PEAUPluginInstance@@@Z@4HA 000000007403b5cc f    CIL library: CIL module
 0001:0003a5dc       ?catch$2@?0??create_file_list@@YA?AV?$ObjectArray@UFileInfo@@@col@@AEBVUnicodeString@2@0AEAUCreateListStats@@AEAUCreateListOptions@@AEAVUiLink@@AEAULog@@PEAUIRAPISession@@PEAUPluginInstance@@@Z@4HA 000000007403b5dc f    CIL library: CIL module
 0001:0003a5e9       __catch$?create_file_list@@YA?AV?$ObjectArray@UFileInfo@@@col@@AEBVUnicodeString@2@0AEAUCreateListStats@@AEAUCreateListOptions@@AEAVUiLink@@AEAULog@@PEAUIRAPISession@@PEAUPluginInstance@@@Z$5 000000007403b5e9 f    CIL library: CIL module
 0001:0003a60c       ?catch$4@?0??create_file_list@@YA?AV?$ObjectArray@UFileInfo@@@col@@AEBVUnicodeString@2@0AEAUCreateListStats@@AEAUCreateListOptions@@AEAVUiLink@@AEAULog@@PEAUIRAPISession@@PEAUPluginInstance@@@Z@4HA 000000007403b60c f    CIL library: CIL module
 0001:0003a619       __catch$?create_file_list@@YA?AV?$ObjectArray@UFileInfo@@@col@@AEBVUnicodeString@2@0AEAUCreateListStats@@AEAUCreateListOptions@@AEAVUiLink@@AEAULog@@PEAUIRAPISession@@PEAUPluginInstance@@@Z$8 000000007403b619 f    CIL library: CIL module
 0001:0003a69c       ?dtor$4@?0??create_file_list@@YA?AV?$ObjectArray@UFileInfo@@@col@@AEBVUnicodeString@2@0AEAUCreateListStats@@AEAUCreateListOptions@@AEAVUiLink@@AEAULog@@PEAUIRAPISession@@PEAUPluginInstance@@@Z@4HA 000000007403b69c f    CIL library: CIL module
 0001:0003a6a8       ?dtor$0@?0??create_file_list@@YA?AV?$ObjectArray@UFileInfo@@@col@@AEBVUnicodeString@2@0AEAUCreateListStats@@AEAUCreateListOptions@@AEAVUiLink@@AEAULog@@PEAUPluginInstance@@@Z@4HA 000000007403b6a8 f    CIL library: CIL module
 0001:0003a6d8       ?dtor$1@?0??create_file_list@@YA?AV?$ObjectArray@UFileInfo@@@col@@AEBVUnicodeString@2@0AEAUCreateListStats@@AEAUCreateListOptions@@AEAVUiLink@@AEAULog@@PEAUPluginInstance@@@Z@4HA 000000007403b6d8 f    CIL library: CIL module
 0001:0003a6e8       ?dtor$2@?0??create_file_list@@YA?AV?$ObjectArray@UFileInfo@@@col@@AEBVUnicodeString@2@0AEAUCreateListStats@@AEAUCreateListOptions@@AEAVUiLink@@AEAULog@@PEAUPluginInstance@@@Z@4HA 000000007403b6e8 f    CIL library: CIL module
 0001:0003a6f8       ?catch$0@?0??create_file_list@@YA?AV?$ObjectArray@UFileInfo@@@col@@AEBVUnicodeString@2@0AEAUCreateListStats@@AEAUCreateListOptions@@AEAVUiLink@@AEAULog@@PEAUPluginInstance@@@Z@4HA 000000007403b6f8 f    CIL library: CIL module
 0001:0003a705       __catch$?create_file_list@@YA?AV?$ObjectArray@UFileInfo@@@col@@AEBVUnicodeString@2@0AEAUCreateListStats@@AEAUCreateListOptions@@AEAVUiLink@@AEAULog@@PEAUPluginInstance@@@Z$0 000000007403b705 f    CIL library: CIL module
 0001:0003a728       ?catch$2@?0??create_file_list@@YA?AV?$ObjectArray@UFileInfo@@@col@@AEBVUnicodeString@2@0AEAUCreateListStats@@AEAUCreateListOptions@@AEAVUiLink@@AEAULog@@PEAUPluginInstance@@@Z@4HA 000000007403b728 f    CIL library: CIL module
 0001:0003a737       __catch$?create_file_list@@YA?AV?$ObjectArray@UFileInfo@@@col@@AEBVUnicodeString@2@0AEAUCreateListStats@@AEAUCreateListOptions@@AEAVUiLink@@AEAULog@@PEAUPluginInstance@@@Z$2 000000007403b737 f    CIL library: CIL module
 0001:0003a808       ?dtor$4@?0??create_file_list@@YA?AV?$ObjectArray@UFileInfo@@@col@@AEBVUnicodeString@2@0AEAUCreateListStats@@AEAUCreateListOptions@@AEAVUiLink@@AEAULog@@PEAUPluginInstance@@@Z@4HA 000000007403b808 f    CIL library: CIL module
 0001:0003a818       ?catch$1@?0??create_file_list@@YA?AV?$ObjectArray@UFileInfo@@@col@@AEBVUnicodeString@2@0AEAUCreateListStats@@AEAUCreateListOptions@@AEAVUiLink@@AEAULog@@PEAUPluginInstance@@@Z@4HA 000000007403b818 f    CIL library: CIL module
 0001:0003a825       __catch$?create_file_list@@YA?AV?$ObjectArray@UFileInfo@@@col@@AEBVUnicodeString@2@0AEAUCreateListStats@@AEAUCreateListOptions@@AEAVUiLink@@AEAULog@@PEAUPluginInstance@@@Z$3 000000007403b825 f    CIL library: CIL module
 0001:0003a848       ?catch$3@?0??create_file_list@@YA?AV?$ObjectArray@UFileInfo@@@col@@AEBVUnicodeString@2@0AEAUCreateListStats@@AEAUCreateListOptions@@AEAVUiLink@@AEAULog@@PEAUPluginInstance@@@Z@4HA 000000007403b848 f    CIL library: CIL module
 0001:0003a855       __catch$?create_file_list@@YA?AV?$ObjectArray@UFileInfo@@@col@@AEBVUnicodeString@2@0AEAUCreateListStats@@AEAUCreateListOptions@@AEAVUiLink@@AEAULog@@PEAUPluginInstance@@@Z$6 000000007403b855 f    CIL library: CIL module
 0001:0003a8c8       ?dtor$5@?0??create_file_list@@YA?AV?$ObjectArray@UFileInfo@@@col@@AEBVUnicodeString@2@0AEAUCreateListStats@@AEAUCreateListOptions@@AEAVUiLink@@AEAULog@@PEAUPluginInstance@@@Z@4HA 000000007403b8c8 f    CIL library: CIL module
 0001:0003a8d4       DeleteFilesW$catch$0       000000007403b8d4 f    CIL library: CIL module
 0001:0003a8e1       __catch$DeleteFilesW$0     000000007403b8e1 f    CIL library: CIL module
 0001:0003a904       DeleteFilesW$dtor$0        000000007403b904 f    CIL library: CIL module
 0001:0003a914       DeleteFilesW$dtor$1        000000007403b914 f    CIL library: CIL module
 0001:0003a924       DeleteFilesW$dtor$2        000000007403b924 f    CIL library: CIL module
 0001:0003a934       DeleteFilesW$dtor$3        000000007403b934 f    CIL library: CIL module
 0001:0003a944       DeleteFilesW$dtor$4        000000007403b944 f    CIL library: CIL module
 0001:0003a954       DeleteFilesW$dtor$5        000000007403b954 f    CIL library: CIL module
 0001:0003a964       DeleteFilesW$dtor$6        000000007403b964 f    CIL library: CIL module
 0001:0003a974       DeleteFilesW$catch$1       000000007403b974 f    CIL library: CIL module
 0001:0003a981       __catch$DeleteFilesW$2     000000007403b981 f    CIL library: CIL module
 0001:0003a994       DeleteFilesW$dtor$7        000000007403b994 f    CIL library: CIL module
 0001:0003a9a4       DeleteFilesW$catch$2       000000007403b9a4 f    CIL library: CIL module
 0001:0003a9b1       __catch$DeleteFilesW$4     000000007403b9b1 f    CIL library: CIL module
 0001:0003a9c4       DeleteFilesW$catch$3       000000007403b9c4 f    CIL library: CIL module
 0001:0003a9d1       __catch$DeleteFilesW$5     000000007403b9d1 f    CIL library: CIL module
 0001:0003a9f4       DeleteFilesW$catch$4       000000007403b9f4 f    CIL library: CIL module
 0001:0003aa01       __catch$DeleteFilesW$6     000000007403ba01 f    CIL library: CIL module
 0001:0003aa44       DeleteFilesW$dtor$8        000000007403ba44 f    CIL library: CIL module
 0001:0003aa54       DeleteFilesW$catch$5       000000007403ba54 f    CIL library: CIL module
 0001:0003aa62       __catch$DeleteFilesW$7     000000007403ba62 f    CIL library: CIL module
 0001:0003aaf4       DeleteFilesW$dtor$9        000000007403baf4 f    CIL library: CIL module
 0001:0003ab04       DeleteFilesW$dtor$10       000000007403bb04 f    CIL library: CIL module
 0001:0003ab14       DeleteFilesW$catch$6       000000007403bb14 f    CIL library: CIL module
 0001:0003ab21       __catch$DeleteFilesW$8     000000007403bb21 f    CIL library: CIL module
 0001:0003ab74       DeleteFilesW$dtor$11       000000007403bb74 f    CIL library: CIL module
 0001:0003ab84       DeleteFilesW$catch$7       000000007403bb84 f    CIL library: CIL module
 0001:0003ab91       __catch$DeleteFilesW$9     000000007403bb91 f    CIL library: CIL module
 0001:0003abb4       DeleteFilesW$catch$8       000000007403bbb4 f    CIL library: CIL module
 0001:0003abc2       __catch$DeleteFilesW$10    000000007403bbc2 f    CIL library: CIL module
 0001:0003ac24       DeleteFilesW$dtor$12       000000007403bc24 f    CIL library: CIL module
 0001:0003ac30       PutFilesW$dtor$0           000000007403bc30 f    CIL library: CIL module
 0001:0003ac40       PutFilesW$catch$0          000000007403bc40 f    CIL library: CIL module
 0001:0003ac50       __catch$PutFilesW$0        000000007403bc50 f    CIL library: CIL module
 0001:0003ac80       PutFilesW$dtor$1           000000007403bc80 f    CIL library: CIL module
 0001:0003ac90       PutFilesW$dtor$2           000000007403bc90 f    CIL library: CIL module
 0001:0003aca0       PutFilesW$dtor$3           000000007403bca0 f    CIL library: CIL module
 0001:0003acb0       PutFilesW$dtor$4           000000007403bcb0 f    CIL library: CIL module
 0001:0003acc0       PutFilesW$dtor$5           000000007403bcc0 f    CIL library: CIL module
 0001:0003acd0       PutFilesW$dtor$31          000000007403bcd0 f    CIL library: CIL module
 0001:0003ace0       PutFilesW$dtor$32          000000007403bce0 f    CIL library: CIL module
 0001:0003acf0       PutFilesW$dtor$6           000000007403bcf0 f    CIL library: CIL module
 0001:0003ad00       PutFilesW$dtor$33          000000007403bd00 f    CIL library: CIL module
 0001:0003ad10       PutFilesW$dtor$34          000000007403bd10 f    CIL library: CIL module
 0001:0003ad20       PutFilesW$dtor$7           000000007403bd20 f    CIL library: CIL module
 0001:0003ad30       PutFilesW$dtor$8           000000007403bd30 f    CIL library: CIL module
 0001:0003ad40       PutFilesW$dtor$13          000000007403bd40 f    CIL library: CIL module
 0001:0003ad50       PutFilesW$dtor$14          000000007403bd50 f    CIL library: CIL module
 0001:0003ad60       PutFilesW$dtor$15          000000007403bd60 f    CIL library: CIL module
 0001:0003ad70       PutFilesW$dtor$16          000000007403bd70 f    CIL library: CIL module
 0001:0003ad80       PutFilesW$dtor$17          000000007403bd80 f    CIL library: CIL module
 0001:0003ad90       PutFilesW$catch$3          000000007403bd90 f    CIL library: CIL module
 0001:0003ada0       __catch$PutFilesW$2        000000007403bda0 f    CIL library: CIL module
 0001:0003adb0       PutFilesW$dtor$18          000000007403bdb0 f    CIL library: CIL module
 0001:0003adc0       PutFilesW$dtor$19          000000007403bdc0 f    CIL library: CIL module
 0001:0003add0       PutFilesW$catch$1          000000007403bdd0 f    CIL library: CIL module
 0001:0003ade0       __catch$PutFilesW$4        000000007403bde0 f    CIL library: CIL module
 0001:0003ae10       PutFilesW$dtor$35          000000007403be10 f    CIL library: CIL module
 0001:0003ae20       PutFilesW$dtor$36          000000007403be20 f    CIL library: CIL module
 0001:0003ae30       PutFilesW$dtor$20          000000007403be30 f    CIL library: CIL module
 0001:0003ae40       PutFilesW$dtor$37          000000007403be40 f    CIL library: CIL module
 0001:0003ae50       PutFilesW$dtor$21          000000007403be50 f    CIL library: CIL module
 0001:0003ae60       PutFilesW$dtor$22          000000007403be60 f    CIL library: CIL module
 0001:0003ae70       PutFilesW$dtor$23          000000007403be70 f    CIL library: CIL module
 0001:0003ae80       PutFilesW$catch$2          000000007403be80 f    CIL library: CIL module
 0001:0003ae90       __catch$PutFilesW$6        000000007403be90 f    CIL library: CIL module
 0001:0003aea0       PutFilesW$catch$4          000000007403bea0 f    CIL library: CIL module
 0001:0003aeb0       __catch$PutFilesW$8        000000007403beb0 f    CIL library: CIL module
 0001:0003aed0       PutFilesW$catch$5          000000007403bed0 f    CIL library: CIL module
 0001:0003aee0       __catch$PutFilesW$9        000000007403bee0 f    CIL library: CIL module
 0001:0003af10       PutFilesW$catch$6          000000007403bf10 f    CIL library: CIL module
 0001:0003af20       __catch$PutFilesW$10       000000007403bf20 f    CIL library: CIL module
 0001:0003af70       PutFilesW$dtor$24          000000007403bf70 f    CIL library: CIL module
 0001:0003af80       PutFilesW$catch$7          000000007403bf80 f    CIL library: CIL module
 0001:0003af91       __catch$PutFilesW$11       000000007403bf91 f    CIL library: CIL module
 0001:0003b040       PutFilesW$dtor$25          000000007403c040 f    CIL library: CIL module
 0001:0003b050       PutFilesW$dtor$26          000000007403c050 f    CIL library: CIL module
 0001:0003b060       PutFilesW$catch$8          000000007403c060 f    CIL library: CIL module
 0001:0003b070       __catch$PutFilesW$12       000000007403c070 f    CIL library: CIL module
 0001:0003b0e0       PutFilesW$dtor$27          000000007403c0e0 f    CIL library: CIL module
 0001:0003b0f0       PutFilesW$catch$9          000000007403c0f0 f    CIL library: CIL module
 0001:0003b100       __catch$PutFilesW$13       000000007403c100 f    CIL library: CIL module
 0001:0003b130       PutFilesW$catch$10         000000007403c130 f    CIL library: CIL module
 0001:0003b141       __catch$PutFilesW$14       000000007403c141 f    CIL library: CIL module
 0001:0003b1b0       PutFilesW$dtor$28          000000007403c1b0 f    CIL library: CIL module
 0001:0003b1bc       ?dtor$0@?0??get_files@@YA_JPEAXPEAUPluginPanelItem@@_KHAEAVUnicodeString@col@@2@Z@4HA 000000007403c1bc f    CIL library: CIL module
 0001:0003b1cc       ?catch$0@?0??get_files@@YA_JPEAXPEAUPluginPanelItem@@_KHAEAVUnicodeString@col@@2@Z@4HA 000000007403c1cc f    CIL library: CIL module
 0001:0003b1dc       __catch$?get_files@@YA_JPEAXPEAUPluginPanelItem@@_KHAEAVUnicodeString@col@@2@Z$0 000000007403c1dc f    CIL library: CIL module
 0001:0003b20c       ?dtor$1@?0??get_files@@YA_JPEAXPEAUPluginPanelItem@@_KHAEAVUnicodeString@col@@2@Z@4HA 000000007403c20c f    CIL library: CIL module
 0001:0003b21c       ?dtor$2@?0??get_files@@YA_JPEAXPEAUPluginPanelItem@@_KHAEAVUnicodeString@col@@2@Z@4HA 000000007403c21c f    CIL library: CIL module
 0001:0003b22c       ?dtor$3@?0??get_files@@YA_JPEAXPEAUPluginPanelItem@@_KHAEAVUnicodeString@col@@2@Z@4HA 000000007403c22c f    CIL library: CIL module
 0001:0003b23c       ?dtor$4@?0??get_files@@YA_JPEAXPEAUPluginPanelItem@@_KHAEAVUnicodeString@col@@2@Z@4HA 000000007403c23c f    CIL library: CIL module
 0001:0003b24c       ?dtor$5@?0??get_files@@YA_JPEAXPEAUPluginPanelItem@@_KHAEAVUnicodeString@col@@2@Z@4HA 000000007403c24c f    CIL library: CIL module
 0001:0003b25c       ?dtor$6@?0??get_files@@YA_JPEAXPEAUPluginPanelItem@@_KHAEAVUnicodeString@col@@2@Z@4HA 000000007403c25c f    CIL library: CIL module
 0001:0003b26c       ?dtor$42@?0??get_files@@YA_JPEAXPEAUPluginPanelItem@@_KHAEAVUnicodeString@col@@2@Z@4HA 000000007403c26c f    CIL library: CIL module
 0001:0003b27c       ?dtor$43@?0??get_files@@YA_JPEAXPEAUPluginPanelItem@@_KHAEAVUnicodeString@col@@2@Z@4HA 000000007403c27c f    CIL library: CIL module
 0001:0003b28c       ?dtor$7@?0??get_files@@YA_JPEAXPEAUPluginPanelItem@@_KHAEAVUnicodeString@col@@2@Z@4HA 000000007403c28c f    CIL library: CIL module
 0001:0003b29c       ?dtor$44@?0??get_files@@YA_JPEAXPEAUPluginPanelItem@@_KHAEAVUnicodeString@col@@2@Z@4HA 000000007403c29c f    CIL library: CIL module
 0001:0003b2ac       ?dtor$45@?0??get_files@@YA_JPEAXPEAUPluginPanelItem@@_KHAEAVUnicodeString@col@@2@Z@4HA 000000007403c2ac f    CIL library: CIL module
 0001:0003b2bc       ?dtor$8@?0??get_files@@YA_JPEAXPEAUPluginPanelItem@@_KHAEAVUnicodeString@col@@2@Z@4HA 000000007403c2bc f    CIL library: CIL module
 0001:0003b2cc       ?dtor$46@?0??get_files@@YA_JPEAXPEAUPluginPanelItem@@_KHAEAVUnicodeString@col@@2@Z@4HA 000000007403c2cc f    CIL library: CIL module
 0001:0003b2dc       ?dtor$47@?0??get_files@@YA_JPEAXPEAUPluginPanelItem@@_KHAEAVUnicodeString@col@@2@Z@4HA 000000007403c2dc f    CIL library: CIL module
 0001:0003b2ec       ?dtor$10@?0??get_files@@YA_JPEAXPEAUPluginPanelItem@@_KHAEAVUnicodeString@col@@2@Z@4HA 000000007403c2ec f    CIL library: CIL module
 0001:0003b2fc       ?dtor$11@?0??get_files@@YA_JPEAXPEAUPluginPanelItem@@_KHAEAVUnicodeString@col@@2@Z@4HA 000000007403c2fc f    CIL library: CIL module
 0001:0003b32c       ?dtor$12@?0??get_files@@YA_JPEAXPEAUPluginPanelItem@@_KHAEAVUnicodeString@col@@2@Z@4HA 000000007403c32c f    CIL library: CIL module
 0001:0003b35c       ?dtor$17@?0??get_files@@YA_JPEAXPEAUPluginPanelItem@@_KHAEAVUnicodeString@col@@2@Z@4HA 000000007403c35c f    CIL library: CIL module
 0001:0003b36c       ?dtor$18@?0??get_files@@YA_JPEAXPEAUPluginPanelItem@@_KHAEAVUnicodeString@col@@2@Z@4HA 000000007403c36c f    CIL library: CIL module
 0001:0003b37c       ?dtor$19@?0??get_files@@YA_JPEAXPEAUPluginPanelItem@@_KHAEAVUnicodeString@col@@2@Z@4HA 000000007403c37c f    CIL library: CIL module
 0001:0003b38c       ?dtor$20@?0??get_files@@YA_JPEAXPEAUPluginPanelItem@@_KHAEAVUnicodeString@col@@2@Z@4HA 000000007403c38c f    CIL library: CIL module
 0001:0003b39c       ?dtor$21@?0??get_files@@YA_JPEAXPEAUPluginPanelItem@@_KHAEAVUnicodeString@col@@2@Z@4HA 000000007403c39c f    CIL library: CIL module
 0001:0003b3ac       ?dtor$22@?0??get_files@@YA_JPEAXPEAUPluginPanelItem@@_KHAEAVUnicodeString@col@@2@Z@4HA 000000007403c3ac f    CIL library: CIL module
 0001:0003b3bc       ?catch$1@?0??get_files@@YA_JPEAXPEAUPluginPanelItem@@_KHAEAVUnicodeString@col@@2@Z@4HA 000000007403c3bc f    CIL library: CIL module
 0001:0003b3cc       __catch$?get_files@@YA_JPEAXPEAUPluginPanelItem@@_KHAEAVUnicodeString@col@@2@Z$2 000000007403c3cc f    CIL library: CIL module
 0001:0003b3fc       ?dtor$23@?0??get_files@@YA_JPEAXPEAUPluginPanelItem@@_KHAEAVUnicodeString@col@@2@Z@4HA 000000007403c3fc f    CIL library: CIL module
 0001:0003b40c       ?dtor$48@?0??get_files@@YA_JPEAXPEAUPluginPanelItem@@_KHAEAVUnicodeString@col@@2@Z@4HA 000000007403c40c f    CIL library: CIL module
 0001:0003b41c       ?dtor$24@?0??get_files@@YA_JPEAXPEAUPluginPanelItem@@_KHAEAVUnicodeString@col@@2@Z@4HA 000000007403c41c f    CIL library: CIL module
 0001:0003b42c       ?dtor$25@?0??get_files@@YA_JPEAXPEAUPluginPanelItem@@_KHAEAVUnicodeString@col@@2@Z@4HA 000000007403c42c f    CIL library: CIL module
 0001:0003b43c       ?dtor$26@?0??get_files@@YA_JPEAXPEAUPluginPanelItem@@_KHAEAVUnicodeString@col@@2@Z@4HA 000000007403c43c f    CIL library: CIL module
 0001:0003b44c       ?dtor$27@?0??get_files@@YA_JPEAXPEAUPluginPanelItem@@_KHAEAVUnicodeString@col@@2@Z@4HA 000000007403c44c f    CIL library: CIL module
 0001:0003b45c       ?catch$4@?0??get_files@@YA_JPEAXPEAUPluginPanelItem@@_KHAEAVUnicodeString@col@@2@Z@4HA 000000007403c45c f    CIL library: CIL module
 0001:0003b46c       __catch$?get_files@@YA_JPEAXPEAUPluginPanelItem@@_KHAEAVUnicodeString@col@@2@Z$4 000000007403c46c f    CIL library: CIL module
 0001:0003b47c       ?dtor$28@?0??get_files@@YA_JPEAXPEAUPluginPanelItem@@_KHAEAVUnicodeString@col@@2@Z@4HA 000000007403c47c f    CIL library: CIL module
 0001:0003b48c       ?dtor$29@?0??get_files@@YA_JPEAXPEAUPluginPanelItem@@_KHAEAVUnicodeString@col@@2@Z@4HA 000000007403c48c f    CIL library: CIL module
 0001:0003b49c       ?catch$2@?0??get_files@@YA_JPEAXPEAUPluginPanelItem@@_KHAEAVUnicodeString@col@@2@Z@4HA 000000007403c49c f    CIL library: CIL module
 0001:0003b4ac       __catch$?get_files@@YA_JPEAXPEAUPluginPanelItem@@_KHAEAVUnicodeString@col@@2@Z$6 000000007403c4ac f    CIL library: CIL module
 0001:0003b4dc       ?dtor$50@?0??get_files@@YA_JPEAXPEAUPluginPanelItem@@_KHAEAVUnicodeString@col@@2@Z@4HA 000000007403c4dc f    CIL library: CIL module
 0001:0003b4ec       ?dtor$51@?0??get_files@@YA_JPEAXPEAUPluginPanelItem@@_KHAEAVUnicodeString@col@@2@Z@4HA 000000007403c4ec f    CIL library: CIL module
 0001:0003b4fc       ?dtor$30@?0??get_files@@YA_JPEAXPEAUPluginPanelItem@@_KHAEAVUnicodeString@col@@2@Z@4HA 000000007403c4fc f    CIL library: CIL module
 0001:0003b50c       ?dtor$52@?0??get_files@@YA_JPEAXPEAUPluginPanelItem@@_KHAEAVUnicodeString@col@@2@Z@4HA 000000007403c50c f    CIL library: CIL module
 0001:0003b51c       ?dtor$31@?0??get_files@@YA_JPEAXPEAUPluginPanelItem@@_KHAEAVUnicodeString@col@@2@Z@4HA 000000007403c51c f    CIL library: CIL module
 0001:0003b52c       ?dtor$32@?0??get_files@@YA_JPEAXPEAUPluginPanelItem@@_KHAEAVUnicodeString@col@@2@Z@4HA 000000007403c52c f    CIL library: CIL module
 0001:0003b53c       ?dtor$33@?0??get_files@@YA_JPEAXPEAUPluginPanelItem@@_KHAEAVUnicodeString@col@@2@Z@4HA 000000007403c53c f    CIL library: CIL module
 0001:0003b54c       ?catch$3@?0??get_files@@YA_JPEAXPEAUPluginPanelItem@@_KHAEAVUnicodeString@col@@2@Z@4HA 000000007403c54c f    CIL library: CIL module
 0001:0003b55c       __catch$?get_files@@YA_JPEAXPEAUPluginPanelItem@@_KHAEAVUnicodeString@col@@2@Z$8 000000007403c55c f    CIL library: CIL module
 0001:0003b56c       ?catch$5@?0??get_files@@YA_JPEAXPEAUPluginPanelItem@@_KHAEAVUnicodeString@col@@2@Z@4HA 000000007403c56c f    CIL library: CIL module
 0001:0003b57c       __catch$?get_files@@YA_JPEAXPEAUPluginPanelItem@@_KHAEAVUnicodeString@col@@2@Z$10 000000007403c57c f    CIL library: CIL module
 0001:0003b59c       ?catch$6@?0??get_files@@YA_JPEAXPEAUPluginPanelItem@@_KHAEAVUnicodeString@col@@2@Z@4HA 000000007403c59c f    CIL library: CIL module
 0001:0003b5ac       __catch$?get_files@@YA_JPEAXPEAUPluginPanelItem@@_KHAEAVUnicodeString@col@@2@Z$11 000000007403c5ac f    CIL library: CIL module
 0001:0003b5dc       ?catch$7@?0??get_files@@YA_JPEAXPEAUPluginPanelItem@@_KHAEAVUnicodeString@col@@2@Z@4HA 000000007403c5dc f    CIL library: CIL module
 0001:0003b5ec       __catch$?get_files@@YA_JPEAXPEAUPluginPanelItem@@_KHAEAVUnicodeString@col@@2@Z$12 000000007403c5ec f    CIL library: CIL module
 0001:0003b63c       ?dtor$35@?0??get_files@@YA_JPEAXPEAUPluginPanelItem@@_KHAEAVUnicodeString@col@@2@Z@4HA 000000007403c63c f    CIL library: CIL module
 0001:0003b64c       ?catch$8@?0??get_files@@YA_JPEAXPEAUPluginPanelItem@@_KHAEAVUnicodeString@col@@2@Z@4HA 000000007403c64c f    CIL library: CIL module
 0001:0003b65d       __catch$?get_files@@YA_JPEAXPEAUPluginPanelItem@@_KHAEAVUnicodeString@col@@2@Z$13 000000007403c65d f    CIL library: CIL module
 0001:0003b70c       ?dtor$36@?0??get_files@@YA_JPEAXPEAUPluginPanelItem@@_KHAEAVUnicodeString@col@@2@Z@4HA 000000007403c70c f    CIL library: CIL module
 0001:0003b71c       ?dtor$37@?0??get_files@@YA_JPEAXPEAUPluginPanelItem@@_KHAEAVUnicodeString@col@@2@Z@4HA 000000007403c71c f    CIL library: CIL module
 0001:0003b72c       ?catch$9@?0??get_files@@YA_JPEAXPEAUPluginPanelItem@@_KHAEAVUnicodeString@col@@2@Z@4HA 000000007403c72c f    CIL library: CIL module
 0001:0003b73c       __catch$?get_files@@YA_JPEAXPEAUPluginPanelItem@@_KHAEAVUnicodeString@col@@2@Z$14 000000007403c73c f    CIL library: CIL module
 0001:0003b7ac       ?dtor$38@?0??get_files@@YA_JPEAXPEAUPluginPanelItem@@_KHAEAVUnicodeString@col@@2@Z@4HA 000000007403c7ac f    CIL library: CIL module
 0001:0003b7bc       ?catch$10@?0??get_files@@YA_JPEAXPEAUPluginPanelItem@@_KHAEAVUnicodeString@col@@2@Z@4HA 000000007403c7bc f    CIL library: CIL module
 0001:0003b7cc       __catch$?get_files@@YA_JPEAXPEAUPluginPanelItem@@_KHAEAVUnicodeString@col@@2@Z$15 000000007403c7cc f    CIL library: CIL module
 0001:0003b7fc       ?catch$11@?0??get_files@@YA_JPEAXPEAUPluginPanelItem@@_KHAEAVUnicodeString@col@@2@Z@4HA 000000007403c7fc f    CIL library: CIL module
 0001:0003b80d       __catch$?get_files@@YA_JPEAXPEAUPluginPanelItem@@_KHAEAVUnicodeString@col@@2@Z$16 000000007403c80d f    CIL library: CIL module
 0001:0003b87c       ?dtor$39@?0??get_files@@YA_JPEAXPEAUPluginPanelItem@@_KHAEAVUnicodeString@col@@2@Z@4HA 000000007403c87c f    CIL library: CIL module
 0001:0003b888       OpenW$dtor$0               000000007403c888 f    CIL library: CIL module
 0001:0003b898       OpenW$dtor$1               000000007403c898 f    CIL library: CIL module
 0001:0003b8a8       OpenW$catch$0              000000007403c8a8 f    CIL library: CIL module
 0001:0003b8b5       __catch$OpenW$0            000000007403c8b5 f    CIL library: CIL module
 0001:0003b8d8       OpenW$dtor$2               000000007403c8d8 f    CIL library: CIL module
 0001:0003b8e8       OpenW$dtor$3               000000007403c8e8 f    CIL library: CIL module
 0001:0003b8f8       OpenW$dtor$4               000000007403c8f8 f    CIL library: CIL module
 0001:0003b908       OpenW$dtor$11              000000007403c908 f    CIL library: CIL module
 0001:0003b918       OpenW$catch$1              000000007403c918 f    CIL library: CIL module
 0001:0003b925       __catch$OpenW$2            000000007403c925 f    CIL library: CIL module
 0001:0003b948       OpenW$dtor$5               000000007403c948 f    CIL library: CIL module
 0001:0003b958       OpenW$dtor$12              000000007403c958 f    CIL library: CIL module
 0001:0003b968       OpenW$dtor$13              000000007403c968 f    CIL library: CIL module
 0001:0003b978       OpenW$dtor$20              000000007403c978 f    CIL library: CIL module
 0001:0003b988       OpenW$dtor$21              000000007403c988 f    CIL library: CIL module
 0001:0003b998       OpenW$dtor$14              000000007403c998 f    CIL library: CIL module
 0001:0003b9a8       OpenW$dtor$15              000000007403c9a8 f    CIL library: CIL module
 0001:0003b9b8       OpenW$dtor$23              000000007403c9b8 f    CIL library: CIL module
 0001:0003b9c8       OpenW$dtor$16              000000007403c9c8 f    CIL library: CIL module
 0001:0003b9d8       OpenW$dtor$17              000000007403c9d8 f    CIL library: CIL module
 0001:0003b9e8       OpenW$dtor$18              000000007403c9e8 f    CIL library: CIL module
 0001:0003b9f8       OpenW$dtor$6               000000007403c9f8 f    CIL library: CIL module
 0001:0003ba08       OpenW$catch$2              000000007403ca08 f    CIL library: CIL module
 0001:0003ba15       __catch$OpenW$4            000000007403ca15 f    CIL library: CIL module
 0001:0003ba28       OpenW$catch$3              000000007403ca28 f    CIL library: CIL module
 0001:0003ba35       __catch$OpenW$6            000000007403ca35 f    CIL library: CIL module
 0001:0003ba58       OpenW$catch$4              000000007403ca58 f    CIL library: CIL module
 0001:0003ba65       __catch$OpenW$8            000000007403ca65 f    CIL library: CIL module
 0001:0003ba78       OpenW$catch$5              000000007403ca78 f    CIL library: CIL module
 0001:0003ba85       __catch$OpenW$9            000000007403ca85 f    CIL library: CIL module
 0001:0003bac8       OpenW$dtor$8               000000007403cac8 f    CIL library: CIL module
 0001:0003bad8       OpenW$catch$6              000000007403cad8 f    CIL library: CIL module
 0001:0003bae5       __catch$OpenW$10           000000007403cae5 f    CIL library: CIL module
 0001:0003bb38       OpenW$dtor$9               000000007403cb38 f    CIL library: CIL module
 0001:0003bb48       OpenW$catch$7              000000007403cb48 f    CIL library: CIL module
 0001:0003bb56       __catch$OpenW$11           000000007403cb56 f    CIL library: CIL module
 0001:0003bbc8       OpenW$dtor$10              000000007403cbc8 f    CIL library: CIL module
 0001:0003bbd4       ?dtor$0@?0??show_plugin_options_dlg@@YA_NAEAUPluginOptions@@@Z@4HA 000000007403cbd4 f    CIL library: CIL module
 0001:0003bbe4       ?dtor$1@?0??show_plugin_options_dlg@@YA_NAEAUPluginOptions@@@Z@4HA 000000007403cbe4 f    CIL library: CIL module
 0001:0003bbf4       ?dtor$2@?0??show_plugin_options_dlg@@YA_NAEAUPluginOptions@@@Z@4HA 000000007403cbf4 f    CIL library: CIL module
 0001:0003bc04       ?dtor$3@?0??show_plugin_options_dlg@@YA_NAEAUPluginOptions@@@Z@4HA 000000007403cc04 f    CIL library: CIL module
 0001:0003bc14       ?dtor$4@?0??show_plugin_options_dlg@@YA_NAEAUPluginOptions@@@Z@4HA 000000007403cc14 f    CIL library: CIL module
 0001:0003bc24       ?dtor$5@?0??show_plugin_options_dlg@@YA_NAEAUPluginOptions@@@Z@4HA 000000007403cc24 f    CIL library: CIL module
 0001:0003bc34       ?dtor$6@?0??show_plugin_options_dlg@@YA_NAEAUPluginOptions@@@Z@4HA 000000007403cc34 f    CIL library: CIL module
 0001:0003bc44       ?dtor$7@?0??show_plugin_options_dlg@@YA_NAEAUPluginOptions@@@Z@4HA 000000007403cc44 f    CIL library: CIL module
 0001:0003bc54       ?dtor$8@?0??show_plugin_options_dlg@@YA_NAEAUPluginOptions@@@Z@4HA 000000007403cc54 f    CIL library: CIL module
 0001:0003bc64       ?dtor$9@?0??show_plugin_options_dlg@@YA_NAEAUPluginOptions@@@Z@4HA 000000007403cc64 f    CIL library: CIL module
 0001:0003bc74       ?dtor$10@?0??show_plugin_options_dlg@@YA_NAEAUPluginOptions@@@Z@4HA 000000007403cc74 f    CIL library: CIL module
 0001:0003bc84       ?dtor$11@?0??show_plugin_options_dlg@@YA_NAEAUPluginOptions@@@Z@4HA 000000007403cc84 f    CIL library: CIL module
 0001:0003bc94       ?dtor$12@?0??show_plugin_options_dlg@@YA_NAEAUPluginOptions@@@Z@4HA 000000007403cc94 f    CIL library: CIL module
 0001:0003bca4       ?dtor$13@?0??show_plugin_options_dlg@@YA_NAEAUPluginOptions@@@Z@4HA 000000007403cca4 f    CIL library: CIL module
 0001:0003bcb4       ?dtor$14@?0??show_plugin_options_dlg@@YA_NAEAUPluginOptions@@@Z@4HA 000000007403ccb4 f    CIL library: CIL module
 0001:0003bcc4       ?dtor$15@?0??show_plugin_options_dlg@@YA_NAEAUPluginOptions@@@Z@4HA 000000007403ccc4 f    CIL library: CIL module
 0001:0003bcd4       ?dtor$16@?0??show_plugin_options_dlg@@YA_NAEAUPluginOptions@@@Z@4HA 000000007403ccd4 f    CIL library: CIL module
 0001:0003bce4       ?dtor$17@?0??show_plugin_options_dlg@@YA_NAEAUPluginOptions@@@Z@4HA 000000007403cce4 f    CIL library: CIL module
 0001:0003bcf4       ?dtor$18@?0??show_plugin_options_dlg@@YA_NAEAUPluginOptions@@@Z@4HA 000000007403ccf4 f    CIL library: CIL module
 0001:0003bd04       ?dtor$19@?0??show_plugin_options_dlg@@YA_NAEAUPluginOptions@@@Z@4HA 000000007403cd04 f    CIL library: CIL module
 0001:0003bd14       ?dtor$20@?0??show_plugin_options_dlg@@YA_NAEAUPluginOptions@@@Z@4HA 000000007403cd14 f    CIL library: CIL module
 0001:0003bd24       ?dtor$21@?0??show_plugin_options_dlg@@YA_NAEAUPluginOptions@@@Z@4HA 000000007403cd24 f    CIL library: CIL module
 0001:0003bd34       ?dtor$22@?0??show_plugin_options_dlg@@YA_NAEAUPluginOptions@@@Z@4HA 000000007403cd34 f    CIL library: CIL module
 0001:0003bd44       ?dtor$23@?0??show_plugin_options_dlg@@YA_NAEAUPluginOptions@@@Z@4HA 000000007403cd44 f    CIL library: CIL module
 0001:0003bd54       ?dtor$24@?0??show_plugin_options_dlg@@YA_NAEAUPluginOptions@@@Z@4HA 000000007403cd54 f    CIL library: CIL module
 0001:0003bd60       ProcessPanelInputW$dtor$0  000000007403cd60 f    CIL library: CIL module
 0001:0003bd70       ProcessPanelInputW$dtor$1  000000007403cd70 f    CIL library: CIL module
 0001:0003bd80       ProcessPanelInputW$dtor$2  000000007403cd80 f    CIL library: CIL module
 0001:0003bd90       ProcessPanelInputW$catch$0 000000007403cd90 f    CIL library: CIL module
 0001:0003bd9e       __catch$ProcessPanelInputW$0 000000007403cd9e f    CIL library: CIL module
 0001:0003bdf0       ProcessPanelInputW$dtor$3  000000007403cdf0 f    CIL library: CIL module
 0001:0003be00       ProcessPanelInputW$dtor$4  000000007403ce00 f    CIL library: CIL module
 0001:0003be10       ProcessPanelInputW$dtor$5  000000007403ce10 f    CIL library: CIL module
 0001:0003be20       ProcessPanelInputW$catch$1 000000007403ce20 f    CIL library: CIL module
 0001:0003be2f       __catch$ProcessPanelInputW$2 000000007403ce2f f    CIL library: CIL module
 0001:0003bf90       ProcessPanelInputW$dtor$7  000000007403cf90 f    CIL library: CIL module
 0001:0003bfa0       ProcessPanelInputW$dtor$9  000000007403cfa0 f    CIL library: CIL module
 0001:0003bfb0       ProcessPanelInputW$dtor$11 000000007403cfb0 f    CIL library: CIL module
 0001:0003bfc0       ProcessPanelInputW$catch$2 000000007403cfc0 f    CIL library: CIL module
 0001:0003bfcd       __catch$ProcessPanelInputW$4 000000007403cfcd f    CIL library: CIL module
 0001:0003bff0       ProcessPanelInputW$dtor$12 000000007403cff0 f    CIL library: CIL module
 0001:0003c000       ProcessPanelInputW$catch$3 000000007403d000 f    CIL library: CIL module
 0001:0003c00d       __catch$ProcessPanelInputW$6 000000007403d00d f    CIL library: CIL module
 0001:0003c030       ProcessPanelInputW$dtor$13 000000007403d030 f    CIL library: CIL module
 0001:0003c040       ProcessPanelInputW$dtor$14 000000007403d040 f    CIL library: CIL module
 0001:0003c050       ProcessPanelInputW$dtor$15 000000007403d050 f    CIL library: CIL module
 0001:0003c060       ProcessPanelInputW$catch$4 000000007403d060 f    CIL library: CIL module
 0001:0003c06d       __catch$ProcessPanelInputW$8 000000007403d06d f    CIL library: CIL module
 0001:0003c090       ProcessPanelInputW$dtor$16 000000007403d090 f    CIL library: CIL module
 0001:0003c0a0       ProcessPanelInputW$dtor$17 000000007403d0a0 f    CIL library: CIL module
 0001:0003c0b0       ProcessPanelInputW$dtor$18 000000007403d0b0 f    CIL library: CIL module
 0001:0003c0c0       ProcessPanelInputW$dtor$19 000000007403d0c0 f    CIL library: CIL module
 0001:0003c0d0       ProcessPanelInputW$dtor$20 000000007403d0d0 f    CIL library: CIL module
 0001:0003c0e0       ProcessPanelInputW$dtor$21 000000007403d0e0 f    CIL library: CIL module
 0001:0003c0f0       ProcessPanelInputW$dtor$23 000000007403d0f0 f    CIL library: CIL module
 0001:0003c100       ProcessPanelInputW$catch$5 000000007403d100 f    CIL library: CIL module
 0001:0003c10d       __catch$ProcessPanelInputW$10 000000007403d10d f    CIL library: CIL module
 0001:0003c130       ProcessPanelInputW$catch$6 000000007403d130 f    CIL library: CIL module
 0001:0003c13d       __catch$ProcessPanelInputW$12 000000007403d13d f    CIL library: CIL module
 0001:0003c150       ProcessPanelInputW$catch$7 000000007403d150 f    CIL library: CIL module
 0001:0003c15d       __catch$ProcessPanelInputW$13 000000007403d15d f    CIL library: CIL module
 0001:0003c180       ProcessPanelInputW$catch$8 000000007403d180 f    CIL library: CIL module
 0001:0003c18d       __catch$ProcessPanelInputW$14 000000007403d18d f    CIL library: CIL module
 0001:0003c1e0       ProcessPanelInputW$dtor$24 000000007403d1e0 f    CIL library: CIL module
 0001:0003c1f0       ProcessPanelInputW$catch$9 000000007403d1f0 f    CIL library: CIL module
 0001:0003c1fe       __catch$ProcessPanelInputW$15 000000007403d1fe f    CIL library: CIL module
 0001:0003c2a0       ProcessPanelInputW$dtor$25 000000007403d2a0 f    CIL library: CIL module
 0001:0003c2b0       ProcessPanelInputW$dtor$26 000000007403d2b0 f    CIL library: CIL module
 0001:0003c2c0       ProcessPanelInputW$catch$10 000000007403d2c0 f    CIL library: CIL module
 0001:0003c2cd       __catch$ProcessPanelInputW$16 000000007403d2cd f    CIL library: CIL module
 0001:0003c330       ProcessPanelInputW$dtor$27 000000007403d330 f    CIL library: CIL module
 0001:0003c340       ProcessPanelInputW$catch$11 000000007403d340 f    CIL library: CIL module
 0001:0003c34d       __catch$ProcessPanelInputW$17 000000007403d34d f    CIL library: CIL module
 0001:0003c370       ProcessPanelInputW$catch$12 000000007403d370 f    CIL library: CIL module
 0001:0003c37e       __catch$ProcessPanelInputW$18 000000007403d37e f    CIL library: CIL module
 0001:0003c3f0       ProcessPanelInputW$dtor$28 000000007403d3f0 f    CIL library: CIL module
 0001:0003c3fc       _CallSETranslator$filt$0   000000007403d3fc f   LIBCMT:trnsctrl.obj
 0001:0003c442       __FrameUnwindToState$filt$0 000000007403d442 f   LIBCMT:frame.obj
 0001:0003c462       __FrameUnwindToState$fin$1 000000007403d462 f   LIBCMT:frame.obj
 0001:0003c48b       __DestructExceptionObject$filt$0 000000007403d48b f   LIBCMT:frame.obj
 0001:0003c4a3       __CxxCallCatchBlock$filt$0 000000007403d4a3 f   LIBCMT:frame.obj
 0001:0003c5a3       __CxxCallCatchBlock$fin$1  000000007403d5a3 f   LIBCMT:frame.obj
 0001:0003c634       ??__Eg_colors@@YAXXZ       000000007403d634 f    CIL library: CIL module
 0001:0003c6c4       ??__Eg_plugin_options@@YAXXZ 000000007403d6c4 f    CIL library: CIL module
 0001:0003c6e4       ??__Eg_plugin_objects@@YAXXZ 000000007403d6e4 f    CIL library: CIL module
 0001:0003c774       ??__Eg_plugin_format@@YAXXZ 000000007403d774 f    CIL library: CIL module
 0001:0003c798       ??__Eexport_filter_list@@YAXXZ 000000007403d798 f    CIL library: CIL module
 0001:0003c7b8       ??__Eimport_filter_list@@YAXXZ 000000007403d7b8 f    CIL library: CIL module
 0001:0003c7d8       ??__Fg_colors@@YAXXZ       000000007403d7d8 f    CIL library: CIL module
 0001:0003c7f0       ??__Fg_plugin_options@@YAXXZ 000000007403d7f0 f    CIL library: CIL module
 0001:0003c860       ??__Fg_plugin_objects@@YAXXZ 000000007403d860 f    CIL library: CIL module
 0001:0003c878       ??__Fg_plugin_format@@YAXXZ 000000007403d878 f    CIL library: CIL module
 0001:0003c890       ??__Fppi@?1??far_get_panel_item@@YAPEAUPluginPanelItem@@PEAX_JAEBUPanelInfo@@@Z@YAXXZ 000000007403d890 f    CIL library: CIL module
 0001:0003c8a8       ??__Fppi@?1??far_get_selected_panel_item@@YAPEAUPluginPanelItem@@PEAX_JAEBUPanelInfo@@@Z@YAXXZ 000000007403d8a8 f    CIL library: CIL module
 0001:0003c8c0       ??__Fexport_filter_list@@YAXXZ 000000007403d8c0 f    CIL library: CIL module
 0001:0003c930       ??__Fimport_filter_list@@YAXXZ 000000007403d930 f    CIL library: CIL module
 0001:0003c9a0       ??__Fnomem@?5???2@YAPEAX_K@Z@YAXXZ 000000007403d9a0 f   LIBCMT:new.obj
