 luafar3

 Timestamp is 524be764 (Wed Oct 02 12:29:08 2013)

 Preferred load address is 10000000

 Start         Length     Name                   Class
 0001:00000000 00000354H .idata$5                CODE
 0001:00000354 00000004H .CRT$XCA                CODE
 0001:00000358 00000004H .CRT$XCZ                CODE
 0001:0000035c 00000004H .CRT$XIA                CODE
 0001:00000360 00000014H .CRT$XIC                CODE
 0001:00000374 00000004H .CRT$XIZ                CODE
 0001:00000378 00000004H .CRT$XPA                CODE
 0001:0000037c 0000000cH .CRT$XPX                CODE
 0001:00000388 00000004H .CRT$XPXA               CODE
 0001:0000038c 00000004H .CRT$XPZ                CODE
 0001:00000390 00000004H .CRT$XTA                CODE
 0001:00000394 00000004H .CRT$XTZ                CODE
 0001:000003a0 00012d78H .rdata                  CODE
 0001:00013118 0000007cH .rdata$debug            CODE
 0001:000131a0 0000000cH .rdata$sxdata           CODE
 0001:000131ac 00000004H .rtc$IAA                CODE
 0001:000131b0 00000004H .rtc$IZZ                CODE
 0001:000131b4 00000004H .rtc$TAA                CODE
 0001:000131b8 00000004H .rtc$TZZ                CODE
 0001:000131c0 0003178dH .text                   CODE
 0001:00044950 000006ccH .xdata$x                CODE
 0001:0004501c 00000078H .idata$2                CODE
 0001:00045094 00000014H .idata$3                CODE
 0001:000450a8 00000354H .idata$4                CODE
 0001:000453fc 00000e70H .idata$6                CODE
 0001:00046270 00000458H .edata                  CODE
 0002:00000000 00008ef0H .data                   DATA
 0002:00008f00 00001fe0H .bss                    DATA
 0003:00000000 00000058H .rsrc$01                DATA
 0003:00000060 00000358H .rsrc$02                DATA

  Address         Publics by Value              Rva+Base       Lib:Object

 0000:00000000       __except_list              00000000     <absolute>
 0000:00000003       ___safe_se_handler_count   00000003     <absolute>
 0000:00000000       ___ImageBase               10000000     <linker-defined>
 0001:00000000       __imp__RegEnumKeyExW@32    10001000     advapi32:ADVAPI32.dll
 0001:00000004       __imp__RegSetValueExW@24   10001004     advapi32:ADVAPI32.dll
 0001:00000008       __imp__RegQueryValueExW@24 10001008     advapi32:ADVAPI32.dll
 0001:0000000c       __imp__RegOpenKeyExW@20    1000100c     advapi32:ADVAPI32.dll
 0001:00000010       __imp__RegDeleteKeyW@8     10001010     advapi32:ADVAPI32.dll
 0001:00000014       __imp__RegCreateKeyExW@36  10001014     advapi32:ADVAPI32.dll
 0001:00000018       __imp__RegCloseKey@4       10001018     advapi32:ADVAPI32.dll
 0001:0000001c       __imp__RegEnumValueW@32    1000101c     advapi32:ADVAPI32.dll
 0001:00000020       \177ADVAPI32_NULL_THUNK_DATA 10001020     advapi32:ADVAPI32.dll
 0001:00000024       __imp__GetConsoleScreenBufferInfo@8 10001024     kernel32:KERNEL32.dll
 0001:00000028       __imp__FreeLibrary@4       10001028     kernel32:KERNEL32.dll
 0001:0000002c       __imp__GetModuleFileNameW@12 1000102c     kernel32:KERNEL32.dll
 0001:00000030       __imp__LoadLibraryW@4      10001030     kernel32:KERNEL32.dll
 0001:00000034       __imp__SearchPathW@24      10001034     kernel32:KERNEL32.dll
 0001:00000038       __imp__GetDriveTypeW@4     10001038     kernel32:KERNEL32.dll
 0001:0000003c       __imp__GetLogicalDriveStringsW@8 1000103c     kernel32:KERNEL32.dll
 0001:00000040       __imp__SetFileAttributesW@8 10001040     kernel32:KERNEL32.dll
 0001:00000044       __imp__GetLastError@0      10001044     kernel32:KERNEL32.dll
 0001:00000048       __imp__GlobalMemoryStatusEx@4 10001048     kernel32:KERNEL32.dll
 0001:0000004c       __imp__FormatMessageW@28   1000104c     kernel32:KERNEL32.dll
 0001:00000050       __imp__MultiByteToWideChar@24 10001050     kernel32:KERNEL32.dll
 0001:00000054       __imp__WideCharToMultiByte@32 10001054     kernel32:KERNEL32.dll
 0001:00000058       __imp__GetACP@0            10001058     kernel32:KERNEL32.dll
 0001:0000005c       __imp__GetOEMCP@0          1000105c     kernel32:KERNEL32.dll
 0001:00000060       __imp__GetCPInfoExW@12     10001060     kernel32:KERNEL32.dll
 0001:00000064       __imp__EnumSystemCodePagesW@8 10001064     kernel32:KERNEL32.dll
 0001:00000068       __imp__GetProcAddress@8    10001068     kernel32:KERNEL32.dll
 0001:0000006c       __imp__CreateDirectoryW@8  1000106c     kernel32:KERNEL32.dll
 0001:00000070       __imp__DeleteFileW@4       10001070     kernel32:KERNEL32.dll
 0001:00000074       __imp__FileTimeToLocalFileTime@8 10001074     kernel32:KERNEL32.dll
 0001:00000078       __imp__FindClose@4         10001078     kernel32:KERNEL32.dll
 0001:0000007c       __imp__FindFirstFileW@8    1000107c     kernel32:KERNEL32.dll
 0001:00000080       __imp__RemoveDirectoryW@4  10001080     kernel32:KERNEL32.dll
 0001:00000084       __imp__CopyFileW@12        10001084     kernel32:KERNEL32.dll
 0001:00000088       __imp__MoveFileExW@12      10001088     kernel32:KERNEL32.dll
 0001:0000008c       __imp__FileTimeToSystemTime@8 1000108c     kernel32:KERNEL32.dll
 0001:00000090       __imp__SystemTimeToFileTime@8 10001090     kernel32:KERNEL32.dll
 0001:00000094       __imp__CompareStringW@24   10001094     kernel32:KERNEL32.dll
 0001:00000098       __imp__PeekConsoleInputW@16 10001098     kernel32:KERNEL32.dll
 0001:0000009c       __imp__ReadConsoleInputW@16 1000109c     kernel32:KERNEL32.dll
 0001:000000a0       __imp__SetLastError@4      100010a0     kernel32:KERNEL32.dll
 0001:000000a4       __imp__GetModuleHandleW@4  100010a4     kernel32:KERNEL32.dll
 0001:000000a8       __imp__SetEndOfFile@4      100010a8     kernel32:KERNEL32.dll
 0001:000000ac       __imp__HeapSize@12         100010ac     kernel32:KERNEL32.dll
 0001:000000b0       __imp__GetModuleHandleA@4  100010b0     kernel32:KERNEL32.dll
 0001:000000b4       __imp__GetSystemTimeAsFileTime@4 100010b4     kernel32:KERNEL32.dll
 0001:000000b8       __imp__CreateThread@24     100010b8     kernel32:KERNEL32.dll
 0001:000000bc       __imp__SwitchToThread@0    100010bc     kernel32:KERNEL32.dll
 0001:000000c0       __imp__Sleep@4             100010c0     kernel32:KERNEL32.dll
 0001:000000c4       __imp__GetFileAttributesW@4 100010c4     kernel32:KERNEL32.dll
 0001:000000c8       __imp__GetEnvironmentVariableW@12 100010c8     kernel32:KERNEL32.dll
 0001:000000cc       __imp__SetEnvironmentVariableW@8 100010cc     kernel32:KERNEL32.dll
 0001:000000d0       __imp__GetStdHandle@4      100010d0     kernel32:KERNEL32.dll
 0001:000000d4       __imp__WriteConsoleW@20    100010d4     kernel32:KERNEL32.dll
 0001:000000d8       __imp__RaiseException@16   100010d8     kernel32:KERNEL32.dll
 0001:000000dc       __imp__LCMapStringW@24     100010dc     kernel32:KERNEL32.dll
 0001:000000e0       __imp__GetStringTypeW@16   100010e0     kernel32:KERNEL32.dll
 0001:000000e4       __imp__CreateFileW@28      100010e4     kernel32:KERNEL32.dll
 0001:000000e8       __imp__SetStdHandle@8      100010e8     kernel32:KERNEL32.dll
 0001:000000ec       __imp__HeapReAlloc@16      100010ec     kernel32:KERNEL32.dll
 0001:000000f0       __imp__OutputDebugStringW@4 100010f0     kernel32:KERNEL32.dll
 0001:000000f4       __imp__LoadLibraryExW@12   100010f4     kernel32:KERNEL32.dll
 0001:000000f8       __imp__TlsFree@4           100010f8     kernel32:KERNEL32.dll
 0001:000000fc       __imp__TlsSetValue@8       100010fc     kernel32:KERNEL32.dll
 0001:00000100       __imp__TlsGetValue@4       10001100     kernel32:KERNEL32.dll
 0001:00000104       __imp__TlsAlloc@0          10001104     kernel32:KERNEL32.dll
 0001:00000108       __imp__TerminateProcess@8  10001108     kernel32:KERNEL32.dll
 0001:0000010c       __imp__SetUnhandledExceptionFilter@4 1000110c     kernel32:KERNEL32.dll
 0001:00000110       __imp__UnhandledExceptionFilter@4 10001110     kernel32:KERNEL32.dll
 0001:00000114       __imp__QueryPerformanceCounter@4 10001114     kernel32:KERNEL32.dll
 0001:00000118       __imp__GetModuleFileNameA@12 10001118     kernel32:KERNEL32.dll
 0001:0000011c       __imp__FreeEnvironmentStringsW@4 1000111c     kernel32:KERNEL32.dll
 0001:00000120       __imp__GetEnvironmentStringsW@0 10001120     kernel32:KERNEL32.dll
 0001:00000124       __imp__GetFileAttributesExW@12 10001124     kernel32:KERNEL32.dll
 0001:00000128       __imp__GetCurrentProcessId@0 10001128     kernel32:KERNEL32.dll
 0001:0000012c       __imp__CreatePipe@16       1000112c     kernel32:KERNEL32.dll
 0001:00000130       __imp__GetExitCodeProcess@8 10001130     kernel32:KERNEL32.dll
 0001:00000134       __imp__WaitForSingleObject@8 10001134     kernel32:KERNEL32.dll
 0001:00000138       __imp__SetFilePointerEx@20 10001138     kernel32:KERNEL32.dll
 0001:0000013c       __imp__GetConsoleCP@0      1000113c     kernel32:KERNEL32.dll
 0001:00000140       __imp__FlushFileBuffers@4  10001140     kernel32:KERNEL32.dll
 0001:00000144       __imp__GetCPInfo@8         10001144     kernel32:KERNEL32.dll
 0001:00000148       __imp__IsValidCodePage@4   10001148     kernel32:KERNEL32.dll
 0001:0000014c       __imp__RtlUnwind@16        1000114c     kernel32:KERNEL32.dll
 0001:00000150       __imp__SetFilePointer@16   10001150     kernel32:KERNEL32.dll
 0001:00000154       __imp__GetStartupInfoW@4   10001154     kernel32:KERNEL32.dll
 0001:00000158       __imp__GetFileType@4       10001158     kernel32:KERNEL32.dll
 0001:0000015c       __imp__ReadConsoleW@20     1000115c     kernel32:KERNEL32.dll
 0001:00000160       __imp__GetConsoleMode@8    10001160     kernel32:KERNEL32.dll
 0001:00000164       __imp__InitializeCriticalSectionAndSpinCount@8 10001164     kernel32:KERNEL32.dll
 0001:00000168       __imp__DeleteCriticalSection@4 10001168     kernel32:KERNEL32.dll
 0001:0000016c       __imp__InterlockedIncrement@4 1000116c     kernel32:KERNEL32.dll
 0001:00000170       __imp__WriteFile@20        10001170     kernel32:KERNEL32.dll
 0001:00000174       __imp__AreFileApisANSI@0   10001174     kernel32:KERNEL32.dll
 0001:00000178       __imp__ExitProcess@4       10001178     kernel32:KERNEL32.dll
 0001:0000017c       __imp__InterlockedDecrement@4 1000117c     kernel32:KERNEL32.dll
 0001:00000180       __imp__GetProcessHeap@0    10001180     kernel32:KERNEL32.dll
 0001:00000184       __imp__IsProcessorFeaturePresent@4 10001184     kernel32:KERNEL32.dll
 0001:00000188       __imp__IsDebuggerPresent@0 10001188     kernel32:KERNEL32.dll
 0001:0000018c       __imp__GetCurrentThreadId@0 1000118c     kernel32:KERNEL32.dll
 0001:00000190       __imp__GetCommandLineA@0   10001190     kernel32:KERNEL32.dll
 0001:00000194       __imp__CreateProcessW@40   10001194     kernel32:KERNEL32.dll
 0001:00000198       __imp__GetTempPathA@8      10001198     kernel32:KERNEL32.dll
 0001:0000019c       __imp__GetCurrentProcess@0 1000119c     kernel32:KERNEL32.dll
 0001:000001a0       __imp__DuplicateHandle@28  100011a0     kernel32:KERNEL32.dll
 0001:000001a4       __imp__CloseHandle@4       100011a4     kernel32:KERNEL32.dll
 0001:000001a8       __imp__ReadFile@20         100011a8     kernel32:KERNEL32.dll
 0001:000001ac       __imp__LeaveCriticalSection@4 100011ac     kernel32:KERNEL32.dll
 0001:000001b0       __imp__EnterCriticalSection@4 100011b0     kernel32:KERNEL32.dll
 0001:000001b4       __imp__HeapAlloc@12        100011b4     kernel32:KERNEL32.dll
 0001:000001b8       __imp__HeapFree@12         100011b8     kernel32:KERNEL32.dll
 0001:000001bc       \177KERNEL32_NULL_THUNK_DATA 100011bc     kernel32:KERNEL32.dll
 0001:000001c0       __imp__RpcStringFreeA@4    100011c0     rpcrt4:RPCRT4.dll
 0001:000001c4       __imp__UuidCreate@4        100011c4     rpcrt4:RPCRT4.dll
 0001:000001c8       __imp__UuidToStringA@8     100011c8     rpcrt4:RPCRT4.dll
 0001:000001cc       __imp__UuidFromStringA@8   100011cc     rpcrt4:RPCRT4.dll
 0001:000001d0       \177RPCRT4_NULL_THUNK_DATA 100011d0     rpcrt4:RPCRT4.dll
 0001:000001d4       __imp__ShellExecuteW@24    100011d4     shell32:SHELL32.dll
 0001:000001d8       __imp__SHGetFolderPathW@20 100011d8     shell32:SHELL32.dll
 0001:000001dc       \177SHELL32_NULL_THUNK_DATA 100011dc     shell32:SHELL32.dll
 0001:000001e0       __imp__wsprintfW           100011e0     user32:USER32.dll
 0001:000001e4       \177USER32_NULL_THUNK_DATA 100011e4     user32:USER32.dll
 0001:000001e8       __imp__luaL_checkany       100011e8     lua5.1:lua5.1.dll
 0001:000001ec       __imp__luaL_newstate       100011ec     lua5.1:lua5.1.dll
 0001:000001f0       __imp__lua_typename        100011f0     lua5.1:lua5.1.dll
 0001:000001f4       __imp__lua_dump            100011f4     lua5.1:lua5.1.dll
 0001:000001f8       __imp__luaL_checkstack     100011f8     lua5.1:lua5.1.dll
 0001:000001fc       __imp__luaL_prepbuffer     100011fc     lua5.1:lua5.1.dll
 0001:00000200       __imp__lua_tocfunction     10001200     lua5.1:lua5.1.dll
 0001:00000204       __imp__luaL_checkoption    10001204     lua5.1:lua5.1.dll
 0001:00000208       __imp__lua_iscfunction     10001208     lua5.1:lua5.1.dll
 0001:0000020c       __imp__luaL_gsub           1000120c     lua5.1:lua5.1.dll
 0001:00000210       __imp__luaL_findtable      10001210     lua5.1:lua5.1.dll
 0001:00000214       __imp__lua_isuserdata      10001214     lua5.1:lua5.1.dll
 0001:00000218       __imp__luaL_optnumber      10001218     lua5.1:lua5.1.dll
 0001:0000021c       __imp__luaL_checknumber    1000121c     lua5.1:lua5.1.dll
 0001:00000220       __imp__luaL_typerror       10001220     lua5.1:lua5.1.dll
 0001:00000224       __imp__lua_setallocf       10001224     lua5.1:lua5.1.dll
 0001:00000228       __imp__lua_getallocf       10001228     lua5.1:lua5.1.dll
 0001:0000022c       __imp__lua_rawget          1000122c     lua5.1:lua5.1.dll
 0001:00000230       __imp__lua_close           10001230     lua5.1:lua5.1.dll
 0001:00000234       __imp__luaopen_debug       10001234     lua5.1:lua5.1.dll
 0001:00000238       __imp__luaopen_math        10001238     lua5.1:lua5.1.dll
 0001:0000023c       __imp__luaopen_string      1000123c     lua5.1:lua5.1.dll
 0001:00000240       __imp__luaopen_os          10001240     lua5.1:lua5.1.dll
 0001:00000244       __imp__luaopen_table       10001244     lua5.1:lua5.1.dll
 0001:00000248       __imp__luaopen_base        10001248     lua5.1:lua5.1.dll
 0001:0000024c       __imp__luaL_checktype      1000124c     lua5.1:lua5.1.dll
 0001:00000250       __imp__lua_getinfo         10001250     lua5.1:lua5.1.dll
 0001:00000254       __imp__lua_getstack        10001254     lua5.1:lua5.1.dll
 0001:00000258       __imp__luaL_error          10001258     lua5.1:lua5.1.dll
 0001:0000025c       __imp__luaL_checkudata     1000125c     lua5.1:lua5.1.dll
 0001:00000260       __imp__luaL_optinteger     10001260     lua5.1:lua5.1.dll
 0001:00000264       __imp__luaL_optlstring     10001264     lua5.1:lua5.1.dll
 0001:00000268       __imp__luaL_checklstring   10001268     lua5.1:lua5.1.dll
 0001:0000026c       __imp__lua_checkstack      1000126c     lua5.1:lua5.1.dll
 0001:00000270       __imp__lua_replace         10001270     lua5.1:lua5.1.dll
 0001:00000274       __imp__luaL_pushresult     10001274     lua5.1:lua5.1.dll
 0001:00000278       __imp__luaL_addlstring     10001278     lua5.1:lua5.1.dll
 0001:0000027c       __imp__luaL_buffinit       1000127c     lua5.1:lua5.1.dll
 0001:00000280       __imp__lua_next            10001280     lua5.1:lua5.1.dll
 0001:00000284       __imp__lua_error           10001284     lua5.1:lua5.1.dll
 0001:00000288       __imp__lua_load            10001288     lua5.1:lua5.1.dll
 0001:0000028c       __imp__lua_pushfstring     1000128c     lua5.1:lua5.1.dll
 0001:00000290       __imp__luaL_loadstring     10001290     lua5.1:lua5.1.dll
 0001:00000294       __imp__luaL_unref          10001294     lua5.1:lua5.1.dll
 0001:00000298       __imp__luaL_ref            10001298     lua5.1:lua5.1.dll
 0001:0000029c       __imp__lua_gc              1000129c     lua5.1:lua5.1.dll
 0001:000002a0       __imp__lua_pcall           100012a0     lua5.1:lua5.1.dll
 0001:000002a4       __imp__lua_call            100012a4     lua5.1:lua5.1.dll
 0001:000002a8       __imp__lua_rawseti         100012a8     lua5.1:lua5.1.dll
 0001:000002ac       __imp__lua_setfield        100012ac     lua5.1:lua5.1.dll
 0001:000002b0       __imp__lua_createtable     100012b0     lua5.1:lua5.1.dll
 0001:000002b4       __imp__lua_rawgeti         100012b4     lua5.1:lua5.1.dll
 0001:000002b8       __imp__lua_gettable        100012b8     lua5.1:lua5.1.dll
 0001:000002bc       __imp__lua_pushlightuserdata 100012bc     lua5.1:lua5.1.dll
 0001:000002c0       __imp__lua_pushcclosure    100012c0     lua5.1:lua5.1.dll
 0001:000002c4       __imp__lua_pushlstring     100012c4     lua5.1:lua5.1.dll
 0001:000002c8       __imp__lua_pushinteger     100012c8     lua5.1:lua5.1.dll
 0001:000002cc       __imp__lua_objlen          100012cc     lua5.1:lua5.1.dll
 0001:000002d0       __imp__lua_toboolean       100012d0     lua5.1:lua5.1.dll
 0001:000002d4       __imp__lua_tointeger       100012d4     lua5.1:lua5.1.dll
 0001:000002d8       __imp__lua_isstring        100012d8     lua5.1:lua5.1.dll
 0001:000002dc       __imp__lua_isnumber        100012dc     lua5.1:lua5.1.dll
 0001:000002e0       __imp__lua_insert          100012e0     lua5.1:lua5.1.dll
 0001:000002e4       __imp__lua_remove          100012e4     lua5.1:lua5.1.dll
 0001:000002e8       __imp__lua_pushvalue       100012e8     lua5.1:lua5.1.dll
 0001:000002ec       __imp__luaL_newmetatable   100012ec     lua5.1:lua5.1.dll
 0001:000002f0       __imp__luaL_checkinteger   100012f0     lua5.1:lua5.1.dll
 0001:000002f4       __imp__luaL_argerror       100012f4     lua5.1:lua5.1.dll
 0001:000002f8       __imp__luaL_register       100012f8     lua5.1:lua5.1.dll
 0001:000002fc       __imp__lua_setmetatable    100012fc     lua5.1:lua5.1.dll
 0001:00000300       __imp__lua_getmetatable    10001300     lua5.1:lua5.1.dll
 0001:00000304       __imp__lua_newuserdata     10001304     lua5.1:lua5.1.dll
 0001:00000308       __imp__lua_getfield        10001308     lua5.1:lua5.1.dll
 0001:0000030c       __imp__lua_pushboolean     1000130c     lua5.1:lua5.1.dll
 0001:00000310       __imp__lua_pushstring      10001310     lua5.1:lua5.1.dll
 0001:00000314       __imp__lua_pushnumber      10001314     lua5.1:lua5.1.dll
 0001:00000318       __imp__lua_pushnil         10001318     lua5.1:lua5.1.dll
 0001:0000031c       __imp__lua_touserdata      1000131c     lua5.1:lua5.1.dll
 0001:00000320       __imp__lua_tolstring       10001320     lua5.1:lua5.1.dll
 0001:00000324       __imp__lua_tonumber        10001324     lua5.1:lua5.1.dll
 0001:00000328       __imp__lua_rawequal        10001328     lua5.1:lua5.1.dll
 0001:0000032c       __imp__lua_type            1000132c     lua5.1:lua5.1.dll
 0001:00000330       __imp__lua_settop          10001330     lua5.1:lua5.1.dll
 0001:00000334       __imp__lua_gettop          10001334     lua5.1:lua5.1.dll
 0001:00000338       __imp__lua_setfenv         10001338     lua5.1:lua5.1.dll
 0001:0000033c       __imp__lua_rawset          1000133c     lua5.1:lua5.1.dll
 0001:00000340       __imp__lua_settable        10001340     lua5.1:lua5.1.dll
 0001:00000344       __imp__lua_concat          10001344     lua5.1:lua5.1.dll
 0001:00000348       __imp__lua_getfenv         10001348     lua5.1:lua5.1.dll
 0001:0000034c       __imp__luaL_addvalue       1000134c     lua5.1:lua5.1.dll
 0001:00000350       \177lua5.1_NULL_THUNK_DATA 10001350     lua5.1:lua5.1.dll
 0001:00000354       ___xc_a                    10001354     LIBCMT:crt0init.obj
 0001:00000358       ___xc_z                    10001358     LIBCMT:crt0init.obj
 0001:0000035c       ___xi_a                    1000135c     LIBCMT:crt0init.obj
 0001:00000374       ___xi_z                    10001374     LIBCMT:crt0init.obj
 0001:00000378       ___xp_a                    10001378     LIBCMT:crt0init.obj
 0001:0000038c       ___xp_z                    1000138c     LIBCMT:crt0init.obj
 0001:00000390       ___xt_a                    10001390     LIBCMT:crt0init.obj
 0001:00000394       ___xt_z                    10001394     LIBCMT:crt0init.obj
 0001:000003d8       _metatable_name            100013d8     bit64.obj
 0001:000004d0       ??_C@_04JAOJMBA@bnot?$AA@  100014d0     bit64.obj
 0001:000004d8       ??_C@_04BKGNPECA@band?$AA@ 100014d8     bit64.obj
 0001:000004e0       ??_C@_03BBBGIIAC@bor?$AA@  100014e0     bit64.obj
 0001:000004e4       ??_C@_04CKCGDDNF@bxor?$AA@ 100014e4     bit64.obj
 0001:000004ec       ??_C@_06ELFGPGBK@lshift?$AA@ 100014ec     bit64.obj
 0001:000004f4       ??_C@_06HMLHBBIJ@rshift?$AA@ 100014f4     bit64.obj
 0001:000004fc       ??_C@_07JILILBLL@arshift?$AA@ 100014fc     bit64.obj
 0001:00000504       ??_C@_03CLCAEGCJ@new?$AA@  10001504     bit64.obj
 0001:00000508       ??_C@_03BDGOHNNK@add?$AA@  10001508     bit64.obj
 0001:0000050c       ??_C@_03KCMAIMAP@sub?$AA@  1000150c     bit64.obj
 0001:00000510       ??_C@_03IMIFIBCN@mul?$AA@  10001510     bit64.obj
 0001:00000514       ??_C@_03FEJMGOGI@div?$AA@  10001514     bit64.obj
 0001:00000518       ??_C@_03FFONCNID@mod?$AA@  10001518     bit64.obj
 0001:0000051c       ??_C@_02HIIGGHJB@eq?$AA@   1000151c     bit64.obj
 0001:00000520       ??_C@_02KCAKIFL@lt?$AA@    10001520     bit64.obj
 0001:00000524       ??_C@_02FJPJILEL@le?$AA@   10001524     bit64.obj
 0001:00000528       ??_C@_04GPMDFGEJ@type?$AA@ 10001528     bit64.obj
 0001:00000530       ??_C@_05MEHDOBFN@__add?$AA@ 10001530     bit64.obj
 0001:00000538       ??_C@_05HFNNBAII@__sub?$AA@ 10001538     bit64.obj
 0001:00000540       ??_C@_05FLJIBNKK@__mul?$AA@ 10001540     bit64.obj
 0001:00000548       ??_C@_05IDIBPCOP@__div?$AA@ 10001548     bit64.obj
 0001:00000550       ??_C@_05ICPALBAE@__mod?$AA@ 10001550     bit64.obj
 0001:00000558       ??_C@_05MHFNBPAK@__unm?$AA@ 10001558     bit64.obj
 0001:00000560       ??_C@_04GIMIAOHA@__eq?$AA@ 10001560     bit64.obj
 0001:00000568       ??_C@_04BKGOMBLK@__lt?$AA@ 10001568     bit64.obj
 0001:00000570       ??_C@_04EJLHOCKK@__le?$AA@ 10001570     bit64.obj
 0001:00000578       ??_C@_0L@HDFPAPPH@__tostring?$AA@ 10001578     bit64.obj
 0001:00000584       ??_C@_09GPALILFO@bad?5int64?$AA@ 10001584     bit64.obj
 0001:00000590       ??_C@_05LLAMLEHD@?$CFI64d?$AA@ 10001590     bit64.obj
 0001:00000598       ??_C@_05OALCLICP@bit64?$AA@ 10001598     bit64.obj
 0001:000005a0       __real@433fffffffffffff    100015a0     bit64.obj
 0001:000005b0       __xmm@80000000000000008000000000000000 100015b0     bit64.obj
 0001:00000ad0       _COLLECTOR_FD              10001ad0     exported.obj
 0001:00000ae4       _COLLECTOR_OPI             10001ae4     exported.obj
 0001:00000afc       _COLLECTOR_PI              10001afc     exported.obj
 0001:00000b14       _KEY_OBJECT                10001b14     exported.obj
 0001:00000dd8       ??_C@_05GFCDIDHO@debug?$AA@ 10001dd8     exported.obj
 0001:00000de0       ??_C@_09GPFEECNC@traceback?$AA@ 10001de0     exported.obj
 0001:00000dec       ??_C@_06NKNNMLDJ@export?$AA@ 10001dec     exported.obj
 0001:00000df4       ??_C@_07PCNKBAGB@OnError?$AA@ 10001df4     exported.obj
 0001:00000dfc       ??_C@_0N@NJMIGDDL@CreationTime?$AA@ 10001dfc     exported.obj
 0001:00000e0c       ??_C@_0P@MFHPCDDH@LastAccessTime?$AA@ 10001e0c     exported.obj
 0001:00000e1c       ??_C@_0O@FCFNCAHK@LastWriteTime?$AA@ 10001e1c     exported.obj
 0001:00000e2c       ??_C@_0L@FCILKIIG@ChangeTime?$AA@ 10001e2c     exported.obj
 0001:00000e38       ??_C@_08BHIEONMC@FileSize?$AA@ 10001e38     exported.obj
 0001:00000e44       ??_C@_0P@JBACEJLL@AllocationSize?$AA@ 10001e44     exported.obj
 0001:00000e54       ??_C@_05BOOEKJH@Flags?$AA@ 10001e54     exported.obj
 0001:00000e5c       ??_C@_0O@DLGJHFNH@NumberOfLinks?$AA@ 10001e5c     exported.obj
 0001:00000e6c       ??_C@_05MHNOECFO@CRC32?$AA@ 10001e6c     exported.obj
 0001:00000e74       ??_C@_08FDCJCDOL@FileName?$AA@ 10001e74     exported.obj
 0001:00000e80       ??_C@_0BC@COCBGKAE@AlternateFileName?$AA@ 10001e80     exported.obj
 0001:00000e94       ??_C@_0M@OHKMKKDH@Description?$AA@ 10001e94     exported.obj
 0001:00000ea0       ??_C@_05HDCNEILF@Owner?$AA@ 10001ea0     exported.obj
 0001:00000ea8       ??_C@_11LOCGONAA@?$AA?$AA@ 10001ea8     exported.obj
 0001:00000eac       ??_C@_08JNHPECBG@UserData?$AA@ 10001eac     exported.obj
 0001:00000eb8       ??_C@_0M@DFMHDHBL@GetFindData?$AA@ 10001eb8     exported.obj
 0001:00000ec4       ??_C@_08CJLOJPNI@selected?$AA@ 10001ec4     exported.obj
 0001:00000ed0       ??_C@_08FFPEEIHA@GetFiles?$AA@ 10001ed0     exported.obj
 0001:00000edc       ??_C@_0BC@IECOKJFL@GetFiles?4DestPath?$AA@ 10001edc     exported.obj
 0001:00000ef0       ??_C@_03JEOKDCFP@far?$AA@  10001ef0     exported.obj
 0001:00000ef4       ??_C@_0BE@HCPAIELH@ReloadDefaultScript?$AA@ 10001ef4     exported.obj
 0001:00000f08       ??_C@_0L@OCPPMCCK@StructSize?$AA@ 10001f08     exported.obj
 0001:00000f14       ??_C@_06LBMCOACO@Buffer?$AA@ 10001f14     exported.obj
 0001:00000f1c       ??_C@_06EPIAKPGD@OpMode?$AA@ 10001f1c     exported.obj
 0001:00000f24       ??_C@_07GDADDFBD@Analyse?$AA@ 10001f24     exported.obj
 0001:00000f2c       ??_C@_0BB@CKIGBGLB@GetOpenPanelInfo?$AA@ 10001f2c     exported.obj
 0001:00000f40       ??_C@_05ELNJBDOO@reuse?$AA@ 10001f40     exported.obj
 0001:00000f48       ??_C@_1EO@OOOCECGK@?$AAG?$AAe?$AAt?$AAO?$AAp?$AAe?$AAn?$AAP?$AAa?$AAn?$AAe?$AAl?$AAI?$AAn?$AAf?$AAo?$AA?5?$AAs?$AAh?$AAo?$AAu?$AAl?$AAd?$AA?5?$AAr?$AAe?$AAt?$AAu?$AAr?$AAn?$AA?5?$AAa@ 10001f48     exported.obj
 0001:00000f98       ??_C@_08KDMNIFGM@FreeSize?$AA@ 10001f98     exported.obj
 0001:00000fa4       ??_C@_08PAJOMFPO@HostFile?$AA@ 10001fa4     exported.obj
 0001:00000fb0       ??_C@_06IBPEEEAJ@CurDir?$AA@ 10001fb0     exported.obj
 0001:00000fb8       ??_C@_06PEPCFMNJ@Format?$AA@ 10001fb8     exported.obj
 0001:00000fc0       ??_C@_0L@CMHIOLLB@PanelTitle?$AA@ 10001fc0     exported.obj
 0001:00000fcc       ??_C@_09PMEOAIAA@InfoLines?$AA@ 10001fcc     exported.obj
 0001:00000fd8       ??_C@_0BA@BLCGOCOG@InfoLinesNumber?$AA@ 10001fd8     exported.obj
 0001:00000fe8       ??_C@_04OJAHODMC@Text?$AA@ 10001fe8     exported.obj
 0001:00000ff0       ??_C@_04DICKPMGH@Data?$AA@ 10001ff0     exported.obj
 0001:00000ff8       ??_C@_0L@FPEHOFAI@DescrFiles?$AA@ 10001ff8     exported.obj
 0001:00001004       ??_C@_0BA@BBOGKOKF@PanelModesArray?$AA@ 10002004     exported.obj
 0001:00001014       ??_C@_0BB@LFNABPEF@PanelModesNumber?$AA@ 10002014     exported.obj
 0001:00001028       ??_C@_0M@KDJPJFOF@ColumnTypes?$AA@ 10002028     exported.obj
 0001:00001034       ??_C@_0N@ILFJPGHI@ColumnWidths?$AA@ 10002034     exported.obj
 0001:00001044       ??_C@_0BC@KELOOKNK@StatusColumnTypes?$AA@ 10002044     exported.obj
 0001:00001058       ??_C@_0BD@DNDIPKDK@StatusColumnWidths?$AA@ 10002058     exported.obj
 0001:0000106c       ??_C@_0N@EHCEJHEE@ColumnTitles?$AA@ 1000206c     exported.obj
 0001:0000107c       ??_C@_0P@BEEDPJDK@StartPanelMode?$AA@ 1000207c     exported.obj
 0001:0000108c       ??_C@_0O@NIFKFGBJ@StartSortMode?$AA@ 1000208c     exported.obj
 0001:0000109c       ??_C@_0P@KMACBLNK@StartSortOrder?$AA@ 1000209c     exported.obj
 0001:000010ac       ??_C@_06ONGFDHIA@KeyBar?$AA@ 100020ac     exported.obj
 0001:000010b4       ??_C@_0P@PKDBPEJI@VirtualKeyCode?$AA@ 100020b4     exported.obj
 0001:000010c4       ??_C@_0BA@MFFHAKP@ControlKeyState?$AA@ 100020c4     exported.obj
 0001:000010d4       ??_C@_08DGDJEKCP@LongText?$AA@ 100020d4     exported.obj
 0001:000010e0       ??_C@_0N@IHDKLODA@ShortcutData?$AA@ 100020e0     exported.obj
 0001:000010f0       ??_C@_05HIFJDKLD@array?$AA@ 100020f0     exported.obj
 0001:000010f8       ??_C@_01EFFIKLCJ@n?$AA@    100020f8     exported.obj
 0001:000010fa       ??_C@_00CNPNBAHC@?$AA@     100020fa     exported.obj
 0001:000010fc       ??_C@_04DNCDCIAE@Open?$AA@ 100020fc     exported.obj
 0001:00001104       ??_C@_04OPJIDECA@hDlg?$AA@ 10002104     exported.obj
 0001:0000110c       ??_C@_06BNNOMDLO@Handle?$AA@ 1000210c     exported.obj
 0001:00001114       ??_C@_0L@JMPDJFBN@ClosePanel?$AA@ 10002114     exported.obj
 0001:00001120       ??_C@_07MBOMJGGF@Compare?$AA@ 10002120     exported.obj
 0001:00001128       ??_C@_09NANCCILE@Configure?$AA@ 10002128     exported.obj
 0001:00001134       ??_C@_0M@MMKKMEFA@DeleteFiles?$AA@ 10002134     exported.obj
 0001:00001140       ??_C@_0O@GLLEDHJA@MakeDirectory?$AA@ 10002140     exported.obj
 0001:00001150       ??_C@_0BD@PJNONGDB@MakeDirectory?4Name?$AA@ 10002150     exported.obj
 0001:00001164       ??_C@_0BC@COPMJGBI@ProcessPanelEvent?$AA@ 10002164     exported.obj
 0001:00001178       ??_C@_0BA@DPJAKFGC@ProcessHostFile?$AA@ 10002178     exported.obj
 0001:00001188       ??_C@_0BC@HOBKGBBM@ProcessPanelInput?$AA@ 10002188     exported.obj
 0001:0000119c       ??_C@_08OBOOFGOD@PutFiles?$AA@ 1000219c     exported.obj
 0001:000011a8       ??_C@_0N@KCFEBPAO@SetDirectory?$AA@ 100021a8     exported.obj
 0001:000011b8       ??_C@_0M@PNOHHCCH@SetFindList?$AA@ 100021b8     exported.obj
 0001:000011c4       ??_C@_07EACELFAO@ExitFAR?$AA@ 100021c4     exported.obj
 0001:000011cc       ??_C@_0O@OBCKADMD@GetPluginInfo?$AA@ 100021cc     exported.obj
 0001:000011dc       ??_C@_0O@GDMHGAFH@CommandPrefix?$AA@ 100021dc     exported.obj
 0001:000011ec       ??_C@_0O@PHBKMNMJ@DiskMenuGuids?$AA@ 100021ec     exported.obj
 0001:000011fc       ??_C@_0BA@NLBDFPEO@DiskMenuStrings?$AA@ 100021fc     exported.obj
 0001:0000120c       ??_C@_0BA@FOMPNLJF@PluginMenuGuids?$AA@ 1000220c     exported.obj
 0001:0000121c       ??_C@_0BC@DJMJFBJC@PluginMenuStrings?$AA@ 1000221c     exported.obj
 0001:00001230       ??_C@_0BC@ILBHAHCH@PluginConfigGuids?$AA@ 10002230     exported.obj
 0001:00001244       ??_C@_0BE@GAFPNGIP@PluginConfigStrings?$AA@ 10002244     exported.obj
 0001:00001258       ??_C@_0BD@DECJPBBK@ProcessEditorInput?$AA@ 10002258     exported.obj
 0001:0000126c       ??_C@_0BD@GEMPAGBO@ProcessEditorEvent?$AA@ 1000226c     exported.obj
 0001:00001280       ??_C@_04KOACHJEN@Type?$AA@ 10002280     exported.obj
 0001:00001288       ??_C@_0N@EKPHGDMI@StringNumber?$AA@ 10002288     exported.obj
 0001:00001298       ??_C@_07MOCFLHCN@FileEOL?$AA@ 10002298     exported.obj
 0001:000012a0       ??_C@_08DOHJINHB@CodePage?$AA@ 100022a0     exported.obj
 0001:000012ac       ??_C@_0BD@GGKMLEJG@ProcessViewerEvent?$AA@ 100022ac     exported.obj
 0001:000012c0       ??_C@_0BD@FNHBEIC@ProcessDialogEvent?$AA@ 100022c0     exported.obj
 0001:000012d4       ??_C@_06CPBJDKAC@Param2?$AA@ 100022d4     exported.obj
 0001:000012dc       ??_C@_06EDEGJMB@Param1?$AA@ 100022dc     exported.obj
 0001:000012e4       ??_C@_03MLMOILGK@Msg?$AA@  100022e4     exported.obj
 0001:000012e8       ??_C@_0BE@LHJGGGHN@ProcessSynchroEvent?$AA@ 100022e8     exported.obj
 0001:000012fc       ??_C@_0O@EIDNINIK@GetCustomData?$AA@ 100022fc     exported.obj
 0001:0000130c       ??_C@_0N@DDJEHLKE@?$DM_globalinfo?$AA@ 1000230c     exported.obj
 0001:0000131c       ??_C@_07KNEGBPNO@package?$AA@ 1000231c     exported.obj
 0001:00001324       ??_C@_07GCEAJMEA@preload?$AA@ 10002324     exported.obj
 0001:0000132c       ??_C@_1CA@IBKDMBNJ@?$AA_?$AAg?$AAl?$AAo?$AAb?$AAa?$AAl?$AAi?$AAn?$AAf?$AAo?$AA?4?$AAl?$AAu?$AAa?$AA?$AA@ 1000232c     exported.obj
 0001:0000134c       ??_C@_0O@GJMOPLGM@GetGlobalInfo?$AA@ 1000234c     exported.obj
 0001:0000135c       ??_C@_0O@CALOEOI@MinFarVersion?$AA@ 1000235c     exported.obj
 0001:0000136c       ??_C@_07NGFJPNPN@Version?$AA@ 1000236c     exported.obj
 0001:00001374       ??_C@_04MJHIICBJ@Guid?$AA@ 10002374     exported.obj
 0001:0000137c       ??_C@_05PABKJLOM@Title?$AA@ 1000237c     exported.obj
 0001:00001384       ??_C@_06HHECMMLE@Author?$AA@ 10002384     exported.obj
 0001:0000138c       ??_C@_0BE@DONMOPMJ@ProcessConsoleInput?$AA@ 1000238c     exported.obj
 0001:000013a0       __real@43e0000000000000    100023a0     exported.obj
 0001:000013a8       __real@bff0000000000000    100023a8     exported.obj
 0001:00001820       _Vals                      10002820     flags.obj
 0001:00003078       ??_C@_0BI@IDKIJMME@FARMANAGERVERSION_MAJOR?$AA@ 10004078     flags.obj
 0001:00003090       ??_C@_0BI@DMLKEAFC@FARMANAGERVERSION_MINOR?$AA@ 10004090     flags.obj
 0001:000030a8       ??_C@_0BL@NMALNAFP@FARMANAGERVERSION_REVISION?$AA@ 100040a8     flags.obj
 0001:000030c4       ??_C@_0BI@OLPFLLDD@FARMANAGERVERSION_BUILD?$AA@ 100040c4     flags.obj
 0001:000030dc       ??_C@_0BI@MOOFLFPC@FARMANAGERVERSION_STAGE?$AA@ 100040dc     flags.obj
 0001:000030f4       ??_C@_0BD@BKCIMEKM@FARMACRO_KEY_EVENT?$AA@ 100040f4     flags.obj
 0001:00003108       ??_C@_0L@MIDBGFJO@CP_UNICODE?$AA@ 10004108     flags.obj
 0001:00003114       ??_C@_0O@MNMCMEJH@CP_REVERSEBOM?$AA@ 10004114     flags.obj
 0001:00003124       ??_C@_0L@JDNPCEDH@CP_DEFAULT?$AA@ 10004124     flags.obj
 0001:00003130       ??_C@_0M@OMCMFJHA@CP_REDETECT?$AA@ 10004130     flags.obj
 0001:0000313c       ??_C@_09MNAPNKKC@INDEXMASK?$AA@ 1000413c     flags.obj
 0001:00003148       ??_C@_09BLFIDJLF@COLORMASK?$AA@ 10004148     flags.obj
 0001:00003154       ??_C@_09ENNBLPJC@ALPHAMASK?$AA@ 10004154     flags.obj
 0001:00003160       ??_C@_0L@EHFOPLFD@PANEL_NONE?$AA@ 10004160     flags.obj
 0001:0000316c       ??_C@_0N@LPMKALBG@PANEL_ACTIVE?$AA@ 1000416c     flags.obj
 0001:0000317c       ??_C@_0O@HPKEABPN@PANEL_PASSIVE?$AA@ 1000417c     flags.obj
 0001:0000318c       ??_C@_0L@GOEBPENN@PANEL_STOP?$AA@ 1000418c     flags.obj
 0001:00003198       ??_C@_0N@HLIFAAPJ@EEREDRAW_ALL?$AA@ 10004198     flags.obj
 0001:000031a8       ??_C@_0P@NHNDIKJ@CURRENT_EDITOR?$AA@ 100041a8     flags.obj
 0001:000031b8       ??_C@_0BN@PPNDCHHA@EDITOR_COLOR_NORMAL_PRIORITY?$AA@ 100041b8     flags.obj
 0001:000031d8       ??_C@_07MGGAEAFF@DI_TEXT?$AA@ 100041d8     flags.obj
 0001:000031e0       ??_C@_08HODBDEHE@DI_VTEXT?$AA@ 100041e0     flags.obj
 0001:000031ec       ??_C@_0N@IGKKGFMF@DI_SINGLEBOX?$AA@ 100041ec     flags.obj
 0001:000031fc       ??_C@_0N@EDCLIEAE@DI_DOUBLEBOX?$AA@ 100041fc     flags.obj
 0001:0000320c       ??_C@_07DOLIFAEF@DI_EDIT?$AA@ 1000420c     flags.obj
 0001:00003214       ??_C@_0L@EOMEIIFM@DI_PSWEDIT?$AA@ 10004214     flags.obj
 0001:00003220       ??_C@_0L@MGOIMBKF@DI_FIXEDIT?$AA@ 10004220     flags.obj
 0001:0000322c       ??_C@_09GGAEMAPJ@DI_BUTTON?$AA@ 1000422c     flags.obj
 0001:00003238       ??_C@_0M@MHFHGPHJ@DI_CHECKBOX?$AA@ 10004238     flags.obj
 0001:00003244       ??_C@_0P@GIPCGMBE@DI_RADIOBUTTON?$AA@ 10004244     flags.obj
 0001:00003254       ??_C@_0M@MAKBFNGC@DI_COMBOBOX?$AA@ 10004254     flags.obj
 0001:00003260       ??_C@_0L@ONDMPPPO@DI_LISTBOX?$AA@ 10004260     flags.obj
 0001:0000326c       ??_C@_0P@GDJDPEIK@DI_USERCONTROL?$AA@ 1000426c     flags.obj
 0001:0000327c       ??_C@_08KAEGOLOB@DM_FIRST?$AA@ 1000427c     flags.obj
 0001:00003288       ??_C@_08MJMBFJHA@DM_CLOSE?$AA@ 10004288     flags.obj
 0001:00003294       ??_C@_09KLJOCKAA@DM_ENABLE?$AA@ 10004294     flags.obj
 0001:000032a0       ??_C@_0BA@KAMJGFDG@DM_ENABLEREDRAW?$AA@ 100042a0     flags.obj
 0001:000032b0       ??_C@_0O@FKGMMKLP@DM_GETDLGDATA?$AA@ 100042b0     flags.obj
 0001:000032c0       ??_C@_0O@HEGKCPOI@DM_GETDLGITEM?$AA@ 100042c0     flags.obj
 0001:000032d0       ??_C@_0O@BEHCGMCL@DM_GETDLGRECT?$AA@ 100042d0     flags.obj
 0001:000032e0       ??_C@_0L@ELBDNLFO@DM_GETTEXT?$AA@ 100042e0     flags.obj
 0001:000032ec       ??_C@_06IKGPEGEJ@DM_KEY?$AA@ 100042ec     flags.obj
 0001:000032f4       ??_C@_0O@DIPLLJEH@DM_MOVEDIALOG?$AA@ 100042f4     flags.obj
 0001:00003304       ??_C@_0O@EEEDHNPG@DM_SETDLGDATA?$AA@ 10004304     flags.obj
 0001:00003314       ??_C@_0O@GKEFJIKB@DM_SETDLGITEM?$AA@ 10004314     flags.obj
 0001:00003324       ??_C@_0M@GOFGHDFK@DM_SETFOCUS?$AA@ 10004324     flags.obj
 0001:00003330       ??_C@_09ILPFEDOM@DM_REDRAW?$AA@ 10004330     flags.obj
 0001:0000333c       ??_C@_0L@LDOCOEIP@DM_SETTEXT?$AA@ 1000433c     flags.obj
 0001:00003348       ??_C@_0BE@LABEAIPD@DM_SETMAXTEXTLENGTH?$AA@ 10004348     flags.obj
 0001:0000335c       ??_C@_0O@BIFKIPIP@DM_SHOWDIALOG?$AA@ 1000435c     flags.obj
 0001:0000336c       ??_C@_0M@JPHKGACH@DM_GETFOCUS?$AA@ 1000436c     flags.obj
 0001:00003378       ??_C@_0BA@NLMONBKJ@DM_GETCURSORPOS?$AA@ 10004378     flags.obj
 0001:00003388       ??_C@_0BA@KPHABNOF@DM_SETCURSORPOS?$AA@ 10004388     flags.obj
 0001:00003398       ??_C@_0O@LGEKFPKK@DM_SETTEXTPTR?$AA@ 10004398     flags.obj
 0001:000033a8       ??_C@_0M@NCOJHJKI@DM_SHOWITEM?$AA@ 100043a8     flags.obj
 0001:000033b4       ??_C@_0O@GKKCFHIM@DM_ADDHISTORY?$AA@ 100043b4     flags.obj
 0001:000033c4       ??_C@_0M@MCEMDFMD@DM_GETCHECK?$AA@ 100043c4     flags.obj
 0001:000033d0       ??_C@_0M@DDGACGLO@DM_SETCHECK?$AA@ 100043d0     flags.obj
 0001:000033dc       ??_C@_0N@MEGOPFGK@DM_SET3STATE?$AA@ 100043dc     flags.obj
 0001:000033ec       ??_C@_0M@GEPBDDNC@DM_LISTSORT?$AA@ 100043ec     flags.obj
 0001:000033f8       ??_C@_0P@NFJNHAKH@DM_LISTGETITEM?$AA@ 100043f8     flags.obj
 0001:00003408       ??_C@_0BB@EEIMACNO@DM_LISTGETCURPOS?$AA@ 10004408     flags.obj
 0001:0000341c       ??_C@_0BB@GKMJCDEM@DM_LISTSETCURPOS?$AA@ 1000441c     flags.obj
 0001:00003430       ??_C@_0O@NOPCAHGJ@DM_LISTDELETE?$AA@ 10004430     flags.obj
 0001:00003440       ??_C@_0L@BMEAECNG@DM_LISTADD?$AA@ 10004440     flags.obj
 0001:0000344c       ??_C@_0O@HBHDMHP@DM_LISTADDSTR?$AA@ 1000444c     flags.obj
 0001:0000345c       ??_C@_0O@PDFCNPKN@DM_LISTUPDATE?$AA@ 1000445c     flags.obj
 0001:0000346c       ??_C@_0O@GAAGMJJL@DM_LISTINSERT?$AA@ 1000446c     flags.obj
 0001:0000347c       ??_C@_0BC@MIFCLOBD@DM_LISTFINDSTRING?$AA@ 1000447c     flags.obj
 0001:00003490       ??_C@_0M@EEAEBLKC@DM_LISTINFO?$AA@ 10004490     flags.obj
 0001:0000349c       ??_C@_0P@PLJLJFPA@DM_LISTGETDATA?$AA@ 1000449c     flags.obj
 0001:000034ac       ??_C@_0P@DGKKKCB@DM_LISTSETDATA?$AA@ 100044ac     flags.obj
 0001:000034bc       ??_C@_0BB@CELMNLLN@DM_LISTSETTITLES?$AA@ 100044bc     flags.obj
 0001:000034d0       ??_C@_0BB@KPJPKCP@DM_LISTGETTITLES?$AA@ 100044d0     flags.obj
 0001:000034e4       ??_C@_0BA@ICDJCFLE@DM_RESIZEDIALOG?$AA@ 100044e4     flags.obj
 0001:000034f4       ??_C@_0BD@CNGGHGJF@DM_SETITEMPOSITION?$AA@ 100044f4     flags.obj
 0001:00003508       ??_C@_0BF@JMINBGBA@DM_GETDROPDOWNOPENED?$AA@ 10004508     flags.obj
 0001:00003520       ??_C@_0BF@LJIGJNAO@DM_SETDROPDOWNOPENED?$AA@ 10004520     flags.obj
 0001:00003538       ??_C@_0O@NPDKADMJ@DM_SETHISTORY?$AA@ 10004538     flags.obj
 0001:00003548       ??_C@_0BD@BPHAAEIM@DM_GETITEMPOSITION?$AA@ 10004548     flags.obj
 0001:0000355c       ??_C@_0BH@CFMLLNNM@DM_SETMOUSEEVENTNOTIFY?$AA@ 1000455c     flags.obj
 0001:00003574       ??_C@_0BF@IAGIACOD@DM_EDITUNCHANGEDFLAG?$AA@ 10004574     flags.obj
 0001:0000358c       ??_C@_0P@OJKNHIPN@DM_GETITEMDATA?$AA@ 1000458c     flags.obj
 0001:0000359c       ??_C@_0P@OGLDKOHO@DM_SETITEMDATA?$AA@ 1000459c     flags.obj
 0001:000035ac       ??_C@_0L@KNFAKFKE@DM_LISTSET?$AA@ 100045ac     flags.obj
 0001:000035b8       ??_C@_0BB@EPMFHAFO@DM_GETCURSORSIZE?$AA@ 100045b8     flags.obj
 0001:000035cc       ??_C@_0BB@DANLMDCJ@DM_SETCURSORSIZE?$AA@ 100045cc     flags.obj
 0001:000035e0       ??_C@_0BD@LAOOKGHD@DM_LISTGETDATASIZE?$AA@ 100045e0     flags.obj
 0001:000035f4       ??_C@_0BA@BHGANJAP@DM_GETSELECTION?$AA@ 100045f4     flags.obj
 0001:00003604       ??_C@_0BA@GDNOBFED@DM_SETSELECTION?$AA@ 10004604     flags.obj
 0001:00003614       ??_C@_0BD@FIHDGIGO@DM_GETEDITPOSITION?$AA@ 10004614     flags.obj
 0001:00003628       ??_C@_0BD@GKGFBKHH@DM_SETEDITPOSITION?$AA@ 10004628     flags.obj
 0001:0000363c       ??_C@_0BE@MCECGHBC@DM_SETCOMBOBOXEVENT?$AA@ 1000463c     flags.obj
 0001:00003650       ??_C@_0BE@KGBLNJKA@DM_GETCOMBOBOXEVENT?$AA@ 10004650     flags.obj
 0001:00003664       ??_C@_0BD@CJEPBACF@DM_GETCONSTTEXTPTR?$AA@ 10004664     flags.obj
 0001:00003678       ??_C@_0BD@HOOHICEG@DM_GETDLGITEMSHORT?$AA@ 10004678     flags.obj
 0001:0000368c       ??_C@_0BD@EMPBPAFP@DM_SETDLGITEMSHORT?$AA@ 1000468c     flags.obj
 0001:000036a0       ??_C@_0BB@GAPFMPKE@DM_GETDIALOGINFO?$AA@ 100046a0     flags.obj
 0001:000036b4       ??_C@_08COMJOMAC@DN_FIRST?$AA@ 100046b4     flags.obj
 0001:000036c0       ??_C@_0M@NNNAPNMA@DN_BTNCLICK?$AA@ 100046c0     flags.obj
 0001:000036cc       ??_C@_0BC@MJFJAANN@DN_CTLCOLORDIALOG?$AA@ 100046cc     flags.obj
 0001:000036e0       ??_C@_0BD@HFGBIBBL@DN_CTLCOLORDLGITEM?$AA@ 100046e0     flags.obj
 0001:000036f4       ??_C@_0BD@JMFJPHPD@DN_CTLCOLORDLGLIST?$AA@ 100046f4     flags.obj
 0001:00003708       ??_C@_0O@NKBDPILK@DN_DRAWDIALOG?$AA@ 10004708     flags.obj
 0001:00003718       ??_C@_0P@KGKEDPBI@DN_DRAWDLGITEM?$AA@ 10004718     flags.obj
 0001:00003728       ??_C@_0O@JMKNGFLE@DN_EDITCHANGE?$AA@ 10004728     flags.obj
 0001:00003738       ??_C@_0N@OCGKCPJF@DN_ENTERIDLE?$AA@ 10004738     flags.obj
 0001:00003748       ??_C@_0M@JHFIBKOO@DN_GOTFOCUS?$AA@ 10004748     flags.obj
 0001:00003754       ??_C@_07NJJEMKPA@DN_HELP?$AA@ 10004754     flags.obj
 0001:0000375c       ??_C@_09EDGJFAK@DN_HOTKEY?$AA@ 1000475c     flags.obj
 0001:00003768       ??_C@_0O@BJECHBCA@DN_INITDIALOG?$AA@ 10004768     flags.obj
 0001:00003778       ??_C@_0N@CHLLLNBO@DN_KILLFOCUS?$AA@ 10004778     flags.obj
 0001:00003788       ??_C@_0O@CLPABIGO@DN_LISTCHANGE?$AA@ 10004788     flags.obj
 0001:00003798       ??_C@_0L@MLMFBHN@DN_DRAGGED?$AA@ 10004798     flags.obj
 0001:000037a4       ??_C@_0BB@BOOOCAEG@DN_RESIZECONSOLE?$AA@ 100047a4     flags.obj
 0001:000037b8       ??_C@_0BC@FHPPFLKG@DN_DRAWDIALOGDONE?$AA@ 100047b8     flags.obj
 0001:000037cc       ??_C@_0O@EONPBNNP@DN_LISTHOTKEY?$AA@ 100047cc     flags.obj
 0001:000037dc       ??_C@_08MDDLDGPO@DN_INPUT?$AA@ 100047dc     flags.obj
 0001:000037e8       ??_C@_0BA@FGOGLDBC@DN_CONTROLINPUT?$AA@ 100047e8     flags.obj
 0001:000037f8       ??_C@_08EHEOFOJD@DN_CLOSE?$AA@ 100047f8     flags.obj
 0001:00003804       ??_C@_0M@POIFBPFN@DN_GETVALUE?$AA@ 10004804     flags.obj
 0001:00003810       ??_C@_07DIJJNCBA@DM_USER?$AA@ 10004810     flags.obj
 0001:00003818       ??_C@_0BB@HLBBGMAN@BSTATE_UNCHECKED?$AA@ 10004818     flags.obj
 0001:0000382c       ??_C@_0P@FALAMPGP@BSTATE_CHECKED?$AA@ 1000482c     flags.obj
 0001:0000383c       ??_C@_0O@KBIFGGHO@BSTATE_3STATE?$AA@ 1000483c     flags.obj
 0001:0000384c       ??_C@_0O@ILJOJGLD@BSTATE_TOGGLE?$AA@ 1000484c     flags.obj
 0001:0000385c       ??_C@_08PPADCPCM@CBET_KEY?$AA@ 1000485c     flags.obj
 0001:00003868       ??_C@_0L@KHCLMGFJ@CBET_MOUSE?$AA@ 10004868     flags.obj
 0001:00003874       ??_C@_0BA@KNHGEBNE@PTYPE_FILEPANEL?$AA@ 10004874     flags.obj
 0001:00003884       ??_C@_0BA@LPPHNHIG@PTYPE_TREEPANEL?$AA@ 10004884     flags.obj
 0001:00003894       ??_C@_0BB@JBINOKAI@PTYPE_QVIEWPANEL?$AA@ 10004894     flags.obj
 0001:000038a8       ??_C@_0BA@NKMDEBG@PTYPE_INFOPANEL?$AA@ 100048a8     flags.obj
 0001:000038b8       ??_C@_0L@OPHJOKKE@SM_DEFAULT?$AA@ 100048b8     flags.obj
 0001:000038c4       ??_C@_0M@JGBFGGEA@SM_UNSORTED?$AA@ 100048c4     flags.obj
 0001:000038d0       ??_C@_07KIFHAGIL@SM_NAME?$AA@ 100048d0     flags.obj
 0001:000038d8       ??_C@_06GJJJNNFE@SM_EXT?$AA@ 100048d8     flags.obj
 0001:000038e0       ??_C@_08FICJBKFN@SM_MTIME?$AA@ 100048e0     flags.obj
 0001:000038ec       ??_C@_08GCCDHLCN@SM_CTIME?$AA@ 100048ec     flags.obj
 0001:000038f8       ??_C@_08CPOLNKCG@SM_ATIME?$AA@ 100048f8     flags.obj
 0001:00003904       ??_C@_07OMPKMIKC@SM_SIZE?$AA@ 10004904     flags.obj
 0001:0000390c       ??_C@_08BCBPOLMA@SM_DESCR?$AA@ 1000490c     flags.obj
 0001:00003918       ??_C@_08MEAGCMBB@SM_OWNER?$AA@ 10004918     flags.obj
 0001:00003924       ??_C@_0BC@NKDBNAHD@SM_COMPRESSEDSIZE?$AA@ 10004924     flags.obj
 0001:00003938       ??_C@_0M@PKNLKFI@SM_NUMLINKS?$AA@ 10004938     flags.obj
 0001:00003944       ??_C@_0O@CCKEKPHL@SM_NUMSTREAMS?$AA@ 10004944     flags.obj
 0001:00003954       ??_C@_0P@PKGMDPMD@SM_STREAMSSIZE?$AA@ 10004954     flags.obj
 0001:00003964       ??_C@_0M@OAFEBGNH@SM_FULLNAME?$AA@ 10004964     flags.obj
 0001:00003970       ??_C@_09KFKGJDHC@SM_CHTIME?$AA@ 10004970     flags.obj
 0001:0000397c       ??_C@_0P@FEMAMJLE@EEC_OPEN_ERROR?$AA@ 1000497c     flags.obj
 0001:0000398c       ??_C@_0N@GLMELIKF@EEC_MODIFIED?$AA@ 1000498c     flags.obj
 0001:0000399c       ??_C@_0BB@HALKEFOL@EEC_NOT_MODIFIED?$AA@ 1000499c     flags.obj
 0001:000039b0       ??_C@_0BI@CNPFKHKO@EEC_LOADING_INTERRUPTED?$AA@ 100049b0     flags.obj
 0001:000039c8       ??_C@_0BK@PHBCABMB@ACTL_GETFARMANAGERVERSION?$AA@ 100049c8     flags.obj
 0001:000039e4       ??_C@_0N@DPABJDML@ACTL_WAITKEY?$AA@ 100049e4     flags.obj
 0001:000039f4       ??_C@_0O@CEHHJAFD@ACTL_GETCOLOR?$AA@ 100049f4     flags.obj
 0001:00003a04       ??_C@_0BD@OKPAACIK@ACTL_GETARRAYCOLOR?$AA@ 10004a04     flags.obj
 0001:00003a18       ??_C@_0BD@DIFEEKNN@ACTL_GETWINDOWINFO?$AA@ 10004a18     flags.obj
 0001:00003a2c       ??_C@_0BE@PJBIPKOD@ACTL_GETWINDOWCOUNT?$AA@ 10004a2c     flags.obj
 0001:00003a40       ??_C@_0BG@MNKPOEEN@ACTL_SETCURRENTWINDOW?$AA@ 10004a40     flags.obj
 0001:00003a58       ??_C@_0M@IHHFGPPA@ACTL_COMMIT?$AA@ 10004a58     flags.obj
 0001:00003a64       ??_C@_0BA@CLHFKJJP@ACTL_GETFARHWND?$AA@ 10004a64     flags.obj
 0001:00003a74       ??_C@_0BD@JFOOLBPN@ACTL_SETARRAYCOLOR?$AA@ 10004a74     flags.obj
 0001:00003a88       ??_C@_0P@JECKFIA@ACTL_REDRAWALL?$AA@ 10004a88     flags.obj
 0001:00003a98       ??_C@_0N@DHPLJLHO@ACTL_SYNCHRO?$AA@ 10004a98     flags.obj
 0001:00003aa8       ??_C@_0BG@IJPADENB@ACTL_SETPROGRESSSTATE?$AA@ 10004aa8     flags.obj
 0001:00003ac0       ??_C@_0BG@ICJFAPHK@ACTL_SETPROGRESSVALUE?$AA@ 10004ac0     flags.obj
 0001:00003ad8       ??_C@_09HNDBKLDC@ACTL_QUIT?$AA@ 10004ad8     flags.obj
 0001:00003ae4       ??_C@_0BA@LJCPDIKK@ACTL_GETFARRECT?$AA@ 10004ae4     flags.obj
 0001:00003af4       ??_C@_0BC@FELBEIDG@ACTL_GETCURSORPOS?$AA@ 10004af4     flags.obj
 0001:00003b08       ??_C@_0BC@CAAPIEHK@ACTL_SETCURSORPOS?$AA@ 10004b08     flags.obj
 0001:00003b1c       ??_C@_0BE@NPJGMDBM@ACTL_PROGRESSNOTIFY?$AA@ 10004b1c     flags.obj
 0001:00003b30       ??_C@_0BD@IPKOEBIA@ACTL_GETWINDOWTYPE?$AA@ 10004b30     flags.obj
 0001:00003b44       ??_C@_09CEDFMINA@MSSC_POST?$AA@ 10004b44     flags.obj
 0001:00003b50       ??_C@_0L@MOADGAEB@MSSC_CHECK?$AA@ 10004b50     flags.obj
 0001:00003b5c       ??_C@_0BA@MMOAIEKP@MACROAREA_OTHER?$AA@ 10004b5c     flags.obj
 0001:00003b6c       ??_C@_0BA@DEBOOAEB@MACROAREA_SHELL?$AA@ 10004b6c     flags.obj
 0001:00003b7c       ??_C@_0BB@JIMPEHCD@MACROAREA_VIEWER?$AA@ 10004b7c     flags.obj
 0001:00003b90       ??_C@_0BB@KILFBFJH@MACROAREA_EDITOR?$AA@ 10004b90     flags.obj
 0001:00003ba4       ??_C@_0BB@CADENPFI@MACROAREA_DIALOG?$AA@ 10004ba4     flags.obj
 0001:00003bb8       ??_C@_0BB@MLMLHIGE@MACROAREA_SEARCH?$AA@ 10004bb8     flags.obj
 0001:00003bcc       ??_C@_0BA@KKMKOLIK@MACROAREA_DISKS?$AA@ 10004bcc     flags.obj
 0001:00003bdc       ??_C@_0BD@IGOOIJP@MACROAREA_MAINMENU?$AA@ 10004bdc     flags.obj
 0001:00003bf0       ??_C@_0P@LFLMAHBF@MACROAREA_MENU?$AA@ 10004bf0     flags.obj
 0001:00003c00       ??_C@_0P@DKPKIEO@MACROAREA_HELP?$AA@ 10004c00     flags.obj
 0001:00003c10       ??_C@_0BE@MDJPICHC@MACROAREA_INFOPANEL?$AA@ 10004c10     flags.obj
 0001:00003c24       ??_C@_0BF@NLJMHMPP@MACROAREA_QVIEWPANEL?$AA@ 10004c24     flags.obj
 0001:00003c3c       ??_C@_0BE@HBMEGBOC@MACROAREA_TREEPANEL?$AA@ 10004c3c     flags.obj
 0001:00003c50       ??_C@_0BF@FCHKCGLL@MACROAREA_FINDFOLDER?$AA@ 10004c50     flags.obj
 0001:00003c68       ??_C@_0BD@JCFMJGDE@MACROAREA_USERMENU?$AA@ 10004c68     flags.obj
 0001:00003c7c       ??_C@_0BO@OMLEPJPM@MACROAREA_SHELLAUTOCOMPLETION?$AA@ 10004c7c     flags.obj
 0001:00003c9c       ??_C@_0BP@OIHAIGBK@MACROAREA_DIALOGAUTOCOMPLETION?$AA@ 10004c9c     flags.obj
 0001:00003cbc       ??_C@_0BB@JPEEDDOG@MACROAREA_COMMON?$AA@ 10004cbc     flags.obj
 0001:00003cd0       ??_C@_0BD@DIKEKAIJ@MACROSTATE_NOMACRO?$AA@ 10004cd0     flags.obj
 0001:00003ce4       ??_C@_0BF@PCDEFEGP@MACROSTATE_EXECUTING?$AA@ 10004ce4     flags.obj
 0001:00003cfc       ??_C@_0BM@EJOFDENO@MACROSTATE_EXECUTING_COMMON?$AA@ 10004cfc     flags.obj
 0001:00003d18       ??_C@_0BF@BGODKPBB@MACROSTATE_RECORDING?$AA@ 10004d18     flags.obj
 0001:00003d30       ??_C@_0BM@OICPADFE@MACROSTATE_RECORDING_COMMON?$AA@ 10004d30     flags.obj
 0001:00003d4c       ??_C@_0N@CGFFMLBC@MPEC_SUCCESS?$AA@ 10004d4c     flags.obj
 0001:00003d5c       ??_C@_0L@FJDDLDNN@MPEC_ERROR?$AA@ 10004d5c     flags.obj
 0001:00003d68       ??_C@_0N@IBOAADDD@FMVT_UNKNOWN?$AA@ 10004d68     flags.obj
 0001:00003d78       ??_C@_0N@BDMFKEKE@FMVT_INTEGER?$AA@ 10004d78     flags.obj
 0001:00003d88       ??_C@_0M@LFMLDDKI@FMVT_STRING?$AA@ 10004d88     flags.obj
 0001:00003d94       ??_C@_0M@CKDAIOEN@FMVT_DOUBLE?$AA@ 10004d94     flags.obj
 0001:00003da0       ??_C@_0N@MHKOBOGF@FMVT_BOOLEAN?$AA@ 10004da0     flags.obj
 0001:00003db0       ??_C@_0M@GKPDICDA@FMVT_BINARY?$AA@ 10004db0     flags.obj
 0001:00003dbc       ??_C@_0N@FMHCFNDF@FMVT_POINTER?$AA@ 10004dbc     flags.obj
 0001:00003dcc       ??_C@_08DDPDBBNO@FMVT_NIL?$AA@ 10004dcc     flags.obj
 0001:00003dd8       ??_C@_0L@DJIKMOJA@FMVT_ARRAY?$AA@ 10004dd8     flags.obj
 0001:00003de4       ??_C@_0N@FNCFCPIG@WTYPE_PANELS?$AA@ 10004de4     flags.obj
 0001:00003df4       ??_C@_0N@EJKMDMBK@WTYPE_VIEWER?$AA@ 10004df4     flags.obj
 0001:00003e04       ??_C@_0N@HJNGGOKO@WTYPE_EDITOR?$AA@ 10004e04     flags.obj
 0001:00003e14       ??_C@_0N@PBFHKEGB@WTYPE_DIALOG?$AA@ 10004e14     flags.obj
 0001:00003e24       ??_C@_0M@OMKLELFA@WTYPE_VMENU?$AA@ 10004e24     flags.obj
 0001:00003e30       ??_C@_0L@BCEMNGOG@WTYPE_HELP?$AA@ 10004e30     flags.obj
 0001:00003e3c       ??_C@_0BA@IPEAOBGN@TBPS_NOPROGRESS?$AA@ 10004e3c     flags.obj
 0001:00003e4c       ??_C@_0BD@HMEHMDAL@TBPS_INDETERMINATE?$AA@ 10004e4c     flags.obj
 0001:00003e60       ??_C@_0M@KHLNKPHE@TBPS_NORMAL?$AA@ 10004e60     flags.obj
 0001:00003e6c       ??_C@_0L@DFDPCOFD@TBPS_ERROR?$AA@ 10004e6c     flags.obj
 0001:00003e78       ??_C@_0M@GHGAPHPP@TBPS_PAUSED?$AA@ 10004e78     flags.obj
 0001:00003e84       ??_C@_0O@MCNCFBLF@VSMT_VIEWMODE?$AA@ 10004e84     flags.obj
 0001:00003e94       ??_C@_09FLKONCNO@VSMT_WRAP?$AA@ 10004e94     flags.obj
 0001:00003ea0       ??_C@_0O@INKALKJK@VSMT_WORDWRAP?$AA@ 10004ea0     flags.obj
 0001:00003eb0       ??_C@_08FNEFFFEL@VMT_TEXT?$AA@ 10004eb0     flags.obj
 0001:00003ebc       ??_C@_07FLIHDEDA@VMT_HEX?$AA@ 10004ebc     flags.obj
 0001:00003ec4       ??_C@_08BDDNDBMJ@VMT_DUMP?$AA@ 10004ec4     flags.obj
 0001:00003ed0       ??_C@_07OJCLGDHJ@VE_READ?$AA@ 10004ed0     flags.obj
 0001:00003ed8       ??_C@_08JIBCCIDC@VE_CLOSE?$AA@ 10004ed8     flags.obj
 0001:00003ee4       ??_C@_0M@FEFKOOMJ@VE_GOTFOCUS?$AA@ 10004ee4     flags.obj
 0001:00003ef0       ??_C@_0N@ICHCAKIB@VE_KILLFOCUS?$AA@ 10004ef0     flags.obj
 0001:00003f00       ??_C@_07BLBPFFLB@EE_READ?$AA@ 10004f00     flags.obj
 0001:00003f08       ??_C@_07KJGPGPOC@EE_SAVE?$AA@ 10004f08     flags.obj
 0001:00003f10       ??_C@_09NPOPIKMK@EE_REDRAW?$AA@ 10004f10     flags.obj
 0001:00003f1c       ??_C@_08NFPFGIG@EE_CLOSE?$AA@ 10004f1c     flags.obj
 0001:00003f28       ??_C@_0M@CPNMNBMF@EE_GOTFOCUS?$AA@ 10004f28     flags.obj
 0001:00003f34       ??_C@_0N@ILLPMAJF@EE_KILLFOCUS?$AA@ 10004f34     flags.obj
 0001:00003f44       ??_C@_09MIOGFFI@EE_CHANGE?$AA@ 10004f44     flags.obj
 0001:00003f50       ??_C@_0P@MBHAHBBG@DE_DLGPROCINIT?$AA@ 10004f50     flags.obj
 0001:00003f60       ??_C@_0BC@BMFEJAMO@DE_DEFDLGPROCINIT?$AA@ 10004f60     flags.obj
 0001:00003f74       ??_C@_0O@ICBCOJCG@DE_DLGPROCEND?$AA@ 10004f74     flags.obj
 0001:00003f84       ??_C@_0BB@MNODJNPE@SE_COMMONSYNCHRO?$AA@ 10004f84     flags.obj
 0001:00003f98       ??_C@_0N@HKGMPMJE@ESPT_TABSIZE?$AA@ 10004f98     flags.obj
 0001:00003fa8       ??_C@_0BA@GOKHPFCK@ESPT_EXPANDTABS?$AA@ 10004fa8     flags.obj
 0001:00003fb8       ??_C@_0BA@KOADDMLI@ESPT_AUTOINDENT?$AA@ 10004fb8     flags.obj
 0001:00003fc8       ??_C@_0BF@LPNONOMF@ESPT_CURSORBEYONDEOL?$AA@ 10004fc8     flags.obj
 0001:00003fe0       ??_C@_0BC@OECOCGLJ@ESPT_CHARCODEBASE?$AA@ 10004fe0     flags.obj
 0001:00003ff4       ??_C@_0O@PIAOJINE@ESPT_CODEPAGE?$AA@ 10004ff4     flags.obj
 0001:00004004       ??_C@_0BG@HAPABMJH@ESPT_SAVEFILEPOSITION?$AA@ 10005004     flags.obj
 0001:0000401c       ??_C@_0O@KCPDJCKC@ESPT_LOCKMODE?$AA@ 1000501c     flags.obj
 0001:0000402c       ??_C@_0BA@EIGIAOHM@ESPT_SETWORDDIV?$AA@ 1000502c     flags.obj
 0001:0000403c       ??_C@_0BA@FGEHLJDF@ESPT_GETWORDDIV?$AA@ 1000503c     flags.obj
 0001:0000404c       ??_C@_0BE@MACJBCFP@ESPT_SHOWWHITESPACE?$AA@ 1000504c     flags.obj
 0001:00004060       ??_C@_0M@FICNFPPA@ESPT_SETBOM?$AA@ 10005060     flags.obj
 0001:0000406c       ??_C@_09FLEMPKKP@EUR_BEGIN?$AA@ 1000506c     flags.obj
 0001:00004078       ??_C@_07DDJDFJCN@EUR_END?$AA@ 10005078     flags.obj
 0001:00004080       ??_C@_08FCONALGE@EUR_UNDO?$AA@ 10005080     flags.obj
 0001:0000408c       ??_C@_08DHMMFAHF@EUR_REDO?$AA@ 1000508c     flags.obj
 0001:00004098       ??_C@_0O@PKOIFEBO@EXPAND_NOTABS?$AA@ 10005098     flags.obj
 0001:000040a8       ??_C@_0P@MLHPCNDM@EXPAND_ALLTABS?$AA@ 100050a8     flags.obj
 0001:000040b8       ??_C@_0P@OONGIIBL@EXPAND_NEWTABS?$AA@ 100050b8     flags.obj
 0001:000040c8       ??_C@_0BD@DKHPEOHH@EOPT_EXPANDALLTABS?$AA@ 100050c8     flags.obj
 0001:000040dc       ??_C@_0BG@BOINMDEK@EOPT_PERSISTENTBLOCKS?$AA@ 100050dc     flags.obj
 0001:000040f4       ??_C@_0BG@PIIHHCAN@EOPT_DELREMOVESBLOCKS?$AA@ 100050f4     flags.obj
 0001:0000410c       ??_C@_0BA@KPJEAKBD@EOPT_AUTOINDENT?$AA@ 1000510c     flags.obj
 0001:0000411c       ??_C@_0BG@MBPADLG@EOPT_SAVEFILEPOSITION?$AA@ 1000511c     flags.obj
 0001:00004134       ??_C@_0BI@PFHCGCAI@EOPT_AUTODETECTCODEPAGE?$AA@ 10005134     flags.obj
 0001:0000414c       ??_C@_0BF@IMCOEIAL@EOPT_CURSORBEYONDEOL?$AA@ 1000514c     flags.obj
 0001:00004164       ??_C@_0BH@CJPAGGLC@EOPT_EXPANDONLYNEWTABS?$AA@ 10005164     flags.obj
 0001:0000417c       ??_C@_0BE@DDKCDJDC@EOPT_SHOWWHITESPACE?$AA@ 1000517c     flags.obj
 0001:00004190       ??_C@_08HMMLONBH@EOPT_BOM?$AA@ 10005190     flags.obj
 0001:0000419c       ??_C@_0BD@CLLAKGOA@EOPT_SHOWLINEBREAK?$AA@ 1000519c     flags.obj
 0001:000041b0       ??_C@_0L@BJCBJJNB@BTYPE_NONE?$AA@ 100051b0     flags.obj
 0001:000041bc       ??_C@_0N@OPHHGFPF@BTYPE_STREAM?$AA@ 100051bc     flags.obj
 0001:000041cc       ??_C@_0N@EMEGNPLI@BTYPE_COLUMN?$AA@ 100051cc     flags.obj
 0001:000041dc       ??_C@_0BB@BNPDAPGB@ECSTATE_MODIFIED?$AA@ 100051dc     flags.obj
 0001:000041f0       ??_C@_0O@GBBGHDFM@ECSTATE_SAVED?$AA@ 100051f0     flags.obj
 0001:00004200       ??_C@_0P@BECIAJAM@ECSTATE_LOCKED?$AA@ 10005200     flags.obj
 0001:00004210       ??_C@_0P@DOBJCNIG@ECTYPE_CHANGED?$AA@ 10005210     flags.obj
 0001:00004220       ??_C@_0N@MDEFMEEA@ECTYPE_ADDED?$AA@ 10005220     flags.obj
 0001:00004230       ??_C@_0P@NMOJJPOB@ECTYPE_DELETED?$AA@ 10005230     flags.obj
 0001:00004240       ??_C@_08HHHKLJPB@PLT_PATH?$AA@ 10005240     flags.obj
 0001:0000424c       ??_C@_08KBAMIIFB@PFM_GUID?$AA@ 1000524c     flags.obj
 0001:00004258       ??_C@_0P@KKEMMPNI@PFM_MODULENAME?$AA@ 10005258     flags.obj
 0001:00004268       ??_C@_09BOODOHKD@FFT_PANEL?$AA@ 10005268     flags.obj
 0001:00004274       ??_C@_0N@GMEDAGNH@FFT_FINDFILE?$AA@ 10005274     flags.obj
 0001:00004284       ??_C@_08KKCPIPGP@FFT_COPY?$AA@ 10005284     flags.obj
 0001:00004290       ??_C@_0L@EKPDMFDD@FFT_SELECT?$AA@ 10005290     flags.obj
 0001:0000429c       ??_C@_0L@LGPEDLLD@FFT_CUSTOM?$AA@ 1000529c     flags.obj
 0001:000042a8       ??_C@_0M@OIOMMFOE@FST_UNKNOWN?$AA@ 100052a8     flags.obj
 0001:000042b4       ??_C@_0L@GGGOEGKJ@FST_SUBKEY?$AA@ 100052b4     flags.obj
 0001:000042c0       ??_C@_09LFEEAJIC@FST_QWORD?$AA@ 100052c0     flags.obj
 0001:000042cc       ??_C@_0L@LPMPBKDL@FST_STRING?$AA@ 100052cc     flags.obj
 0001:000042d8       ??_C@_08EJJJCLIG@FST_DATA?$AA@ 100052d8     flags.obj
 0001:000042e4       ??_C@_09OBBBBFPE@FSSF_ROOT?$AA@ 100052e4     flags.obj
 0001:000042f0       ??_C@_0BB@HDKCPBIO@FSSF_HISTORY_CMD?$AA@ 100052f0     flags.obj
 0001:00004304       ??_C@_0BE@BLPOFODL@FSSF_HISTORY_FOLDER?$AA@ 10005304     flags.obj
 0001:00004318       ??_C@_0BC@NJCJCCNH@FSSF_HISTORY_VIEW?$AA@ 10005318     flags.obj
 0001:0000432c       ??_C@_0BC@CODELNPP@FSSF_HISTORY_EDIT?$AA@ 1000532c     flags.obj
 0001:00004340       ??_C@_0BG@IFGEMJIF@FSSF_HISTORY_EXTERNAL?$AA@ 10005340     flags.obj
 0001:00004358       ??_C@_0BG@DGAKDKFK@FSSF_FOLDERSHORTCUT_0?$AA@ 10005358     flags.obj
 0001:00004370       ??_C@_0BG@CPBBALBL@FSSF_FOLDERSHORTCUT_1?$AA@ 10005370     flags.obj
 0001:00004388       ??_C@_0BG@EDMFINI@FSSF_FOLDERSHORTCUT_2?$AA@ 10005388     flags.obj
 0001:000043a0       ??_C@_0BG@BNCHGJJJ@FSSF_FOLDERSHORTCUT_3?$AA@ 100053a0     flags.obj
 0001:000043b8       ??_C@_0BG@FCGGPPFO@FSSF_FOLDERSHORTCUT_4?$AA@ 100053b8     flags.obj
 0001:000043d0       ??_C@_0BG@ELHNMOBP@FSSF_FOLDERSHORTCUT_5?$AA@ 100053d0     flags.obj
 0001:000043e8       ??_C@_0BG@GAFAJNNM@FSSF_FOLDERSHORTCUT_6?$AA@ 100053e8     flags.obj
 0001:00004400       ??_C@_0BG@HJELKMJN@FSSF_FOLDERSHORTCUT_7?$AA@ 10005400     flags.obj
 0001:00004418       ??_C@_0BG@PONDLAFC@FSSF_FOLDERSHORTCUT_8?$AA@ 10005418     flags.obj
 0001:00004430       ??_C@_0BG@OHMIIBBD@FSSF_FOLDERSHORTCUT_9?$AA@ 10005430     flags.obj
 0001:00004448       ??_C@_0BD@PBIEGEHP@FSSF_CONFIRMATIONS?$AA@ 10005448     flags.obj
 0001:0000445c       ??_C@_0M@PIGDMPJB@FSSF_SYSTEM?$AA@ 1000545c     flags.obj
 0001:00004468       ??_C@_0L@LBFNJGFB@FSSF_PANEL?$AA@ 10005468     flags.obj
 0001:00004474       ??_C@_0M@KJLIHDEL@FSSF_EDITOR?$AA@ 10005474     flags.obj
 0001:00004480       ??_C@_0M@KEMGKEOF@FSSF_SCREEN?$AA@ 10005480     flags.obj
 0001:0000448c       ??_C@_0M@CBDJLJIE@FSSF_DIALOG?$AA@ 1000548c     flags.obj
 0001:00004498       ??_C@_0P@OCDADNBF@FSSF_INTERFACE?$AA@ 10005498     flags.obj
 0001:000044a8       ??_C@_0BB@GBBEBNKE@FSSF_PANELLAYOUT?$AA@ 100054a8     flags.obj
 0001:000044bc       ??_C@_0M@JCGHGLJF@PSL_ROAMING?$AA@ 100054bc     flags.obj
 0001:000044c8       ??_C@_09EDBNDHCM@PSL_LOCAL?$AA@ 100054c8     flags.obj
 0001:000044d4       ??_C@_07BPEFOPGM@FCT_ANY?$AA@ 100054d4     flags.obj
 0001:000044dc       ??_C@_0L@CDAEILNM@FCT_STREAM?$AA@ 100054dc     flags.obj
 0001:000044e8       ??_C@_0L@IADFDBJB@FCT_COLUMN?$AA@ 100054e8     flags.obj
 0001:000044f4       ??_C@_0O@KJFMBLFE@LINK_HARDLINK?$AA@ 100054f4     flags.obj
 0001:00004504       ??_C@_0O@OOAFIIDA@LINK_JUNCTION?$AA@ 10005504     flags.obj
 0001:00004514       ??_C@_0O@FIAPLKLH@LINK_VOLMOUNT?$AA@ 10005514     flags.obj
 0001:00004524       ??_C@_0BB@JDBEPJDK@LINK_SYMLINKFILE?$AA@ 10005524     flags.obj
 0001:00004538       ??_C@_0BA@GFPIOFMG@LINK_SYMLINKDIR?$AA@ 10005538     flags.obj
 0001:00004548       ??_C@_0N@PJENIJFN@LINK_SYMLINK?$AA@ 10005548     flags.obj
 0001:00004558       ??_C@_08HNOHKPBK@CPM_FULL?$AA@ 10005558     flags.obj
 0001:00004564       ??_C@_08LAEGFKJE@CPM_REAL?$AA@ 10005564     flags.obj
 0001:00004570       ??_C@_0L@NPJNPCJM@CPM_NATIVE?$AA@ 10005570     flags.obj
 0001:0000457c       ??_C@_0L@NCFOENCC@VS_RELEASE?$AA@ 1000557c     flags.obj
 0001:00004588       ??_C@_08BDGLHPMJ@VS_ALPHA?$AA@ 10005588     flags.obj
 0001:00004594       ??_C@_07OKFPMINB@VS_BETA?$AA@ 10005594     flags.obj
 0001:0000459c       ??_C@_05MMFLPJEB@VS_RC?$AA@ 1000559c     flags.obj
 0001:000045a4       ??_C@_0BC@OOKLINPG@OPEN_LEFTDISKMENU?$AA@ 100055a4     flags.obj
 0001:000045b8       ??_C@_0BB@CEFDHHLF@OPEN_PLUGINSMENU?$AA@ 100055b8     flags.obj
 0001:000045cc       ??_C@_0O@IEJHJCNB@OPEN_FINDLIST?$AA@ 100055cc     flags.obj
 0001:000045dc       ??_C@_0O@OGDCDPNG@OPEN_SHORTCUT?$AA@ 100055dc     flags.obj
 0001:000045ec       ??_C@_0BB@JHCCMIPF@OPEN_COMMANDLINE?$AA@ 100055ec     flags.obj
 0001:00004600       ??_C@_0M@DMJLHMGM@OPEN_EDITOR?$AA@ 10005600     flags.obj
 0001:0000460c       ??_C@_0M@MOBCONI@OPEN_VIEWER?$AA@ 1000560c     flags.obj
 0001:00004618       ??_C@_0P@LCDNLGDE@OPEN_FILEPANEL?$AA@ 10005618     flags.obj
 0001:00004628       ??_C@_0M@LEBKLGKD@OPEN_DIALOG?$AA@ 10005628     flags.obj
 0001:00004634       ??_C@_0N@CBHPGAKB@OPEN_ANALYSE?$AA@ 10005634     flags.obj
 0001:00004644       ??_C@_0BD@NFNGGFHI@OPEN_RIGHTDISKMENU?$AA@ 10005644     flags.obj
 0001:00004658       ??_C@_0P@FOKOAMLC@OPEN_FROMMACRO?$AA@ 10005658     flags.obj
 0001:00004668       ??_C@_0O@NEDDJIHC@OPEN_LUAMACRO?$AA@ 10005668     flags.obj
 0001:00004678       ??_C@_0O@MMDEJBDC@MCT_MACROINIT?$AA@ 10005678     flags.obj
 0001:00004688       ??_C@_0O@LELGJFIK@MCT_MACROSTEP?$AA@ 10005688     flags.obj
 0001:00004698       ??_C@_0P@FAJLFCPP@MCT_MACROFINAL?$AA@ 10005698     flags.obj
 0001:000046a8       ??_C@_0P@GBMLNMMI@MCT_MACROPARSE?$AA@ 100056a8     flags.obj
 0001:000046b8       ??_C@_0P@GNPFPCF@MCT_LOADMACROS?$AA@ 100056b8     flags.obj
 0001:000046c8       ??_C@_0P@HMDDACMI@MCT_ENUMMACROS?$AA@ 100056c8     flags.obj
 0001:000046d8       ??_C@_0BA@MOCJHMJK@MCT_WRITEMACROS?$AA@ 100056d8     flags.obj
 0001:000046e8       ??_C@_0N@IGJGAHKE@MCT_GETMACRO?$AA@ 100056e8     flags.obj
 0001:000046f8       ??_C@_0BB@PIGPKBDF@MCT_PROCESSMACRO?$AA@ 100056f8     flags.obj
 0001:0000470c       ??_C@_0N@OLCKOJMI@MCT_DELMACRO?$AA@ 1000570c     flags.obj
 0001:0000471c       ??_C@_0BC@NALHIHJ@MCT_RUNSTARTMACRO?$AA@ 1000571c     flags.obj
 0001:00004730       ??_C@_0P@HOMHAEFB@MCT_EXECSTRING?$AA@ 10005730     flags.obj
 0001:00004740       ??_C@_0O@CDBDPKIC@MCT_PANELSORT?$AA@ 10005740     flags.obj
 0001:00004750       ??_C@_0BH@PKKJIOHM@MCT_GETCUSTOMSORTMODES?$AA@ 10005750     flags.obj
 0001:00004768       ??_C@_0BC@IOECJI@MPRT_NORMALFINISH?$AA@ 10005768     flags.obj
 0001:0000477c       ??_C@_0BB@PMCBIGCA@MPRT_ERRORFINISH?$AA@ 1000577c     flags.obj
 0001:00004790       ??_C@_0BA@BCBAEEOI@MPRT_ERRORPARSE?$AA@ 10005790     flags.obj
 0001:000047a0       ??_C@_09EJDAADCN@MPRT_KEYS?$AA@ 100057a0     flags.obj
 0001:000047ac       ??_C@_0L@GEHHCKFA@MPRT_PRINT?$AA@ 100057ac     flags.obj
 0001:000047b8       ??_C@_0BA@OBIDLEIM@MPRT_PLUGINCALL?$AA@ 100057b8     flags.obj
 0001:000047c8       ??_C@_0BA@EJFFOAMM@MPRT_PLUGINMENU?$AA@ 100057c8     flags.obj
 0001:000047d8       ??_C@_0BC@LEDOPMKI@MPRT_PLUGINCONFIG?$AA@ 100057d8     flags.obj
 0001:000047ec       ??_C@_0BD@HHINMPPI@MPRT_PLUGINCOMMAND?$AA@ 100057ec     flags.obj
 0001:00004800       ??_C@_0O@IEMNLPAB@MPRT_USERMENU?$AA@ 10005800     flags.obj
 0001:00004810       ??_C@_0BC@PNCKAHJO@FE_CHANGEVIEWMODE?$AA@ 10005810     flags.obj
 0001:00004824       ??_C@_09DENIDBMJ@FE_REDRAW?$AA@ 10005824     flags.obj
 0001:00004830       ??_C@_07CLNPDBLG@FE_IDLE?$AA@ 10005830     flags.obj
 0001:00004838       ??_C@_08DENCGKED@FE_CLOSE?$AA@ 10005838     flags.obj
 0001:00004844       ??_C@_08MOMCCKPB@FE_BREAK?$AA@ 10005844     flags.obj
 0001:00004850       ??_C@_0L@LELAIPLL@FE_COMMAND?$AA@ 10005850     flags.obj
 0001:0000485c       ??_C@_0M@FIECADDF@FE_GOTFOCUS?$AA@ 1000585c     flags.obj
 0001:00004868       ??_C@_0N@DGHFKMFL@FE_KILLFOCUS?$AA@ 10005868     flags.obj
 0001:00004878       ??_C@_0M@HNDHDHHO@FCF_FG_4BIT?$AA@ 10005878     flags.obj
 0001:00004884       ??_C@_0M@PJHNDJIE@FCF_BG_4BIT?$AA@ 10005884     flags.obj
 0001:00004890       ??_C@_0N@HMKJBHOA@FCF_4BITMASK?$AA@ 10005890     flags.obj
 0001:000048a0       ??_C@_0BC@NKBLNNIA@FCF_EXTENDEDFLAGS?$AA@ 100058a0     flags.obj
 0001:000048b4       ??_C@_0M@LFMGCKHG@FCF_FG_BOLD?$AA@ 100058b4     flags.obj
 0001:000048c0       ??_C@_0O@FAPDECBF@FCF_FG_ITALIC?$AA@ 100058c0     flags.obj
 0001:000048d0       ??_C@_0BB@NPEFGEGA@FCF_FG_UNDERLINE?$AA@ 100058d0     flags.obj
 0001:000048e4       ??_C@_0O@LGBGBIGB@FCF_STYLEMASK?$AA@ 100058e4     flags.obj
 0001:000048f4       ??_C@_08BKNBBLHK@FCF_NONE?$AA@ 100058f4     flags.obj
 0001:00004900       ??_C@_08FKIDFHCM@CDF_NONE?$AA@ 10005900     flags.obj
 0001:0000490c       ??_C@_0N@ELMEMNDH@FMSG_WARNING?$AA@ 1000590c     flags.obj
 0001:0000491c       ??_C@_0P@HHIGLJAP@FMSG_ERRORTYPE?$AA@ 1000591c     flags.obj
 0001:0000492c       ??_C@_0BE@FHOOILPH@FMSG_KEEPBACKGROUND?$AA@ 1000592c     flags.obj
 0001:00004940       ??_C@_0P@KBEMNNEP@FMSG_LEFTALIGN?$AA@ 10005940     flags.obj
 0001:00004950       ??_C@_0O@FOIOKDHJ@FMSG_ALLINONE?$AA@ 10005950     flags.obj
 0001:00004960       ??_C@_0L@BGALGPOK@FMSG_MB_OK?$AA@ 10005960     flags.obj
 0001:0000496c       ??_C@_0BB@JGAPGIEP@FMSG_MB_OKCANCEL?$AA@ 1000596c     flags.obj
 0001:00004980       ??_C@_0BJ@BKJADAHA@FMSG_MB_ABORTRETRYIGNORE?$AA@ 10005980     flags.obj
 0001:0000499c       ??_C@_0O@GPCAPHCL@FMSG_MB_YESNO?$AA@ 1000599c     flags.obj
 0001:000049ac       ??_C@_0BE@IBNOLCGP@FMSG_MB_YESNOCANCEL?$AA@ 100059ac     flags.obj
 0001:000049c0       ??_C@_0BE@OCLAIENB@FMSG_MB_RETRYCANCEL?$AA@ 100059c0     flags.obj
 0001:000049d4       ??_C@_09NEGPLEAH@FMSG_NONE?$AA@ 100059d4     flags.obj
 0001:000049e0       ??_C@_0N@DHJCDIKM@DIF_BOXCOLOR?$AA@ 100059e0     flags.obj
 0001:000049f0       ??_C@_09IAEPIICA@DIF_GROUP?$AA@ 100059f0     flags.obj
 0001:000049fc       ??_C@_0N@GCKJNBCM@DIF_LEFTTEXT?$AA@ 100059fc     flags.obj
 0001:00004a0c       ??_C@_0P@BGPBEDHH@DIF_MOVESELECT?$AA@ 10005a0c     flags.obj
 0001:00004a1c       ??_C@_0BC@PDKFKKEI@DIF_SHOWAMPERSAND?$AA@ 10005a1c     flags.obj
 0001:00004a30       ??_C@_0BA@BLCOKAAO@DIF_CENTERGROUP?$AA@ 10005a30     flags.obj
 0001:00004a40       ??_C@_0P@MKFBJPOB@DIF_NOBRACKETS?$AA@ 10005a40     flags.obj
 0001:00004a50       ??_C@_0BF@JBCDBJCL@DIF_MANUALADDHISTORY?$AA@ 10005a50     flags.obj
 0001:00004a68       ??_C@_0O@JKNMBNLA@DIF_SEPARATOR?$AA@ 10005a68     flags.obj
 0001:00004a78       ??_C@_0P@CGILDLOA@DIF_SEPARATOR2?$AA@ 10005a78     flags.obj
 0001:00004a88       ??_C@_0L@NBPFNGLB@DIF_EDITOR?$AA@ 10005a88     flags.obj
 0001:00004a94       ??_C@_0BE@PFICAGJF@DIF_LISTNOAMPERSAND?$AA@ 10005a94     flags.obj
 0001:00004aa8       ??_C@_0O@FFJNBMAD@DIF_LISTNOBOX?$AA@ 10005aa8     flags.obj
 0001:00004ab8       ??_C@_0M@IPFBMFDN@DIF_HISTORY?$AA@ 10005ab8     flags.obj
 0001:00004ac4       ??_C@_0P@EGFAEEDC@DIF_BTNNOCLOSE?$AA@ 10005ac4     flags.obj
 0001:00004ad4       ??_C@_0P@KOJCCCGB@DIF_CENTERTEXT?$AA@ 10005ad4     flags.obj
 0001:00004ae4       ??_C@_0BC@ODEMBOPK@DIF_SEPARATORUSER?$AA@ 10005ae4     flags.obj
 0001:00004af8       ??_C@_0O@IKJBMPOF@DIF_SETSHIELD?$AA@ 10005af8     flags.obj
 0001:00004b08       ??_C@_0P@EEJEDBLH@DIF_EDITEXPAND?$AA@ 10005b08     flags.obj
 0001:00004b18       ??_C@_0BB@EIMEKEFP@DIF_DROPDOWNLIST?$AA@ 10005b18     flags.obj
 0001:00004b2c       ??_C@_0BD@MNGIOLFF@DIF_USELASTHISTORY?$AA@ 10005b2c     flags.obj
 0001:00004b40       ??_C@_0N@MOCGNIKC@DIF_MASKEDIT?$AA@ 10005b40     flags.obj
 0001:00004b50       ??_C@_0BD@LPDHCLJI@DIF_LISTTRACKMOUSE?$AA@ 10005b50     flags.obj
 0001:00004b64       ??_C@_0BK@LEFIBDOA@DIF_LISTTRACKMOUSEINFOCUS?$AA@ 10005b64     flags.obj
 0001:00004b80       ??_C@_0BC@JNLDMGBD@DIF_SELECTONENTRY?$AA@ 10005b80     flags.obj
 0001:00004b94       ??_C@_0L@KKNJDNBK@DIF_3STATE?$AA@ 10005b94     flags.obj
 0001:00004ba0       ??_C@_0N@GBGHICKO@DIF_EDITPATH?$AA@ 10005ba0     flags.obj
 0001:00004bb0       ??_C@_0BB@NPNALIGO@DIF_LISTWRAPMODE?$AA@ 10005bb0     flags.obj
 0001:00004bc4       ??_C@_0BD@MFOKKGGF@DIF_NOAUTOCOMPLETE?$AA@ 10005bc4     flags.obj
 0001:00004bd8       ??_C@_0BG@MONEJILE@DIF_LISTAUTOHIGHLIGHT?$AA@ 10005bd8     flags.obj
 0001:00004bf0       ??_C@_0BA@JNOKLHOL@DIF_LISTNOCLOSE?$AA@ 10005bf0     flags.obj
 0001:00004c00       ??_C@_0BB@GMKDKOOP@DIF_EDITPATHEXEC?$AA@ 10005c00     flags.obj
 0001:00004c14       ??_C@_0L@EPNFOPAK@DIF_HIDDEN?$AA@ 10005c14     flags.obj
 0001:00004c20       ??_C@_0N@KOGKCAKJ@DIF_READONLY?$AA@ 10005c20     flags.obj
 0001:00004c30       ??_C@_0M@NLLDINIM@DIF_NOFOCUS?$AA@ 10005c30     flags.obj
 0001:00004c3c       ??_C@_0M@HCFLMDHK@DIF_DISABLE?$AA@ 10005c3c     flags.obj
 0001:00004c48       ??_C@_0BC@CHAAKEJO@DIF_DEFAULTBUTTON?$AA@ 10005c48     flags.obj
 0001:00004c5c       ??_C@_09LCJIOEMN@DIF_FOCUS?$AA@ 10005c5c     flags.obj
 0001:00004c68       ??_C@_0O@KJADCBBN@DIF_RIGHTTEXT?$AA@ 10005c68     flags.obj
 0001:00004c78       ??_C@_0N@LAEOODAD@DIF_WORDWRAP?$AA@ 10005c78     flags.obj
 0001:00004c88       ??_C@_08KFOHCPDE@DIF_NONE?$AA@ 10005c88     flags.obj
 0001:00004c94       ??_C@_0N@EDHAFIIL@LIF_SELECTED?$AA@ 10005c94     flags.obj
 0001:00004ca4       ??_C@_0M@BMGIEAIL@LIF_CHECKED?$AA@ 10005ca4     flags.obj
 0001:00004cb0       ??_C@_0O@KJIFADIG@LIF_SEPARATOR?$AA@ 10005cb0     flags.obj
 0001:00004cc0       ??_C@_0M@HEFHLFIE@LIF_DISABLE?$AA@ 10005cc0     flags.obj
 0001:00004ccc       ??_C@_0L@PKDDGEEG@LIF_GRAYED?$AA@ 10005ccc     flags.obj
 0001:00004cd8       ??_C@_0L@PFBGAOEP@LIF_HIDDEN?$AA@ 10005cd8     flags.obj
 0001:00004ce4       ??_C@_0BD@HEPCOIEH@LIF_DELETEUSERDATA?$AA@ 10005ce4     flags.obj
 0001:00004cf8       ??_C@_08BODPINCM@LIF_NONE?$AA@ 10005cf8     flags.obj
 0001:00004d04       ??_C@_0BC@BGAENNBJ@LIFIND_EXACTMATCH?$AA@ 10005d04     flags.obj
 0001:00004d18       ??_C@_0M@FPOGKIGO@LIFIND_NONE?$AA@ 10005d18     flags.obj
 0001:00004d24       ??_C@_0BA@OOIEKCFB@LINFO_SHOWNOBOX?$AA@ 10005d24     flags.obj
 0001:00004d34       ??_C@_0BE@DECCEGNO@LINFO_AUTOHIGHLIGHT?$AA@ 10005d34     flags.obj
 0001:00004d48       ??_C@_0BH@BADLEILJ@LINFO_REVERSEHIGHLIGHT?$AA@ 10005d48     flags.obj
 0001:00004d60       ??_C@_0P@KLBMHNCG@LINFO_WRAPMODE?$AA@ 10005d60     flags.obj
 0001:00004d70       ??_C@_0BE@OHJCOKAE@LINFO_SHOWAMPERSAND?$AA@ 10005d70     flags.obj
 0001:00004d84       ??_C@_0L@EPACPANF@LINFO_NONE?$AA@ 10005d84     flags.obj
 0001:00004d90       ??_C@_0N@OLGDMHKL@FDLG_WARNING?$AA@ 10005d90     flags.obj
 0001:00004da0       ??_C@_0BB@DKMEBDJJ@FDLG_SMALLDIALOG?$AA@ 10005da0     flags.obj
 0001:00004db4       ??_C@_0BC@ONGLDAJN@FDLG_NODRAWSHADOW?$AA@ 10005db4     flags.obj
 0001:00004dc8       ??_C@_0BB@NPLEEAKK@FDLG_NODRAWPANEL?$AA@ 10005dc8     flags.obj
 0001:00004ddc       ??_C@_0BG@GHNOOENB@FDLG_KEEPCONSOLETITLE?$AA@ 10005ddc     flags.obj
 0001:00004df4       ??_C@_09NNFHCBNL@FDLG_NONE?$AA@ 10005df4     flags.obj
 0001:00004e00       ??_C@_0N@JOOGIBAO@MIF_SELECTED?$AA@ 10005e00     flags.obj
 0001:00004e10       ??_C@_0M@IHMNAMOE@MIF_CHECKED?$AA@ 10005e10     flags.obj
 0001:00004e1c       ??_C@_0O@DEIKOCPA@MIF_SEPARATOR?$AA@ 10005e1c     flags.obj
 0001:00004e2c       ??_C@_0M@OPPCPJOL@MIF_DISABLE?$AA@ 10005e2c     flags.obj
 0001:00004e38       ??_C@_0L@DLLNLLIG@MIF_GRAYED?$AA@ 10005e38     flags.obj
 0001:00004e44       ??_C@_0L@DEJINBIP@MIF_HIDDEN?$AA@ 10005e44     flags.obj
 0001:00004e50       ??_C@_08JEEJJGP@MIF_NONE?$AA@ 10005e50     flags.obj
 0001:00004e5c       ??_C@_0BE@FALMPPJK@FMENU_SHOWAMPERSAND?$AA@ 10005e5c     flags.obj
 0001:00004e70       ??_C@_0P@HICDNKDJ@FMENU_WRAPMODE?$AA@ 10005e70     flags.obj
 0001:00004e80       ??_C@_0BE@IDAMFDEA@FMENU_AUTOHIGHLIGHT?$AA@ 10005e80     flags.obj
 0001:00004e94       ??_C@_0BL@OKAIKPMN@FMENU_REVERSEAUTOHIGHLIGHT?$AA@ 10005e94     flags.obj
 0001:00004eb0       ??_C@_0BJ@FCEONOJC@FMENU_CHANGECONSOLETITLE?$AA@ 10005eb0     flags.obj
 0001:00004ecc       ??_C@_0L@DGFIEOMD@FMENU_NONE?$AA@ 10005ecc     flags.obj
 0001:00004ed8       ??_C@_0O@JEAJLDHC@PPIF_SELECTED?$AA@ 10005ed8     flags.obj
 0001:00004ee8       ??_C@_0BC@LPBDBIOM@PPIF_PROCESSDESCR?$AA@ 10005ee8     flags.obj
 0001:00004efc       ??_C@_09OIFMMGNJ@PPIF_NONE?$AA@ 10005efc     flags.obj
 0001:00004f08       ??_C@_0BC@BONLDOOD@PFLAGS_SHOWHIDDEN?$AA@ 10005f08     flags.obj
 0001:00004f1c       ??_C@_0BB@BCAJEJEH@PFLAGS_HIGHLIGHT?$AA@ 10005f1c     flags.obj
 0001:00004f30       ??_C@_0BI@BFAFODJ@PFLAGS_REVERSESORTORDER?$AA@ 10005f30     flags.obj
 0001:00004f48       ??_C@_0BF@KJNCJPKN@PFLAGS_USESORTGROUPS?$AA@ 10005f48     flags.obj
 0001:00004f60       ??_C@_0BF@LBBAIOCD@PFLAGS_SELECTEDFIRST?$AA@ 10005f60     flags.obj
 0001:00004f78       ??_C@_0BB@KDANIJNM@PFLAGS_REALNAMES?$AA@ 10005f78     flags.obj
 0001:00004f8c       ??_C@_0BD@MOODMDAB@PFLAGS_NUMERICSORT?$AA@ 10005f8c     flags.obj
 0001:00004fa0       ??_C@_0BB@ILEHDKFJ@PFLAGS_PANELLEFT?$AA@ 10005fa0     flags.obj
 0001:00004fb4       ??_C@_0BI@EHHAJLOH@PFLAGS_DIRECTORIESFIRST?$AA@ 10005fb4     flags.obj
 0001:00004fcc       ??_C@_0BA@KJEPHDOM@PFLAGS_USECRC32?$AA@ 10005fcc     flags.obj
 0001:00004fdc       ??_C@_0BJ@HJFOABKG@PFLAGS_CASESENSITIVESORT?$AA@ 10005fdc     flags.obj
 0001:00004ff8       ??_C@_0O@DBPJGING@PFLAGS_PLUGIN?$AA@ 10005ff8     flags.obj
 0001:00005008       ??_C@_0P@MLDEBNPK@PFLAGS_VISIBLE?$AA@ 10006008     flags.obj
 0001:00005018       ??_C@_0N@EOFAELOJ@PFLAGS_FOCUS?$AA@ 10006018     flags.obj
 0001:00005028       ??_C@_0BI@EOCCAHFA@PFLAGS_ALTERNATIVENAMES?$AA@ 10006028     flags.obj
 0001:00005040       ??_C@_0BA@GHMDCHHI@PFLAGS_SHORTCUT?$AA@ 10006040     flags.obj
 0001:00005050       ??_C@_0M@NEMAHHGP@PFLAGS_NONE?$AA@ 10006050     flags.obj
 0001:0000505c       ??_C@_0M@IDNADAFL@VF_NONMODAL?$AA@ 1000605c     flags.obj
 0001:00005068       ??_C@_0BB@OCDDPIKL@VF_DELETEONCLOSE?$AA@ 10006068     flags.obj
 0001:0000507c       ??_C@_0N@LDHALKKM@VF_ENABLE_F6?$AA@ 1000607c     flags.obj
 0001:0000508c       ??_C@_0BC@DLGKMECC@VF_DISABLEHISTORY?$AA@ 1000608c     flags.obj
 0001:000050a0       ??_C@_0BD@DHJCMLFI@VF_IMMEDIATERETURN?$AA@ 100060a0     flags.obj
 0001:000050b4       ??_C@_0BJ@OGNFHEJG@VF_DELETEONLYFILEONCLOSE?$AA@ 100060b4     flags.obj
 0001:000050d0       ??_C@_07CJJFHP@VF_NONE?$AA@ 100060d0     flags.obj
 0001:000050d8       ??_C@_0M@PIFGAPFH@EF_NONMODAL?$AA@ 100060d8     flags.obj
 0001:000050e4       ??_C@_0N@DBHFPBEO@EF_CREATENEW?$AA@ 100060e4     flags.obj
 0001:000050f4       ??_C@_0N@LKLNHALI@EF_ENABLE_F6?$AA@ 100060f4     flags.obj
 0001:00005104       ??_C@_0BC@PPEPEFFI@EF_DISABLEHISTORY?$AA@ 10006104     flags.obj
 0001:00005118       ??_C@_0BB@KGPIDKFC@EF_DELETEONCLOSE?$AA@ 10006118     flags.obj
 0001:0000512c       ??_C@_0BD@IHIGHGPL@EF_IMMEDIATERETURN?$AA@ 1000612c     flags.obj
 0001:00005140       ??_C@_0BJ@ILCPOFKL@EF_DELETEONLYFILEONCLOSE?$AA@ 10006140     flags.obj
 0001:0000515c       ??_C@_09IJMPFPLB@EF_LOCKED?$AA@ 1000615c     flags.obj
 0001:00005168       ??_C@_0BC@GFHJGKD@EF_DISABLESAVEPOS?$AA@ 10006168     flags.obj
 0001:0000517c       ??_C@_07MBPCONNA@EN_NONE?$AA@ 1000617c     flags.obj
 0001:00005184       ??_C@_0BC@HHNGCBAM@FHELP_NOSHOWERROR?$AA@ 10006184     flags.obj
 0001:00005198       ??_C@_0P@GANNLHEJ@FHELP_SELFHELP?$AA@ 10006198     flags.obj
 0001:000051a8       ??_C@_0O@FLGGLFLC@FHELP_FARHELP?$AA@ 100061a8     flags.obj
 0001:000051b8       ??_C@_0BB@KNKDPNI@FHELP_CUSTOMFILE?$AA@ 100061b8     flags.obj
 0001:000051cc       ??_C@_0BB@IHFFPJJA@FHELP_CUSTOMPATH?$AA@ 100061cc     flags.obj
 0001:000051e0       ??_C@_0L@OOIMFPBD@FHELP_GUID?$AA@ 100061e0     flags.obj
 0001:000051ec       ??_C@_0BC@PNPOIHMG@FHELP_USECONTENTS?$AA@ 100061ec     flags.obj
 0001:00005200       ??_C@_0L@MAGMKNFN@FHELP_NONE?$AA@ 10006200     flags.obj
 0001:0000520c       ??_C@_0BE@GEGKIINM@KMFLAGS_SILENTCHECK?$AA@ 1000620c     flags.obj
 0001:00005220       ??_C@_0BG@OPIGKILK@KMFLAGS_DISABLEOUTPUT?$AA@ 10006220     flags.obj
 0001:00005238       ??_C@_0BM@BBOPLPKC@KMFLAGS_NOSENDKEYSTOPLUGINS?$AA@ 10006238     flags.obj
 0001:00005254       ??_C@_0BF@PHHPAAOK@KMFLAGS_ENABLEOUTPUT?$AA@ 10006254     flags.obj
 0001:0000526c       ??_C@_0N@GIJCDFJI@KMFLAGS_NONE?$AA@ 1000626c     flags.obj
 0001:0000527c       ??_C@_0O@GKOLBMFK@AKMFLAGS_NONE?$AA@ 1000627c     flags.obj
 0001:0000528c       ??_C@_0P@LMBMJIMF@FSETCLR_REDRAW?$AA@ 1000628c     flags.obj
 0001:0000529c       ??_C@_0N@LCOHPDHN@FSETCLR_NONE?$AA@ 1000629c     flags.obj
 0001:000052ac       ??_C@_0N@MLMCEKPH@WIF_MODIFIED?$AA@ 100062ac     flags.obj
 0001:000052bc       ??_C@_0M@ICPAPCOF@WIF_CURRENT?$AA@ 100062bc     flags.obj
 0001:000052c8       ??_C@_09FPGEBDGO@WIF_MODAL?$AA@ 100062c8     flags.obj
 0001:000052d4       ??_C@_0BG@JMJAOELH@VOPT_SAVEFILEPOSITION?$AA@ 100062d4     flags.obj
 0001:000052ec       ??_C@_0BI@NCAHLEBN@VOPT_AUTODETECTCODEPAGE?$AA@ 100062ec     flags.obj
 0001:00005304       ??_C@_09FIOJMNJ@VOPT_NONE?$AA@ 10006304     flags.obj
 0001:00005310       ??_C@_0N@ILNDJNNO@VSMFL_REDRAW?$AA@ 10006310     flags.obj
 0001:00005320       ??_C@_0N@GHEHKHJN@VSP_NOREDRAW?$AA@ 10006320     flags.obj
 0001:00005330       ??_C@_0M@LHNGMHFO@VSP_PERCENT?$AA@ 10006330     flags.obj
 0001:0000533c       ??_C@_0N@JGGGCNIP@VSP_RELATIVE?$AA@ 1000633c     flags.obj
 0001:0000534c       ??_C@_0BA@JKDMJLJG@VSP_NORETNEWPOS?$AA@ 1000634c     flags.obj
 0001:0000535c       ??_C@_08FAPBJAKB@VMF_WRAP?$AA@ 1000635c     flags.obj
 0001:00005368       ??_C@_0N@GHBDMLON@VMF_WORDWRAP?$AA@ 10006368     flags.obj
 0001:00005378       ??_C@_0BB@EDGIEBDF@ECF_TABMARKFIRST?$AA@ 10006378     flags.obj
 0001:0000538c       ??_C@_0BD@DKGCCJNG@ECF_TABMARKCURRENT?$AA@ 1000638c     flags.obj
 0001:000053a0       ??_C@_0BA@KNNLMGCA@FIB_ENABLEEMPTY?$AA@ 100063a0     flags.obj
 0001:000053b0       ??_C@_0N@DLDJCGJI@FIB_PASSWORD?$AA@ 100063b0     flags.obj
 0001:000053c0       ??_C@_0O@DOHEGELC@FIB_EXPANDENV?$AA@ 100063c0     flags.obj
 0001:000053d0       ??_C@_0BF@CEMIHIOK@FIB_NOUSELASTHISTORY?$AA@ 100063d0     flags.obj
 0001:000053e8       ??_C@_0M@KJOJJDIM@FIB_BUTTONS?$AA@ 100063e8     flags.obj
 0001:000053f4       ??_C@_0BA@COBBDHNL@FIB_NOAMPERSAND?$AA@ 100063f4     flags.obj
 0001:00005404       ??_C@_0N@LBOCEEGH@FIB_EDITPATH?$AA@ 10006404     flags.obj
 0001:00005414       ??_C@_0BB@DCODFLEL@FIB_EDITPATHEXEC?$AA@ 10006414     flags.obj
 0001:00005428       ??_C@_08HPFOCDKB@FIB_NONE?$AA@ 10006428     flags.obj
 0001:00005434       ??_C@_0L@NMBLFMBN@FPF_LOADED?$AA@ 10006434     flags.obj
 0001:00005440       ??_C@_08GKECKCCJ@FPF_ANSI?$AA@ 10006440     flags.obj
 0001:0000544c       ??_C@_08OIOFCNLC@FPF_NONE?$AA@ 1000644c     flags.obj
 0001:00005458       ??_C@_0L@HODJIPGA@PN_CMPNAME?$AA@ 10006458     flags.obj
 0001:00005464       ??_C@_0P@KDEENAHJ@PN_CMPNAMELIST?$AA@ 10006464     flags.obj
 0001:00005474       ??_C@_0BA@BJCCEIOI@PN_GENERATENAME?$AA@ 10006474     flags.obj
 0001:00005484       ??_C@_0N@FEGPCCPJ@PN_CHECKMASK?$AA@ 10006484     flags.obj
 0001:00005494       ??_C@_0M@NOOLKEBH@PN_SKIPPATH?$AA@ 10006494     flags.obj
 0001:000054a0       ??_C@_0BE@OPDBOAAE@PN_SHOWERRORMESSAGE?$AA@ 100064a0     flags.obj
 0001:000054b4       ??_C@_0BG@GOMJDMCK@XLAT_SWITCHKEYBLAYOUT?$AA@ 100064b4     flags.obj
 0001:000054cc       ??_C@_0BE@KOIJDNLA@XLAT_SWITCHKEYBBEEP?$AA@ 100064cc     flags.obj
 0001:000054e0       ??_C@_0BH@KBFAFPNA@XLAT_USEKEYBLAYOUTNAME?$AA@ 100064e0     flags.obj
 0001:000054f8       ??_C@_0BH@IANKLOAC@XLAT_CONVERTALLCMDLINE?$AA@ 100064f8     flags.obj
 0001:00005510       ??_C@_09JCNLKBBK@XLAT_NONE?$AA@ 10006510     flags.obj
 0001:0000551c       ??_C@_0N@PJEDCNNJ@FRS_RETUPDIR?$AA@ 1000651c     flags.obj
 0001:0000552c       ??_C@_09GHEPLOHO@FRS_RECUR?$AA@ 1000652c     flags.obj
 0001:00005538       ??_C@_0BA@JCPHOEAE@FRS_SCANSYMLINK?$AA@ 10006538     flags.obj
 0001:00005548       ??_C@_0P@LJPBHEIE@MLF_SHOWERRMSG?$AA@ 10006548     flags.obj
 0001:00005558       ??_C@_0BF@LMAGFLHF@MLF_DONOTUPDATEPANEL?$AA@ 10006558     flags.obj
 0001:00005570       ??_C@_08EBKEJHAL@MLF_NONE?$AA@ 10006570     flags.obj
 0001:0000557c       ??_C@_0M@JDMKDBDH@FFFS_COMMAS?$AA@ 1000657c     flags.obj
 0001:00005588       ??_C@_0P@JPMLNBKL@FFFS_FLOATSIZE?$AA@ 10006588     flags.obj
 0001:00005598       ??_C@_0BE@NPKCCEJ@FFFS_SHOWBYTESINDEX?$AA@ 10006598     flags.obj
 0001:000055ac       ??_C@_0O@FPIOAIMC@FFFS_ECONOMIC?$AA@ 100065ac     flags.obj
 0001:000055bc       ??_C@_0O@HFIGPFIH@FFFS_THOUSAND?$AA@ 100065bc     flags.obj
 0001:000055cc       ??_C@_0BC@LLLANJJO@FFFS_MINSIZEINDEX?$AA@ 100065cc     flags.obj
 0001:000055e0       ??_C@_0BH@PEGBPJKE@FFFS_MINSIZEINDEX_MASK?$AA@ 100065e0     flags.obj
 0001:000055f8       ??_C@_0L@NHEJGKCF@PF_PRELOAD?$AA@ 100065f8     flags.obj
 0001:00005604       ??_C@_0BB@GCINAIGN@PF_DISABLEPANELS?$AA@ 10006604     flags.obj
 0001:00005618       ??_C@_09OENCMPGE@PF_EDITOR?$AA@ 10006618     flags.obj
 0001:00005624       ??_C@_09NEKIJNNA@PF_VIEWER?$AA@ 10006624     flags.obj
 0001:00005630       ??_C@_0P@MBLBBCNK@PF_FULLCMDLINE?$AA@ 10006630     flags.obj
 0001:00005640       ??_C@_09GMFDAFKL@PF_DIALOG?$AA@ 10006640     flags.obj
 0001:0000564c       ??_C@_07MGEGJMPI@PF_NONE?$AA@ 1000664c     flags.obj
 0001:00005654       ??_C@_0BD@EGELEIIG@IPLFLAGS_SEPARATOR?$AA@ 10006654     flags.obj
 0001:00005668       ??_C@_0BD@KGHJOBGM@PMFLAGS_FULLSCREEN?$AA@ 10006668     flags.obj
 0001:0000567c       ??_C@_0BH@GDAAKEMH@PMFLAGS_DETAILEDSTATUS?$AA@ 1000667c     flags.obj
 0001:00005694       ??_C@_0BI@BMHIBDMH@PMFLAGS_ALIGNEXTENSIONS?$AA@ 10006694     flags.obj
 0001:000056ac       ??_C@_0BH@KOFCBJBO@PMFLAGS_CASECONVERSION?$AA@ 100066ac     flags.obj
 0001:000056c4       ??_C@_0BD@PBMGDJEM@OPIF_DISABLEFILTER?$AA@ 100066c4     flags.obj
 0001:000056d8       ??_C@_0BH@FHBKALPD@OPIF_DISABLESORTGROUPS?$AA@ 100066d8     flags.obj
 0001:000056f0       ??_C@_0BJ@NGLIANCL@OPIF_DISABLEHIGHLIGHTING?$AA@ 100066f0     flags.obj
 0001:0000570c       ??_C@_0N@JANKJMLP@OPIF_ADDDOTS?$AA@ 1000670c     flags.obj
 0001:0000571c       ??_C@_0BC@HOFHNJIG@OPIF_RAWSELECTION?$AA@ 1000671c     flags.obj
 0001:00005730       ??_C@_0P@OFEDJCO@OPIF_REALNAMES?$AA@ 10006730     flags.obj
 0001:00005740       ??_C@_0BD@FPGMNAPD@OPIF_SHOWNAMESONLY?$AA@ 10006740     flags.obj
 0001:00005754       ??_C@_0BJ@NMIFAPJD@OPIF_SHOWRIGHTALIGNNAMES?$AA@ 10006754     flags.obj
 0001:00005770       ??_C@_0BG@HGPMKHIE@OPIF_SHOWPRESERVECASE?$AA@ 10006770     flags.obj
 0001:00005788       ??_C@_0BE@GJEJHNKJ@OPIF_COMPAREFATTIME?$AA@ 10006788     flags.obj
 0001:0000579c       ??_C@_0BB@PELHBPAM@OPIF_EXTERNALGET?$AA@ 1000679c     flags.obj
 0001:000057b0       ??_C@_0BB@CFFPNDFK@OPIF_EXTERNALPUT?$AA@ 100067b0     flags.obj
 0001:000057c4       ??_C@_0BE@LKEMICNM@OPIF_EXTERNALDELETE?$AA@ 100067c4     flags.obj
 0001:000057d8       ??_C@_0BD@JIMJPFEP@OPIF_EXTERNALMKDIR?$AA@ 100067d8     flags.obj
 0001:000057ec       ??_C@_0BJ@CALDMPLF@OPIF_USEATTRHIGHLIGHTING?$AA@ 100067ec     flags.obj
 0001:00005808       ??_C@_0O@JHHHMHIG@OPIF_USECRC32?$AA@ 10006808     flags.obj
 0001:00005818       ??_C@_0BB@PFDFAFHG@OPIF_USEFREESIZE?$AA@ 10006818     flags.obj
 0001:0000582c       ??_C@_0O@FJPLJDBC@OPIF_SHORTCUT?$AA@ 1000682c     flags.obj
 0001:0000583c       ??_C@_09DOPJBMLM@OPIF_NONE?$AA@ 1000683c     flags.obj
 0001:00005848       ??_C@_0L@GEHHKNBL@OPM_SILENT?$AA@ 10006848     flags.obj
 0001:00005854       ??_C@_08EKEBOKEP@OPM_FIND?$AA@ 10006854     flags.obj
 0001:00005860       ??_C@_08EHBLNDLO@OPM_VIEW?$AA@ 10006860     flags.obj
 0001:0000586c       ??_C@_08LAAGEMJG@OPM_EDIT?$AA@ 1000686c     flags.obj
 0001:00005878       ??_C@_0N@NDGKAFDM@OPM_TOPLEVEL?$AA@ 10006878     flags.obj
 0001:00005888       ??_C@_09EBKAPHPA@OPM_DESCR?$AA@ 10006888     flags.obj
 0001:00005894       ??_C@_0O@OPDAGBBE@OPM_QUICKVIEW?$AA@ 10006894     flags.obj
 0001:000058a4       ??_C@_08LCEGJCAC@OPM_PGDN?$AA@ 100068a4     flags.obj
 0001:000058b0       ??_C@_0N@HKCLLJDG@OPM_COMMANDS?$AA@ 100068b0     flags.obj
 0001:000058c0       ??_C@_08EGEBMPBD@OPM_NONE?$AA@ 100068c0     flags.obj
 0001:000058cc       ??_C@_0M@MIGJPBPE@FOSF_ACTIVE?$AA@ 100068cc     flags.obj
 0001:000058d8       ??_C@_09FMOOJHDF@FOSF_NONE?$AA@ 100068d8     flags.obj
 0001:000058e4       ??_C@_0O@PLFENGLI@PCIF_FROMMAIN?$AA@ 100068e4     flags.obj
 0001:000058f4       ??_C@_09HNBBLIGN@PCIF_NONE?$AA@ 100068f4     flags.obj
 0001:00005900       ??_C@_0BA@MAEBFMHC@FOREGROUND_BLUE?$AA@ 10006900     flags.obj
 0001:00005910       ??_C@_0BB@PDFNMAI@FOREGROUND_GREEN?$AA@ 10006910     flags.obj
 0001:00005924       ??_C@_0P@PBJHCFGA@FOREGROUND_RED?$AA@ 10006924     flags.obj
 0001:00005934       ??_C@_0BF@OOGEJCC@FOREGROUND_INTENSITY?$AA@ 10006934     flags.obj
 0001:0000594c       ??_C@_0BA@PIFINJCK@BACKGROUND_BLUE?$AA@ 1000694c     flags.obj
 0001:0000595c       ??_C@_0BB@GKLNBMEL@BACKGROUND_GREEN?$AA@ 1000695c     flags.obj
 0001:00005970       ??_C@_0P@DANALJMC@BACKGROUND_RED?$AA@ 10006970     flags.obj
 0001:00005980       ??_C@_0BF@NIGKKPCF@BACKGROUND_INTENSITY?$AA@ 10006980     flags.obj
 0001:00005998       ??_C@_0N@FEFOEFHG@CTRL_C_EVENT?$AA@ 10006998     flags.obj
 0001:000059a8       ??_C@_0BB@ELEIIFAE@CTRL_BREAK_EVENT?$AA@ 100069a8     flags.obj
 0001:000059bc       ??_C@_0BB@KMPDMOKK@CTRL_CLOSE_EVENT?$AA@ 100069bc     flags.obj
 0001:000059d0       ??_C@_0BC@MCKCEPAL@CTRL_LOGOFF_EVENT?$AA@ 100069d0     flags.obj
 0001:000059e4       ??_C@_0BE@BCNEFGKM@CTRL_SHUTDOWN_EVENT?$AA@ 100069e4     flags.obj
 0001:000059f8       ??_C@_0BC@BBOPHMOM@ENABLE_LINE_INPUT?$AA@ 100069f8     flags.obj
 0001:00005a0c       ??_C@_0BC@JPFKLHOC@ENABLE_ECHO_INPUT?$AA@ 10006a0c     flags.obj
 0001:00005a20       ??_C@_0BH@EHINFMOF@ENABLE_PROCESSED_INPUT?$AA@ 10006a20     flags.obj
 0001:00005a38       ??_C@_0BE@BLAHACNB@ENABLE_WINDOW_INPUT?$AA@ 10006a38     flags.obj
 0001:00005a4c       ??_C@_0BD@BJECBJPO@ENABLE_MOUSE_INPUT?$AA@ 10006a4c     flags.obj
 0001:00005a60       ??_C@_0BD@KJBPOMPN@ENABLE_INSERT_MODE?$AA@ 10006a60     flags.obj
 0001:00005a74       ??_C@_0BH@BJKMFKAO@ENABLE_QUICK_EDIT_MODE?$AA@ 10006a74     flags.obj
 0001:00005a8c       ??_C@_0BG@CBCHHIEH@ENABLE_EXTENDED_FLAGS?$AA@ 10006a8c     flags.obj
 0001:00005aa4       ??_C@_0BF@PEBFEBKN@ENABLE_AUTO_POSITION?$AA@ 10006aa4     flags.obj
 0001:00005abc       ??_C@_0BI@MHKNPIFM@ENABLE_PROCESSED_OUTPUT?$AA@ 10006abc     flags.obj
 0001:00005ad4       ??_C@_0BK@CDKLKCHJ@ENABLE_WRAP_AT_EOL_OUTPUT?$AA@ 10006ad4     flags.obj
 0001:00005af0       ??_C@_09JBABGNAE@KEY_EVENT?$AA@ 10006af0     flags.obj
 0001:00005afc       ??_C@_0M@CPILDGOO@MOUSE_EVENT?$AA@ 10006afc     flags.obj
 0001:00005b08       ??_C@_0BJ@OHDOHJKG@WINDOW_BUFFER_SIZE_EVENT?$AA@ 10006b08     flags.obj
 0001:00005b24       ??_C@_0L@MPODFLFH@MENU_EVENT?$AA@ 10006b24     flags.obj
 0001:00005b30       ??_C@_0M@LNGHCCGJ@FOCUS_EVENT?$AA@ 10006b30     flags.obj
 0001:00005b3c       ??_C@_0M@MKBGBFGO@CAPSLOCK_ON?$AA@ 10006b3c     flags.obj
 0001:00005b48       ??_C@_0N@EMEOEKDA@ENHANCED_KEY?$AA@ 10006b48     flags.obj
 0001:00005b58       ??_C@_0BC@GDHABBAP@RIGHT_ALT_PRESSED?$AA@ 10006b58     flags.obj
 0001:00005b6c       ??_C@_0BB@MCADLJJO@LEFT_ALT_PRESSED?$AA@ 10006b6c     flags.obj
 0001:00005b80       ??_C@_0BD@NEHHNAHO@RIGHT_CTRL_PRESSED?$AA@ 10006b80     flags.obj
 0001:00005b94       ??_C@_0BC@FDNOAAAE@LEFT_CTRL_PRESSED?$AA@ 10006b94     flags.obj
 0001:00005ba8       ??_C@_0O@OGDFJMBK@SHIFT_PRESSED?$AA@ 10006ba8     flags.obj
 0001:00005bb8       ??_C@_0L@IMGKKBIM@NUMLOCK_ON?$AA@ 10006bb8     flags.obj
 0001:00005bc4       ??_C@_0O@LAHFNPLG@SCROLLLOCK_ON?$AA@ 10006bc4     flags.obj
 0001:00005bd4       ??_C@_0BN@HACKHGAB@FROM_LEFT_1ST_BUTTON_PRESSED?$AA@ 10006bd4     flags.obj
 0001:00005bf4       ??_C@_0BJ@JECFAJNJ@RIGHTMOST_BUTTON_PRESSED?$AA@ 10006bf4     flags.obj
 0001:00005c10       ??_C@_0BN@BJCFPKCG@FROM_LEFT_2ND_BUTTON_PRESSED?$AA@ 10006c10     flags.obj
 0001:00005c30       ??_C@_0BN@PMJNFPGM@FROM_LEFT_3RD_BUTTON_PRESSED?$AA@ 10006c30     flags.obj
 0001:00005c50       ??_C@_0BN@CNMHAAPD@FROM_LEFT_4TH_BUTTON_PRESSED?$AA@ 10006c50     flags.obj
 0001:00005c70       ??_C@_0M@KKBDEELB@MOUSE_MOVED?$AA@ 10006c70     flags.obj
 0001:00005c7c       ??_C@_0N@EDCKBGJE@DOUBLE_CLICK?$AA@ 10006c7c     flags.obj
 0001:00005c8c       ??_C@_0O@GABDOPO@MOUSE_WHEELED?$AA@ 10006c8c     flags.obj
 0001:00006c90       ??_C@_06ICDCBJPI@Colors?$AA@ 10007c90     keysandcolors.obj
 0001:00007460       ??_C@_01EEMJAFIK@?6?$AA@   10008460     lflua.obj
 0001:00007464       ??_C@_0BB@BJDGDOHH@cannot?5?$CFs?5?$CFs?3?5?$CFs?$AA@ 10008464     lflua.obj
 0001:00007478       ??_C@_03PKPBNCAL@?o?$LL?$LP?$AA@ 10008478     lflua.obj
 0001:0000747c       ??_C@_06CCPPALKB@?$DNstdin?$AA@ 1000847c     lflua.obj
 0001:00007484       ??_C@_01EOFPKCAF@?$EA?$AA@ 10008484     lflua.obj
 0001:00007488       ??_C@_13BPINEIPE@?$AAr?$AA?$AA@ 10008488     lflua.obj
 0001:0000748c       ??_C@_04PMOCAHAA@open?$AA@ 1000848c     lflua.obj
 0001:00007494       ??_C@_15JJPIMNBO@?$AAr?$AAb?$AA?$AA@ 10008494     lflua.obj
 0001:0000749c       ??_C@_06IEGCHAII@reopen?$AA@ 1000849c     lflua.obj
 0001:000074a4       ??_C@_04POLDLDMI@read?$AA@ 100084a4     lflua.obj
 0001:000074ac       ??_C@_02LOCGON@?$AA?$AA?$AA@ 100084ac     lflua.obj
 0001:00007a68       _regex_methods             10008a68     lregex.obj
 0001:00007ab8       _regex_functions           10008ab8     lregex.obj
 0001:00007d18       ??_C@_04CKFJHKAP@find?$AA@ 10008d18     lregex.obj
 0001:00007d20       ??_C@_04GOLEAPFD@gsub?$AA@ 10008d20     lregex.obj
 0001:00007d28       ??_C@_05FNONLPDI@match?$AA@ 10008d28     lregex.obj
 0001:00007d30       ??_C@_05GFGPIPHI@findW?$AA@ 10008d30     lregex.obj
 0001:00007d38       ??_C@_05HPGHPNC@gsubW?$AA@ 10008d38     lregex.obj
 0001:00007d40       ??_C@_06NNKFJOLC@matchW?$AA@ 10008d40     lregex.obj
 0001:00007d48       ??_C@_0O@OJAOCNID@bracketscount?$AA@ 10008d48     lregex.obj
 0001:00007d58       ??_C@_04BDLIKKMN@__gc?$AA@ 10008d58     lregex.obj
 0001:00007d60       ??_C@_06DPFCLDIO@gmatch?$AA@ 10008d60     lregex.obj
 0001:00007d68       ??_C@_07PPMFDHAH@gmatchW?$AA@ 10008d68     lregex.obj
 0001:00007d70       ??_C@_09KIEPBIJC@far_regex?$AA@ 10008d70     lregex.obj
 0001:00007d7c       ??_C@_0BO@PBOFMCLL@attempt?5to?5access?5freed?5regex?$AA@ 10008d7c     lregex.obj
 0001:00007d9c       ??_C@_07IHINEPFG@?$CFs?5?$CI?$CFp?$CJ?$AA@ 10008d9c     lregex.obj
 0001:00007da4       ??_C@_01KMDKNFGN@?1?$AA@   10008da4     lregex.obj
 0001:00007da8       ??_C@_0BE@BBBEAHLK@RECTL_CREATE?5failed?$AA@ 10008da8     lregex.obj
 0001:00007dbc       ??_C@_0BL@HEFMPIBG@invalid?5regular?5expression?$AA@ 10008dbc     lregex.obj
 0001:00007dd8       ??_C@_0BM@MOHHGMBK@string?5or?5table?5or?5function?$AA@ 10008dd8     lregex.obj
 0001:00007df4       ??_C@_0CG@IDFLGMFM@replace?5string?3?5invalid?5capture?5@ 10008df4     lregex.obj
 0001:00007e1c       ??_C@_0BJ@IMAIDFKH@invalid?5replacement?5type?$AA@ 10008e1c     lregex.obj
 0001:00007e38       ??_C@_0BE@KPDOHKBE@invalid?5return?5type?$AA@ 10008e38     lregex.obj
 0001:00007e4c       ??_C@_07NHABFFHN@__index?$AA@ 10008e4c     lregex.obj
 0001:00007e54       ??_C@_05FGAODPCE@regex?$AA@ 10008e54     lregex.obj
 0001:00008638       ??_C@_0BC@PMGNICBE@MacroPluginReturn?$AA@ 10009638     luamacro.obj
 0001:0000864c       ??_C@_02JIEIHMJD@wl?$AA@   1000964c     luamacro.obj
 0001:00008650       ??_C@_15PMCGDJNJ@?$AAO?$AAK?$AA?$AA@ 10009650     luamacro.obj
 0001:00008658       ??_C@_1BC@GBFPAMBP@?$AAL?$AAu?$AAa?$AAM?$AAa?$AAc?$AAr?$AAo?$AA?$AA@ 10009658     luamacro.obj
 0001:00008670       ??_C@_1FA@DAFHIDEP@?$AAt?$AAo?$AAo?$AA?5?$AAm?$AAa?$AAn?$AAy?$AA?5?$AAv?$AAa?$AAl?$AAu?$AAe?$AAs?$AA?5?$AAt?$AAo?$AA?5?$AAp?$AAl?$AAa?$AAc?$AAe?$AA?5?$AAo?$AAn?$AAt?$AAo?$AA?5?$AAL?$AAu@ 10009670     luamacro.obj
 0001:000086c0       ??_C@_0BD@IOJAAODF@too?5many?5arguments?$AA@ 100096c0     luamacro.obj
 0001:000086d4       ??_C@_0BN@ICDOMFBB@invalid?5argument?5?$CD?$CFd?5to?5?8?$CFs?8?$AA@ 100096d4     luamacro.obj
 0001:000086f4       ??_C@_0BB@FCMFBGOM@invalid?5argument?$AA@ 100096f4     luamacro.obj
 0001:00008708       ??_C@_0CI@IMKOFGKJ@too?5many?5values?5to?5place?5onto?5Lu@ 10009708     luamacro.obj
 0001:00008868       _usercontrol_methods       10009868     lusercontrol.obj
 0001:00008890       _usercontrol_functions     10009890     lusercontrol.obj
 0001:00008f30       ??_C@_05MNDELLDN@__len?$AA@ 10009f30     lusercontrol.obj
 0001:00008f38       ??_C@_0L@GADKNKH@__newindex?$AA@ 10009f38     lusercontrol.obj
 0001:00008f44       ??_C@_0BC@KFJDHEIC@CreateUserControl?$AA@ 10009f44     lusercontrol.obj
 0001:00008f58       ??_C@_0BA@MDNLMOMP@far_usercontrol?$AA@ 10009f58     lusercontrol.obj
 0001:00008f68       ??_C@_0BH@DOPNHMGD@bounds?5checking?5failed?$AA@ 10009f68     lusercontrol.obj
 0001:00008f80       ??_C@_04IMAAEPPE@Char?$AA@ 10009f80     lusercontrol.obj
 0001:00008f88       ??_C@_0L@PLFFHFAH@Attributes?$AA@ 10009f88     lusercontrol.obj
 0001:00008f94       ??_C@_0BD@BPIMECDH@X?5must?5be?5positive?$AA@ 10009f94     lusercontrol.obj
 0001:00008fa8       ??_C@_0BD@MIGOMCGP@Y?5must?5be?5positive?$AA@ 10009fa8     lusercontrol.obj
 0001:00009210       _timer_methods             1000a210     service.obj
 0001:00009240       _filefilter_methods        1000a240     service.obj
 0001:000092b0       _dialog_methods            1000a2b0     service.obj
 0001:000092d0       _Settings_methods          1000a2d0     service.obj
 0001:00009350       _editor_funcs              1000a350     service.obj
 0001:00009598       _viewer_funcs              1000a598     service.obj
 0001:000095f0       _panel_funcs               1000a5f0     service.obj
 0001:00009780       _far_funcs                 1000a780     service.obj
 0001:00009b00       _far_Dialog                1000ab00     service.obj
 0001:00009ea0       _FarFileFilterType         1000aea0     service.obj
 0001:00009eb0       _FarTimerType              1000aeb0     service.obj
 0001:00009ebc       _FarDialogType             1000aebc     service.obj
 0001:00009ec8       _SettingsType              1000aec8     service.obj
 0001:00009ed4       _SettingsHandles           1000aed4     service.obj
 0001:00009ee8       _PluginHandleType          1000aee8     service.obj
 0001:00009ef8       _FAR_VIRTUALKEYS           1000aef8     service.obj
 0001:00009f08       _FAR_FLAGSTABLE            1000af08     service.obj
 0001:0000a068       ??_C@_0P@LKPINHLK@FreeFileFilter?$AA@ 1000b068     service.obj
 0001:0000a078       ??_C@_0BA@JGEOEAE@OpenFiltersMenu?$AA@ 1000b078     service.obj
 0001:0000a088       ??_C@_0BB@OPPOFOAK@StartingToFilter?$AA@ 1000b088     service.obj
 0001:0000a09c       ??_C@_0P@JDMCHDIM@IsFileInFilter?$AA@ 1000b09c     service.obj
 0001:0000a0ac       ??_C@_06JBKGCNBB@Delete?$AA@ 1000b0ac     service.obj
 0001:0000a0b4       ??_C@_04PAFOOALK@Enum?$AA@ 1000b0b4     service.obj
 0001:0000a0bc       ??_C@_04HJMOFLDF@Free?$AA@ 1000b0bc     service.obj
 0001:0000a0c4       ??_C@_03NNDHPFFO@Get?$AA@  1000b0c4     service.obj
 0001:0000a0c8       ??_C@_03CEMDFJG@Set?$AA@   1000b0c8     service.obj
 0001:0000a0cc       ??_C@_0N@OELJMCEC@CreateSubkey?$AA@ 1000b0cc     service.obj
 0001:0000a0dc       ??_C@_0L@CPCKAMD@OpenSubkey?$AA@ 1000b0dc     service.obj
 0001:0000a0e8       ??_C@_08EGJLHNCO@AddColor?$AA@ 1000b0e8     service.obj
 0001:0000a0f4       ??_C@_0BD@DOFEEDDC@AddSessionBookmark?$AA@ 1000b0f4     service.obj
 0001:0000a108       ??_C@_0BG@IGFHDIIN@ClearSessionBookmarks?$AA@ 1000b108     service.obj
 0001:0000a120       ??_C@_08PDEJHGJI@DelColor?$AA@ 1000b120     service.obj
 0001:0000a12c       ??_C@_0M@LPIECDD@DeleteBlock?$AA@ 1000b12c     service.obj
 0001:0000a138       ??_C@_0L@BCLIBKOC@DeleteChar?$AA@ 1000b138     service.obj
 0001:0000a144       ??_C@_0BG@KOELEFCN@DeleteSessionBookmark?$AA@ 1000b144     service.obj
 0001:0000a15c       ??_C@_0N@EKENACAE@DeleteString?$AA@ 1000b15c     service.obj
 0001:0000a16c       ??_C@_06MJDIICIN@Editor?$AA@ 1000b16c     service.obj
 0001:0000a174       ??_C@_0L@HDLPOLMA@ExpandTabs?$AA@ 1000b174     service.obj
 0001:0000a180       ??_C@_0N@MGAOADJN@GetBookmarks?$AA@ 1000b180     service.obj
 0001:0000a190       ??_C@_08JOPFJIPE@GetColor?$AA@ 1000b190     service.obj
 0001:0000a19c       ??_C@_0M@FECPLAMN@GetFileName?$AA@ 1000b19c     service.obj
 0001:0000a1a8       ??_C@_07NAJNLNAF@GetInfo?$AA@ 1000b1a8     service.obj
 0001:0000a1b0       ??_C@_0N@KIILHCLH@GetSelection?$AA@ 1000b1b0     service.obj
 0001:0000a1c0       ??_C@_0BE@LBJJGOGD@GetSessionBookmarks?$AA@ 1000b1c0     service.obj
 0001:0000a1d4       ??_C@_09HBLKHMEA@GetString?$AA@ 1000b1d4     service.obj
 0001:0000a1e0       ??_C@_0L@IDFHDAHP@GetStringW?$AA@ 1000b1e0     service.obj
 0001:0000a1ec       ??_C@_0N@ICPGLOEG@InsertString?$AA@ 1000b1ec     service.obj
 0001:0000a1fc       ??_C@_0L@JMOIGJIA@InsertText?$AA@ 1000b1fc     service.obj
 0001:0000a208       ??_C@_0M@BINOKANK@InsertTextW?$AA@ 1000b208     service.obj
 0001:0000a214       ??_C@_0BE@CNGODNDI@NextSessionBookmark?$AA@ 1000b214     service.obj
 0001:0000a228       ??_C@_0BE@IEBIGOAP@PrevSessionBookmark?$AA@ 1000b228     service.obj
 0001:0000a23c       ??_C@_0N@FNCEPAJJ@ProcessInput?$AA@ 1000b23c     service.obj
 0001:0000a24c       ??_C@_04GMBKPCGK@Quit?$AA@ 1000b24c     service.obj
 0001:0000a254       ??_C@_09KINLOJJJ@ReadInput?$AA@ 1000b254     service.obj
 0001:0000a260       ??_C@_09DBPLBJBJ@RealToTab?$AA@ 1000b260     service.obj
 0001:0000a26c       ??_C@_06KAPLBEK@Redraw?$AA@ 1000b26c     service.obj
 0001:0000a274       ??_C@_08FBDDPFPJ@SaveFile?$AA@ 1000b274     service.obj
 0001:0000a280       ??_C@_06HJGPBJLE@Select?$AA@ 1000b280     service.obj
 0001:0000a288       ??_C@_09PPEOOGEC@SetKeyBar?$AA@ 1000b288     service.obj
 0001:0000a294       ??_C@_08CCKJEGOF@SetParam?$AA@ 1000b294     service.obj
 0001:0000a2a0       ??_C@_0M@GKIFPNAD@SetPosition?$AA@ 1000b2a0     service.obj
 0001:0000a2ac       ??_C@_09FPPPFNNC@SetString?$AA@ 1000b2ac     service.obj
 0001:0000a2b8       ??_C@_0L@JNHIIHDG@SetStringW?$AA@ 1000b2b8     service.obj
 0001:0000a2c4       ??_C@_08GMCCAJLF@SetTitle?$AA@ 1000b2c4     service.obj
 0001:0000a2d0       ??_C@_0BF@LIMPGNED@SubscribeChangeEvent?$AA@ 1000b2d0     service.obj
 0001:0000a2e8       ??_C@_09JFBCONJH@TabToReal?$AA@ 1000b2e8     service.obj
 0001:0000a2f4       ??_C@_08IBJJAHJG@UndoRedo?$AA@ 1000b2f4     service.obj
 0001:0000a300       ??_C@_07JMDLHPJF@SetMode?$AA@ 1000b300     service.obj
 0001:0000a308       ??_C@_06PJECNADJ@Viewer?$AA@ 1000b308     service.obj
 0001:0000a310       ??_C@_0BB@PJGDGIKA@CheckPanelsExist?$AA@ 1000b310     service.obj
 0001:0000a324       ??_C@_0P@DFBDDHFA@ClearSelection?$AA@ 1000b324     service.obj
 0001:0000a334       ??_C@_0L@KOHCMOPM@GetCmdLine?$AA@ 1000b334     service.obj
 0001:0000a340       ??_C@_0O@NLDIMJEA@GetCmdLinePos?$AA@ 1000b340     service.obj
 0001:0000a350       ??_C@_0BE@CBPLLCEH@GetCmdLineSelection?$AA@ 1000b350     service.obj
 0001:0000a364       ??_C@_0P@CMFANDFM@GetColumnTypes?$AA@ 1000b364     service.obj
 0001:0000a374       ??_C@_0BA@DJGLDCBG@GetColumnWidths?$AA@ 1000b374     service.obj
 0001:0000a384       ??_C@_0BE@JPAIJBCI@GetCurrentPanelItem?$AA@ 1000b384     service.obj
 0001:0000a398       ??_C@_0BC@NGKPIKGL@GetPanelDirectory?$AA@ 1000b398     service.obj
 0001:0000a3ac       ??_C@_0P@GODLFFFJ@GetPanelFormat?$AA@ 1000b3ac     service.obj
 0001:0000a3bc       ??_C@_0BB@LCMBHPNI@GetPanelHostFile?$AA@ 1000b3bc     service.obj
 0001:0000a3d0       ??_C@_0N@HPIPGDFA@GetPanelInfo?$AA@ 1000b3d0     service.obj
 0001:0000a3e0       ??_C@_0N@HAFLAIHA@GetPanelItem?$AA@ 1000b3e0     service.obj
 0001:0000a3f0       ??_C@_0P@HCBKDPMP@GetPanelPrefix?$AA@ 1000b3f0     service.obj
 0001:0000a400       ??_C@_0BF@MEMFMMGB@GetSelectedPanelItem?$AA@ 1000b400     service.obj
 0001:0000a418       ??_C@_0O@HEGDGAJG@GetUserScreen?$AA@ 1000b418     service.obj
 0001:0000a428       ??_C@_0O@EHOCCHAL@InsertCmdLine?$AA@ 1000b428     service.obj
 0001:0000a438       ??_C@_0O@OMMHIHHH@IsActivePanel?$AA@ 1000b438     service.obj
 0001:0000a448       ??_C@_0M@LCEPDNPK@RedrawPanel?$AA@ 1000b448     service.obj
 0001:0000a454       ??_C@_0P@OPKJJMLB@SetActivePanel?$AA@ 1000b454     service.obj
 0001:0000a464       ??_C@_0BF@LKMKIFPG@SetCaseSensitiveSort?$AA@ 1000b464     service.obj
 0001:0000a47c       ??_C@_0L@LAFNHJLF@SetCmdLine?$AA@ 1000b47c     service.obj
 0001:0000a488       ??_C@_0O@KECGHKDH@SetCmdLinePos?$AA@ 1000b488     service.obj
 0001:0000a498       ??_C@_0BE@IPNAPCDL@SetCmdLineSelection?$AA@ 1000b498     service.obj
 0001:0000a4ac       ??_C@_0BE@PAPEKLCP@SetDirectoriesFirst?$AA@ 1000b4ac     service.obj
 0001:0000a4c0       ??_C@_0P@NPNKOENM@SetNumericSort?$AA@ 1000b4c0     service.obj
 0001:0000a4d0       ??_C@_0BC@PDKEABHF@SetPanelDirectory?$AA@ 1000b4d0     service.obj
 0001:0000a4e4       ??_C@_0N@NMDFLOPL@SetSelection?$AA@ 1000b4e4     service.obj
 0001:0000a4f4       ??_C@_0M@CMMMGIDG@SetSortMode?$AA@ 1000b4f4     service.obj
 0001:0000a500       ??_C@_0N@HCHLALN@SetSortOrder?$AA@ 1000b500     service.obj
 0001:0000a510       ??_C@_0O@LHNNDOB@SetUserScreen?$AA@ 1000b510     service.obj
 0001:0000a520       ??_C@_0M@IENJPEBA@SetViewMode?$AA@ 1000b520     service.obj
 0001:0000a52c       ??_C@_0M@EICBHAOA@UpdatePanel?$AA@ 1000b52c     service.obj
 0001:0000a538       ??_C@_0BC@BIIKJLKB@PluginStartupInfo?$AA@ 1000b538     service.obj
 0001:0000a54c       ??_C@_0L@PJAHNOGM@DialogInit?$AA@ 1000b54c     service.obj
 0001:0000a558       ??_C@_09DBEDLMHB@DialogRun?$AA@ 1000b558     service.obj
 0001:0000a564       ??_C@_0L@DLFLHLOO@DialogFree?$AA@ 1000b564     service.obj
 0001:0000a570       ??_C@_0P@HLOFPDFP@SendDlgMessage?$AA@ 1000b570     service.obj
 0001:0000a580       ??_C@_0L@CKELNLCE@GetDlgItem?$AA@ 1000b580     service.obj
 0001:0000a58c       ??_C@_0L@DEGEGMGN@SetDlgItem?$AA@ 1000b58c     service.obj
 0001:0000a598       ??_C@_0L@MCFABBED@GetDirList?$AA@ 1000b598     service.obj
 0001:0000a5a4       ??_C@_06KCCBBIBJ@GetMsg?$AA@ 1000b5a4     service.obj
 0001:0000a5ac       ??_C@_0BB@HIDBFOJJ@GetPluginDirList?$AA@ 1000b5ac     service.obj
 0001:0000a5c0       ??_C@_04IFEHPILC@Menu?$AA@ 1000b5c0     service.obj
 0001:0000a5c8       ??_C@_07BEIHKDLJ@Message?$AA@ 1000b5c8     service.obj
 0001:0000a5d0       ??_C@_0O@CGLFPNOD@RestoreScreen?$AA@ 1000b5d0     service.obj
 0001:0000a5e0       ??_C@_0L@PGGGPLFK@SaveScreen?$AA@ 1000b5e0     service.obj
 0001:0000a5ec       ??_C@_08DAHHHDJC@ShowHelp?$AA@ 1000b5ec     service.obj
 0001:0000a5f8       ??_C@_08IAADAJIH@InputBox?$AA@ 1000b5f8     service.obj
 0001:0000a604       ??_C@_0L@HHLOIHOP@AdvControl?$AA@ 1000b604     service.obj
 0001:0000a610       ??_C@_0N@GHGEMEN@MacroLoadAll?$AA@ 1000b610     service.obj
 0001:0000a620       ??_C@_0N@NAGBAPAE@MacroSaveAll?$AA@ 1000b620     service.obj
 0001:0000a630       ??_C@_0O@KGHDMPAJ@MacroGetState?$AA@ 1000b630     service.obj
 0001:0000a640       ??_C@_0N@PNLHCOIE@MacroGetArea?$AA@ 1000b640     service.obj
 0001:0000a650       ??_C@_09KGKKBHMO@MacroPost?$AA@ 1000b650     service.obj
 0001:0000a65c       ??_C@_0L@KBAKOGFP@MacroCheck?$AA@ 1000b65c     service.obj
 0001:0000a668       ??_C@_08KAFLEHAN@MacroAdd?$AA@ 1000b668     service.obj
 0001:0000a674       ??_C@_0M@KFMHCNNB@MacroDelete?$AA@ 1000b674     service.obj
 0001:0000a680       ??_C@_0BC@MJDKBAPF@MacroGetLastError?$AA@ 1000b680     service.obj
 0001:0000a694       ??_C@_0N@COEPENFH@MacroExecute?$AA@ 1000b694     service.obj
 0001:0000a6a4       ??_C@_0BB@BICELPOF@CreateFileFilter?$AA@ 1000b6a4     service.obj
 0001:0000a6b8       ??_C@_0L@CHJBHF@LoadPlugin?$AA@ 1000b6b8     service.obj
 0001:0000a6c4       ??_C@_0N@DHIONCLI@UnloadPlugin?$AA@ 1000b6c4     service.obj
 0001:0000a6d4       ??_C@_0BB@IJHIBGJA@ForcedLoadPlugin?$AA@ 1000b6d4     service.obj
 0001:0000a6e8       ??_C@_0L@DACPHGGH@FindPlugin?$AA@ 1000b6e8     service.obj
 0001:0000a6f4       ??_C@_0BF@KLOGLFMF@GetPluginInformation?$AA@ 1000b6f4     service.obj
 0001:0000a70c       ??_C@_0L@JIDCIJHM@GetPlugins?$AA@ 1000b70c     service.obj
 0001:0000a718       ??_C@_0P@IKAEEPOB@IsPluginLoaded?$AA@ 1000b718     service.obj
 0001:0000a728       ??_C@_0P@HMKEDHIE@CreateSettings?$AA@ 1000b728     service.obj
 0001:0000a738       ??_C@_0N@GOMOBHDB@FreeSettings?$AA@ 1000b738     service.obj
 0001:0000a748       ??_C@_0M@IFKFGKML@ColorDialog?$AA@ 1000b748     service.obj
 0001:0000a754       ??_C@_0BA@EOCNNPOG@CopyToClipboard?$AA@ 1000b754     service.obj
 0001:0000a764       ??_C@_0BD@PLIHDKFC@PasteFromClipboard?$AA@ 1000b764     service.obj
 0001:0000a778       ??_C@_0BC@FJDIKOMH@InputRecordToName?$AA@ 1000b778     service.obj
 0001:0000a78c       ??_C@_0BC@FFNOIDFI@NameToInputRecord?$AA@ 1000b78c     service.obj
 0001:0000a7a0       ??_C@_08HGLFNLMB@LStricmp?$AA@ 1000b7a0     service.obj
 0001:0000a7ac       ??_C@_09GALOFBAC@LStrnicmp?$AA@ 1000b7ac     service.obj
 0001:0000a7b8       ??_C@_0M@KPPMMAOL@ProcessName?$AA@ 1000b7b8     service.obj
 0001:0000a7c4       ??_C@_0M@KFCNKLDK@GetPathRoot?$AA@ 1000b7c4     service.obj
 0001:0000a7d0       ??_C@_0BE@EPGHGPJC@GetReparsePointInfo?$AA@ 1000b7d0     service.obj
 0001:0000a7e4       ??_C@_08DNJCLFF@LIsAlpha?$AA@ 1000b7e4     service.obj
 0001:0000a7f0       ??_C@_0M@LKJIEECA@LIsAlphanum?$AA@ 1000b7f0     service.obj
 0001:0000a7fc       ??_C@_08MAHKICD@LIsLower?$AA@ 1000b7fc     service.obj
 0001:0000a808       ??_C@_08FHLJMDJK@LIsUpper?$AA@ 1000b808     service.obj
 0001:0000a814       ??_C@_09LPKAHGM@LLowerBuf?$AA@ 1000b814     service.obj
 0001:0000a820       ??_C@_09GLKFOOEP@LUpperBuf?$AA@ 1000b820     service.obj
 0001:0000a82c       ??_C@_06ILCHIEBO@MkTemp?$AA@ 1000b82c     service.obj
 0001:0000a834       ??_C@_06DKBBJCCG@MkLink?$AA@ 1000b834     service.obj
 0001:0000a83c       ??_C@_0N@CCDDAJK@TruncPathStr?$AA@ 1000b83c     service.obj
 0001:0000a84c       ??_C@_08BNEIIKEJ@TruncStr?$AA@ 1000b84c     service.obj
 0001:0000a858       ??_C@_0BA@CLEHBIPM@RecursiveSearch?$AA@ 1000b858     service.obj
 0001:0000a868       ??_C@_0M@HKHGOOHG@ConvertPath?$AA@ 1000b868     service.obj
 0001:0000a874       ??_C@_04OCDKHGII@XLat?$AA@ 1000b874     service.obj
 0001:0000a87c       ??_C@_0P@BGLLKGOI@FormatFileSize?$AA@ 1000b87c     service.obj
 0001:0000a88c       ??_C@_0BD@ELMHPHAC@CPluginStartupInfo?$AA@ 1000b88c     service.obj
 0001:0000a8a0       ??_C@_0BE@DJLJEKBK@GetCurrentDirectory?$AA@ 1000b8a0     service.obj
 0001:0000a8b4       ??_C@_0N@MOMBJEKA@GetFileOwner?$AA@ 1000b8b4     service.obj
 0001:0000a8c4       ??_C@_0BB@JBNBALEM@GetNumberOfLinks?$AA@ 1000b8c4     service.obj
 0001:0000a8d8       ??_C@_0O@EFLBAKBJ@LuafarVersion?$AA@ 1000b8d8     service.obj
 0001:0000a8e8       ??_C@_0O@BJEAJNBH@MakeMenuItems?$AA@ 1000b8e8     service.obj
 0001:0000a8f8       ??_C@_04JLAJABDJ@Show?$AA@ 1000b8f8     service.obj
 0001:0000a900       ??_C@_05NHFJDMOA@Timer?$AA@ 1000b900     service.obj
 0001:0000a908       ??_C@_02KFNNKBCK@io?$AA@   1000b908     service.obj
 0001:0000a90c       ??_C@_02EHCHIAMF@os?$AA@   1000b90c     service.obj
 0001:0000a910       ??_C@_04CFDJAKFL@math?$AA@ 1000b910     service.obj
 0001:0000a918       ??_C@_07GAJMMAJO@unicode?$AA@ 1000b918     service.obj
 0001:0000a920       ??_C@_03JECLAOEA@win?$AA@  1000b920     service.obj
 0001:0000a924       ??_C@_0M@PLOBHAKE@luaopen_bit?$AA@ 1000b924     service.obj
 0001:0000a930       ??_C@_0M@IALDMMNC@luaopen_ffi?$AA@ 1000b930     service.obj
 0001:0000a93c       ??_C@_0M@DOFFFIEL@luaopen_jit?$AA@ 1000b93c     service.obj
 0001:0000a948       ??_C@_07PHPIFDKI@LBUTTON?$AA@ 1000b948     service.obj
 0001:0000a950       ??_C@_07JOMJHALB@RBUTTON?$AA@ 1000b950     service.obj
 0001:0000a958       ??_C@_06JHILMIHF@CANCEL?$AA@ 1000b958     service.obj
 0001:0000a960       ??_C@_07DLFCFDDG@MBUTTON?$AA@ 1000b960     service.obj
 0001:0000a968       ??_C@_08OPILMHEG@XBUTTON1?$AA@ 1000b968     service.obj
 0001:0000a974       ??_C@_08MEKGJEIF@XBUTTON2?$AA@ 1000b974     service.obj
 0001:0000a980       ??_C@_04FJBHJJME@BACK?$AA@ 1000b980     service.obj
 0001:0000a988       ??_C@_03CJMDHCGG@TAB?$AA@  1000b988     service.obj
 0001:0000a98c       ??_C@_05PONODPI@CLEAR?$AA@ 1000b98c     service.obj
 0001:0000a994       ??_C@_06LJMOENAO@RETURN?$AA@ 1000b994     service.obj
 0001:0000a99c       ??_C@_05OAHIEJBI@SHIFT?$AA@ 1000b99c     service.obj
 0001:0000a9a4       ??_C@_07DBEDOPMC@CONTROL?$AA@ 1000b9a4     service.obj
 0001:0000a9ac       ??_C@_04IILMDFMO@MENU?$AA@ 1000b9ac     service.obj
 0001:0000a9b4       ??_C@_05DIAHPDGL@PAUSE?$AA@ 1000b9b4     service.obj
 0001:0000a9bc       ??_C@_07OPCFNGJB@CAPITAL?$AA@ 1000b9bc     service.obj
 0001:0000a9c4       ??_C@_04KGDAIAGM@KANA?$AA@ 1000b9c4     service.obj
 0001:0000a9cc       ??_C@_05PPKJGOLB@JUNJA?$AA@ 1000b9cc     service.obj
 0001:0000a9d4       ??_C@_05JEIAEFOF@FINAL?$AA@ 1000b9d4     service.obj
 0001:0000a9dc       ??_C@_05CHABPOPI@HANJA?$AA@ 1000b9dc     service.obj
 0001:0000a9e4       ??_C@_06CDPDIIDH@ESCAPE?$AA@ 1000b9e4     service.obj
 0001:0000a9ec       ??_C@_0L@ODNCKDCK@NONCONVERT?$AA@ 1000b9ec     service.obj
 0001:0000a9f8       ??_C@_06INBBKPI@ACCEPT?$AA@ 1000b9f8     service.obj
 0001:0000aa00       ??_C@_0L@HEHNEBED@MODECHANGE?$AA@ 1000ba00     service.obj
 0001:0000aa0c       ??_C@_05CAEOFMEP@SPACE?$AA@ 1000ba0c     service.obj
 0001:0000aa14       ??_C@_05BFDHCIJM@PRIOR?$AA@ 1000ba14     service.obj
 0001:0000aa1c       ??_C@_04MOKMKBJN@NEXT?$AA@ 1000ba1c     service.obj
 0001:0000aa24       ??_C@_03JMGAKCCH@END?$AA@  1000ba24     service.obj
 0001:0000aa28       ??_C@_04GHGFPGNC@HOME?$AA@ 1000ba28     service.obj
 0001:0000aa30       ??_C@_04KCNEHMIH@LEFT?$AA@ 1000ba30     service.obj
 0001:0000aa38       ??_C@_02NAHCJHOC@UP?$AA@   1000ba38     service.obj
 0001:0000aa3c       ??_C@_05PMAFOJDE@RIGHT?$AA@ 1000ba3c     service.obj
 0001:0000aa44       ??_C@_04FANAOELO@DOWN?$AA@ 1000ba44     service.obj
 0001:0000aa4c       ??_C@_06LCPJPOPK@SELECT?$AA@ 1000ba4c     service.obj
 0001:0000aa54       ??_C@_05ECKPOFCN@PRINT?$AA@ 1000ba54     service.obj
 0001:0000aa5c       ??_C@_07LBDEDADF@EXECUTE?$AA@ 1000ba5c     service.obj
 0001:0000aa64       ??_C@_08EMOKHGD@SNAPSHOT?$AA@ 1000ba64     service.obj
 0001:0000aa70       ??_C@_06OEMEAEKN@INSERT?$AA@ 1000ba70     service.obj
 0001:0000aa78       ??_C@_06FKDAMKFP@DELETE?$AA@ 1000ba78     service.obj
 0001:0000aa80       ??_C@_04DOKPJKJF@HELP?$AA@ 1000ba80     service.obj
 0001:0000aa88       ??_C@_01GBGANLPD@0?$AA@    1000ba88     service.obj
 0001:0000aa8c       ??_C@_01HIHLOKLC@1?$AA@    1000ba8c     service.obj
 0001:0000aa90       ??_C@_01FDFGLJHB@2?$AA@    1000ba90     service.obj
 0001:0000aa94       ??_C@_01EKENIIDA@3?$AA@    1000ba94     service.obj
 0001:0000aa98       ??_C@_01FAMBOPH@4?$AA@     1000ba98     service.obj
 0001:0000aa9c       ??_C@_01BMBHCPLG@5?$AA@    1000ba9c     service.obj
 0001:0000aaa0       ??_C@_01DHDKHMHF@6?$AA@    1000baa0     service.obj
 0001:0000aaa4       ??_C@_01COCBENDE@7?$AA@    1000baa4     service.obj
 0001:0000aaa8       ??_C@_01KJLJFBPL@8?$AA@    1000baa8     service.obj
 0001:0000aaac       ??_C@_01LAKCGALK@9?$AA@    1000baac     service.obj
 0001:0000aab0       ??_C@_01FHEEJDEE@A?$AA@    1000bab0     service.obj
 0001:0000aab4       ??_C@_01HMGJMAIH@B?$AA@    1000bab4     service.obj
 0001:0000aab8       ??_C@_01GFHCPBMG@C?$AA@    1000bab8     service.obj
 0001:0000aabc       ??_C@_01CKDDGHAB@D?$AA@    1000babc     service.obj
 0001:0000aac0       ??_C@_01DDCIFGEA@E?$AA@    1000bac0     service.obj
 0001:0000aac4       ??_C@_01BIAFAFID@F?$AA@    1000bac4     service.obj
 0001:0000aac8       ??_C@_01BBODEMC@G?$AA@     1000bac8     service.obj
 0001:0000aacc       ??_C@_01IGIGCIAN@H?$AA@    1000bacc     service.obj
 0001:0000aad0       ??_C@_01JPJNBJEM@I?$AA@    1000bad0     service.obj
 0001:0000aad4       ??_C@_01LELAEKIP@J?$AA@    1000bad4     service.obj
 0001:0000aad8       ??_C@_01KNKLHLMO@K?$AA@    1000bad8     service.obj
 0001:0000aadc       ??_C@_01OCOKONAJ@L?$AA@    1000badc     service.obj
 0001:0000aae0       ??_C@_01PLPBNMEI@M?$AA@    1000bae0     service.obj
 0001:0000aae4       ??_C@_01NANMIPIL@N?$AA@    1000bae4     service.obj
 0001:0000aae8       ??_C@_01MJMHLOMK@O?$AA@    1000bae8     service.obj
 0001:0000aaec       ??_C@_01EJNLAFE@P?$AA@     1000baec     service.obj
 0001:0000aaf0       ??_C@_01BNIGIBBF@Q?$AA@    1000baf0     service.obj
 0001:0000aaf4       ??_C@_01DGKLNCNG@R?$AA@    1000baf4     service.obj
 0001:0000aaf8       ??_C@_01CPLAODJH@S?$AA@    1000baf8     service.obj
 0001:0000aafc       ??_C@_01GAPBHFFA@T?$AA@    1000bafc     service.obj
 0001:0000ab00       ??_C@_01HJOKEEBB@U?$AA@    1000bb00     service.obj
 0001:0000ab04       ??_C@_01FCMHBHNC@V?$AA@    1000bb04     service.obj
 0001:0000ab08       ??_C@_01ELNMCGJD@W?$AA@    1000bb08     service.obj
 0001:0000ab0c       ??_C@_01MMEEDKFM@X?$AA@    1000bb0c     service.obj
 0001:0000ab10       ??_C@_01NFFPALBN@Y?$AA@    1000bb10     service.obj
 0001:0000ab14       ??_C@_01POHCFINO@Z?$AA@    1000bb14     service.obj
 0001:0000ab18       ??_C@_04ODLFFOHF@LWIN?$AA@ 1000bb18     service.obj
 0001:0000ab20       ??_C@_04DMGFHHJG@RWIN?$AA@ 1000bb20     service.obj
 0001:0000ab28       ??_C@_04GKGJFGJO@APPS?$AA@ 1000bb28     service.obj
 0001:0000ab30       ??_C@_05DJAECLDN@SLEEP?$AA@ 1000bb30     service.obj
 0001:0000ab38       ??_C@_07NHIPMMJH@NUMPAD0?$AA@ 1000bb38     service.obj
 0001:0000ab40       ??_C@_07MOJEPNNG@NUMPAD1?$AA@ 1000bb40     service.obj
 0001:0000ab48       ??_C@_07OFLJKOBF@NUMPAD2?$AA@ 1000bb48     service.obj
 0001:0000ab50       ??_C@_07PMKCJPFE@NUMPAD3?$AA@ 1000bb50     service.obj
 0001:0000ab58       ??_C@_07LDODAJJD@NUMPAD4?$AA@ 1000bb58     service.obj
 0001:0000ab60       ??_C@_07KKPIDINC@NUMPAD5?$AA@ 1000bb60     service.obj
 0001:0000ab68       ??_C@_07IBNFGLBB@NUMPAD6?$AA@ 1000bb68     service.obj
 0001:0000ab70       ??_C@_07JIMOFKFA@NUMPAD7?$AA@ 1000bb70     service.obj
 0001:0000ab78       ??_C@_07BPFGEGJP@NUMPAD8?$AA@ 1000bb78     service.obj
 0001:0000ab80       ??_C@_07GENHHNO@NUMPAD9?$AA@ 1000bb80     service.obj
 0001:0000ab88       ??_C@_08LDEOAAGM@MULTIPLY?$AA@ 1000bb88     service.obj
 0001:0000ab94       ??_C@_03BOJFLAKG@ADD?$AA@  1000bb94     service.obj
 0001:0000ab98       ??_C@_09POPINEFK@SEPARATOR?$AA@ 1000bb98     service.obj
 0001:0000aba4       ??_C@_08MGBEENML@SUBTRACT?$AA@ 1000bba4     service.obj
 0001:0000abb0       ??_C@_07LJPMJDLL@DECIMAL?$AA@ 1000bbb0     service.obj
 0001:0000abb8       ??_C@_06FBFCJJMP@DIVIDE?$AA@ 1000bbb8     service.obj
 0001:0000abc0       ??_C@_02LCPENACN@F1?$AA@   1000bbc0     service.obj
 0001:0000abc4       ??_C@_02JJNJIDOO@F2?$AA@   1000bbc4     service.obj
 0001:0000abc8       ??_C@_02IAMCLCKP@F3?$AA@   1000bbc8     service.obj
 0001:0000abcc       ??_C@_02MPIDCEGI@F4?$AA@   1000bbcc     service.obj
 0001:0000abd0       ??_C@_02NGJIBFCJ@F5?$AA@   1000bbd0     service.obj
 0001:0000abd4       ??_C@_02PNLFEGOK@F6?$AA@   1000bbd4     service.obj
 0001:0000abd8       ??_C@_02OEKOHHKL@F7?$AA@   1000bbd8     service.obj
 0001:0000abdc       ??_C@_02GDDGGLGE@F8?$AA@   1000bbdc     service.obj
 0001:0000abe0       ??_C@_02HKCNFKCF@F9?$AA@   1000bbe0     service.obj
 0001:0000abe4       ??_C@_03JKCLJOFG@F10?$AA@  1000bbe4     service.obj
 0001:0000abe8       ??_C@_03IDDAKPBH@F11?$AA@  1000bbe8     service.obj
 0001:0000abec       ??_C@_03KIBNPMNE@F12?$AA@  1000bbec     service.obj
 0001:0000abf0       ??_C@_03LBAGMNJF@F13?$AA@  1000bbf0     service.obj
 0001:0000abf4       ??_C@_03POEHFLFC@F14?$AA@  1000bbf4     service.obj
 0001:0000abf8       ??_C@_03OHFMGKBD@F15?$AA@  1000bbf8     service.obj
 0001:0000abfc       ??_C@_03MMHBDJNA@F16?$AA@  1000bbfc     service.obj
 0001:0000ac00       ??_C@_03NFGKAIJB@F17?$AA@  1000bc00     service.obj
 0001:0000ac04       ??_C@_03FCPCBEFO@F18?$AA@  1000bc04     service.obj
 0001:0000ac08       ??_C@_03ELOJCFBP@F19?$AA@  1000bc08     service.obj
 0001:0000ac0c       ??_C@_03JIGNCAAP@F20?$AA@  1000bc0c     service.obj
 0001:0000ac10       ??_C@_03IBHGBBEO@F21?$AA@  1000bc10     service.obj
 0001:0000ac14       ??_C@_03KKFLECIN@F22?$AA@  1000bc14     service.obj
 0001:0000ac18       ??_C@_03LDEAHDMM@F23?$AA@  1000bc18     service.obj
 0001:0000ac1c       ??_C@_03PMABOFAL@F24?$AA@  1000bc1c     service.obj
 0001:0000ac20       ??_C@_07FLMEHHJP@NUMLOCK?$AA@ 1000bc20     service.obj
 0001:0000ac28       ??_C@_06FNIKALAE@SCROLL?$AA@ 1000bc28     service.obj
 0001:0000ac30       ??_C@_0O@DBBJDALK@OEM_NEC_EQUAL?$AA@ 1000bc30     service.obj
 0001:0000ac40       ??_C@_0P@JKGCFGCD@OEM_FJ_MASSHOU?$AA@ 1000bc40     service.obj
 0001:0000ac50       ??_C@_0P@NIEOFNLG@OEM_FJ_TOUROKU?$AA@ 1000bc50     service.obj
 0001:0000ac60       ??_C@_0M@IBEHGLCM@OEM_FJ_LOYA?$AA@ 1000bc60     service.obj
 0001:0000ac6c       ??_C@_0M@FOJHECMP@OEM_FJ_ROYA?$AA@ 1000bc6c     service.obj
 0001:0000ac78       ??_C@_06EPHNCIMI@LSHIFT?$AA@ 1000bc78     service.obj
 0001:0000ac80       ??_C@_06HIJMMPFL@RSHIFT?$AA@ 1000bc80     service.obj
 0001:0000ac88       ??_C@_08IKMONEBG@LCONTROL?$AA@ 1000bc88     service.obj
 0001:0000ac94       ??_C@_08OOMMENPF@RCONTROL?$AA@ 1000bc94     service.obj
 0001:0000aca0       ??_C@_05IHMGKJGH@LMENU?$AA@ 1000bca0     service.obj
 0001:0000aca8       ??_C@_05LOBKMKIM@RMENU?$AA@ 1000bca8     service.obj
 0001:0000acb0       ??_C@_0N@OAJIELLG@BROWSER_BACK?$AA@ 1000bcb0     service.obj
 0001:0000acc0       ??_C@_0BA@ENOAJOGH@BROWSER_FORWARD?$AA@ 1000bcc0     service.obj
 0001:0000acd0       ??_C@_0BA@GDNDIDGJ@BROWSER_REFRESH?$AA@ 1000bcd0     service.obj
 0001:0000ace0       ??_C@_0N@HKPDGANH@BROWSER_STOP?$AA@ 1000bce0     service.obj
 0001:0000acf0       ??_C@_0P@BEAEBJDD@BROWSER_SEARCH?$AA@ 1000bcf0     service.obj
 0001:0000ad00       ??_C@_0BC@BOMJIH@BROWSER_FAVORITES?$AA@ 1000bd00     service.obj
 0001:0000ad14       ??_C@_0N@NOOKCEKA@BROWSER_HOME?$AA@ 1000bd14     service.obj
 0001:0000ad24       ??_C@_0M@ENOHKBMG@VOLUME_MUTE?$AA@ 1000bd24     service.obj
 0001:0000ad30       ??_C@_0M@JOOBBDNO@VOLUME_DOWN?$AA@ 1000bd30     service.obj
 0001:0000ad3c       ??_C@_09MGPMNMJC@VOLUME_UP?$AA@ 1000bd3c     service.obj
 0001:0000ad48       ??_C@_0BB@KLAENPA@MEDIA_NEXT_TRACK?$AA@ 1000bd48     service.obj
 0001:0000ad5c       ??_C@_0BB@CMOIJKPH@MEDIA_PREV_TRACK?$AA@ 1000bd5c     service.obj
 0001:0000ad70       ??_C@_0L@KBJOCDHK@MEDIA_STOP?$AA@ 1000bd70     service.obj
 0001:0000ad7c       ??_C@_0BB@HAEMIJHO@MEDIA_PLAY_PAUSE?$AA@ 1000bd7c     service.obj
 0001:0000ad90       ??_C@_0M@GCIKMBID@LAUNCH_MAIL?$AA@ 1000bd90     service.obj
 0001:0000ad9c       ??_C@_0BE@FADJJAPM@LAUNCH_MEDIA_SELECT?$AA@ 1000bd9c     service.obj
 0001:0000adb0       ??_C@_0M@MGLJIDDM@LAUNCH_APP1?$AA@ 1000bdb0     service.obj
 0001:0000adbc       ??_C@_0M@ONJENAPP@LAUNCH_APP2?$AA@ 1000bdbc     service.obj
 0001:0000adc8       ??_C@_05OIODNPAD@OEM_1?$AA@ 1000bdc8     service.obj
 0001:0000add0       ??_C@_08LDJEIPBH@OEM_PLUS?$AA@ 1000bdd0     service.obj
 0001:0000addc       ??_C@_09CLPFJEOD@OEM_COMMA?$AA@ 1000bddc     service.obj
 0001:0000ade8       ??_C@_09OGMLCNMG@OEM_MINUS?$AA@ 1000bde8     service.obj
 0001:0000adf4       ??_C@_0L@DNNMNDGM@OEM_PERIOD?$AA@ 1000bdf4     service.obj
 0001:0000ae00       ??_C@_05MDMOIMMA@OEM_2?$AA@ 1000be00     service.obj
 0001:0000ae08       ??_C@_05NKNFLNIB@OEM_3?$AA@ 1000be08     service.obj
 0001:0000ae10       ??_C@_05JFJECLEG@OEM_4?$AA@ 1000be10     service.obj
 0001:0000ae18       ??_C@_05IMIPBKAH@OEM_5?$AA@ 1000be18     service.obj
 0001:0000ae20       ??_C@_05KHKCEJME@OEM_6?$AA@ 1000be20     service.obj
 0001:0000ae28       ??_C@_05LOLJHIIF@OEM_7?$AA@ 1000be28     service.obj
 0001:0000ae30       ??_C@_05DJCBGEEK@OEM_8?$AA@ 1000be30     service.obj
 0001:0000ae38       ??_C@_07PEFKMFIE@OEM_102?$AA@ 1000be38     service.obj
 0001:0000ae40       ??_C@_0L@EFLJCPAM@PROCESSKEY?$AA@ 1000be40     service.obj
 0001:0000ae4c       ??_C@_06HOICDKCB@PACKET?$AA@ 1000be4c     service.obj
 0001:0000ae54       ??_C@_09CAKPMKHM@OEM_RESET?$AA@ 1000be54     service.obj
 0001:0000ae60       ??_C@_08INMNLJCK@OEM_JUMP?$AA@ 1000be60     service.obj
 0001:0000ae6c       ??_C@_07JNOAEEG@OEM_PA1?$AA@ 1000be6c     service.obj
 0001:0000ae74       ??_C@_07CCPDFHIF@OEM_PA2?$AA@ 1000be74     service.obj
 0001:0000ae7c       ??_C@_05LCLENNFI@table?$AA@ 1000be7c     service.obj
 0001:0000ae84       ??_C@_07DLOIGGME@OEM_PA3?$AA@ 1000be84     service.obj
 0001:0000ae8c       ??_C@_0L@OCAIHDP@OEM_WSCTRL?$AA@ 1000be8c     service.obj
 0001:0000ae98       ??_C@_06ICGJLFIM@string?$AA@ 1000be98     service.obj
 0001:0000aea0       ??_C@_04BNGOAFAJ@ATTN?$AA@ 1000bea0     service.obj
 0001:0000aea8       ??_C@_05HGAHFFFL@CRSEL?$AA@ 1000bea8     service.obj
 0001:0000aeb0       ??_C@_05OKOOKOOH@EXSEL?$AA@ 1000beb0     service.obj
 0001:0000aeb8       ??_C@_05CCFENDFJ@EREOF?$AA@ 1000beb8     service.obj
 0001:0000aec0       ??_C@_04MKCNCBEG@PLAY?$AA@ 1000bec0     service.obj
 0001:0000aec8       ??_C@_04LGBIGMFG@ZOOM?$AA@ 1000bec8     service.obj
 0001:0000aed0       ??_C@_06LJIOOKLP@NONAME?$AA@ 1000bed0     service.obj
 0001:0000aed8       ??_C@_03KCLDMPAE@PA1?$AA@  1000bed8     service.obj
 0001:0000aedc       ??_C@_09MBBEHOCK@OEM_CLEAR?$AA@ 1000bedc     service.obj
 0001:0000aee8       ??_C@_0N@JJLBBDOC@invalid?5flag?$AA@ 1000bee8     service.obj
 0001:0000aef8       ??_C@_0BJ@MIKGPOKL@invalid?5flag?5combination?$AA@ 1000bef8     service.obj
 0001:0000af14       ??_C@_0P@FCIHMHBI@3?40?5build?53674?$AA@ 1000bf14     service.obj
 0001:0000af24       ??_C@_0P@EANMLDOP@MousePositionX?$AA@ 1000bf24     service.obj
 0001:0000af34       ??_C@_0P@FJMHICKO@MousePositionY?$AA@ 1000bf34     service.obj
 0001:0000af44       ??_C@_0M@BJAICPIE@ButtonState?$AA@ 1000bf44     service.obj
 0001:0000af50       ??_C@_0L@EMFBJIPA@EventFlags?$AA@ 1000bf50     service.obj
 0001:0000af5c       ??_C@_07EEJLMCNH@CurLine?$AA@ 1000bf5c     service.obj
 0001:0000af64       ??_C@_06EDBJMJDC@CurPos?$AA@ 1000bf64     service.obj
 0001:0000af6c       ??_C@_09EGONKHKB@CurTabPos?$AA@ 1000bf6c     service.obj
 0001:0000af78       ??_C@_0O@OKGGHEJK@TopScreenLine?$AA@ 1000bf78     service.obj
 0001:0000af88       ??_C@_07GDAKJHLE@LeftPos?$AA@ 1000bf88     service.obj
 0001:0000af90       ??_C@_08LLJICOLD@Overtype?$AA@ 1000bf90     service.obj
 0001:0000af9c       ??_C@_0BB@OKGMKOG@CustomColumnData?$AA@ 1000bf9c     service.obj
 0001:0000afb0       ??_C@_0L@GEIEADPN@ModuleName?$AA@ 1000bfb0     service.obj
 0001:0000afbc       ??_C@_09HOIHBHIM@ModuleDir?$AA@ 1000bfbc     service.obj
 0001:0000afc8       ??_C@_0L@JLHCLFBG@PluginGuid?$AA@ 1000bfc8     service.obj
 0001:0000afd4       ??_C@_08GGMFPBHM@EditorID?$AA@ 1000bfd4     service.obj
 0001:0000afe0       ??_C@_0M@CPDBGLHN@WindowSizeX?$AA@ 1000bfe0     service.obj
 0001:0000afec       ??_C@_0M@DGCKFKDM@WindowSizeY?$AA@ 1000bfec     service.obj
 0001:0000aff8       ??_C@_0L@PMKENHMA@TotalLines?$AA@ 1000bff8     service.obj
 0001:0000b004       ??_C@_09HKBEFIPN@BlockType?$AA@ 1000c004     service.obj
 0001:0000b010       ??_C@_0P@GAEEHNHE@BlockStartLine?$AA@ 1000c010     service.obj
 0001:0000b020       ??_C@_07KHIHFBFN@Options?$AA@ 1000c020     service.obj
 0001:0000b028       ??_C@_07FLDNELFM@TabSize?$AA@ 1000c028     service.obj
 0001:0000b030       ??_C@_0O@EBLDFOPH@BookmarkCount?$AA@ 1000c030     service.obj
 0001:0000b040       ??_C@_0BF@ODFKBFAK@SessionBookmarkCount?$AA@ 1000c040     service.obj
 0001:0000b058       ??_C@_08CPAOHJDL@CurState?$AA@ 1000c058     service.obj
 0001:0000b064       ??_C@_0N@DAJMJAE@StringLength?$AA@ 1000c064     service.obj
 0001:0000b074       ??_C@_08JPMALCFA@SelStart?$AA@ 1000c074     service.obj
 0001:0000b080       ??_C@_06JLEHDHII@SelEnd?$AA@ 1000c080     service.obj
 0001:0000b088       ??_C@_0L@IFNFGDGN@StringText?$AA@ 1000c088     service.obj
 0001:0000b094       ??_C@_09IBGOAAEM@StringEOL?$AA@ 1000c094     service.obj
 0001:0000b0a0       ??_C@_06MFLCIING@redraw?$AA@ 1000c0a0     service.obj
 0001:0000b0a8       ??_C@_07HICINA@restore?$AA@ 1000c0a8     service.obj
 0001:0000b0b0       ??_C@_0CG@LAKEGANL@must?5be?5?8redraw?8?0?5?8restore?8?0?5or?5@ 1000c0b0     service.obj
 0001:0000b0d8       ??_C@_04LIDDHMOL@Line?$AA@ 1000c0d8     service.obj
 0001:0000b0e0       ??_C@_06OIIFPIKD@Cursor?$AA@ 1000c0e0     service.obj
 0001:0000b0e8       ??_C@_0L@GDDEHGKI@ScreenLine?$AA@ 1000c0e8     service.obj
 0001:0000b0f4       ??_C@_0O@CIAFMMMB@BlockStartPos?$AA@ 1000c0f4     service.obj
 0001:0000b104       ??_C@_0L@EKLJJHPF@BlockWidth?$AA@ 1000c104     service.obj
 0001:0000b110       ??_C@_0M@NKKGBDGK@BlockHeight?$AA@ 1000c110     service.obj
 0001:0000b11c       ??_C@_09JFPCGCOC@StartLine?$AA@ 1000c11c     service.obj
 0001:0000b128       ??_C@_08JBNOANJG@StartPos?$AA@ 1000c128     service.obj
 0001:0000b134       ??_C@_07DCKCOCOC@EndLine?$AA@ 1000c134     service.obj
 0001:0000b13c       ??_C@_06KGHIGMHC@EndPos?$AA@ 1000c13c     service.obj
 0001:0000b144       ??_C@_0BA@HNIJJEO@ForegroundColor?$AA@ 1000c144     service.obj
 0001:0000b154       ??_C@_0BA@DPMBBMBG@BackgroundColor?$AA@ 1000c154     service.obj
 0001:0000b164       ??_C@_0O@NHKEGDJF@GUID?5required?$AA@ 1000c164     service.obj
 0001:0000b174       ??_C@_08KGEIBGG@Priority?$AA@ 1000c174     service.obj
 0001:0000b180       ??_C@_05PDOBBJNA@Color?$AA@ 1000c180     service.obj
 0001:0000b188       ??_C@_09KDLBEGCN@EventType?$AA@ 1000c188     service.obj
 0001:0000b194       ??_C@_07HPHPOAEG@KeyDown?$AA@ 1000c194     service.obj
 0001:0000b19c       ??_C@_0M@FGGHEADP@RepeatCount?$AA@ 1000c19c     service.obj
 0001:0000b1a8       ??_C@_0BA@KCCLHPM@VirtualScanCode?$AA@ 1000c1a8     service.obj
 0001:0000b1b8       ??_C@_0M@PBJKDIHH@UnicodeChar?$AA@ 1000c1b8     service.obj
 0001:0000b1c4       ??_C@_05GIPJKPFG@SizeX?$AA@ 1000c1c4     service.obj
 0001:0000b1cc       ??_C@_05HBOCJOBH@SizeY?$AA@ 1000c1cc     service.obj
 0001:0000b1d4       ??_C@_09GEJJJAHL@CommandId?$AA@ 1000c1d4     service.obj
 0001:0000b1e0       ??_C@_08GPNNBNIL@SetFocus?$AA@ 1000c1e0     service.obj
 0001:0000b1ec       ??_C@_0M@BEDENHPD@invalid?5key?$AA@ 1000c1ec     service.obj
 0001:0000b1f8       ??_C@_19IBCFILMC@?$AAM?$AAe?$AAn?$AAu?$AA?$AA@ 1000c1f8     service.obj
 0001:0000b204       ??_C@_0BF@OOLFJKGP@must?5be?5table?5or?5nil?$AA@ 1000c204     service.obj
 0001:0000b21c       ??_C@_09FDAFFNEA@MaxHeight?$AA@ 1000c21c     service.obj
 0001:0000b228       ??_C@_06DDHCBBGN@Bottom?$AA@ 1000c228     service.obj
 0001:0000b230       ??_C@_09CFELDMD@HelpTopic?$AA@ 1000c230     service.obj
 0001:0000b23c       ??_C@_0M@GGMLPAIK@SelectIndex?$AA@ 1000c23c     service.obj
 0001:0000b248       ??_C@_02HOGEDOAB@Id?$AA@   1000c248     service.obj
 0001:0000b24c       ??_C@_07FJOBMBFC@checked?$AA@ 1000c24c     service.obj
 0001:0000b254       ??_C@_09MOAJOJKN@separator?$AA@ 1000c254     service.obj
 0001:0000b260       ??_C@_07DBNODEFN@disable?$AA@ 1000c260     service.obj
 0001:0000b268       ??_C@_06JHIAOIKD@grayed?$AA@ 1000c268     service.obj
 0001:0000b270       ??_C@_06JIKFICKK@hidden?$AA@ 1000c270     service.obj
 0001:0000b278       ??_C@_08MMCKBNNI@AccelKey?$AA@ 1000c278     service.obj
 0001:0000b284       ??_C@_08PNHLLJE@BreakKey?$AA@ 1000c284     service.obj
 0001:0000b290       ??_C@_15FMBEJGOH@?$AAO?$AAk?$AA?$AA@ 1000c290     service.obj
 0001:0000b298       ??_C@_1BC@IBCAPFAE@?$AAO?$AAk?$AAC?$AAa?$AAn?$AAc?$AAe?$AAl?$AA?$AA@ 1000c298     service.obj
 0001:0000b2ac       ??_C@_1CC@HODOHOHB@?$AAA?$AAb?$AAo?$AAr?$AAt?$AAR?$AAe?$AAt?$AAr?$AAy?$AAI?$AAg?$AAn?$AAo?$AAr?$AAe?$AA?$AA@ 1000c2ac     service.obj
 0001:0000b2d0       ??_C@_1M@GGPOIMAD@?$AAY?$AAe?$AAs?$AAN?$AAo?$AA?$AA@ 1000c2d0     service.obj
 0001:0000b2dc       ??_C@_1BI@BNDFIGCI@?$AAY?$AAe?$AAs?$AAN?$AAo?$AAC?$AAa?$AAn?$AAc?$AAe?$AAl?$AA?$AA@ 1000c2dc     service.obj
 0001:0000b2f4       ??_C@_1BI@KMMIHPHF@?$AAR?$AAe?$AAt?$AAr?$AAy?$AAC?$AAa?$AAn?$AAc?$AAe?$AAl?$AA?$AA@ 1000c2f4     service.obj
 0001:0000b30c       ??_C@_1DG@LMKDDADI@?$AA?$DM?$AAn?$AAo?$AAn?$AA?9?$AAs?$AAt?$AAr?$AAi?$AAn?$AAg?$AA?5?$AAe?$AAr?$AAr?$AAo?$AAr?$AA?5?$AAm?$AAe?$AAs?$AAs?$AAa?$AAg?$AAe?$AA?$DO?$AA?$AA@ 1000c30c     service.obj
 0001:0000b344       ??_C@_15IEGBJKPD@?$AA?3?$AA?6?$AA?$AA@ 1000c344     service.obj
 0001:0000b34c       ??_C@_19FFLPMPBO@?$AA?6?$AA?5?$AA?5?$AA?5?$AA?$AA@ 1000c34c     service.obj
 0001:0000b358       ??_C@_15JCKODCLA@?$AA?6?$AA?7?$AA?$AA@ 1000c358     service.obj
 0001:0000b360       ??_C@_1M@ILHOPKA@?$AAE?$AAr?$AAr?$AAo?$AAr?$AA?$AA@ 1000c360     service.obj
 0001:0000b36c       ??_C@_08FNIIFOJC@tostring?$AA@ 1000c36c     service.obj
 0001:0000b378       ??_C@_0BJ@JOELOGM@cannot?5convert?5to?5string?$AA@ 1000c378     service.obj
 0001:0000b394       ??_C@_1BA@HHOMBECE@?$AAM?$AAe?$AAs?$AAs?$AAa?$AAg?$AAe?$AA?$AA@ 1000c394     service.obj
 0001:0000b3a4       ??_C@_17PAGBAIDI@?$AA?$DL?$AAO?$AAK?$AA?$AA@ 1000c3a4     service.obj
 0001:0000b3ac       ??_C@_09ENKGJCEC@OwnerGuid?$AA@ 1000c3ac     service.obj
 0001:0000b3b8       ??_C@_0N@CCPLCIHE@PluginHandle?$AA@ 1000c3b8     service.obj
 0001:0000b3c8       ??_C@_09BKHPOLGD@PanelType?$AA@ 1000c3c8     service.obj
 0001:0000b3d4       ??_C@_04GOOOJOPP@left?$AA@ 1000c3d4     service.obj
 0001:0000b3dc       ??_C@_03FGFCOCMD@top?$AA@  1000c3dc     service.obj
 0001:0000b3e0       ??_C@_05DHJDAOHK@right?$AA@ 1000c3e0     service.obj
 0001:0000b3e8       ??_C@_06PMMPCIPB@bottom?$AA@ 1000c3e8     service.obj
 0001:0000b3f0       ??_C@_09MCEJMINN@PanelRect?$AA@ 1000c3f0     service.obj
 0001:0000b3fc       ??_C@_0M@DDGFKGKJ@ItemsNumber?$AA@ 1000c3fc     service.obj
 0001:0000b408       ??_C@_0BE@EOBAHHNK@SelectedItemsNumber?$AA@ 1000c408     service.obj
 0001:0000b41c       ??_C@_0M@JMILNLLF@CurrentItem?$AA@ 1000c41c     service.obj
 0001:0000b428       ??_C@_0N@CDHIFJIH@TopPanelItem?$AA@ 1000c428     service.obj
 0001:0000b438       ??_C@_08IMMBLBLF@ViewMode?$AA@ 1000c438     service.obj
 0001:0000b444       ??_C@_08CENECNJD@SortMode?$AA@ 1000c444     service.obj
 0001:0000b450       ??_C@_04FABLJDN@Name?$AA@  1000c450     service.obj
 0001:0000b458       ??_C@_05LOJBNELM@Param?$AA@ 1000c458     service.obj
 0001:0000b460       ??_C@_04PBAHLACE@File?$AA@ 1000c460     service.obj
 0001:0000b468       ??_C@_08HGEAFCFN@PluginId?$AA@ 1000c468     service.obj
 0001:0000b474       ??_C@_0BA@MLHECKCE@table?5or?5string?$AA@ 1000c474     service.obj
 0001:0000b484       ??_C@_0BD@CKJHMJBG@non?9positive?5index?$AA@ 1000c484     service.obj
 0001:0000b498       ??_C@_0BA@GNKNKKDM@number?5or?5table?$AA@ 1000c498     service.obj
 0001:0000b4a8       ??_C@_0CI@DDAJHJKO@?$CFs?5?9?5unsupported?5type?5in?5dialog?5@ 1000c4a8     service.obj
 0001:0000b4d0       ??_C@_0CD@JIANOKII@unsupported?5flag?5in?5dialog?5item?5@ 1000c4d0     service.obj
 0001:0000b4f4       ??_C@_0CB@EOGFCCCC@value?5at?5index?5?$CFd?5is?5not?5a?5table@ 1000c4f4     service.obj
 0001:0000b518       ??_C@_0O@FEBHKEHB@closed?5dialog?$AA@ 1000c518     service.obj
 0001:0000b528       ??_C@_0BK@NEMPGLFN@operation?5not?5implemented?$AA@ 1000c528     service.obj
 0001:0000b544       ??_C@_04KPCPLBPL@Left?$AA@ 1000c544     service.obj
 0001:0000b54c       ??_C@_03PGGAENPN@Top?$AA@  1000c54c     service.obj
 0001:0000b550       ??_C@_05DADPALEM@Right?$AA@ 1000c550     service.obj
 0001:0000b558       ??_C@_0L@CECHCPAP@StartIndex?$AA@ 1000c558     service.obj
 0001:0000b564       ??_C@_05IJGIMMHE@Count?$AA@ 1000c564     service.obj
 0001:0000b56c       ??_C@_07NOCIGAPP@Pattern?$AA@ 1000c56c     service.obj
 0001:0000b574       ??_C@_09IMOCKOO@SelectPos?$AA@ 1000c574     service.obj
 0001:0000b580       ??_C@_06DJONBJOP@TopPos?$AA@ 1000c580     service.obj
 0001:0000b588       ??_C@_09OGCBKCAK@MaxLength?$AA@ 1000c588     service.obj
 0001:0000b594       ??_C@_05FNNGFGLF@Index?$AA@ 1000c594     service.obj
 0001:0000b59c       ??_C@_07GHGHLGFI@GetType?$AA@ 1000c59c     service.obj
 0001:0000b5a4       ??_C@_07MMLMCDAI@ValType?$AA@ 1000c5a4     service.obj
 0001:0000b5ac       ??_C@_05LPIJGKJ@Value?$AA@ 1000c5ac     service.obj
 0001:0000b5b4       ??_C@_0L@LPFMIAHH@helpstring?$AA@ 1000c5b4     service.obj
 0001:0000b5c0       ??_C@_0P@NABDHFON@getvaluestring?$AA@ 1000c5c0     service.obj
 0001:0000b5d0       ??_C@_0BJ@IINAPFDG@Items?$FL?$CFd?$FN?5is?5not?5a?5table?$AA@ 1000c5d0     service.obj
 0001:0000b5ec       ??_C@_0CC@GBOJFNBI@error?5occured?5in?5dialog?5procedur@ 1000c5ec     service.obj
 0001:0000b610       ??_C@_0M@EHMONPJO@?$CFs?5?$CIclosed?$CJ?$AA@ 1000c610     service.obj
 0001:0000b61c       ??_C@_08GDAJJKGC@ViewerID?$AA@ 1000c61c     service.obj
 0001:0000b628       ??_C@_07MJHBHMFM@FilePos?$AA@ 1000c628     service.obj
 0001:0000b630       ??_C@_07FBAHDBGN@CurMode?$AA@ 1000c630     service.obj
 0001:0000b638       ??_C@_06IMBBKDFH@iParam?$AA@ 1000c638     service.obj
 0001:0000b640       ??_C@_1BE@CGKCNEEP@?$AAI?$AAn?$AAp?$AAu?$AAt?$AA?5?$AAB?$AAo?$AAx?$AA?$AA@ 1000c640     service.obj
 0001:0000b654       ??_C@_1CA@PCDNIBFH@?$AAE?$AAn?$AAt?$AAe?$AAr?$AA?5?$AAt?$AAh?$AAe?$AA?5?$AAt?$AAe?$AAx?$AAt?$AA?3?$AA?$AA@ 1000c654     service.obj
 0001:0000b674       ??_C@_0BG@GAFLOAPP@command?5not?5supported?$AA@ 1000c674     service.obj
 0001:0000b68c       ??_C@_09MIJAKHKB@Completed?$AA@ 1000c68c     service.obj
 0001:0000b698       ??_C@_05KGEAEGFG@Total?$AA@ 1000c698     service.obj
 0001:0000b6a0       ??_C@_0P@DJOANNIK@?$CFd?4?$CFd?4?$CFd?4?$CFd?4?$CFd?$AA@ 1000c6a0     service.obj
 0001:0000b6b0       ??_C@_03FCCPIJGJ@Pos?$AA@  1000c6b0     service.obj
 0001:0000b6b4       ??_C@_08NNKIOIN@TypeName?$AA@ 1000c6b4     service.obj
 0001:0000b6c0       ??_C@_07ONPPLIAF@ErrCode?$AA@ 1000c6c0     service.obj
 0001:0000b6c8       ??_C@_07LJDOKIBM@ErrPosX?$AA@ 1000c6c8     service.obj
 0001:0000b6d0       ??_C@_07KACFJJFN@ErrPosY?$AA@ 1000c6d0     service.obj
 0001:0000b6d8       ??_C@_06HBEFEBCM@ErrSrc?$AA@ 1000c6d8     service.obj
 0001:0000b6e0       ??_C@_1BE@KIBHGBKO@?$AA?$CF?$AA?$CF?$AA?$CF?$AAd?$AAd?$AA?$CF?$AAl?$AAs?$AA?5?$AA?$AA@ 1000c6e0     service.obj
 0001:0000b6f4       ??_C@_1BG@HDCFDOO@?$AA?$CF?$AA?$CF?$AA?$CF?$AAd?$AAl?$AAs?$AA?$CF?$AAl?$AAs?$AA?5?$AA?$AA@ 1000c6f4     service.obj
 0001:0000b70c       ??_C@_0CC@JIGPFMKG@global?5?$GAtostring?8?5is?5not?5functio@ 1000c70c     service.obj
 0001:0000b730       ??_C@_04CIMGMMMG@text?$AA@ 1000c730     service.obj
 0001:0000b738       ??_C@_0NC@MGDKLGKI@local?5items?0n?$DN?4?4?4?6local?5bottom?$DNn@ 1000c738     service.obj
 0001:0000b80c       ??_C@_0CG@FGNNCNLL@attempt?5to?5access?5invalid?5file?5f@ 1000c80c     service.obj
 0001:0000b834       ??_C@_07BJOIOONN@Strings?$AA@ 1000c834     service.obj
 0001:0000b83c       ??_C@_05GALAPKHH@Guids?$AA@ 1000c83c     service.obj
 0001:0000b844       ??_C@_08FGAFMHLF@DiskMenu?$AA@ 1000c844     service.obj
 0001:0000b850       ??_C@_0L@NHENMPLN@PluginMenu?$AA@ 1000c850     service.obj
 0001:0000b85c       ??_C@_0N@IEACHFBM@PluginConfig?$AA@ 1000c85c     service.obj
 0001:0000b86c       ??_C@_05GCJGCMFJ@PInfo?$AA@ 1000c86c     service.obj
 0001:0000b874       ??_C@_05HMEFBOHK@GInfo?$AA@ 1000c874     service.obj
 0001:0000b87c       ??_C@_0N@GAMEMCEE@invalid?5GUID?$AA@ 1000c87c     service.obj
 0001:0000b88c       ??_C@_0BP@NJEEOHDB@attempt?5to?5access?5closed?5timer?$AA@ 1000c88c     service.obj
 0001:0000b8ac       ??_C@_05LGELBCGM@Close?$AA@ 1000c8ac     service.obj
 0001:0000b8b4       ??_C@_07DOAOMMKG@Enabled?$AA@ 1000c8b4     service.obj
 0001:0000b8bc       ??_C@_08KDKDEPAG@Interval?$AA@ 1000c8bc     service.obj
 0001:0000b8c8       ??_C@_07CIINKFND@OnTimer?$AA@ 1000c8c8     service.obj
 0001:0000b8d0       ??_C@_06EFCDMIMC@Closed?$AA@ 1000c8d0     service.obj
 0001:0000b8d8       ??_C@_0CE@LHJCBGGH@attempt?5to?5call?5non?9existent?5met@ 1000c8d8     service.obj
 0001:0000b8fc       ??_C@_0BO@PNFLEJKN@attempt?5to?5access?5a?5closed?5?$CFs?$AA@ 1000c8fc     service.obj
 0001:0000b91c       ??_C@_04OKOFBOPB@Time?$AA@ 1000c91c     service.obj
 0001:0000b924       ??_C@_04LADJNOK@Lock?$AA@  1000c924     service.obj
 0001:0000b92c       ??_C@_0N@ECMJOJJG@MacroCallFar?$AA@ 1000c92c     service.obj
 0001:0000b93c       ??_C@_0BA@IEKDOJLH@MacroCallPlugin?$AA@ 1000c93c     service.obj
 0001:0000b94c       ??_C@_06GIFLLBB@editor?$AA@ 1000c94c     service.obj
 0001:0000b954       ??_C@_06DGPPOJKF@viewer?$AA@ 1000c954     service.obj
 0001:0000b95c       ??_C@_05LNOAKADA@panel?$AA@ 1000c95c     service.obj
 0001:0000b964       ??_C@_01DICPFPGM@k?$AA@    1000c964     service.obj
 0001:0000b968       ??_C@_06BPGFKLEK@__mode?$AA@ 1000c968     service.obj
 0001:0000b970       ??_C@_05LFOKGKBN@?$DMboot?$AA@ 1000c970     service.obj
 0001:0000b978       ??_C@_15CBMDENPJ@?$AA?4?$AA?9?$AA?$AA@ 1000c978     service.obj
 0001:0000b980       ??_C@_19BCNABNAK@?$AA?4?$AAl?$AAu?$AAa?$AA?$AA@ 1000c980     service.obj
 0001:0000b98c       ??_C@_1DC@PABHCCON@?$AAD?$AAe?$AAf?$AAa?$AAu?$AAl?$AAt?$AA?5?$AAs?$AAc?$AAr?$AAi?$AAp?$AAt?$AA?5?$AAn?$AAo?$AAt?$AA?5?$AAf?$AAo?$AAu?$AAn?$AAd?$AA?$AA@ 1000c98c     service.obj
 0001:0000b9c0       ??_C@_1M@FPFJICOF@?$AA_?$AAP?$AAA?$AAT?$AAH?$AA?$AA@ 1000c9c0     service.obj
 0001:0000b9cc       ??_C@_04LNEJFJGI@path?$AA@ 1000c9cc     service.obj
 0001:0000b9d4       ??_C@_06HEJKBFLB@?$DP?4lua?$DL?$AA@ 1000c9d4     service.obj
 0001:0000b9dc       ??_C@_1O@INLKOCFL@?$AA_?$AAC?$AAP?$AAA?$AAT?$AAH?$AA?$AA@ 1000c9dc     service.obj
 0001:0000b9ec       ??_C@_05EEMJHCCC@cpath?$AA@ 1000c9ec     service.obj
 0001:0000b9f4       ??_C@_1M@PIEFMDAJ@?$AA_?$AAI?$AAN?$AAI?$AAT?$AA?$AA@ 1000c9f4     service.obj
 0001:0000ba00       ??_C@_04LHHHFLPP@utf8?$AA@ 1000ca00     service.obj
 0001:0000ba08       ??_C@_0L@EKHHLNNJ@lua5?41?4dll?$AA@ 1000ca08     service.obj
 0001:0000ba14       ??_C@_06ONNDGCDK@dofile?$AA@ 1000ca14     service.obj
 0001:0000ba1c       ??_C@_08BNNFLGCJ@loadfile?$AA@ 1000ca1c     service.obj
 0001:0000ba28       ??_C@_03OFAPEBGM@?$CFs?6?$AA@ 1000ca28     service.obj
 0001:0000ba30       __real@3ff0000000000000    1000ca30     service.obj
 0001:0000ba38       __real@4059000000000000    1000ca38     service.obj
 0001:0000ba40       __real@41e0000000000000    1000ca40     service.obj
 0001:0000ba50       __xmm@41f00000000000000000000000000000 1000ca50     service.obj
 0001:0000bae8       ??_C@_04IHGKJMLH@byte?$AA@ 1000cae8     slnunico.obj
 0001:0000baf0       ??_C@_04ENMBGAPA@char?$AA@ 1000caf0     slnunico.obj
 0001:0000baf8       ??_C@_04GGLOKIEE@dump?$AA@ 1000caf8     slnunico.obj
 0001:0000bb00       ??_C@_06DLEPGFEF@format?$AA@ 1000cb00     slnunico.obj
 0001:0000bb08       ??_C@_05EIEIBDFD@gfind?$AA@ 1000cb08     slnunico.obj
 0001:0000bb10       ??_C@_03BKCJCHLK@len?$AA@  1000cb10     slnunico.obj
 0001:0000bb14       ??_C@_05IPJEPLHL@lower?$AA@ 1000cb14     slnunico.obj
 0001:0000bb1c       ??_C@_03HOKODIMJ@rep?$AA@  1000cb1c     slnunico.obj
 0001:0000bb20       ??_C@_07KOIEOCCE@reverse?$AA@ 1000cb20     slnunico.obj
 0001:0000bb28       ??_C@_05NECKJAMC@upper?$AA@ 1000cb28     slnunico.obj
 0001:0000bb30       ??_C@_09GCBMKPBD@utf8valid?$AA@ 1000cb30     slnunico.obj
 0001:0000bb3c       ??_C@_04GMGOKAFF@mode?$AA@ 1000cb3c     slnunico.obj
 0001:0000bb44       ??_C@_0BG@DFAIEAEC@string?5slice?5too?5long?$AA@ 1000cb44     slnunico.obj
 0001:0000bb5c       ??_C@_0O@EAJJMEEM@invalid?5value?$AA@ 1000cb5c     slnunico.obj
 0001:0000bb6c       ??_C@_0BO@BNLBHKJN@unable?5to?5dump?5given?5function?$AA@ 1000cb6c     slnunico.obj
 0001:0000bb8c       ??_C@_0BG@LEHNKOGD@invalid?5capture?5index?$AA@ 1000cb8c     slnunico.obj
 0001:0000bba4       ??_C@_0BI@ECNPHIBF@invalid?5pattern?5capture?$AA@ 1000cba4     slnunico.obj
 0001:0000bbbc       ??_C@_0CD@PLJBIEHA@malformed?5pattern?5?$CIends?5with?5?8?$CF?$CF@ 1000cbbc     slnunico.obj
 0001:0000bbe0       ??_C@_0CA@CFGACOGB@malformed?5pattern?5?$CImissing?5?8?$FN?8?$CJ?$AA@ 1000cbe0     slnunico.obj
 0001:0000bc00       ??_C@_0BD@NGJIMPLI@unbalanced?5pattern?$AA@ 1000cc00     slnunico.obj
 0001:0000bc14       ??_C@_0BC@IMEAEJPD@too?5many?5captures?$AA@ 1000cc14     slnunico.obj
 0001:0000bc28       ??_C@_0BD@BFKNEALP@unfinished?5capture?$AA@ 1000cc28     slnunico.obj
 0001:0000bc3c       ??_C@_0L@NLFJOONJ@?$FO$?$CK?$CL?$DP?4?$CI?$FL?$CF?9?$AA@ 1000cc3c     slnunico.obj
 0001:0000bc48       ??_C@_0CO@MAGJPEI@?8string?4gfind?8?5was?5renamed?5to?5?8s@ 1000cc48     slnunico.obj
 0001:0000bc78       ??_C@_0BP@PPPOBACA@string?1function?1table?5expected?$AA@ 1000cc78     slnunico.obj
 0001:0000bc98       ??_C@_0CB@LPDIHGGA@invalid?5replacement?5value?5?$CIa?5?$CFs?$CJ@ 1000cc98     slnunico.obj
 0001:0000bcbc       ??_C@_02HIBBOKEN@?2r?$AA@  1000ccbc     slnunico.obj
 0001:0000bcc0       ??_C@_04MPDIABOK@?2000?$AA@ 1000ccc0     slnunico.obj
 0001:0000bcc8       ??_C@_05GGBDHNF@?9?$CL?5?$CD0?$AA@ 1000ccc8     slnunico.obj
 0001:0000bcd0       ??_C@_0CA@COOMGCAO@invalid?5format?5?$CIrepeated?5flags?$CJ?$AA@ 1000ccd0     slnunico.obj
 0001:0000bcf0       ??_C@_0CN@KALFEKPN@invalid?5format?5?$CIwidth?5or?5precisi@ 1000ccf0     slnunico.obj
 0001:0000bd20       ??_C@_0CC@KIPBEOBI@invalid?5option?5?8?$CF?$CF?$CFc?8?5to?5?8format@ 1000cd20     slnunico.obj
 0001:0000bd44       ??_C@_0O@EJMKHGFJ@unicode?4ascii?$AA@ 1000cd44     slnunico.obj
 0001:0000bd54       ??_C@_0P@CMOFLLND@unicode?4latin1?$AA@ 1000cd54     slnunico.obj
 0001:0000bd64       ??_C@_0BB@EFCDCNG@unicode?4grapheme?$AA@ 1000cd64     slnunico.obj
 0001:0000bd78       ??_C@_0N@DKIDGKBP@unicode?4utf8?$AA@ 1000cd78     slnunico.obj
 0001:0000be78       ??_C@_03KCHOJKKI@set?$AA@  1000ce78     uliolib51.obj
 0001:0000be7c       ??_C@_03LIBLMJMB@cur?$AA@  1000ce7c     uliolib51.obj
 0001:0000be80       ??_C@_03JBJLGPFL@end?$AA@  1000ce80     uliolib51.obj
 0001:0000be84       ??_C@_02KAJCLHKP@no?$AA@   1000ce84     uliolib51.obj
 0001:0000be88       ??_C@_04PLMLMMEO@full?$AA@ 1000ce88     uliolib51.obj
 0001:0000be90       ??_C@_04HJPCFDOP@line?$AA@ 1000ce90     uliolib51.obj
 0001:0000be98       ??_C@_05LBOHBHFK@close?$AA@ 1000ce98     uliolib51.obj
 0001:0000bea0       ??_C@_05GLCAEPFP@flush?$AA@ 1000cea0     uliolib51.obj
 0001:0000bea8       ??_C@_05DENOCHIP@lines?$AA@ 1000cea8     uliolib51.obj
 0001:0000beb0       ??_C@_05IACAFMHP@popen?$AA@ 1000ceb0     uliolib51.obj
 0001:0000beb8       ??_C@_07FKJPAINK@tmpfile?$AA@ 1000ceb8     uliolib51.obj
 0001:0000bec0       ??_C@_05NGFEDHGN@write?$AA@ 1000cec0     uliolib51.obj
 0001:0000bec8       ??_C@_04EDECCOGL@seek?$AA@ 1000cec8     uliolib51.obj
 0001:0000bed0       ??_C@_07HHBPNGAN@setvbuf?$AA@ 1000ced0     uliolib51.obj
 0001:0000bed8       ??_C@_05DFJCHPDH@input?$AA@ 1000ced8     uliolib51.obj
 0001:0000bee0       ??_C@_06DKIGHACF@output?$AA@ 1000cee0     uliolib51.obj
 0001:0000bee8       ??_C@_06DJHOIPC@?$CFs?3?5?$CFs?$AA@ 1000cee8     uliolib51.obj
 0001:0000bef0       ??_C@_02DKCKIIND@?$CFs?$AA@ 1000cef0     uliolib51.obj
 0001:0000bef4       ??_C@_05KCHOJJD@FILE?$CK?$AA@ 1000cef4     uliolib51.obj
 0001:0000befc       ??_C@_0M@IBKPHHKH@closed?5file?$AA@ 1000cefc     uliolib51.obj
 0001:0000bf08       ??_C@_04DAMGJPCA@file?$AA@ 1000cf08     uliolib51.obj
 0001:0000bf10       ??_C@_0BN@LPOOHAOM@attempt?5to?5use?5a?5closed?5file?$AA@ 1000cf10     uliolib51.obj
 0001:0000bf30       ??_C@_0BL@PEFGCPAG@cannot?5close?5standard?5file?$AA@ 1000cf30     uliolib51.obj
 0001:0000bf4c       ??_C@_07DMJMBBKE@__close?$AA@ 1000cf4c     uliolib51.obj
 0001:0000bf54       ??_C@_0O@PLFAPHPG@file?5?$CIclosed?$CJ?$AA@ 1000cf54     uliolib51.obj
 0001:0000bf64       ??_C@_09BPMAMLLD@file?5?$CI?$CFp?$CJ?$AA@ 1000cf64     uliolib51.obj
 0001:0000bf70       ??_C@_17OBBFBLGE@?$AAr?$AAw?$AAa?$AA?$AA@ 1000cf70     uliolib51.obj
 0001:0000bf78       ??_C@_0CP@DHGANCPP@invalid?5mode?5?8?$CFs?8?5?$CIshould?5match?5@ 1000cf78     uliolib51.obj
 0001:0000bfa8       ??_C@_0BL@JMNLNGCA@standard?5?$CFs?5file?5is?5closed?$AA@ 1000cfa8     uliolib51.obj
 0001:0000bfc4       ??_C@_13CIFDLIMG@?$AAw?$AA?$AA@ 1000cfc4     uliolib51.obj
 0001:0000bfc8       ??_C@_03DLDNIBIK@?$CFlf?$AA@ 1000cfc8     uliolib51.obj
 0001:0000bfcc       ??_C@_0P@PJFAGLMH@invalid?5option?$AA@ 1000cfcc     uliolib51.obj
 0001:0000bfdc       ??_C@_0P@CENJCLHM@invalid?5format?$AA@ 1000cfdc     uliolib51.obj
 0001:0000bfec       ??_C@_0BH@PBGIDLEF@file?5is?5already?5closed?$AA@ 1000cfec     uliolib51.obj
 0001:0000c004       ??_C@_05CGOEHEFE@?$CF?414g?$AA@ 1000d004     uliolib51.obj
 0001:0000c00c       ??_C@_05MHOFLBOO@stdin?$AA@ 1000d00c     uliolib51.obj
 0001:0000c014       ??_C@_06DJDOIFHB@stdout?$AA@ 1000d014     uliolib51.obj
 0001:0000c01c       ??_C@_06FJGNEBG@stderr?$AA@ 1000d01c     uliolib51.obj
 0001:0000c06c       ??_C@_07KOEABFCN@loadlib?$AA@ 1000d06c     uloadlib51.obj
 0001:0000c074       ??_C@_06LNOHAKGK@seeall?$AA@ 1000d074     uloadlib51.obj
 0001:0000c07c       ??_C@_06BIEEJMKO@module?$AA@ 1000d07c     uloadlib51.obj
 0001:0000c084       ??_C@_07FFLLPPLH@require?$AA@ 1000d084     uloadlib51.obj
 0001:0000c08c       ??_C@_0BN@GMPFCLAN@unable?5to?5get?5ModuleFileName?$AA@ 1000d08c     uloadlib51.obj
 0001:0000c0ac       ??_C@_13MGDFOILI@?$AA?$CB?$AA?$AA@ 1000d0ac     uloadlib51.obj
 0001:0000c0b0       ??_C@_09GMLHALBF@LOADLIB?3?5?$AA@ 1000d0b0     uloadlib51.obj
 0001:0000c0bc       ??_C@_04HDOCAJNK@?$CFs?$CFs?$AA@ 1000d0bc     uloadlib51.obj
 0001:0000c0c4       ??_C@_08HNNNOMMJ@_LOADLIB?$AA@ 1000d0c4     uloadlib51.obj
 0001:0000c0d0       ??_C@_04HKFDNBLD@init?$AA@ 1000d0d0     uloadlib51.obj
 0001:0000c0d8       ??_C@_13FPGAJAPJ@?$AA?2?$AA?$AA@ 1000d0d8     uloadlib51.obj
 0001:0000c0dc       ??_C@_13JOFGPIOO@?$AA?4?$AA?$AA@ 1000d0dc     uloadlib51.obj
 0001:0000c0e0       ??_C@_0BO@COFCKCAL@?8package?4?$CFs?8?5must?5be?5a?5string?$AA@ 1000d0e0     uloadlib51.obj
 0001:0000c100       ??_C@_0CE@EPEHLLIH@?8package?4?$CFs?8?5contains?5invalid?5UT@ 1000d100     uloadlib51.obj
 0001:0000c124       ??_C@_13HGPDMIBE@?$AA?$DP?$AA?$AA@ 1000d124     uloadlib51.obj
 0001:0000c128       ??_C@_0P@NEBKIMDC@?6?7no?5file?5?8?$CFs?8?$AA@ 1000d128     uloadlib51.obj
 0001:0000c138       ??_C@_0CO@KHMIPLKM@error?5loading?5module?5?8?$CFs?8?5from?5f@ 1000d138     uloadlib51.obj
 0001:0000c168       ??_C@_01IDAFKMJL@_?$AA@    1000d168     uloadlib51.obj
 0001:0000c16c       ??_C@_01LFCBOECM@?4?$AA@   1000d16c     uloadlib51.obj
 0001:0000c170       ??_C@_0L@KHKMBFOE@luaopen_?$CFs?$AA@ 1000d170     uloadlib51.obj
 0001:0000c17c       ??_C@_0BO@KOILFIGK@?6?7no?5module?5?8?$CFs?8?5in?5file?5?8?$CFs?8?$AA@ 1000d17c     uloadlib51.obj
 0001:0000c19c       ??_C@_0CC@CCJHFBLH@?8package?4preload?8?5must?5be?5a?5tabl@ 1000d19c     uloadlib51.obj
 0001:0000c1c0       ??_C@_0CB@NPNABMBF@?6?7no?5field?5package?4preload?$FL?8?$CFs?8?$FN@ 1000d1c0     uloadlib51.obj
 0001:0000c1e4       ??_C@_07PINPBNPB@_LOADED?$AA@ 1000d1e4     uloadlib51.obj
 0001:0000c1ec       ??_C@_0CL@DIEJCPFH@loop?5or?5previous?5error?5loading?5m@ 1000d1ec     uloadlib51.obj
 0001:0000c218       ??_C@_07JAOCDFCG@loaders?$AA@ 1000d218     uloadlib51.obj
 0001:0000c220       ??_C@_0CC@IGEJMOFI@?8package?4loaders?8?5must?5be?5a?5tabl@ 1000d220     uloadlib51.obj
 0001:0000c244       ??_C@_0BJ@HFHHABH@module?5?8?$CFs?8?5not?5found?3?$CFs?$AA@ 1000d244     uloadlib51.obj
 0001:0000c260       ??_C@_01INIBCBCB@f?$AA@    1000d260     uloadlib51.obj
 0001:0000c264       ??_C@_0CI@GKOMOAFD@?8module?8?5not?5called?5from?5a?5Lua?5f@ 1000d264     uloadlib51.obj
 0001:0000c28c       ??_C@_02CCIJHOCI@_M?$AA@   1000d28c     uloadlib51.obj
 0001:0000c290       ??_C@_05ICMCJINN@_NAME?$AA@ 1000d290     uloadlib51.obj
 0001:0000c298       ??_C@_08HONLOGDK@_PACKAGE?$AA@ 1000d298     uloadlib51.obj
 0001:0000c2a4       ??_C@_0BO@CBJIAGLF@name?5conflict?5for?5module?5?8?$CFs?8?$AA@ 1000d2a4     uloadlib51.obj
 0001:0000c2c4       ??_C@_17KOAMMDLI@?$AA?$DL?$AA?$AB?$AA?$DL?$AA?$AA@ 1000d2c4     uloadlib51.obj
 0001:0000c2cc       ??_C@_15HKKNGJC@?$AA?$DL?$AA?$DL?$AA?$AA@ 1000d2cc     uloadlib51.obj
 0001:0000c2d4       ??_C@_13GGAHEHIG@?$AA?$AB?$AA?$AA@ 1000d2d4     uloadlib51.obj
 0001:0000c2d8       ??_C@_1HE@JLDBNBHO@?$AA?4?$AA?2?$AA?$DP?$AA?4?$AAl?$AAu?$AAa?$AA?$DL?$AA?$CB?$AA?2?$AAl?$AAu?$AAa?$AA?2?$AA?$DP?$AA?4?$AAl?$AAu?$AAa?$AA?$DL?$AA?$CB?$AA?2?$AAl?$AAu?$AAa?$AA?2?$AA?$DP?$AA?2?$AAi?$AAn?$AAi?$AAt@ 1000d2d8     uloadlib51.obj
 0001:0000c34c       ??_C@_1BC@ILFFIBFI@?$AAL?$AAU?$AAA?$AA_?$AAP?$AAA?$AAT?$AAH?$AA?$AA@ 1000d34c     uloadlib51.obj
 0001:0000c360       ??_C@_1DM@FGPGEDD@?$AA?4?$AA?2?$AA?$DP?$AA?4?$AAd?$AAl?$AAl?$AA?$DL?$AA?$CB?$AA?2?$AA?$DP?$AA?4?$AAd?$AAl?$AAl?$AA?$DL?$AA?$CB?$AA?2?$AAl?$AAo?$AAa?$AAd?$AAa?$AAl?$AAl?$AA?4?$AAd?$AAl?$AAl?$AA?$AA@ 1000d360     uloadlib51.obj
 0001:0000c39c       ??_C@_1BE@EFNILHBI@?$AAL?$AAU?$AAA?$AA_?$AAC?$AAP?$AAA?$AAT?$AAH?$AA?$AA@ 1000d39c     uloadlib51.obj
 0001:0000c3b0       ??_C@_1BE@CKNDCMBB@?$AA?2?$AA?6?$AA?$DL?$AA?6?$AA?$DP?$AA?6?$AA?$CB?$AA?6?$AA?9?$AA?$AA@ 1000d3b0     uloadlib51.obj
 0001:0000c3c4       ??_C@_06HEJKKHEK@config?$AA@ 1000d3c4     uloadlib51.obj
 0001:0000c3cc       ??_C@_06IILMCCFO@loaded?$AA@ 1000d3cc     uloadlib51.obj
 0001:0000c3d8       _ustring_funcs             1000d3d8     ustring.obj
 0001:0000c488       ??_C@_0BE@DEHGONAH@EnumSystemCodePages?$AA@ 1000d488     ustring.obj
 0001:0000c49c       ??_C@_06FMJLOCAF@GetACP?$AA@ 1000d49c     ustring.obj
 0001:0000c4a4       ??_C@_09HLFMNDA@GetCPInfo?$AA@ 1000d4a4     ustring.obj
 0001:0000c4b0       ??_C@_0N@IIBOJKJ@GetDriveType?$AA@ 1000d4b0     ustring.obj
 0001:0000c4c0       ??_C@_0M@KHMMJMNI@GetFileAttr?$AA@ 1000d4c0     ustring.obj
 0001:0000c4cc       ??_C@_0BH@KKAFOIJJ@GetLogicalDriveStrings?$AA@ 1000d4cc     ustring.obj
 0001:0000c4e4       ??_C@_08OMCNFONF@GetOEMCP?$AA@ 1000d4e4     ustring.obj
 0001:0000c4f0       ??_C@_0BD@IHIHPGDL@GlobalMemoryStatus?$AA@ 1000d4f0     ustring.obj
 0001:0000c504       ??_C@_0BE@HCIKGJGE@MultiByteToWideChar?$AA@ 1000d504     ustring.obj
 0001:0000c518       ??_C@_09EPINLGBH@OemToUtf8?$AA@ 1000d518     ustring.obj
 0001:0000c524       ??_C@_0BA@MNJFBAJH@SHGetFolderPath?$AA@ 1000d524     ustring.obj
 0001:0000c534       ??_C@_0L@PMCLJMMJ@SearchPath?$AA@ 1000d534     ustring.obj
 0001:0000c540       ??_C@_0M@KINCEKFL@SetFileAttr?$AA@ 1000d540     ustring.obj
 0001:0000c54c       ??_C@_05PFDOMJEF@Sleep?$AA@ 1000d54c     ustring.obj
 0001:0000c554       ??_C@_0M@KJELMDJD@Utf16ToUtf8?$AA@ 1000d554     ustring.obj
 0001:0000c560       ??_C@_09LCEKPEGC@Utf8ToOem?$AA@ 1000d560     ustring.obj
 0001:0000c56c       ??_C@_0M@GJGCILHG@Utf8ToUtf16?$AA@ 1000d56c     ustring.obj
 0001:0000c578       ??_C@_04NDFIEGPL@Uuid?$AA@ 1000d578     ustring.obj
 0001:0000c580       ??_C@_0BE@LJADKLBD@WideCharToMultiByte?$AA@ 1000d580     ustring.obj
 0001:0000c594       ??_C@_04GFOHBGIO@subW?$AA@ 1000d594     ustring.obj
 0001:0000c59c       ??_C@_04NOFELICG@lenW?$AA@ 1000d59c     ustring.obj
 0001:0000c5a4       ??_C@_0BB@BLJKPILH@system?5error?5?$CFd?6?$AA@ 1000d5a4     ustring.obj
 0001:0000c5b8       ??_C@_0BJ@MEAJDMDL@invalid?5multibyte?5string?$AA@ 1000d5b8     ustring.obj
 0001:0000c5d4       ??_C@_0BG@ELIKBHAO@invalid?5UTF?916?5string?$AA@ 1000d5d4     ustring.obj
 0001:0000c5ec       ??_C@_0M@KJGJBDLL@MaxCharSize?$AA@ 1000d5ec     ustring.obj
 0001:0000c5f8       ??_C@_0M@IMOFNPBB@DefaultChar?$AA@ 1000d5f8     ustring.obj
 0001:0000c604       ??_C@_08HIIJAENB@LeadByte?$AA@ 1000d604     ustring.obj
 0001:0000c610       ??_C@_0BD@CBNPFFPH@UnicodeDefaultChar?$AA@ 1000d610     ustring.obj
 0001:0000c624       ??_C@_0N@DJCOCBOB@CodePageName?$AA@ 1000d624     ustring.obj
 0001:0000c634       ??_C@_0N@IFJMFGJK@unknown?5type?$AA@ 1000d634     ustring.obj
 0001:0000c644       ??_C@_0BC@GPFCFLGN@no?5root?5directory?$AA@ 1000d644     ustring.obj
 0001:0000c658       ??_C@_09HPGMKNKO@removable?$AA@ 1000d658     ustring.obj
 0001:0000c664       ??_C@_05OFLEIIDM@fixed?$AA@ 1000d664     ustring.obj
 0001:0000c66c       ??_C@_06IMIHEKN@remote?$AA@ 1000d66c     ustring.obj
 0001:0000c674       ??_C@_05POABADMF@cdrom?$AA@ 1000d674     ustring.obj
 0001:0000c67c       ??_C@_07BHCBOAMP@ramdisk?$AA@ 1000d67c     ustring.obj
 0001:0000c684       ??_C@_0L@PLJFMBIJ@MemoryLoad?$AA@ 1000d684     ustring.obj
 0001:0000c690       ??_C@_09MMAOIBBJ@TotalPhys?$AA@ 1000d690     ustring.obj
 0001:0000c69c       ??_C@_09KFOEOLH@AvailPhys?$AA@ 1000d69c     ustring.obj
 0001:0000c6a8       ??_C@_0O@PEEMGPEP@TotalPageFile?$AA@ 1000d6a8     ustring.obj
 0001:0000c6b8       ??_C@_0O@LLHOKNF@AvailPageFile?$AA@ 1000d6b8     ustring.obj
 0001:0000c6c8       ??_C@_0N@LCJEOHMM@TotalVirtual?$AA@ 1000d6c8     ustring.obj
 0001:0000c6d8       ??_C@_0N@EGHLANBF@AvailVirtual?$AA@ 1000d6d8     ustring.obj
 0001:0000c6e8       ??_C@_0BF@KKNLCGDE@AvailExtendedVirtual?$AA@ 1000d6e8     ustring.obj
 0001:0000c700       ??_C@_0P@KJDDGAFH@FileAttributes?$AA@ 1000d700     ustring.obj
 0001:0000c710       ??_C@_07JOJHCKGP@ustring?$AA@ 1000d710     ustring.obj
 0001:0000cee0       ??_C@_0DJ@KKHMCMAP@bad?5field?5?$FL?$CFd?$FN?5in?5table?5stackpos@ 1000dee0     util.obj
 0001:0000cf1c       ??_C@_0DJ@PFHHGAMM@bad?5field?5?8?$CFs?8?5in?5table?5stackpos@ 1000df1c     util.obj
 0001:0000cf58       ??_C@_06EBGNBFIA@number?$AA@ 1000df58     util.obj
 0001:0000d5e0       _win_funcs                 1000e5e0     win.obj
 0001:0000d7f0       ??_C@_0O@CFPMOCDP@CompareString?$AA@ 1000e7f0     win.obj
 0001:0000d800       ??_C@_08PPLNFCGA@CopyFile?$AA@ 1000e800     win.obj
 0001:0000d80c       ??_C@_09INHPLKKM@CreateDir?$AA@ 1000e80c     win.obj
 0001:0000d818       ??_C@_0L@GPLPOFDC@DeleteFile?$AA@ 1000e818     win.obj
 0001:0000d824       ??_C@_0N@FOJPHHPH@DeleteRegKey?$AA@ 1000e824     win.obj
 0001:0000d834       ??_C@_0L@DGAGCFOP@EnumRegKey?$AA@ 1000e834     win.obj
 0001:0000d840       ??_C@_0N@PFFNCIBD@EnumRegValue?$AA@ 1000e840     win.obj
 0001:0000d850       ??_C@_0L@MGMEFCAE@ExtractKey?$AA@ 1000e850     win.obj
 0001:0000d85c       ??_C@_0BI@EKFDIGHI@FileTimeToLocalFileTime?$AA@ 1000e85c     win.obj
 0001:0000d874       ??_C@_0BF@KPJNHALE@FileTimeToSystemTime?$AA@ 1000e874     win.obj
 0001:0000d88c       ??_C@_0BL@NAIJNMLL@GetConsoleScreenBufferInfo?$AA@ 1000e88c     win.obj
 0001:0000d8a8       ??_C@_06CALCCDMF@GetEnv?$AA@ 1000e8a8     win.obj
 0001:0000d8b0       ??_C@_0M@EINGHLOA@GetFileInfo?$AA@ 1000e8b0     win.obj
 0001:0000d8bc       ??_C@_09GFGIAJLD@GetRegKey?$AA@ 1000e8bc     win.obj
 0001:0000d8c8       ??_C@_0BI@ENMDHCMK@GetSystemTimeAsFileTime?$AA@ 1000e8c8     win.obj
 0001:0000d8e0       ??_C@_0P@GGGHOPAD@GetVirtualKeys?$AA@ 1000e8e0     win.obj
 0001:0000d8f0       ??_C@_08CALLHOCI@MoveFile?$AA@ 1000e8f0     win.obj
 0001:0000d8fc       ??_C@_09EDKALOCB@RemoveDir?$AA@ 1000e8fc     win.obj
 0001:0000d908       ??_C@_0L@HBAGBENL@RenameFile?$AA@ 1000e908     win.obj
 0001:0000d914       ??_C@_06LDCDJLBI@SetEnv?$AA@ 1000e914     win.obj
 0001:0000d91c       ??_C@_09ELCNCICB@SetRegKey?$AA@ 1000e91c     win.obj
 0001:0000d928       ??_C@_0N@BFFIJKHB@ShellExecute?$AA@ 1000e928     win.obj
 0001:0000d938       ??_C@_0BF@HBHGIPOG@SystemTimeToFileTime?$AA@ 1000e938     win.obj
 0001:0000d950       ??_C@_06DNONFAKH@wcscmp?$AA@ 1000e950     win.obj
 0001:0000d958       ??_C@_04CBBMIBLK@HKLM?$AA@ 1000e958     win.obj
 0001:0000d960       ??_C@_04LEMDOLAJ@HKCC?$AA@ 1000e960     win.obj
 0001:0000d968       ??_C@_04OHBKMIBJ@HKCR?$AA@ 1000e968     win.obj
 0001:0000d970       ??_C@_04KIFLFONO@HKCU?$AA@ 1000e970     win.obj
 0001:0000d978       ??_C@_03DLBIJLAB@HKU?$AA@  1000e978     win.obj
 0001:0000d97c       ??_C@_0DA@DKALLFDI@must?5be?5?8HKLM?8?0?5?8HKCC?8?0?5?8HKCR?8?0?5@ 1000e97c     win.obj
 0001:0000d9ac       ??_C@_05KDALNKAH@dword?$AA@ 1000e9ac     win.obj
 0001:0000d9b4       ??_C@_06FNFBAEBE@binary?$AA@ 1000e9b4     win.obj
 0001:0000d9bc       ??_C@_0N@CBOMHLPN@expandstring?$AA@ 1000e9bc     win.obj
 0001:0000d9cc       ??_C@_0M@PEGIPCHN@multistring?$AA@ 1000e9cc     win.obj
 0001:0000d9d8       ??_C@_0BH@NOJOGNJM@unsupported?5value?5type?$AA@ 1000e9d8     win.obj
 0001:0000d9f0       ??_C@_0BD@MJODDCFG@OpenRegKey?5failed?4?$AA@ 1000e9f0     win.obj
 0001:0000da04       ??_C@_0BI@COLHBIIE@RegQueryValueEx?5failed?4?$AA@ 1000ea04     win.obj
 0001:0000da1c       ??_C@_0BG@HHFHBIKG@RegOpenKeyExW?5failed?4?$AA@ 1000ea1c     win.obj
 0001:0000da34       ??_C@_05DFPNHDMN@wYear?$AA@ 1000ea34     win.obj
 0001:0000da3c       ??_C@_06MGNNJGBJ@wMonth?$AA@ 1000ea3c     win.obj
 0001:0000da44       ??_C@_0L@OAHPHHP@wDayOfWeek?$AA@ 1000ea44     win.obj
 0001:0000da50       ??_C@_04NBLBJIPP@wDay?$AA@ 1000ea50     win.obj
 0001:0000da58       ??_C@_05BMOPCGDH@wHour?$AA@ 1000ea58     win.obj
 0001:0000da60       ??_C@_07HPODENI@wMinute?$AA@ 1000ea60     win.obj
 0001:0000da68       ??_C@_07IIEDHHJN@wSecond?$AA@ 1000ea68     win.obj
 0001:0000da70       ??_C@_0O@HBAPEOKP@wMilliseconds?$AA@ 1000ea70     win.obj
 0001:0000da80       ??_C@_01LKDEMHDF@s?$AA@    1000ea80     win.obj
 0001:0000da84       ??_C@_0BA@IAFODGNM@CursorPositionX?$AA@ 1000ea84     win.obj
 0001:0000da94       ??_C@_0BA@JJEFAHJN@CursorPositionY?$AA@ 1000ea94     win.obj
 0001:0000daa4       ??_C@_0L@NFCEOFBF@WindowLeft?$AA@ 1000eaa4     win.obj
 0001:0000dab0       ??_C@_09JHGOALHG@WindowTop?$AA@ 1000eab0     win.obj
 0001:0000dabc       ??_C@_0M@HHPHMPGH@WindowRight?$AA@ 1000eabc     win.obj
 0001:0000dac8       ??_C@_0N@JPIJCAOJ@WindowBottom?$AA@ 1000eac8     win.obj
 0001:0000dad8       ??_C@_0BD@DOLDEII@MaximumWindowSizeX?$AA@ 1000ead8     win.obj
 0001:0000daec       ??_C@_0BD@BKPAAFMJ@MaximumWindowSizeY?$AA@ 1000eaec     win.obj
 0001:0000db00       ??_C@_01PFHFFBPC@t?$AA@    1000eb00     win.obj
 0001:0000db04       ??_C@_0BJ@LPJMBJJL@directory?5already?5exists?$AA@ 1000eb04     win.obj
 0001:0000db20       __real@41f0000000000000    1000eb20     win.obj
 0001:0000db30       __imp__EncodePointer@4     1000eb30     vc_crt_fix.obj
 0001:0000db34       __imp__DecodePointer@4     1000eb34     vc_crt_fix.obj
 0001:0000db38       __imp__GetModuleHandleExW@12 1000eb38     vc_crt_fix.obj
 0001:0000db3c       ??_C@_0O@NLDKAIKN@EncodePointer?$AA@ 1000eb3c     vc_crt_fix_impl.obj
 0001:0000db4c       ??_C@_0O@KBPMFGHI@DecodePointer?$AA@ 1000eb4c     vc_crt_fix_impl.obj
 0001:0000db5c       ??_C@_0BD@GIGEJCNH@GetModuleHandleExW?$AA@ 1000eb5c     vc_crt_fix_impl.obj
 0001:0000db70       ??_C@_1BC@GDMECMAK@?$AAk?$AAe?$AAr?$AAn?$AAe?$AAl?$AA3?$AA2?$AA?$AA@ 1000eb70     vc_crt_fix_impl.obj
 0001:0000db84       __FPinit                   1000eb84     LIBCMT:fpinit.obj
 0001:0000db88       ??_C@_0EA@FCLIIPNN@Visual?5C?$CL?$CL?5CRT?3?5Not?5enough?5memor@ 1000eb88     LIBCMT:strerror.obj
 0001:0000e540       ??_C@_01KICIPPFI@?2?$AA@   1000f540     LIBCMT:popen.obj
 0001:0000e544       ??_C@_1BA@HMCCKBDK@?$AAC?$AAO?$AAM?$AAS?$AAP?$AAE?$AAC?$AA?$AA@ 1000f544     LIBCMT:wpopen.obj
 0001:0000e554       ??_C@_1BA@DBKIDAPL@?$AAc?$AAm?$AAd?$AA?4?$AAe?$AAx?$AAe?$AA?$AA@ 1000f554     LIBCMT:wpopen.obj
 0001:0000e564       ??_C@_19FNCMDGGJ@?$AA?5?$AA?1?$AAc?$AA?5?$AA?$AA@ 1000f564     LIBCMT:wpopen.obj
 0001:0000e570       ??_C@_19IJOJOJIB@?$AAP?$AAA?$AAT?$AAH?$AA?$AA@ 1000f570     LIBCMT:wpopen.obj
 0001:0000e57c       __pRawDllMain              1000f57c     LIBCMT:dllcrt0.obj
 0001:0000e57c       __pDefaultRawDllMain       1000f57c     LIBCMT:dllcrt0.obj
 0001:0000e580       ??_C@_06OJHGLDPL@?$CInull?$CJ?$AA@ 1000f580     LIBCMT:output.obj
 0001:0000e588       ??_C@_1O@CEDCILHN@?$AA?$CI?$AAn?$AAu?$AAl?$AAl?$AA?$CJ?$AA?$AA@ 1000f588     LIBCMT:output.obj
 0001:0000e598       ___lookuptable             1000f598     LIBCMT:output.obj
 0001:0000e5f4       ??_C@_05KLBDPFGC@e?$CL000?$AA@ 1000f5f4     LIBCMT:cvt.obj
 0001:0000e5fc       ??_C@_1BI@BGOHAHKC@?$AAm?$AAs?$AAc?$AAo?$AAr?$AAe?$AAe?$AA?4?$AAd?$AAl?$AAl?$AA?$AA@ 1000f5fc     LIBCMT:crt0dat.obj
 0001:0000e614       ??_C@_0P@MIGLKIOC@CorExitProcess?$AA@ 1000f614     LIBCMT:crt0dat.obj
 0001:0000e628       ??_C@_1FE@LLNEDJMD@?$AAR?$AA6?$AA0?$AA0?$AA8?$AA?$AN?$AA?6?$AA?9?$AA?5?$AAn?$AAo?$AAt?$AA?5?$AAe?$AAn?$AAo?$AAu?$AAg?$AAh?$AA?5?$AAs?$AAp?$AAa?$AAc?$AAe?$AA?5?$AAf?$AAo?$AAr?$AA?5?$AAa?$AAr@ 1000f628     LIBCMT:crt0msg.obj
 0001:0000e680       ??_C@_1FI@HONFMGBI@?$AAR?$AA6?$AA0?$AA0?$AA9?$AA?$AN?$AA?6?$AA?9?$AA?5?$AAn?$AAo?$AAt?$AA?5?$AAe?$AAn?$AAo?$AAu?$AAg?$AAh?$AA?5?$AAs?$AAp?$AAa?$AAc?$AAe?$AA?5?$AAf?$AAo?$AAr?$AA?5?$AAe?$AAn@ 1000f680     LIBCMT:crt0msg.obj
 0001:0000e6d8       ??_C@_1EG@BEHAGFJD@?$AAR?$AA6?$AA0?$AA1?$AA0?$AA?$AN?$AA?6?$AA?9?$AA?5?$AAa?$AAb?$AAo?$AAr?$AAt?$AA?$CI?$AA?$CJ?$AA?5?$AAh?$AAa?$AAs?$AA?5?$AAb?$AAe?$AAe?$AAn?$AA?5?$AAc?$AAa?$AAl?$AAl?$AAe?$AAd@ 1000f6d8     LIBCMT:crt0msg.obj
 0001:0000e720       ??_C@_1FI@LOGNIKDM@?$AAR?$AA6?$AA0?$AA1?$AA6?$AA?$AN?$AA?6?$AA?9?$AA?5?$AAn?$AAo?$AAt?$AA?5?$AAe?$AAn?$AAo?$AAu?$AAg?$AAh?$AA?5?$AAs?$AAp?$AAa?$AAc?$AAe?$AA?5?$AAf?$AAo?$AAr?$AA?5?$AAt?$AAh@ 1000f720     LIBCMT:crt0msg.obj
 0001:0000e778       ??_C@_1FK@BEOGODMC@?$AAR?$AA6?$AA0?$AA1?$AA7?$AA?$AN?$AA?6?$AA?9?$AA?5?$AAu?$AAn?$AAe?$AAx?$AAp?$AAe?$AAc?$AAt?$AAe?$AAd?$AA?5?$AAm?$AAu?$AAl?$AAt?$AAi?$AAt?$AAh?$AAr?$AAe?$AAa?$AAd?$AA?5@ 1000f778     LIBCMT:crt0msg.obj
 0001:0000e7d8       ??_C@_1EC@JIBHAOPH@?$AAR?$AA6?$AA0?$AA1?$AA8?$AA?$AN?$AA?6?$AA?9?$AA?5?$AAu?$AAn?$AAe?$AAx?$AAp?$AAe?$AAc?$AAt?$AAe?$AAd?$AA?5?$AAh?$AAe?$AAa?$AAp?$AA?5?$AAe?$AAr?$AAr?$AAo?$AAr?$AA?$AN?$AA?6@ 1000f7d8     LIBCMT:crt0msg.obj
 0001:0000e820       ??_C@_1FC@ECHBIFBC@?$AAR?$AA6?$AA0?$AA1?$AA9?$AA?$AN?$AA?6?$AA?9?$AA?5?$AAu?$AAn?$AAa?$AAb?$AAl?$AAe?$AA?5?$AAt?$AAo?$AA?5?$AAo?$AAp?$AAe?$AAn?$AA?5?$AAc?$AAo?$AAn?$AAs?$AAo?$AAl?$AAe?$AA?5@ 1000f820     LIBCMT:crt0msg.obj
 0001:0000e878       ??_C@_1GK@FHCKBEFA@?$AAR?$AA6?$AA0?$AA2?$AA4?$AA?$AN?$AA?6?$AA?9?$AA?5?$AAn?$AAo?$AAt?$AA?5?$AAe?$AAn?$AAo?$AAu?$AAg?$AAh?$AA?5?$AAs?$AAp?$AAa?$AAc?$AAe?$AA?5?$AAf?$AAo?$AAr?$AA?5?$AA_?$AAo@ 1000f878     LIBCMT:crt0msg.obj
 0001:0000e8e8       ??_C@_1EM@MAADIHMB@?$AAR?$AA6?$AA0?$AA2?$AA5?$AA?$AN?$AA?6?$AA?9?$AA?5?$AAp?$AAu?$AAr?$AAe?$AA?5?$AAv?$AAi?$AAr?$AAt?$AAu?$AAa?$AAl?$AA?5?$AAf?$AAu?$AAn?$AAc?$AAt?$AAi?$AAo?$AAn?$AA?5?$AAc@ 1000f8e8     LIBCMT:crt0msg.obj
 0001:0000e938       ??_C@_1GK@MCAAGJMO@?$AAR?$AA6?$AA0?$AA2?$AA6?$AA?$AN?$AA?6?$AA?9?$AA?5?$AAn?$AAo?$AAt?$AA?5?$AAe?$AAn?$AAo?$AAu?$AAg?$AAh?$AA?5?$AAs?$AAp?$AAa?$AAc?$AAe?$AA?5?$AAf?$AAo?$AAr?$AA?5?$AAs?$AAt@ 1000f938     LIBCMT:crt0msg.obj
 0001:0000e9a8       ??_C@_1GK@MFGOKLAG@?$AAR?$AA6?$AA0?$AA2?$AA7?$AA?$AN?$AA?6?$AA?9?$AA?5?$AAn?$AAo?$AAt?$AA?5?$AAe?$AAn?$AAo?$AAu?$AAg?$AAh?$AA?5?$AAs?$AAp?$AAa?$AAc?$AAe?$AA?5?$AAf?$AAo?$AAr?$AA?5?$AAl?$AAo@ 1000f9a8     LIBCMT:crt0msg.obj
 0001:0000ea18       ??_C@_1EK@HHFLMAOL@?$AAR?$AA6?$AA0?$AA2?$AA8?$AA?$AN?$AA?6?$AA?9?$AA?5?$AAu?$AAn?$AAa?$AAb?$AAl?$AAe?$AA?5?$AAt?$AAo?$AA?5?$AAi?$AAn?$AAi?$AAt?$AAi?$AAa?$AAl?$AAi?$AAz?$AAe?$AA?5?$AAh?$AAe@ 1000fa18     LIBCMT:crt0msg.obj
 0001:0000ea64       ??_C@_1DO@BMFCDCD@?$AAR?$AA6?$AA0?$AA3?$AA0?$AA?$AN?$AA?6?$AA?9?$AA?5?$AAC?$AAR?$AAT?$AA?5?$AAn?$AAo?$AAt?$AA?5?$AAi?$AAn?$AAi?$AAt?$AAi?$AAa?$AAl?$AAi?$AAz?$AAe?$AAd?$AA?$AN?$AA?6?$AA?$AA@ 1000fa64     LIBCMT:crt0msg.obj
 0001:0000eaa8       ??_C@_1MG@ENCOOIDF@?$AAR?$AA6?$AA0?$AA3?$AA1?$AA?$AN?$AA?6?$AA?9?$AA?5?$AAA?$AAt?$AAt?$AAe?$AAm?$AAp?$AAt?$AA?5?$AAt?$AAo?$AA?5?$AAi?$AAn?$AAi?$AAt?$AAi?$AAa?$AAl?$AAi?$AAz?$AAe?$AA?5?$AAt@ 1000faa8     LIBCMT:crt0msg.obj
 0001:0000eb70       ??_C@_1GG@GOPILAJP@?$AAR?$AA6?$AA0?$AA3?$AA2?$AA?$AN?$AA?6?$AA?9?$AA?5?$AAn?$AAo?$AAt?$AA?5?$AAe?$AAn?$AAo?$AAu?$AAg?$AAh?$AA?5?$AAs?$AAp?$AAa?$AAc?$AAe?$AA?5?$AAf?$AAo?$AAr?$AA?5?$AAl?$AAo@ 1000fb70     LIBCMT:crt0msg.obj
 0001:0000ebd8       ??_C@_1BOO@KGEDBGAJ@?$AAR?$AA6?$AA0?$AA3?$AA3?$AA?$AN?$AA?6?$AA?9?$AA?5?$AAA?$AAt?$AAt?$AAe?$AAm?$AAp?$AAt?$AA?5?$AAt?$AAo?$AA?5?$AAu?$AAs?$AAe?$AA?5?$AAM?$AAS?$AAI?$AAL?$AA?5?$AAc?$AAo?$AAd@ 1000fbd8     LIBCMT:crt0msg.obj
 0001:0000edc8       ??_C@_1GG@MKFPEKFO@?$AAR?$AA6?$AA0?$AA3?$AA4?$AA?$AN?$AA?6?$AA?9?$AA?5?$AAi?$AAn?$AAc?$AAo?$AAn?$AAs?$AAi?$AAs?$AAt?$AAe?$AAn?$AAt?$AA?5?$AAo?$AAn?$AAe?$AAx?$AAi?$AAt?$AA?5?$AAb?$AAe?$AAg@ 1000fdc8     LIBCMT:crt0msg.obj
 0001:0000ee30       ??_C@_1BO@BFCDCGC@?$AAD?$AAO?$AAM?$AAA?$AAI?$AAN?$AA?5?$AAe?$AAr?$AAr?$AAo?$AAr?$AA?$AN?$AA?6?$AA?$AA@ 1000fe30     LIBCMT:crt0msg.obj
 0001:0000ee50       ??_C@_1BK@KMOMNAAI@?$AAS?$AAI?$AAN?$AAG?$AA?5?$AAe?$AAr?$AAr?$AAo?$AAr?$AA?$AN?$AA?6?$AA?$AA@ 1000fe50     LIBCMT:crt0msg.obj
 0001:0000ee6c       ??_C@_1BM@JBBEPPHI@?$AAT?$AAL?$AAO?$AAS?$AAS?$AA?5?$AAe?$AAr?$AAr?$AAo?$AAr?$AA?$AN?$AA?6?$AA?$AA@ 1000fe6c     LIBCMT:crt0msg.obj
 0001:0000ee88       ??_C@_15JNBOKNOG@?$AA?$AN?$AA?6?$AA?$AA@ 1000fe88     LIBCMT:crt0msg.obj
 0001:0000ee90       ??_C@_1BO@BKOMIGKJ@?$AAr?$AAu?$AAn?$AAt?$AAi?$AAm?$AAe?$AA?5?$AAe?$AAr?$AAr?$AAo?$AAr?$AA?5?$AA?$AA@ 1000fe90     LIBCMT:crt0msg.obj
 0001:0000ef68       ??_C@_1FK@PGACCAFB@?$AAR?$AA6?$AA0?$AA0?$AA2?$AA?$AN?$AA?6?$AA?9?$AA?5?$AAf?$AAl?$AAo?$AAa?$AAt?$AAi?$AAn?$AAg?$AA?5?$AAp?$AAo?$AAi?$AAn?$AAt?$AA?5?$AAs?$AAu?$AAp?$AAp?$AAo?$AAr?$AAt?$AA?5@ 1000ff68     LIBCMT:crt0msg.obj
 0001:0000efc4       ??_C@_1DE@JNGNBFGO@?$AAR?$AAu?$AAn?$AAt?$AAi?$AAm?$AAe?$AA?5?$AAE?$AAr?$AAr?$AAo?$AAr?$AA?$CB?$AA?6?$AA?6?$AAP?$AAr?$AAo?$AAg?$AAr?$AAa?$AAm?$AA?3?$AA?5?$AA?$AA@ 1000ffc4     LIBCMT:crt0msg.obj
 0001:0000eff8       ??_C@_1CO@EAEJAADC@?$AA?$DM?$AAp?$AAr?$AAo?$AAg?$AAr?$AAa?$AAm?$AA?5?$AAn?$AAa?$AAm?$AAe?$AA?5?$AAu?$AAn?$AAk?$AAn?$AAo?$AAw?$AAn?$AA?$DO?$AA?$AA@ 1000fff8     LIBCMT:crt0msg.obj
 0001:0000f028       ??_C@_17LGKOMLJ@?$AA?4?$AA?4?$AA?4?$AA?$AA@ 10010028     LIBCMT:crt0msg.obj
 0001:0000f030       ??_C@_15IABLJNFO@?$AA?6?$AA?6?$AA?$AA@ 10010030     LIBCMT:crt0msg.obj
 0001:0000f038       ??_C@_1EK@MBDPDCGA@?$AAM?$AAi?$AAc?$AAr?$AAo?$AAs?$AAo?$AAf?$AAt?$AA?5?$AAV?$AAi?$AAs?$AAu?$AAa?$AAl?$AA?5?$AAC?$AA?$CL?$AA?$CL?$AA?5?$AAR?$AAu?$AAn?$AAt?$AAi?$AAm?$AAe?$AA?5?$AAL?$AAi?$AAb@ 10010038     LIBCMT:crt0msg.obj
 0001:0000f088       __sys_errlist              10010088     LIBCMT:syserr.obj
 0001:0000f138       ??_C@_08INEPGKHH@No?5error?$AA@ 10010138     LIBCMT:syserr.obj
 0001:0000f144       ??_C@_0BI@BJFCGOHL@Operation?5not?5permitted?$AA@ 10010144     LIBCMT:syserr.obj
 0001:0000f15c       ??_C@_0BK@FMDHKPNF@No?5such?5file?5or?5directory?$AA@ 1001015c     LIBCMT:syserr.obj
 0001:0000f178       ??_C@_0BA@FKIAIBGA@No?5such?5process?$AA@ 10010178     LIBCMT:syserr.obj
 0001:0000f188       ??_C@_0BK@FJBOAFDK@Interrupted?5function?5call?$AA@ 10010188     LIBCMT:syserr.obj
 0001:0000f1a4       ??_C@_0BD@KKNFOBBD@Input?1output?5error?$AA@ 100101a4     LIBCMT:syserr.obj
 0001:0000f1b8       ??_C@_0BK@DPKMCKJ@No?5such?5device?5or?5address?$AA@ 100101b8     LIBCMT:syserr.obj
 0001:0000f1d4       ??_C@_0BC@MFFGCDFL@Arg?5list?5too?5long?$AA@ 100101d4     LIBCMT:syserr.obj
 0001:0000f1e8       ??_C@_0BC@HKPNECK@Exec?5format?5error?$AA@ 100101e8     LIBCMT:syserr.obj
 0001:0000f1fc       ??_C@_0BE@NFGDDCEF@Bad?5file?5descriptor?$AA@ 100101fc     LIBCMT:syserr.obj
 0001:0000f210       ??_C@_0BD@LOHELEP@No?5child?5processes?$AA@ 10010210     LIBCMT:syserr.obj
 0001:0000f224       ??_C@_0CB@EPFKGNAK@Resource?5temporarily?5unavailable@ 10010224     LIBCMT:syserr.obj
 0001:0000f248       ??_C@_0BB@IMDKMPFB@Not?5enough?5space?$AA@ 10010248     LIBCMT:syserr.obj
 0001:0000f25c       ??_C@_0BC@HFNFNKAI@Permission?5denied?$AA@ 1001025c     LIBCMT:syserr.obj
 0001:0000f270       ??_C@_0M@LOEHLCJD@Bad?5address?$AA@ 10010270     LIBCMT:syserr.obj
 0001:0000f27c       ??_C@_0O@NIPGCINC@Unknown?5error?$AA@ 1001027c     LIBCMT:syserr.obj
 0001:0000f28c       ??_C@_0BA@BIBLIOEK@Resource?5device?$AA@ 1001028c     LIBCMT:syserr.obj
 0001:0000f29c       ??_C@_0M@NAAJNNGH@File?5exists?$AA@ 1001029c     LIBCMT:syserr.obj
 0001:0000f2a8       ??_C@_0O@OAMDNOCP@Improper?5link?$AA@ 100102a8     LIBCMT:syserr.obj
 0001:0000f2b8       ??_C@_0P@NLEIANHE@No?5such?5device?$AA@ 100102b8     LIBCMT:syserr.obj
 0001:0000f2c8       ??_C@_0BA@CJBACOOL@Not?5a?5directory?$AA@ 100102c8     LIBCMT:syserr.obj
 0001:0000f2d8       ??_C@_0P@NDHGCGKE@Is?5a?5directory?$AA@ 100102d8     LIBCMT:syserr.obj
 0001:0000f2e8       ??_C@_0BB@HMGGCEBG@Invalid?5argument?$AA@ 100102e8     LIBCMT:syserr.obj
 0001:0000f2fc       ??_C@_0BO@IIFBODJE@Too?5many?5open?5files?5in?5system?$AA@ 100102fc     LIBCMT:syserr.obj
 0001:0000f31c       ??_C@_0BE@INBJMKGG@Too?5many?5open?5files?$AA@ 1001031c     LIBCMT:syserr.obj
 0001:0000f330       ??_C@_0CE@ONOKNLPF@Inappropriate?5I?1O?5control?5operat@ 10010330     LIBCMT:syserr.obj
 0001:0000f354       ??_C@_0P@LFMMIPAE@File?5too?5large?$AA@ 10010354     LIBCMT:syserr.obj
 0001:0000f364       ??_C@_0BI@FEALHKLD@No?5space?5left?5on?5device?$AA@ 10010364     LIBCMT:syserr.obj
 0001:0000f37c       ??_C@_0N@FEHLOILP@Invalid?5seek?$AA@ 1001037c     LIBCMT:syserr.obj
 0001:0000f38c       ??_C@_0BG@DDBFNKBH@Read?9only?5file?5system?$AA@ 1001038c     LIBCMT:syserr.obj
 0001:0000f3a4       ??_C@_0P@PKCJJLLM@Too?5many?5links?$AA@ 100103a4     LIBCMT:syserr.obj
 0001:0000f3b4       ??_C@_0M@LHEPIIOM@Broken?5pipe?$AA@ 100103b4     LIBCMT:syserr.obj
 0001:0000f3c0       ??_C@_0N@MMJPGLJK@Domain?5error?$AA@ 100103c0     LIBCMT:syserr.obj
 0001:0000f3d0       ??_C@_0BB@FCBJFCAJ@Result?5too?5large?$AA@ 100103d0     LIBCMT:syserr.obj
 0001:0000f3e4       ??_C@_0BK@JAEBMJJM@Resource?5deadlock?5avoided?$AA@ 100103e4     LIBCMT:syserr.obj
 0001:0000f400       ??_C@_0BC@BEDIHIDK@Filename?5too?5long?$AA@ 10010400     LIBCMT:syserr.obj
 0001:0000f414       ??_C@_0BD@CLHBCGPB@No?5locks?5available?$AA@ 10010414     LIBCMT:syserr.obj
 0001:0000f428       ??_C@_0BJ@IHEHINLI@Function?5not?5implemented?$AA@ 10010428     LIBCMT:syserr.obj
 0001:0000f444       ??_C@_0BE@ICMCHPHH@Directory?5not?5empty?$AA@ 10010444     LIBCMT:syserr.obj
 0001:0000f458       ??_C@_0BG@KLEAJEFJ@Illegal?5byte?5sequence?$AA@ 10010458     LIBCMT:syserr.obj
 0001:0000f4b8       ??_C@_1M@HPNHIDJI@?$AAj?$AAa?$AA?9?$AAJ?$AAP?$AA?$AA@ 100104b8     LIBCMT:mbctype.obj
 0001:0000f4c4       ??_C@_1M@BIBDDEMK@?$AAz?$AAh?$AA?9?$AAC?$AAN?$AA?$AA@ 100104c4     LIBCMT:mbctype.obj
 0001:0000f4d0       ??_C@_1M@JLOOOEGK@?$AAk?$AAo?$AA?9?$AAK?$AAR?$AA?$AA@ 100104d0     LIBCMT:mbctype.obj
 0001:0000f4dc       ??_C@_1M@CLNBBOPM@?$AAz?$AAh?$AA?9?$AAT?$AAW?$AA?$AA@ 100104dc     LIBCMT:mbctype.obj
 0001:0000f4e8       ??_C@_03KOEHGMDN@Sun?$AA@  100104e8     LIBCMT:nlsdata.obj
 0001:0000f4ec       ??_C@_03PDAGKDH@Mon?$AA@   100104ec     LIBCMT:nlsdata.obj
 0001:0000f4f0       ??_C@_03NAGEINEP@Tue?$AA@  100104f0     LIBCMT:nlsdata.obj
 0001:0000f4f4       ??_C@_03MHOMLAJA@Wed?$AA@  100104f4     LIBCMT:nlsdata.obj
 0001:0000f4f8       ??_C@_03IOFIKPDN@Thu?$AA@  100104f8     LIBCMT:nlsdata.obj
 0001:0000f4fc       ??_C@_03IDIOELNC@Fri?$AA@  100104fc     LIBCMT:nlsdata.obj
 0001:0000f500       ??_C@_03FEFJNEK@Sat?$AA@   10010500     LIBCMT:nlsdata.obj
 0001:0000f504       ??_C@_06OOPIFAJ@Sunday?$AA@ 10010504     LIBCMT:nlsdata.obj
 0001:0000f50c       ??_C@_06JLEDEDGH@Monday?$AA@ 1001050c     LIBCMT:nlsdata.obj
 0001:0000f514       ??_C@_07BAAGCFCM@Tuesday?$AA@ 10010514     LIBCMT:nlsdata.obj
 0001:0000f51c       ??_C@_09DLIGFAKA@Wednesday?$AA@ 1001051c     LIBCMT:nlsdata.obj
 0001:0000f528       ??_C@_08HACCIKIA@Thursday?$AA@ 10010528     LIBCMT:nlsdata.obj
 0001:0000f534       ??_C@_06JECMNKMI@Friday?$AA@ 10010534     LIBCMT:nlsdata.obj
 0001:0000f53c       ??_C@_08INBOOONO@Saturday?$AA@ 1001053c     LIBCMT:nlsdata.obj
 0001:0000f548       ??_C@_03JIHJHPIE@Jan?$AA@  10010548     LIBCMT:nlsdata.obj
 0001:0000f54c       ??_C@_03HJBDCHOM@Feb?$AA@  1001054c     LIBCMT:nlsdata.obj
 0001:0000f550       ??_C@_03ODNJBKGA@Mar?$AA@  10010550     LIBCMT:nlsdata.obj
 0001:0000f554       ??_C@_03LEOLGMJP@Apr?$AA@  10010554     LIBCMT:nlsdata.obj
 0001:0000f558       ??_C@_03CNMDKL@May?$AA@    10010558     LIBCMT:nlsdata.obj
 0001:0000f55c       ??_C@_03IDFGHECI@Jun?$AA@  1001055c     LIBCMT:nlsdata.obj
 0001:0000f560       ??_C@_03LBGABGKK@Jul?$AA@  10010560     LIBCMT:nlsdata.obj
 0001:0000f564       ??_C@_03IFJFEIGA@Aug?$AA@  10010564     LIBCMT:nlsdata.obj
 0001:0000f568       ??_C@_03GGCAPAJC@Sep?$AA@  10010568     LIBCMT:nlsdata.obj
 0001:0000f56c       ??_C@_03BMAOKBAD@Oct?$AA@  1001056c     LIBCMT:nlsdata.obj
 0001:0000f570       ??_C@_03JPJOFNIA@Nov?$AA@  10010570     LIBCMT:nlsdata.obj
 0001:0000f574       ??_C@_03MKABNOCG@Dec?$AA@  10010574     LIBCMT:nlsdata.obj
 0001:0000f578       ??_C@_07CGJPFGJA@January?$AA@ 10010578     LIBCMT:nlsdata.obj
 0001:0000f580       ??_C@_08GNJGEPFN@February?$AA@ 10010580     LIBCMT:nlsdata.obj
 0001:0000f58c       ??_C@_05HPCKOFNC@March?$AA@ 1001058c     LIBCMT:nlsdata.obj
 0001:0000f594       ??_C@_05DMJDNLEJ@April?$AA@ 10010594     LIBCMT:nlsdata.obj
 0001:0000f59c       ??_C@_04CNLMGBGM@June?$AA@ 1001059c     LIBCMT:nlsdata.obj
 0001:0000f5a4       ??_C@_04MIEPOIFP@July?$AA@ 100105a4     LIBCMT:nlsdata.obj
 0001:0000f5ac       ??_C@_06LBBHFDDG@August?$AA@ 100105ac     LIBCMT:nlsdata.obj
 0001:0000f5b4       ??_C@_09BHHEALKD@September?$AA@ 100105b4     LIBCMT:nlsdata.obj
 0001:0000f5c0       ??_C@_07JJNFCEND@October?$AA@ 100105c0     LIBCMT:nlsdata.obj
 0001:0000f5c8       ??_C@_08HCHEGEOA@November?$AA@ 100105c8     LIBCMT:nlsdata.obj
 0001:0000f5d4       ??_C@_08EDHMEBNP@December?$AA@ 100105d4     LIBCMT:nlsdata.obj
 0001:0000f5e0       ??_C@_02DEDBPAFC@AM?$AA@   100105e0     LIBCMT:nlsdata.obj
 0001:0000f5e4       ??_C@_02CJNFDJBF@PM?$AA@   100105e4     LIBCMT:nlsdata.obj
 0001:0000f5e8       ??_C@_08BPBNCDIB@MM?1dd?1yy?$AA@ 100105e8     LIBCMT:nlsdata.obj
 0001:0000f5f4       ??_C@_0BE@CKGJFCPC@dddd?0?5MMMM?5dd?0?5yyyy?$AA@ 100105f4     LIBCMT:nlsdata.obj
 0001:0000f608       ??_C@_08JCCMCCIL@HH?3mm?3ss?$AA@ 10010608     LIBCMT:nlsdata.obj
 0001:0000f614       ??_C@_17MBGCMIPB@?$AAS?$AAu?$AAn?$AA?$AA@ 10010614     LIBCMT:nlsdata.obj
 0001:0000f61c       ??_C@_17KBOMKBF@?$AAM?$AAo?$AAn?$AA?$AA@ 1001061c     LIBCMT:nlsdata.obj
 0001:0000f624       ??_C@_17BMKGEGOJ@?$AAT?$AAu?$AAe?$AA?$AA@ 10010624     LIBCMT:nlsdata.obj
 0001:0000f62c       ??_C@_17CJEDCEPE@?$AAW?$AAe?$AAd?$AA?$AA@ 1001062c     LIBCMT:nlsdata.obj
 0001:0000f634       ??_C@_17PDPHAADD@?$AAT?$AAh?$AAu?$AA?$AA@ 10010634     LIBCMT:nlsdata.obj
 0001:0000f63c       ??_C@_17HFOLPPLP@?$AAF?$AAr?$AAi?$AA?$AA@ 1001063c     LIBCMT:nlsdata.obj
 0001:0000f644       ??_C@_17GGIBDPIH@?$AAS?$AAa?$AAt?$AA?$AA@ 10010644     LIBCMT:nlsdata.obj
 0001:0000f64c       ??_C@_1O@IHNHDHPB@?$AAS?$AAu?$AAn?$AAd?$AAa?$AAy?$AA?$AA@ 1001064c     LIBCMT:nlsdata.obj
 0001:0000f65c       ??_C@_1O@MMNBFLIA@?$AAM?$AAo?$AAn?$AAd?$AAa?$AAy?$AA?$AA@ 1001065c     LIBCMT:nlsdata.obj
 0001:0000f66c       ??_C@_1BA@ENFBFFEK@?$AAT?$AAu?$AAe?$AAs?$AAd?$AAa?$AAy?$AA?$AA@ 1001066c     LIBCMT:nlsdata.obj
 0001:0000f67c       ??_C@_1BE@EBOGMDOH@?$AAW?$AAe?$AAd?$AAn?$AAe?$AAs?$AAd?$AAa?$AAy?$AA?$AA@ 1001067c     LIBCMT:nlsdata.obj
 0001:0000f690       ??_C@_1BC@HHMNLIHE@?$AAT?$AAh?$AAu?$AAr?$AAs?$AAd?$AAa?$AAy?$AA?$AA@ 10010690     LIBCMT:nlsdata.obj
 0001:0000f6a4       ??_C@_1O@PDICJHAG@?$AAF?$AAr?$AAi?$AAd?$AAa?$AAy?$AA?$AA@ 100106a4     LIBCMT:nlsdata.obj
 0001:0000f6b4       ??_C@_1BC@ENMNNPAJ@?$AAS?$AAa?$AAt?$AAu?$AAr?$AAd?$AAa?$AAy?$AA?$AA@ 100106b4     LIBCMT:nlsdata.obj
 0001:0000f6c8       ??_C@_17DKNBKCHM@?$AAJ?$AAa?$AAn?$AA?$AA@ 100106c8     LIBCMT:nlsdata.obj
 0001:0000f6d0       ??_C@_17LMDJEKJN@?$AAF?$AAe?$AAb?$AA?$AA@ 100106d0     LIBCMT:nlsdata.obj
 0001:0000f6d8       ??_C@_17CKNLEDEC@?$AAM?$AAa?$AAr?$AA?$AA@ 100106d8     LIBCMT:nlsdata.obj
 0001:0000f6e0       ??_C@_17LFPOIHDD@?$AAA?$AAp?$AAr?$AA?$AA@ 100106e0     LIBCMT:nlsdata.obj
 0001:0000f6e8       ??_C@_17PNNKMEED@?$AAM?$AAa?$AAy?$AA?$AA@ 100106e8     LIBCMT:nlsdata.obj
 0001:0000f6f0       ??_C@_17KCJGOCPB@?$AAJ?$AAu?$AAn?$AA?$AA@ 100106f0     LIBCMT:nlsdata.obj
 0001:0000f6f8       ??_C@_17IJPCKHK@?$AAJ?$AAu?$AAl?$AA?$AA@ 100106f8     LIBCMT:nlsdata.obj
 0001:0000f700       ??_C@_17ICPELBCN@?$AAA?$AAu?$AAg?$AA?$AA@ 10010700     LIBCMT:nlsdata.obj
 0001:0000f708       ??_C@_17HCHCOKMG@?$AAS?$AAe?$AAp?$AA?$AA@ 10010708     LIBCMT:nlsdata.obj
 0001:0000f710       ??_C@_17FNLKOI@?$AAO?$AAc?$AAt?$AA?$AA@ 10010710     LIBCMT:nlsdata.obj
 0001:0000f718       ??_C@_17BBDMLCIG@?$AAN?$AAo?$AAv?$AA?$AA@ 10010718     LIBCMT:nlsdata.obj
 0001:0000f720       ??_C@_17EGKACKIF@?$AAD?$AAe?$AAc?$AA?$AA@ 10010720     LIBCMT:nlsdata.obj
 0001:0000f728       ??_C@_1BA@EFMEIEBA@?$AAJ?$AAa?$AAn?$AAu?$AAa?$AAr?$AAy?$AA?$AA@ 10010728     LIBCMT:nlsdata.obj
 0001:0000f738       ??_C@_1BC@JGDDFFAM@?$AAF?$AAe?$AAb?$AAr?$AAu?$AAa?$AAr?$AAy?$AA?$AA@ 10010738     LIBCMT:nlsdata.obj
 0001:0000f74c       ??_C@_1M@IKEENEDF@?$AAM?$AAa?$AAr?$AAc?$AAh?$AA?$AA@ 1001074c     LIBCMT:nlsdata.obj
 0001:0000f758       ??_C@_1M@GJNLMHFD@?$AAA?$AAp?$AAr?$AAi?$AAl?$AA?$AA@ 10010758     LIBCMT:nlsdata.obj
 0001:0000f764       ??_C@_19EPFLPGAP@?$AAJ?$AAu?$AAn?$AAe?$AA?$AA@ 10010764     LIBCMT:nlsdata.obj
 0001:0000f770       ??_C@_19BIFMLPCD@?$AAJ?$AAu?$AAl?$AAy?$AA?$AA@ 10010770     LIBCMT:nlsdata.obj
 0001:0000f77c       ??_C@_1O@PAHLKOAC@?$AAA?$AAu?$AAg?$AAu?$AAs?$AAt?$AA?$AA@ 1001077c     LIBCMT:nlsdata.obj
 0001:0000f78c       ??_C@_1BE@DKAAMBJL@?$AAS?$AAe?$AAp?$AAt?$AAe?$AAm?$AAb?$AAe?$AAr?$AA?$AA@ 1001078c     LIBCMT:nlsdata.obj
 0001:0000f7a0       ??_C@_1BA@EPANDLNG@?$AAO?$AAc?$AAt?$AAo?$AAb?$AAe?$AAr?$AA?$AA@ 100107a0     LIBCMT:nlsdata.obj
 0001:0000f7b0       ??_C@_1BC@BGLIFPF@?$AAN?$AAo?$AAv?$AAe?$AAm?$AAb?$AAe?$AAr?$AA?$AA@ 100107b0     LIBCMT:nlsdata.obj
 0001:0000f7c4       ??_C@_1BC@FEMKIFH@?$AAD?$AAe?$AAc?$AAe?$AAm?$AAb?$AAe?$AAr?$AA?$AA@ 100107c4     LIBCMT:nlsdata.obj
 0001:0000f7d8       ??_C@_15ODEHAHHF@?$AAA?$AAM?$AA?$AA@ 100107d8     LIBCMT:nlsdata.obj
 0001:0000f7e0       ??_C@_15CLMNNGEL@?$AAP?$AAM?$AA?$AA@ 100107e0     LIBCMT:nlsdata.obj
 0001:0000f7e8       ??_C@_1BC@IEBCMHCM@?$AAM?$AAM?$AA?1?$AAd?$AAd?$AA?1?$AAy?$AAy?$AA?$AA@ 100107e8     LIBCMT:nlsdata.obj
 0001:0000f7fc       ??_C@_1CI@KNAKOEBC@?$AAd?$AAd?$AAd?$AAd?$AA?0?$AA?5?$AAM?$AAM?$AAM?$AAM?$AA?5?$AAd?$AAd?$AA?0?$AA?5?$AAy?$AAy?$AAy?$AAy?$AA?$AA@ 100107fc     LIBCMT:nlsdata.obj
 0001:0000f824       ??_C@_1BC@GDGBMEMK@?$AAH?$AAH?$AA?3?$AAm?$AAm?$AA?3?$AAs?$AAs?$AA?$AA@ 10010824     LIBCMT:nlsdata.obj
 0001:0000f838       ??_C@_1M@BMHNFIME@?$AAe?$AAn?$AA?9?$AAU?$AAS?$AA?$AA@ 10010838     LIBCMT:nlsdata.obj
 0001:0000f930       ??_C@_03MGHMBJCF@log?$AA@  10010930     LIBCMT:libm_error.obj
 0001:0000f934       ??_C@_05HGHHAHAP@log10?$AA@ 10010934     LIBCMT:libm_error.obj
 0001:0000f93c       ??_C@_03KHJOGHMM@exp?$AA@  1001093c     LIBCMT:libm_error.obj
 0001:0000f940       ??_C@_03JGHBODFD@pow?$AA@  10010940     LIBCMT:libm_error.obj
 0001:0000f944       ??_C@_04FIHNOPOL@asin?$AA@ 10010944     LIBCMT:libm_error.obj
 0001:0000f94c       ??_C@_04PDIFKINK@acos?$AA@ 1001094c     LIBCMT:libm_error.obj
 0001:0000f954       ??_C@_05EOHGHCHD@exp10?$AA@ 10010954     LIBCMT:libm_error.obj
 0001:0000f95c       ??_C@_04MLLJIGOK@atan?$AA@ 1001095c     LIBCMT:libm_error.obj
 0001:0000f964       ??_C@_04GFPJNGEK@ceil?$AA@ 10010964     LIBCMT:libm_error.obj
 0001:0000f96c       ??_C@_05PBJFFIGL@floor?$AA@ 1001096c     LIBCMT:libm_error.obj
 0001:0000f974       ??_C@_04EHEDPDJG@modf?$AA@ 10010974     LIBCMT:libm_error.obj
 0001:0000f97c       ??_C@_03BLEJJJBH@sin?$AA@  1001097c     LIBCMT:libm_error.obj
 0001:0000f980       ??_C@_03LALBNOCG@cos?$AA@  10010980     LIBCMT:libm_error.obj
 0001:0000f984       ??_C@_03IIINPABG@tan?$AA@  10010984     LIBCMT:libm_error.obj
 0001:0000f988       ??_C@_04EIAKFFMI@sqrt?$AA@ 10010988     LIBCMT:libm_error.obj
 0001:0000f990       __XcptActTab               10010990     LIBCMT:winxfltr.obj
 0001:0000fa20       __XcptActTabCount          10010a20     LIBCMT:winxfltr.obj
 0001:0000fa24       __XcptActTabSize           10010a24     LIBCMT:winxfltr.obj
 0001:0000fa28       __First_FPE_Indx           10010a28     LIBCMT:winxfltr.obj
 0001:0000fa2c       __Num_FPE                  10010a2c     LIBCMT:winxfltr.obj
 0001:0000fa30       ??_C@_1BK@MGMFAEKH@?$AAk?$AAe?$AAr?$AAn?$AAe?$AAl?$AA3?$AA2?$AA?4?$AAd?$AAl?$AAl?$AA?$AA@ 10010a30     LIBCMT:winapisupp.obj
 0001:0000fa4c       ??_C@_08KNHFBNJ@FlsAlloc?$AA@ 10010a4c     LIBCMT:winapisupp.obj
 0001:0000fa58       ??_C@_07PEJMOBNF@FlsFree?$AA@ 10010a58     LIBCMT:winapisupp.obj
 0001:0000fa60       ??_C@_0M@GDNOONDI@FlsGetValue?$AA@ 10010a60     LIBCMT:winapisupp.obj
 0001:0000fa6c       ??_C@_0M@JCPCPOEF@FlsSetValue?$AA@ 10010a6c     LIBCMT:winapisupp.obj
 0001:0000fa78       ??_C@_0BM@HCFOFFN@InitializeCriticalSectionEx?$AA@ 10010a78     LIBCMT:winapisupp.obj
 0001:0000fa94       ??_C@_0BD@KIEEOEEH@CreateSemaphoreExW?$AA@ 10010a94     LIBCMT:winapisupp.obj
 0001:0000faa8       ??_C@_0BI@BKLFFAPO@SetThreadStackGuarantee?$AA@ 10010aa8     LIBCMT:winapisupp.obj
 0001:0000fac0       ??_C@_0BG@OGFAJCKC@CreateThreadpoolTimer?$AA@ 10010ac0     LIBCMT:winapisupp.obj
 0001:0000fad8       ??_C@_0BD@LPLEMMDI@SetThreadpoolTimer?$AA@ 10010ad8     LIBCMT:winapisupp.obj
 0001:0000faec       ??_C@_0CA@FMNJENH@WaitForThreadpoolTimerCallbacks?$AA@ 10010aec     LIBCMT:winapisupp.obj
 0001:0000fb0c       ??_C@_0BF@DCFCCNOC@CloseThreadpoolTimer?$AA@ 10010b0c     LIBCMT:winapisupp.obj
 0001:0000fb24       ??_C@_0BF@FLABGKKM@CreateThreadpoolWait?$AA@ 10010b24     LIBCMT:winapisupp.obj
 0001:0000fb3c       ??_C@_0BC@MGCOHNA@SetThreadpoolWait?$AA@ 10010b3c     LIBCMT:winapisupp.obj
 0001:0000fb50       ??_C@_0BE@OCIOMIMP@CloseThreadpoolWait?$AA@ 10010b50     LIBCMT:winapisupp.obj
 0001:0000fb64       ??_C@_0BJ@LKGHFHBO@FlushProcessWriteBuffers?$AA@ 10010b64     LIBCMT:winapisupp.obj
 0001:0000fb80       ??_C@_0BP@KALKKPMO@FreeLibraryWhenCallbackReturns?$AA@ 10010b80     LIBCMT:winapisupp.obj
 0001:0000fba0       ??_C@_0BK@DFNBACLA@GetCurrentProcessorNumber?$AA@ 10010ba0     LIBCMT:winapisupp.obj
 0001:0000fbbc       ??_C@_0BP@KHGALBC@GetLogicalProcessorInformation?$AA@ 10010bbc     LIBCMT:winapisupp.obj
 0001:0000fbdc       ??_C@_0BE@FKKLLFLM@CreateSymbolicLinkW?$AA@ 10010bdc     LIBCMT:winapisupp.obj
 0001:0000fbf0       ??_C@_0BJ@OHNKDLIJ@SetDefaultDllDirectories?$AA@ 10010bf0     LIBCMT:winapisupp.obj
 0001:0000fc0c       ??_C@_0BE@LJANKFHF@EnumSystemLocalesEx?$AA@ 10010c0c     LIBCMT:winapisupp.obj
 0001:0000fc20       ??_C@_0BA@IHGNDAEB@CompareStringEx?$AA@ 10010c20     LIBCMT:winapisupp.obj
 0001:0000fc30       ??_C@_0BA@EPCJIIPD@GetDateFormatEx?$AA@ 10010c30     LIBCMT:winapisupp.obj
 0001:0000fc40       ??_C@_0BA@ONOKGCMP@GetLocaleInfoEx?$AA@ 10010c40     LIBCMT:winapisupp.obj
 0001:0000fc50       ??_C@_0BA@CIJJKCJJ@GetTimeFormatEx?$AA@ 10010c50     LIBCMT:winapisupp.obj
 0001:0000fc60       ??_C@_0BJ@PBCCBIPI@GetUserDefaultLocaleName?$AA@ 10010c60     LIBCMT:winapisupp.obj
 0001:0000fc7c       ??_C@_0BC@CELBKLLA@IsValidLocaleName?$AA@ 10010c7c     LIBCMT:winapisupp.obj
 0001:0000fc90       ??_C@_0O@KKBNKAPF@LCMapStringEx?$AA@ 10010c90     LIBCMT:winapisupp.obj
 0001:0000fca0       ??_C@_0BE@JOGNEJCI@GetCurrentPackageId?$AA@ 10010ca0     LIBCMT:winapisupp.obj
 0001:0000fcb8       ___lookuptable_s           10010cb8     LIBCMT:outputs.obj
 0001:0000fd14       ??_C@_1BG@GOEBHBDC@?$AAU?$AAS?$AAE?$AAR?$AA3?$AA2?$AA?4?$AAD?$AAL?$AAL?$AA?$AA@ 10010d14     LIBCMT:crtmboxw.obj
 0001:0000fd2c       ??_C@_0M@DLDCCGNP@MessageBoxW?$AA@ 10010d2c     LIBCMT:crtmboxw.obj
 0001:0000fd38       ??_C@_0BA@HNOPNCHB@GetActiveWindow?$AA@ 10010d38     LIBCMT:crtmboxw.obj
 0001:0000fd48       ??_C@_0BD@HHGDFDBJ@GetLastActivePopup?$AA@ 10010d48     LIBCMT:crtmboxw.obj
 0001:0000fd5c       ??_C@_0BK@DEKFELLI@GetUserObjectInformationW?$AA@ 10010d5c     LIBCMT:crtmboxw.obj
 0001:0000fd78       ??_C@_0BI@DFKBFLJE@GetProcessWindowStation?$AA@ 10010d78     LIBCMT:crtmboxw.obj
 0001:0000fd90       ??_C@_0M@HHGEPIBF@CreateFile2?$AA@ 10010d90     LIBCMT:wopen.obj
 0001:0000fda0       ___newctype                10010da0     LIBCMT:ctype.obj
 0001:000100a0       __wctype                   100110a0     LIBCMT:ctype.obj
 0001:000102a8       ___newclmap                100112a8     LIBCMT:ctype.obj
 0001:00010428       ___newcumap                10011428     LIBCMT:ctype.obj
 0001:000105b0       ??_C@_15PJPFLCCM@?$AAu?$AAk?$AA?$AA@ 100115b0     LIBCMT:getqloc.obj
 0001:000105b8       ___rg_language_count       100115b8     LIBCMT:getqloc.obj
 0001:000105bc       ___rg_country_count        100115bc     LIBCMT:getqloc.obj
 0001:000105c0       _LcidToLocaleNameTable     100115c0     LIBCMT:winapinls.obj
 0001:00010ce0       _LocaleNameToIndexTable    10011ce0     LIBCMT:winapinls.obj
 0001:00011400       ??_C@_15EMKDOKLE@?$AAa?$AAr?$AA?$AA@ 10012400     LIBCMT:winapinls.obj
 0001:00011408       ??_C@_15KNPADPLH@?$AAb?$AAg?$AA?$AA@ 10012408     LIBCMT:winapinls.obj
 0001:00011410       ??_C@_15EDMHLDMO@?$AAc?$AAa?$AA?$AA@ 10012410     LIBCMT:winapinls.obj
 0001:00011418       ??_C@_1O@BPEAJADD@?$AAz?$AAh?$AA?9?$AAC?$AAH?$AAS?$AA?$AA@ 10012418     LIBCMT:winapinls.obj
 0001:00011428       ??_C@_15LJNHCMNK@?$AAc?$AAs?$AA?$AA@ 10012428     LIBCMT:winapinls.obj
 0001:00011430       ??_C@_15FOMCIDHG@?$AAd?$AAa?$AA?$AA@ 10012430     LIBCMT:winapinls.obj
 0001:00011438       ??_C@_15NBKABECB@?$AAd?$AAe?$AA?$AA@ 10012438     LIBCMT:winapinls.obj
 0001:00011440       ??_C@_15GHPEIIAO@?$AAe?$AAl?$AA?$AA@ 10012440     LIBCMT:winapinls.obj
 0001:00011448       ??_C@_15MNPNEAIF@?$AAe?$AAn?$AA?$AA@ 10012448     LIBCMT:winapinls.obj
 0001:00011450       ??_C@_15GPIOMPMH@?$AAe?$AAs?$AA?$AA@ 10012450     LIBCMT:winapinls.obj
 0001:00011458       ??_C@_15NGLOAKJC@?$AAf?$AAi?$AA?$AA@ 10012458     LIBCMT:winapinls.obj
 0001:00011460       ??_C@_15FBKGNKAM@?$AAf?$AAr?$AA?$AA@ 10012460     LIBCMT:winapinls.obj
 0001:00011468       ??_C@_15KGGCNEFK@?$AAh?$AAe?$AA?$AA@ 10012468     LIBCMT:winapinls.obj
 0001:00011470       ??_C@_15PGHLIDMF@?$AAh?$AAu?$AA?$AA@ 10012470     LIBCMT:winapinls.obj
 0001:00011478       ??_C@_15BIEMAPLM@?$AAi?$AAs?$AA?$AA@ 10012478     LIBCMT:winapinls.obj
 0001:00011480       ??_C@_15IFJLDHAF@?$AAi?$AAt?$AA?$AA@ 10012480     LIBCMT:winapinls.obj
 0001:00011488       ??_C@_15GEMIOCAG@?$AAj?$AAa?$AA?$AA@ 10012488     LIBCMT:winapinls.obj
 0001:00011490       ??_C@_15EPELEGJA@?$AAk?$AAo?$AA?$AA@ 10012490     LIBCMT:winapinls.obj
 0001:00011498       ??_C@_15NDDHIMN@?$AAn?$AAl?$AA?$AA@ 10012498     LIBCMT:winapinls.obj
 0001:000114a0       ??_C@_15BPIGNHCD@?$AAn?$AAo?$AA?$AA@ 100124a0     LIBCMT:winapinls.obj
 0001:000114a8       ??_C@_15DEOPBLCG@?$AAp?$AAl?$AA?$AA@ 100124a8     LIBCMT:winapinls.obj
 0001:000114b0       ??_C@_15KBECGEFG@?$AAp?$AAt?$AA?$AA@ 100124b0     LIBCMT:winapinls.obj
 0001:000114b8       ??_C@_15GLJCBFMD@?$AAr?$AAo?$AA?$AA@ 100124b8     LIBCMT:winapinls.obj
 0001:000114c0       ??_C@_15FEDGKCDI@?$AAr?$AAu?$AA?$AA@ 100124c0     LIBCMT:winapinls.obj
 0001:000114c8       ??_C@_15GLKMLLHM@?$AAh?$AAr?$AA?$AA@ 100124c8     LIBCMT:winapinls.obj
 0001:000114d0       ??_C@_15CPKMFBDB@?$AAs?$AAk?$AA?$AA@ 100124d0     LIBCMT:winapinls.obj
 0001:000114d8       ??_C@_15BAAIOGMK@?$AAs?$AAq?$AA?$AA@ 100124d8     LIBCMT:winapinls.obj
 0001:000114e0       ??_C@_15INNPNOHD@?$AAs?$AAv?$AA?$AA@ 100124e0     LIBCMT:winapinls.obj
 0001:000114e8       ??_C@_15CABMMOGH@?$AAt?$AAh?$AA?$AA@ 100124e8     LIBCMT:winapinls.obj
 0001:000114f0       ??_C@_15BPLIHJJM@?$AAt?$AAr?$AA?$AA@ 100124f0     LIBCMT:winapinls.obj
 0001:000114f8       ??_C@_15NEOEKKDJ@?$AAu?$AAr?$AA?$AA@ 100124f8     LIBCMT:winapinls.obj
 0001:00011500       ??_C@_15NFICGAJK@?$AAi?$AAd?$AA?$AA@ 10012500     LIBCMT:winapinls.obj
 0001:00011508       ??_C@_15HPJPHDM@?$AAb?$AAe?$AA?$AA@ 10012508     LIBCMT:winapinls.obj
 0001:00011510       ??_C@_15LCHLGJII@?$AAs?$AAl?$AA?$AA@ 10012510     LIBCMT:winapinls.obj
 0001:00011518       ??_C@_15PCFJPHHO@?$AAe?$AAt?$AA?$AA@ 10012518     LIBCMT:winapinls.obj
 0001:00011520       ??_C@_15HPFPGODN@?$AAl?$AAv?$AA?$AA@ 10012520     LIBCMT:winapinls.obj
 0001:00011528       ??_C@_15NFFGKGLG@?$AAl?$AAt?$AA?$AA@ 10012528     LIBCMT:winapinls.obj
 0001:00011530       ??_C@_15BDAKCCHN@?$AAf?$AAa?$AA?$AA@ 10012530     LIBCMT:winapinls.obj
 0001:00011538       ??_C@_15NFGIAIAJ@?$AAv?$AAi?$AA?$AA@ 10012538     LIBCMT:winapinls.obj
 0001:00011540       ??_C@_15LMKNDMHN@?$AAh?$AAy?$AA?$AA@ 10012540     LIBCMT:winapinls.obj
 0001:00011548       ??_C@_15IJBHMCFL@?$AAa?$AAz?$AA?$AA@ 10012548     LIBCMT:winapinls.obj
 0001:00011550       ??_C@_15EKOFJABL@?$AAe?$AAu?$AA?$AA@ 10012550     LIBCMT:winapinls.obj
 0001:00011558       ??_C@_15BGHADCNK@?$AAm?$AAk?$AA?$AA@ 10012558     LIBCMT:winapinls.obj
 0001:00011560       ??_C@_15JDNICKHM@?$AAa?$AAf?$AA?$AA@ 10012560     LIBCMT:winapinls.obj
 0001:00011568       ??_C@_15KPJEDBKD@?$AAk?$AAa?$AA?$AA@ 10012568     LIBCMT:winapinls.obj
 0001:00011570       ??_C@_15PDNFFFEO@?$AAf?$AAo?$AA?$AA@ 10012570     LIBCMT:winapinls.obj
 0001:00011578       ??_C@_15OMLEGLOC@?$AAh?$AAi?$AA?$AA@ 10012578     LIBCMT:winapinls.obj
 0001:00011580       ??_C@_15IDNNENKK@?$AAm?$AAs?$AA?$AA@ 10012580     LIBCMT:winapinls.obj
 0001:00011588       ??_C@_15MACJNBMH@?$AAk?$AAk?$AA?$AA@ 10012588     LIBCMT:winapinls.obj
 0001:00011590       ??_C@_15DKDJEOND@?$AAk?$AAy?$AA?$AA@ 10012590     LIBCMT:winapinls.obj
 0001:00011598       ??_C@_15DFGDLJBG@?$AAs?$AAw?$AA?$AA@ 10012598     LIBCMT:winapinls.obj
 0001:000115a0       ??_C@_15BBFAICNG@?$AAu?$AAz?$AA?$AA@ 100125a0     LIBCMT:winapinls.obj
 0001:000115a8       ??_C@_15DKNDCGEA@?$AAt?$AAt?$AA?$AA@ 100125a8     LIBCMT:winapinls.obj
 0001:000115b0       ??_C@_15MGIFMDPL@?$AAp?$AAa?$AA?$AA@ 100125b0     LIBCMT:winapinls.obj
 0001:000115b8       ??_C@_15HCNDBBA@?$AAg?$AAu?$AA?$AA@ 100125b8     LIBCMT:winapinls.obj
 0001:000115c0       ??_C@_15FNBEIBON@?$AAt?$AAa?$AA?$AA@ 100125c0     LIBCMT:winapinls.obj
 0001:000115c8       ??_C@_15NCHGBGLK@?$AAt?$AAe?$AA?$AA@ 100125c8     LIBCMT:winapinls.obj
 0001:000115d0       ??_C@_15PHPHCBPF@?$AAk?$AAn?$AA?$AA@ 100125d0     LIBCMT:winapinls.obj
 0001:000115d8       ??_C@_15DLGBCKMP@?$AAm?$AAr?$AA?$AA@ 100125d8     LIBCMT:winapinls.obj
 0001:000115e0       ??_C@_15EABBLBFF@?$AAs?$AAa?$AA?$AA@ 100125e0     LIBCMT:winapinls.obj
 0001:000115e8       ??_C@_15CBKOMCOI@?$AAm?$AAn?$AA?$AA@ 100125e8     LIBCMT:winapinls.obj
 0001:000115f0       ??_C@_15CKDMCJAF@?$AAg?$AAl?$AA?$AA@ 100125f0     LIBCMT:winapinls.obj
 0001:000115f8       ??_C@_17CNJFBPG@?$AAk?$AAo?$AAk?$AA?$AA@ 100125f8     LIBCMT:winapinls.obj
 0001:00011600       ??_C@_17FFBJICPL@?$AAs?$AAy?$AAr?$AA?$AA@ 10012600     LIBCMT:winapinls.obj
 0001:00011608       ??_C@_17KPNDCPAF@?$AAd?$AAi?$AAv?$AA?$AA@ 10012608     LIBCMT:winapinls.obj
 0001:00011610       ??_C@_1M@OKAHONE@?$AAa?$AAr?$AA?9?$AAS?$AAA?$AA?$AA@ 10012610     LIBCMT:winapinls.obj
 0001:0001161c       ??_C@_1M@FFFIGIGK@?$AAb?$AAg?$AA?9?$AAB?$AAG?$AA?$AA@ 1001261c     LIBCMT:winapinls.obj
 0001:00011628       ??_C@_1M@BJNKEDC@?$AAc?$AAa?$AA?9?$AAE?$AAS?$AA?$AA@ 10012628     LIBCMT:winapinls.obj
 0001:00011634       ??_C@_1M@IJJHFJHA@?$AAc?$AAs?$AA?9?$AAC?$AAZ?$AA?$AA@ 10012634     LIBCMT:winapinls.obj
 0001:00011640       ??_C@_1M@CLPEOBGI@?$AAd?$AAa?$AA?9?$AAD?$AAK?$AA?$AA@ 10012640     LIBCMT:winapinls.obj
 0001:0001164c       ??_C@_1M@MCMADGCB@?$AAd?$AAe?$AA?9?$AAD?$AAE?$AA?$AA@ 1001264c     LIBCMT:winapinls.obj
 0001:00011658       ??_C@_1M@OOCKEMAM@?$AAe?$AAl?$AA?9?$AAG?$AAR?$AA?$AA@ 10012658     LIBCMT:winapinls.obj
 0001:00011664       ??_C@_1M@DDNJFGID@?$AAf?$AAi?$AA?9?$AAF?$AAI?$AA?$AA@ 10012664     LIBCMT:winapinls.obj
 0001:00011670       ??_C@_1M@GLIPPMAC@?$AAf?$AAr?$AA?9?$AAF?$AAR?$AA?$AA@ 10012670     LIBCMT:winapinls.obj
 0001:0001167c       ??_C@_1M@GFMCHPE@?$AAh?$AAe?$AA?9?$AAI?$AAL?$AA?$AA@ 1001267c     LIBCMT:winapinls.obj
 0001:00011688       ??_C@_1M@MHLPGNKM@?$AAh?$AAu?$AA?9?$AAH?$AAU?$AA?$AA@ 10012688     LIBCMT:winapinls.obj
 0001:00011694       ??_C@_1M@LPDDNNPN@?$AAi?$AAs?$AA?9?$AAI?$AAS?$AA?$AA@ 10012694     LIBCMT:winapinls.obj
 0001:000116a0       ??_C@_1M@MADIPODN@?$AAi?$AAt?$AA?9?$AAI?$AAT?$AA?$AA@ 100126a0     LIBCMT:winapinls.obj
 0001:000116ac       ??_C@_1M@IHBJJGG@?$AAn?$AAl?$AA?9?$AAN?$AAL?$AA?$AA@ 100126ac     LIBCMT:winapinls.obj
 0001:000116b8       ??_C@_1M@EANAGDL@?$AAn?$AAb?$AA?9?$AAN?$AAO?$AA?$AA@ 100126b8     LIBCMT:winapinls.obj
 0001:000116c4       ??_C@_1M@NEIEMEGP@?$AAp?$AAl?$AA?9?$AAP?$AAL?$AA?$AA@ 100126c4     LIBCMT:winapinls.obj
 0001:000116d0       ??_C@_1M@BOCFIGEP@?$AAp?$AAt?$AA?9?$AAB?$AAR?$AA?$AA@ 100126d0     LIBCMT:winapinls.obj
 0001:000116dc       ??_C@_1M@IMPFOPBG@?$AAr?$AAo?$AA?9?$AAR?$AAO?$AA?$AA@ 100126dc     LIBCMT:winapinls.obj
 0001:000116e8       ??_C@_1M@IDNNEJMM@?$AAr?$AAu?$AA?9?$AAR?$AAU?$AA?$AA@ 100126e8     LIBCMT:winapinls.obj
 0001:000116f4       ??_C@_1M@LILEEOGM@?$AAh?$AAr?$AA?9?$AAH?$AAR?$AA?$AA@ 100126f4     LIBCMT:winapinls.obj
 0001:00011700       ??_C@_1M@FKIFEHPB@?$AAs?$AAk?$AA?9?$AAS?$AAK?$AA?$AA@ 10012700     LIBCMT:winapinls.obj
 0001:0001170c       ??_C@_1M@LJMAMNPJ@?$AAs?$AAq?$AA?9?$AAA?$AAL?$AA?$AA@ 1001270c     LIBCMT:winapinls.obj
 0001:00011718       ??_C@_1M@GIAKDKJK@?$AAs?$AAv?$AA?9?$AAS?$AAE?$AA?$AA@ 10012718     LIBCMT:winapinls.obj
 0001:00011724       ??_C@_1M@MKJKIKCL@?$AAt?$AAh?$AA?9?$AAT?$AAH?$AA?$AA@ 10012724     LIBCMT:winapinls.obj
 0001:00011730       ??_C@_1M@MFLCCMPB@?$AAt?$AAr?$AA?9?$AAT?$AAR?$AA?$AA@ 10012730     LIBCMT:winapinls.obj
 0001:0001173c       ??_C@_1M@OIJHDKJN@?$AAu?$AAr?$AA?9?$AAP?$AAK?$AA?$AA@ 1001273c     LIBCMT:winapinls.obj
 0001:00011748       ??_C@_1M@LHIPCIEK@?$AAi?$AAd?$AA?9?$AAI?$AAD?$AA?$AA@ 10012748     LIBCMT:winapinls.obj
 0001:00011754       ??_C@_1M@MFMOBGI@?$AAu?$AAk?$AA?9?$AAU?$AAA?$AA?$AA@ 10012754     LIBCMT:winapinls.obj
 0001:00011760       ??_C@_1M@OBGLJIPL@?$AAb?$AAe?$AA?9?$AAB?$AAY?$AA?$AA@ 10012760     LIBCMT:winapinls.obj
 0001:0001176c       ??_C@_1M@BCFAJEAD@?$AAs?$AAl?$AA?9?$AAS?$AAI?$AA?$AA@ 1001276c     LIBCMT:winapinls.obj
 0001:00011778       ??_C@_1M@FKFFEDDN@?$AAe?$AAt?$AA?9?$AAE?$AAE?$AA?$AA@ 10012778     LIBCMT:winapinls.obj
 0001:00011784       ??_C@_1M@KGKKAACI@?$AAl?$AAv?$AA?9?$AAL?$AAV?$AA?$AA@ 10012784     LIBCMT:winapinls.obj
 0001:00011790       ??_C@_1M@IFGBIJO@?$AAl?$AAt?$AA?9?$AAL?$AAT?$AA?$AA@ 10012790     LIBCMT:winapinls.obj
 0001:0001179c       ??_C@_1M@FGEAHEDM@?$AAf?$AAa?$AA?9?$AAI?$AAR?$AA?$AA@ 1001279c     LIBCMT:winapinls.obj
 0001:000117a8       ??_C@_1M@KBMAIBFN@?$AAv?$AAi?$AA?9?$AAV?$AAN?$AA?$AA@ 100127a8     LIBCMT:winapinls.obj
 0001:000117b4       ??_C@_1M@GPCBKDJK@?$AAh?$AAy?$AA?9?$AAA?$AAM?$AA?$AA@ 100127b4     LIBCMT:winapinls.obj
 0001:000117c0       ??_C@_1BG@BECMDDJB@?$AAa?$AAz?$AA?9?$AAA?$AAZ?$AA?9?$AAL?$AAa?$AAt?$AAn?$AA?$AA@ 100127c0     LIBCMT:winapinls.obj
 0001:000117d8       ??_C@_1M@MAOFCAEA@?$AAe?$AAu?$AA?9?$AAE?$AAS?$AA?$AA@ 100127d8     LIBCMT:winapinls.obj
 0001:000117e4       ??_C@_1M@IGHABKPI@?$AAm?$AAk?$AA?9?$AAM?$AAK?$AA?$AA@ 100127e4     LIBCMT:winapinls.obj
 0001:000117f0       ??_C@_1M@IAIGNEJG@?$AAt?$AAn?$AA?9?$AAZ?$AAA?$AA?$AA@ 100127f0     LIBCMT:winapinls.obj
 0001:000117fc       ??_C@_1M@IIJCOJFA@?$AAx?$AAh?$AA?9?$AAZ?$AAA?$AA?$AA@ 100127fc     LIBCMT:winapinls.obj
 0001:00011808       ??_C@_1M@LGPJHNJH@?$AAz?$AAu?$AA?9?$AAZ?$AAA?$AA?$AA@ 10012808     LIBCMT:winapinls.obj
 0001:00011814       ??_C@_1M@HOKAOIO@?$AAa?$AAf?$AA?9?$AAZ?$AAA?$AA?$AA@ 10012814     LIBCMT:winapinls.obj
 0001:00011820       ??_C@_1M@DPCLHLIE@?$AAk?$AAa?$AA?9?$AAG?$AAE?$AA?$AA@ 10012820     LIBCMT:winapinls.obj
 0001:0001182c       ??_C@_1M@BLKMHJBI@?$AAf?$AAo?$AA?9?$AAF?$AAO?$AA?$AA@ 1001282c     LIBCMT:winapinls.obj
 0001:00011838       ??_C@_1M@LGGJAPPB@?$AAh?$AAi?$AA?9?$AAI?$AAN?$AA?$AA@ 10012838     LIBCMT:winapinls.obj
 0001:00011844       ??_C@_1M@FIKPIHFE@?$AAm?$AAt?$AA?9?$AAM?$AAT?$AA?$AA@ 10012844     LIBCMT:winapinls.obj
 0001:00011850       ??_C@_1M@HEGGPBFA@?$AAs?$AAe?$AA?9?$AAN?$AAO?$AA?$AA@ 10012850     LIBCMT:winapinls.obj
 0001:0001185c       ??_C@_1M@EIBJEEPA@?$AAm?$AAs?$AA?9?$AAM?$AAY?$AA?$AA@ 1001285c     LIBCMT:winapinls.obj
 0001:00011868       ??_C@_1M@FHLBGMPP@?$AAk?$AAk?$AA?9?$AAK?$AAZ?$AA?$AA@ 10012868     LIBCMT:winapinls.obj
 0001:00011874       ??_C@_1M@NGJJLCGI@?$AAk?$AAy?$AA?9?$AAK?$AAG?$AA?$AA@ 10012874     LIBCMT:winapinls.obj
 0001:00011880       ??_C@_1M@GIENNBFC@?$AAs?$AAw?$AA?9?$AAK?$AAE?$AA?$AA@ 10012880     LIBCMT:winapinls.obj
 0001:0001188c       ??_C@_1BG@NDGMJIMJ@?$AAu?$AAz?$AA?9?$AAU?$AAZ?$AA?9?$AAL?$AAa?$AAt?$AAn?$AA?$AA@ 1001288c     LIBCMT:winapinls.obj
 0001:000118a4       ??_C@_1M@IDCCIHBC@?$AAt?$AAt?$AA?9?$AAR?$AAU?$AA?$AA@ 100128a4     LIBCMT:winapinls.obj
 0001:000118b0       ??_C@_1M@LOICPMOJ@?$AAb?$AAn?$AA?9?$AAI?$AAN?$AA?$AA@ 100128b0     LIBCMT:winapinls.obj
 0001:000118bc       ??_C@_1M@KPKKNEAH@?$AAp?$AAa?$AA?9?$AAI?$AAN?$AA?$AA@ 100128bc     LIBCMT:winapinls.obj
 0001:000118c8       ??_C@_1M@PJGPPBOG@?$AAg?$AAu?$AA?9?$AAI?$AAN?$AA?$AA@ 100128c8     LIBCMT:winapinls.obj
 0001:000118d4       ??_C@_1M@KMKMOPHI@?$AAt?$AAa?$AA?9?$AAI?$AAN?$AA?$AA@ 100128d4     LIBCMT:winapinls.obj
 0001:000118e0       ??_C@_1M@KFEHEPAC@?$AAt?$AAe?$AA?9?$AAI?$AAN?$AA?$AA@ 100128e0     LIBCMT:winapinls.obj
 0001:000118ec       ??_C@_1M@CDCLMGHI@?$AAk?$AAn?$AA?9?$AAI?$AAN?$AA?$AA@ 100128ec     LIBCMT:winapinls.obj
 0001:000118f8       ??_C@_1M@MIODLDKF@?$AAm?$AAl?$AA?9?$AAI?$AAN?$AA?$AA@ 100128f8     LIBCMT:winapinls.obj
 0001:00011904       ??_C@_1M@PBIEACPO@?$AAm?$AAr?$AA?9?$AAI?$AAN?$AA?$AA@ 10012904     LIBCMT:winapinls.obj
 0001:00011910       ??_C@_1M@NIDEAGPH@?$AAs?$AAa?$AA?9?$AAI?$AAN?$AA?$AA@ 10012910     LIBCMT:winapinls.obj
 0001:0001191c       ??_C@_1M@FHIHCBIO@?$AAm?$AAn?$AA?9?$AAM?$AAN?$AA?$AA@ 1001291c     LIBCMT:winapinls.obj
 0001:00011928       ??_C@_1M@JAIJPENP@?$AAc?$AAy?$AA?9?$AAG?$AAB?$AA?$AA@ 10012928     LIBCMT:winapinls.obj
 0001:00011934       ??_C@_1M@PHGFBEPN@?$AAg?$AAl?$AA?9?$AAE?$AAS?$AA?$AA@ 10012934     LIBCMT:winapinls.obj
 0001:00011940       ??_C@_1O@KPIPDNCP@?$AAk?$AAo?$AAk?$AA?9?$AAI?$AAN?$AA?$AA@ 10012940     LIBCMT:winapinls.obj
 0001:00011950       ??_C@_1O@KNHJLDJA@?$AAs?$AAy?$AAr?$AA?9?$AAS?$AAY?$AA?$AA@ 10012950     LIBCMT:winapinls.obj
 0001:00011960       ??_C@_1O@MKEKBLAH@?$AAd?$AAi?$AAv?$AA?9?$AAM?$AAV?$AA?$AA@ 10012960     LIBCMT:winapinls.obj
 0001:00011970       ??_C@_1O@OHDCKDDF@?$AAq?$AAu?$AAz?$AA?9?$AAB?$AAO?$AA?$AA@ 10012970     LIBCMT:winapinls.obj
 0001:00011980       ??_C@_1M@LEPJNLFD@?$AAn?$AAs?$AA?9?$AAZ?$AAA?$AA?$AA@ 10012980     LIBCMT:winapinls.obj
 0001:0001198c       ??_C@_1M@OMLEIIJB@?$AAm?$AAi?$AA?9?$AAN?$AAZ?$AA?$AA@ 1001298c     LIBCMT:winapinls.obj
 0001:00011998       ??_C@_1M@PMPEAILG@?$AAa?$AAr?$AA?9?$AAI?$AAQ?$AA?$AA@ 10012998     LIBCMT:winapinls.obj
 0001:000119a4       ??_C@_1M@CNKPNOEE@?$AAd?$AAe?$AA?9?$AAC?$AAH?$AA?$AA@ 100129a4     LIBCMT:winapinls.obj
 0001:000119b0       ??_C@_1M@LKMGMLKO@?$AAe?$AAn?$AA?9?$AAG?$AAB?$AA?$AA@ 100129b0     LIBCMT:winapinls.obj
 0001:000119bc       ??_C@_1M@PGKJFFGL@?$AAe?$AAs?$AA?9?$AAM?$AAX?$AA?$AA@ 100129bc     LIBCMT:winapinls.obj
 0001:000119c8       ??_C@_1M@DNNANBDC@?$AAf?$AAr?$AA?9?$AAB?$AAE?$AA?$AA@ 100129c8     LIBCMT:winapinls.obj
 0001:000119d4       ??_C@_1M@HLGMDFHM@?$AAi?$AAt?$AA?9?$AAC?$AAH?$AA?$AA@ 100129d4     LIBCMT:winapinls.obj
 0001:000119e0       ??_C@_1M@CLLBGJH@?$AAn?$AAl?$AA?9?$AAB?$AAE?$AA?$AA@ 100129e0     LIBCMT:winapinls.obj
 0001:000119ec       ??_C@_1M@BODBOGLF@?$AAn?$AAn?$AA?9?$AAN?$AAO?$AA?$AA@ 100129ec     LIBCMT:winapinls.obj
 0001:000119f8       ??_C@_1M@HFFAHKAD@?$AAp?$AAt?$AA?9?$AAP?$AAT?$AA?$AA@ 100129f8     LIBCMT:winapinls.obj
 0001:00011a04       ??_C@_1BG@LNOAKHIE@?$AAs?$AAr?$AA?9?$AAS?$AAP?$AA?9?$AAL?$AAa?$AAt?$AAn?$AA?$AA@ 10012a04     LIBCMT:winapinls.obj
 0001:00011a1c       ??_C@_1M@HBMHBGAK@?$AAs?$AAv?$AA?9?$AAF?$AAI?$AA?$AA@ 10012a1c     LIBCMT:winapinls.obj
 0001:00011a28       ??_C@_1BG@DGCJGJBE@?$AAa?$AAz?$AA?9?$AAA?$AAZ?$AA?9?$AAC?$AAy?$AAr?$AAl?$AA?$AA@ 10012a28     LIBCMT:winapinls.obj
 0001:00011a40       ??_C@_1M@KEJDAAHB@?$AAs?$AAe?$AA?9?$AAS?$AAE?$AA?$AA@ 10012a40     LIBCMT:winapinls.obj
 0001:00011a4c       ??_C@_1M@HEIBJJAD@?$AAm?$AAs?$AA?9?$AAB?$AAN?$AA?$AA@ 10012a4c     LIBCMT:winapinls.obj
 0001:00011a58       ??_C@_1BG@PBGJMCEM@?$AAu?$AAz?$AA?9?$AAU?$AAZ?$AA?9?$AAC?$AAy?$AAr?$AAl?$AA?$AA@ 10012a58     LIBCMT:winapinls.obj
 0001:00011a70       ??_C@_1O@LAOBCMDF@?$AAq?$AAu?$AAz?$AA?9?$AAE?$AAC?$AA?$AA@ 10012a70     LIBCMT:winapinls.obj
 0001:00011a80       ??_C@_1M@POEEMAIO@?$AAa?$AAr?$AA?9?$AAE?$AAG?$AA?$AA@ 10012a80     LIBCMT:winapinls.obj
 0001:00011a8c       ??_C@_1M@EFAKDEDL@?$AAz?$AAh?$AA?9?$AAH?$AAK?$AA?$AA@ 10012a8c     LIBCMT:winapinls.obj
 0001:00011a98       ??_C@_1M@HKKIJHGI@?$AAd?$AAe?$AA?9?$AAA?$AAT?$AA?$AA@ 10012a98     LIBCMT:winapinls.obj
 0001:00011aa4       ??_C@_1M@KBFBEHJF@?$AAe?$AAn?$AA?9?$AAA?$AAU?$AA?$AA@ 10012aa4     LIBCMT:winapinls.obj
 0001:00011ab0       ??_C@_1M@MNPLFAAH@?$AAe?$AAs?$AA?9?$AAE?$AAS?$AA?$AA@ 10012ab0     LIBCMT:winapinls.obj
 0001:00011abc       ??_C@_1M@HJOOJFMA@?$AAf?$AAr?$AA?9?$AAC?$AAA?$AA?$AA@ 10012abc     LIBCMT:winapinls.obj
 0001:00011ac8       ??_C@_1BG@JPOFPNAB@?$AAs?$AAr?$AA?9?$AAS?$AAP?$AA?9?$AAC?$AAy?$AAr?$AAl?$AA?$AA@ 10012ac8     LIBCMT:winapinls.obj
 0001:00011ae0       ??_C@_1M@LNFOCMOB@?$AAs?$AAe?$AA?9?$AAF?$AAI?$AA?$AA@ 10012ae0     LIBCMT:winapinls.obj
 0001:00011aec       ??_C@_1O@MGJBOAMB@?$AAq?$AAu?$AAz?$AA?9?$AAP?$AAE?$AA?$AA@ 10012aec     LIBCMT:winapinls.obj
 0001:00011afc       ??_C@_1M@GJINLBOK@?$AAa?$AAr?$AA?9?$AAL?$AAY?$AA?$AA@ 10012afc     LIBCMT:winapinls.obj
 0001:00011b08       ??_C@_1M@GGMNHJNL@?$AAz?$AAh?$AA?9?$AAS?$AAG?$AA?$AA@ 10012b08     LIBCMT:winapinls.obj
 0001:00011b14       ??_C@_1M@HOIKODND@?$AAd?$AAe?$AA?9?$AAL?$AAU?$AA?$AA@ 10012b14     LIBCMT:winapinls.obj
 0001:00011b20       ??_C@_1M@DDOCCGFG@?$AAe?$AAn?$AA?9?$AAC?$AAA?$AA?$AA@ 10012b20     LIBCMT:winapinls.obj
 0001:00011b2c       ??_C@_1M@BNOEMJLF@?$AAe?$AAs?$AA?9?$AAG?$AAT?$AA?$AA@ 10012b2c     LIBCMT:winapinls.obj
 0001:00011b38       ??_C@_1M@EOGNKEK@?$AAf?$AAr?$AA?9?$AAC?$AAH?$AA?$AA@ 10012b38     LIBCMT:winapinls.obj
 0001:00011b44       ??_C@_1M@FLIDJFHL@?$AAh?$AAr?$AA?9?$AAB?$AAA?$AA?$AA@ 10012b44     LIBCMT:winapinls.obj
 0001:00011b50       ??_C@_1O@FMCELNAJ@?$AAs?$AAm?$AAj?$AA?9?$AAN?$AAO?$AA?$AA@ 10012b50     LIBCMT:winapinls.obj
 0001:00011b60       ??_C@_1M@JHGLJMGJ@?$AAa?$AAr?$AA?9?$AAD?$AAZ?$AA?$AA@ 10012b60     LIBCMT:winapinls.obj
 0001:00011b6c       ??_C@_1M@JKKFDCNP@?$AAz?$AAh?$AA?9?$AAM?$AAO?$AA?$AA@ 10012b6c     LIBCMT:winapinls.obj
 0001:00011b78       ??_C@_1M@GEEFALPE@?$AAd?$AAe?$AA?9?$AAL?$AAI?$AA?$AA@ 10012b78     LIBCMT:winapinls.obj
 0001:00011b84       ??_C@_1M@IGEOFBG@?$AAe?$AAn?$AA?9?$AAN?$AAZ?$AA?$AA@ 10012b84     LIBCMT:winapinls.obj
 0001:00011b90       ??_C@_1M@KDBONEHP@?$AAe?$AAs?$AA?9?$AAC?$AAR?$AA?$AA@ 10012b90     LIBCMT:winapinls.obj
 0001:00011b9c       ??_C@_1M@FHMDOHNN@?$AAf?$AAr?$AA?9?$AAL?$AAU?$AA?$AA@ 10012b9c     LIBCMT:winapinls.obj
 0001:00011ba8       ??_C@_1BG@NFKKMAFG@?$AAb?$AAs?$AA?9?$AAB?$AAA?$AA?9?$AAL?$AAa?$AAt?$AAn?$AA?$AA@ 10012ba8     LIBCMT:winapinls.obj
 0001:00011bc0       ??_C@_1O@IMNBEMCI@?$AAs?$AAm?$AAj?$AA?9?$AAS?$AAE?$AA?$AA@ 10012bc0     LIBCMT:winapinls.obj
 0001:00011bd0       ??_C@_1M@DHHMBNDP@?$AAa?$AAr?$AA?9?$AAM?$AAA?$AA?$AA@ 10012bd0     LIBCMT:winapinls.obj
 0001:00011bdc       ??_C@_1M@BNBLJCGH@?$AAe?$AAn?$AA?9?$AAI?$AAE?$AA?$AA@ 10012bdc     LIBCMT:winapinls.obj
 0001:00011be8       ??_C@_1M@GEPAFMDL@?$AAe?$AAs?$AA?9?$AAP?$AAA?$AA?$AA@ 10012be8     LIBCMT:winapinls.obj
 0001:00011bf4       ??_C@_1M@OJONDMDL@?$AAf?$AAr?$AA?9?$AAM?$AAC?$AA?$AA@ 10012bf4     LIBCMT:winapinls.obj
 0001:00011c00       ??_C@_1BG@OBCNFJB@?$AAs?$AAr?$AA?9?$AAB?$AAA?$AA?9?$AAL?$AAa?$AAt?$AAn?$AA?$AA@ 10012c00     LIBCMT:winapinls.obj
 0001:00011c18       ??_C@_1O@KEMEEGPO@?$AAs?$AAm?$AAa?$AA?9?$AAN?$AAO?$AA?$AA@ 10012c18     LIBCMT:winapinls.obj
 0001:00011c28       ??_C@_1M@ELMGFODK@?$AAa?$AAr?$AA?9?$AAT?$AAN?$AA?$AA@ 10012c28     LIBCMT:winapinls.obj
 0001:00011c34       ??_C@_1M@BHDLHFAF@?$AAe?$AAn?$AA?9?$AAZ?$AAA?$AA?$AA@ 10012c34     LIBCMT:winapinls.obj
 0001:00011c40       ??_C@_1M@BMGIGLIF@?$AAe?$AAs?$AA?9?$AAD?$AAO?$AA?$AA@ 10012c40     LIBCMT:winapinls.obj
 0001:00011c4c       ??_C@_1BG@CMBHIPBE@?$AAs?$AAr?$AA?9?$AAB?$AAA?$AA?9?$AAC?$AAy?$AAr?$AAl?$AA?$AA@ 10012c4c     LIBCMT:winapinls.obj
 0001:00011c64       ??_C@_1O@HEDBLHNP@?$AAs?$AAm?$AAa?$AA?9?$AAS?$AAE?$AA?$AA@ 10012c64     LIBCMT:winapinls.obj
 0001:00011c74       ??_C@_1M@DAGCADIM@?$AAa?$AAr?$AA?9?$AAO?$AAM?$AA?$AA@ 10012c74     LIBCMT:winapinls.obj
 0001:00011c80       ??_C@_1M@FODLMICG@?$AAe?$AAn?$AA?9?$AAJ?$AAM?$AA?$AA@ 10012c80     LIBCMT:winapinls.obj
 0001:00011c8c       ??_C@_1M@DNMLCIHB@?$AAe?$AAs?$AA?9?$AAV?$AAE?$AA?$AA@ 10012c8c     LIBCMT:winapinls.obj
 0001:00011c98       ??_C@_1O@EOKHMKJK@?$AAs?$AAm?$AAs?$AA?9?$AAF?$AAI?$AA?$AA@ 10012c98     LIBCMT:winapinls.obj
 0001:00011ca8       ??_C@_1M@CAFJMKOF@?$AAa?$AAr?$AA?9?$AAY?$AAE?$AA?$AA@ 10012ca8     LIBCMT:winapinls.obj
 0001:00011cb4       ??_C@_1M@CBFHIJLI@?$AAe?$AAn?$AA?9?$AAC?$AAB?$AA?$AA@ 10012cb4     LIBCMT:winapinls.obj
 0001:00011cc0       ??_C@_1M@BGNFLDN@?$AAe?$AAs?$AA?9?$AAC?$AAO?$AA?$AA@ 10012cc0     LIBCMT:winapinls.obj
 0001:00011ccc       ??_C@_1O@JMPHMAMC@?$AAs?$AAm?$AAn?$AA?9?$AAF?$AAI?$AA?$AA@ 10012ccc     LIBCMT:winapinls.obj
 0001:00011cdc       ??_C@_1M@JLANABKE@?$AAa?$AAr?$AA?9?$AAS?$AAY?$AA?$AA@ 10012cdc     LIBCMT:winapinls.obj
 0001:00011ce8       ??_C@_1M@HPKGCFGN@?$AAe?$AAn?$AA?9?$AAB?$AAZ?$AA?$AA@ 10012ce8     LIBCMT:winapinls.obj
 0001:00011cf4       ??_C@_1M@OLJCMLGM@?$AAe?$AAs?$AA?9?$AAP?$AAE?$AA?$AA@ 10012cf4     LIBCMT:winapinls.obj
 0001:00011d00       ??_C@_1M@MKKGFKLE@?$AAa?$AAr?$AA?9?$AAJ?$AAO?$AA?$AA@ 10012d00     LIBCMT:winapinls.obj
 0001:00011d0c       ??_C@_1M@EKPGLDNI@?$AAe?$AAn?$AA?9?$AAT?$AAT?$AA?$AA@ 10012d0c     LIBCMT:winapinls.obj
 0001:00011d18       ??_C@_1M@OONGHFHE@?$AAe?$AAs?$AA?9?$AAA?$AAR?$AA?$AA@ 10012d18     LIBCMT:winapinls.obj
 0001:00011d24       ??_C@_1M@OOJFGBHE@?$AAa?$AAr?$AA?9?$AAL?$AAB?$AA?$AA@ 10012d24     LIBCMT:winapinls.obj
 0001:00011d30       ??_C@_1M@GCEJHNEG@?$AAe?$AAn?$AA?9?$AAZ?$AAW?$AA?$AA@ 10012d30     LIBCMT:winapinls.obj
 0001:00011d3c       ??_C@_1M@JNOCAHJI@?$AAe?$AAs?$AA?9?$AAE?$AAC?$AA?$AA@ 10012d3c     LIBCMT:winapinls.obj
 0001:00011d48       ??_C@_1M@JEFHPGGB@?$AAa?$AAr?$AA?9?$AAK?$AAW?$AA?$AA@ 10012d48     LIBCMT:winapinls.obj
 0001:00011d54       ??_C@_1M@MLKIBJOJ@?$AAe?$AAn?$AA?9?$AAP?$AAH?$AA?$AA@ 10012d54     LIBCMT:winapinls.obj
 0001:00011d60       ??_C@_1M@BDNIPEND@?$AAe?$AAs?$AA?9?$AAC?$AAL?$AA?$AA@ 10012d60     LIBCMT:winapinls.obj
 0001:00011d6c       ??_C@_1M@MPNMEKBD@?$AAa?$AAr?$AA?9?$AAA?$AAE?$AA?$AA@ 10012d6c     LIBCMT:winapinls.obj
 0001:00011d78       ??_C@_1M@KBJALCPI@?$AAe?$AAs?$AA?9?$AAU?$AAY?$AA?$AA@ 10012d78     LIBCMT:winapinls.obj
 0001:00011d84       ??_C@_1M@LLCCOAGA@?$AAa?$AAr?$AA?9?$AAB?$AAH?$AA?$AA@ 10012d84     LIBCMT:winapinls.obj
 0001:00011d90       ??_C@_1M@PBFNCDEL@?$AAe?$AAs?$AA?9?$AAP?$AAY?$AA?$AA@ 10012d90     LIBCMT:winapinls.obj
 0001:00011d9c       ??_C@_1M@EDGINPNP@?$AAa?$AAr?$AA?9?$AAQ?$AAA?$AA?$AA@ 10012d9c     LIBCMT:winapinls.obj
 0001:00011da8       ??_C@_1M@MKDBIIJI@?$AAe?$AAs?$AA?9?$AAB?$AAO?$AA?$AA@ 10012da8     LIBCMT:winapinls.obj
 0001:00011db4       ??_C@_1M@CPKKEBLD@?$AAe?$AAs?$AA?9?$AAS?$AAV?$AA?$AA@ 10012db4     LIBCMT:winapinls.obj
 0001:00011dc0       ??_C@_1M@NDBGMMJL@?$AAe?$AAs?$AA?9?$AAH?$AAN?$AA?$AA@ 10012dc0     LIBCMT:winapinls.obj
 0001:00011dcc       ??_C@_1M@JIJIBHDP@?$AAe?$AAs?$AA?9?$AAN?$AAI?$AA?$AA@ 10012dcc     LIBCMT:winapinls.obj
 0001:00011dd8       ??_C@_1M@CGFMKEEK@?$AAe?$AAs?$AA?9?$AAP?$AAR?$AA?$AA@ 10012dd8     LIBCMT:winapinls.obj
 0001:00011de4       ??_C@_1O@ICJHKIIK@?$AAz?$AAh?$AA?9?$AAC?$AAH?$AAT?$AA?$AA@ 10012de4     LIBCMT:winapinls.obj
 0001:00011df4       ??_C@_15CLNEJCE@?$AAs?$AAr?$AA?$AA@ 10012df4     LIBCMT:winapinls.obj
 0001:00011dfc       ??_C@_1M@KAHEKEIG@?$AAa?$AAf?$AA?9?$AAz?$AAa?$AA?$AA@ 10012dfc     LIBCMT:winapinls.obj
 0001:00011e08       ??_C@_1M@GIECOABL@?$AAa?$AAr?$AA?9?$AAa?$AAe?$AA?$AA@ 10012e08     LIBCMT:winapinls.obj
 0001:00011e14       ??_C@_1M@BMLMEKGI@?$AAa?$AAr?$AA?9?$AAb?$AAh?$AA?$AA@ 10012e14     LIBCMT:winapinls.obj
 0001:00011e20       ??_C@_1M@DAPFDGGB@?$AAa?$AAr?$AA?9?$AAd?$AAz?$AA?$AA@ 10012e20     LIBCMT:winapinls.obj
 0001:00011e2c       ??_C@_1M@FJNKGKIG@?$AAa?$AAr?$AA?9?$AAe?$AAg?$AA?$AA@ 10012e2c     LIBCMT:winapinls.obj
 0001:00011e38       ??_C@_1M@FLGKKCLO@?$AAa?$AAr?$AA?9?$AAi?$AAq?$AA?$AA@ 10012e38     LIBCMT:winapinls.obj
 0001:00011e44       ??_C@_1M@GNDIPALM@?$AAa?$AAr?$AA?9?$AAj?$AAo?$AA?$AA@ 10012e44     LIBCMT:winapinls.obj
 0001:00011e50       ??_C@_1M@DDMJFMGJ@?$AAa?$AAr?$AA?9?$AAk?$AAw?$AA?$AA@ 10012e50     LIBCMT:winapinls.obj
 0001:00011e5c       ??_C@_1M@EJALMLHM@?$AAa?$AAr?$AA?9?$AAl?$AAb?$AA?$AA@ 10012e5c     LIBCMT:winapinls.obj
 0001:00011e68       ??_C@_1M@MOBDBLOC@?$AAa?$AAr?$AA?9?$AAl?$AAy?$AA?$AA@ 10012e68     LIBCMT:winapinls.obj
 0001:00011e74       ??_C@_1M@JAOCLHDH@?$AAa?$AAr?$AA?9?$AAm?$AAa?$AA?$AA@ 10012e74     LIBCMT:winapinls.obj
 0001:00011e80       ??_C@_1M@JHPMKJIE@?$AAa?$AAr?$AA?9?$AAo?$AAm?$AA?$AA@ 10012e80     LIBCMT:winapinls.obj
 0001:00011e8c       ??_C@_1M@OEPGHFNH@?$AAa?$AAr?$AA?9?$AAq?$AAa?$AA?$AA@ 10012e8c     LIBCMT:winapinls.obj
 0001:00011e98       ??_C@_1M@KJDONENM@?$AAa?$AAr?$AA?9?$AAs?$AAa?$AA?$AA@ 10012e98     LIBCMT:winapinls.obj
 0001:00011ea4       ??_C@_1M@DMJDKLKM@?$AAa?$AAr?$AA?9?$AAs?$AAy?$AA?$AA@ 10012ea4     LIBCMT:winapinls.obj
 0001:00011eb0       ??_C@_1M@OMFIPEDC@?$AAa?$AAr?$AA?9?$AAt?$AAn?$AA?$AA@ 10012eb0     LIBCMT:winapinls.obj
 0001:00011ebc       ??_C@_1M@IHMHGAON@?$AAa?$AAr?$AA?9?$AAy?$AAe?$AA?$AA@ 10012ebc     LIBCMT:winapinls.obj
 0001:00011ec8       ??_C@_1BG@KDCPGJGB@?$AAa?$AAz?$AA?9?$AAa?$AAz?$AA?9?$AAc?$AAy?$AAr?$AAl?$AA?$AA@ 10012ec8     LIBCMT:winapinls.obj
 0001:00011ee0       ??_C@_1BG@IBCKDDOE@?$AAa?$AAz?$AA?9?$AAa?$AAz?$AA?9?$AAl?$AAa?$AAt?$AAn?$AA?$AA@ 10012ee0     LIBCMT:winapinls.obj
 0001:00011ef8       ??_C@_1M@EGPFDCPD@?$AAb?$AAe?$AA?9?$AAb?$AAy?$AA?$AA@ 10012ef8     LIBCMT:winapinls.obj
 0001:00011f04       ??_C@_1M@PCMGMCGC@?$AAb?$AAg?$AA?9?$AAb?$AAg?$AA?$AA@ 10012f04     LIBCMT:winapinls.obj
 0001:00011f10       ??_C@_1M@BJBMFGOB@?$AAb?$AAn?$AA?9?$AAi?$AAn?$AA?$AA@ 10012f10     LIBCMT:winapinls.obj
 0001:00011f1c       ??_C@_1BG@EAKMMACD@?$AAb?$AAs?$AA?9?$AAb?$AAa?$AA?9?$AAl?$AAa?$AAt?$AAn?$AA?$AA@ 10012f1c     LIBCMT:winapinls.obj
 0001:00011f34       ??_C@_1M@KGADAODK@?$AAc?$AAa?$AA?9?$AAe?$AAs?$AA?$AA@ 10012f34     LIBCMT:winapinls.obj
 0001:00011f40       ??_C@_1M@COAJPDHI@?$AAc?$AAs?$AA?9?$AAc?$AAz?$AA?$AA@ 10012f40     LIBCMT:winapinls.obj
 0001:00011f4c       ??_C@_1M@DHBHFONH@?$AAc?$AAy?$AA?9?$AAg?$AAb?$AA?$AA@ 10012f4c     LIBCMT:winapinls.obj
 0001:00011f58       ??_C@_1M@IMGKELGA@?$AAd?$AAa?$AA?9?$AAd?$AAk?$AA?$AA@ 10012f58     LIBCMT:winapinls.obj
 0001:00011f64       ??_C@_1M@NNDGDNGA@?$AAd?$AAe?$AA?9?$AAa?$AAt?$AA?$AA@ 10012f64     LIBCMT:winapinls.obj
 0001:00011f70       ??_C@_1M@IKDBHEEM@?$AAd?$AAe?$AA?9?$AAc?$AAh?$AA?$AA@ 10012f70     LIBCMT:winapinls.obj
 0001:00011f7c       ??_C@_1M@GFFOJMCJ@?$AAd?$AAe?$AA?9?$AAd?$AAe?$AA?$AA@ 10012f7c     LIBCMT:winapinls.obj
 0001:00011f88       ??_C@_1M@MDNLKBPM@?$AAd?$AAe?$AA?9?$AAl?$AAi?$AA?$AA@ 10012f88     LIBCMT:winapinls.obj
 0001:00011f94       ??_C@_1M@NJBEEJNL@?$AAd?$AAe?$AA?9?$AAl?$AAu?$AA?$AA@ 10012f94     LIBCMT:winapinls.obj
 0001:00011fa0       ??_C@_1O@GNNELBAP@?$AAd?$AAi?$AAv?$AA?9?$AAm?$AAv?$AA?$AA@ 10012fa0     LIBCMT:winapinls.obj
 0001:00011fb0       ??_C@_1M@EJLEOGAE@?$AAe?$AAl?$AA?9?$AAg?$AAr?$AA?$AA@ 10012fb0     LIBCMT:winapinls.obj
 0001:00011fbc       ??_C@_1M@GMPONJN@?$AAe?$AAn?$AA?9?$AAa?$AAu?$AA?$AA@ 10012fbc     LIBCMT:winapinls.obj
 0001:00011fc8       ??_C@_1M@NIDIIPGF@?$AAe?$AAn?$AA?9?$AAb?$AAz?$AA?$AA@ 10012fc8     LIBCMT:winapinls.obj
 0001:00011fd4       ??_C@_1M@JEHMIMFO@?$AAe?$AAn?$AA?9?$AAc?$AAa?$AA?$AA@ 10012fd4     LIBCMT:winapinls.obj
 0001:00011fe0       ??_C@_1M@IGMJCDLA@?$AAe?$AAn?$AA?9?$AAc?$AAb?$AA?$AA@ 10012fe0     LIBCMT:winapinls.obj
 0001:00011fec       ??_C@_1M@BNFIGBKG@?$AAe?$AAn?$AA?9?$AAg?$AAb?$AA?$AA@ 10012fec     LIBCMT:winapinls.obj
 0001:00011ff8       ??_C@_1M@LKIFDIGP@?$AAe?$AAn?$AA?9?$AAi?$AAe?$AA?$AA@ 10012ff8     LIBCMT:winapinls.obj
 0001:00012004       ??_C@_1M@PJKFGCCO@?$AAe?$AAn?$AA?9?$AAj?$AAm?$AA?$AA@ 10013004     LIBCMT:winapinls.obj
 0001:00012010       ??_C@_1M@KPPKEPBO@?$AAe?$AAn?$AA?9?$AAn?$AAz?$AA?$AA@ 10013010     LIBCMT:winapinls.obj
 0001:0001201c       ??_C@_1M@GMDGLDOB@?$AAe?$AAn?$AA?9?$AAp?$AAh?$AA?$AA@ 1001301c     LIBCMT:winapinls.obj
 0001:00012028       ??_C@_1M@ONGIBJNA@?$AAe?$AAn?$AA?9?$AAt?$AAt?$AA?$AA@ 10013028     LIBCMT:winapinls.obj
 0001:00012034       ??_C@_1M@LLODPCMM@?$AAe?$AAn?$AA?9?$AAu?$AAs?$AA?$AA@ 10013034     LIBCMT:winapinls.obj
 0001:00012040       ??_C@_1M@LAKFNPAN@?$AAe?$AAn?$AA?9?$AAz?$AAa?$AA?$AA@ 10013040     LIBCMT:winapinls.obj
 0001:0001204c       ??_C@_1M@MFNHNHEO@?$AAe?$AAn?$AA?9?$AAz?$AAw?$AA?$AA@ 1001304c     LIBCMT:winapinls.obj
 0001:00012058       ??_C@_1M@EJEINPHM@?$AAe?$AAs?$AA?9?$AAa?$AAr?$AA?$AA@ 10013058     LIBCMT:winapinls.obj
 0001:00012064       ??_C@_1M@GNKPCCJA@?$AAe?$AAs?$AA?9?$AAb?$AAo?$AA?$AA@ 10013064     LIBCMT:winapinls.obj
 0001:00012070       ??_C@_1M@LEEGFONL@?$AAe?$AAs?$AA?9?$AAc?$AAl?$AA?$AA@ 10013070     LIBCMT:winapinls.obj
 0001:0001207c       ??_C@_1M@KGPDPBDF@?$AAe?$AAs?$AA?9?$AAc?$AAo?$AA?$AA@ 1001307c     LIBCMT:winapinls.obj
 0001:00012088       ??_C@_1M@EIAHOHH@?$AAe?$AAs?$AA?9?$AAc?$AAr?$AA?$AA@ 10013088     LIBCMT:winapinls.obj
 0001:00012094       ??_C@_1M@LLPGMBIN@?$AAe?$AAs?$AA?9?$AAd?$AAo?$AA?$AA@ 10013094     LIBCMT:winapinls.obj
 0001:000120a0       ??_C@_1M@DKHMKNJA@?$AAe?$AAs?$AA?9?$AAe?$AAc?$AA?$AA@ 100130a0     LIBCMT:winapinls.obj
 0001:000120ac       ??_C@_1M@GKGFPKAP@?$AAe?$AAs?$AA?9?$AAe?$AAs?$AA?$AA@ 100130ac     LIBCMT:winapinls.obj
 0001:000120b8       ??_C@_1M@LKHKGDLN@?$AAe?$AAs?$AA?9?$AAg?$AAt?$AA?$AA@ 100130b8     LIBCMT:winapinls.obj
 0001:000120c4       ??_C@_1M@HEIIGGJD@?$AAe?$AAs?$AA?9?$AAh?$AAn?$AA?$AA@ 100130c4     LIBCMT:winapinls.obj
 0001:000120d0       ??_C@_1M@FBDHPPGD@?$AAe?$AAs?$AA?9?$AAm?$AAx?$AA?$AA@ 100130d0     LIBCMT:winapinls.obj
 0001:000120dc       ??_C@_1M@DPAGLNDH@?$AAe?$AAs?$AA?9?$AAn?$AAi?$AA?$AA@ 100130dc     LIBCMT:winapinls.obj
 0001:000120e8       ??_C@_1M@MDGOPGDD@?$AAe?$AAs?$AA?9?$AAp?$AAa?$AA?$AA@ 100130e8     LIBCMT:winapinls.obj
 0001:000120f4       ??_C@_1M@EMAMGBGE@?$AAe?$AAs?$AA?9?$AAp?$AAe?$AA?$AA@ 100130f4     LIBCMT:winapinls.obj
 0001:00012100       ??_C@_1M@IBMCAOEC@?$AAe?$AAs?$AA?9?$AAp?$AAr?$AA?$AA@ 10013100     LIBCMT:winapinls.obj
 0001:0001210c       ??_C@_1M@FGMDIJED@?$AAe?$AAs?$AA?9?$AAp?$AAy?$AA?$AA@ 1001310c     LIBCMT:winapinls.obj
 0001:00012118       ??_C@_1M@IIDEOLLL@?$AAe?$AAs?$AA?9?$AAs?$AAv?$AA?$AA@ 10013118     LIBCMT:winapinls.obj
 0001:00012124       ??_C@_1M@GAOBIPA@?$AAe?$AAs?$AA?9?$AAu?$AAy?$AA?$AA@ 10013124     LIBCMT:winapinls.obj
 0001:00012130       ??_C@_1M@JKFFICHJ@?$AAe?$AAs?$AA?9?$AAv?$AAe?$AA?$AA@ 10013130     LIBCMT:winapinls.obj
 0001:0001213c       ??_C@_1M@PNMLOJDF@?$AAe?$AAt?$AA?9?$AAe?$AAe?$AA?$AA@ 1001313c     LIBCMT:winapinls.obj
 0001:00012148       ??_C@_1M@GHHLIKEI@?$AAe?$AAu?$AA?9?$AAe?$AAs?$AA?$AA@ 10013148     LIBCMT:winapinls.obj
 0001:00012154       ??_C@_1M@PBNONODE@?$AAf?$AAa?$AA?9?$AAi?$AAr?$AA?$AA@ 10013154     LIBCMT:winapinls.obj
 0001:00012160       ??_C@_1M@JEEHPMIL@?$AAf?$AAi?$AA?9?$AAf?$AAi?$AA?$AA@ 10013160     LIBCMT:winapinls.obj
 0001:0001216c       ??_C@_1M@LMDCNDBA@?$AAf?$AAo?$AA?9?$AAf?$AAo?$AA?$AA@ 1001316c     LIBCMT:winapinls.obj
 0001:00012178       ??_C@_1M@JKEOHLDK@?$AAf?$AAr?$AA?9?$AAb?$AAe?$AA?$AA@ 10013178     LIBCMT:winapinls.obj
 0001:00012184       ??_C@_1M@NOHADPMI@?$AAf?$AAr?$AA?9?$AAc?$AAa?$AA?$AA@ 10013184     LIBCMT:winapinls.obj
 0001:00012190       ??_C@_1M@KDHIHAEC@?$AAf?$AAr?$AA?9?$AAc?$AAh?$AA?$AA@ 10013190     LIBCMT:winapinls.obj
 0001:0001219c       ??_C@_1M@MMBBFGAK@?$AAf?$AAr?$AA?9?$AAf?$AAr?$AA?$AA@ 1001319c     LIBCMT:winapinls.obj
 0001:000121a8       ??_C@_1M@PAFNENNF@?$AAf?$AAr?$AA?9?$AAl?$AAu?$AA?$AA@ 100131a8     LIBCMT:winapinls.obj
 0001:000121b4       ??_C@_1M@EOHDJGDD@?$AAf?$AAr?$AA?9?$AAm?$AAc?$AA?$AA@ 100131b4     LIBCMT:winapinls.obj
 0001:000121c0       ??_C@_1M@FAPLLOPF@?$AAg?$AAl?$AA?9?$AAe?$AAs?$AA?$AA@ 100131c0     LIBCMT:winapinls.obj
 0001:000121cc       ??_C@_1M@FOPBFLOO@?$AAg?$AAu?$AA?9?$AAi?$AAn?$AA?$AA@ 100131cc     LIBCMT:winapinls.obj
 0001:000121d8       ??_C@_1M@KBMCINPM@?$AAh?$AAe?$AA?9?$AAi?$AAl?$AA?$AA@ 100131d8     LIBCMT:winapinls.obj
 0001:000121e4       ??_C@_1M@BBPHKFPJ@?$AAh?$AAi?$AA?9?$AAi?$AAn?$AA?$AA@ 100131e4     LIBCMT:winapinls.obj
 0001:000121f0       ??_C@_1M@PMBNDPHD@?$AAh?$AAr?$AA?9?$AAb?$AAa?$AA?$AA@ 100131f0     LIBCMT:winapinls.obj
 0001:000121fc       ??_C@_1M@BPCKOEGE@?$AAh?$AAr?$AA?9?$AAh?$AAr?$AA?$AA@ 100131fc     LIBCMT:winapinls.obj
 0001:00012208       ??_C@_1M@GACBMHKE@?$AAh?$AAu?$AA?9?$AAh?$AAu?$AA?$AA@ 10013208     LIBCMT:winapinls.obj
 0001:00012214       ??_C@_1M@MILPAJJC@?$AAh?$AAy?$AA?9?$AAa?$AAm?$AA?$AA@ 10013214     LIBCMT:winapinls.obj
 0001:00012220       ??_C@_1M@BABBICEC@?$AAi?$AAd?$AA?9?$AAi?$AAd?$AA?$AA@ 10013220     LIBCMT:winapinls.obj
 0001:0001222c       ??_C@_1M@BIKNHHPF@?$AAi?$AAs?$AA?9?$AAi?$AAs?$AA?$AA@ 1001322c     LIBCMT:winapinls.obj
 0001:00012238       ??_C@_1M@NMPCJPHE@?$AAi?$AAt?$AA?9?$AAc?$AAh?$AA?$AA@ 10013238     LIBCMT:winapinls.obj
 0001:00012244       ??_C@_1M@GHKGFEDF@?$AAi?$AAt?$AA?9?$AAi?$AAt?$AA?$AA@ 10013244     LIBCMT:winapinls.obj
 0001:00012250       ??_C@_1M@NIEJCJJA@?$AAj?$AAa?$AA?9?$AAj?$AAp?$AA?$AA@ 10013250     LIBCMT:winapinls.obj
 0001:0001225c       ??_C@_1M@JILFNBIM@?$AAk?$AAa?$AA?9?$AAg?$AAe?$AA?$AA@ 1001325c     LIBCMT:winapinls.obj
 0001:00012268       ??_C@_1M@PACPMGPH@?$AAk?$AAk?$AA?9?$AAk?$AAz?$AA?$AA@ 10013268     LIBCMT:winapinls.obj
 0001:00012274       ??_C@_1M@IELFGMHA@?$AAk?$AAn?$AA?9?$AAi?$AAn?$AA?$AA@ 10013274     LIBCMT:winapinls.obj
 0001:00012280       ??_C@_1O@IBBJHCH@?$AAk?$AAo?$AAk?$AA?9?$AAi?$AAn?$AA?$AA@ 10013280     LIBCMT:winapinls.obj
 0001:00012290       ??_C@_1M@DMHAEOGC@?$AAk?$AAo?$AA?9?$AAk?$AAr?$AA?$AA@ 10013290     LIBCMT:winapinls.obj
 0001:0001229c       ??_C@_1M@HBAHBIGA@?$AAk?$AAy?$AA?9?$AAk?$AAg?$AA?$AA@ 1001329c     LIBCMT:winapinls.obj
 0001:000122a8       ??_C@_1M@KPMILCJG@?$AAl?$AAt?$AA?9?$AAl?$AAt?$AA?$AA@ 100132a8     LIBCMT:winapinls.obj
 0001:000122b4       ??_C@_1M@BDEKKCA@?$AAl?$AAv?$AA?9?$AAl?$AAv?$AA?$AA@ 100132b4     LIBCMT:winapinls.obj
 0001:000122c0       ??_C@_1M@ELCKCCJJ@?$AAm?$AAi?$AA?9?$AAn?$AAz?$AA?$AA@ 100132c0     LIBCMT:winapinls.obj
 0001:000122cc       ??_C@_1M@CBOOLAPA@?$AAm?$AAk?$AA?9?$AAm?$AAk?$AA?$AA@ 100132cc     LIBCMT:winapinls.obj
 0001:000122d8       ??_C@_1M@GPHNBJKN@?$AAm?$AAl?$AA?9?$AAi?$AAn?$AA?$AA@ 100132d8     LIBCMT:winapinls.obj
 0001:000122e4       ??_C@_1M@PABJILIG@?$AAm?$AAn?$AA?9?$AAm?$AAn?$AA?$AA@ 100132e4     LIBCMT:winapinls.obj
 0001:000122f0       ??_C@_1M@FGBKKIPG@?$AAm?$AAr?$AA?9?$AAi?$AAn?$AA?$AA@ 100132f0     LIBCMT:winapinls.obj
 0001:000122fc       ??_C@_1M@NDBPDDAL@?$AAm?$AAs?$AA?9?$AAb?$AAn?$AA?$AA@ 100132fc     LIBCMT:winapinls.obj
 0001:00012308       ??_C@_1M@OPIHOOPI@?$AAm?$AAs?$AA?9?$AAm?$AAy?$AA?$AA@ 10013308     LIBCMT:winapinls.obj
 0001:00012314       ??_C@_1M@PPDBCNFM@?$AAm?$AAt?$AA?9?$AAm?$AAt?$AA?$AA@ 10013314     LIBCMT:winapinls.obj
 0001:00012320       ??_C@_1M@KDJDKMDD@?$AAn?$AAb?$AA?9?$AAn?$AAo?$AA?$AA@ 10013320     LIBCMT:winapinls.obj
 0001:0001232c       ??_C@_1M@KFCFLMJP@?$AAn?$AAl?$AA?9?$AAb?$AAe?$AA?$AA@ 1001332c     LIBCMT:winapinls.obj
 0001:00012338       ??_C@_1M@KPOPDDGO@?$AAn?$AAl?$AA?9?$AAn?$AAl?$AA?$AA@ 10013338     LIBCMT:winapinls.obj
 0001:00012344       ??_C@_1M@LJKPEMLN@?$AAn?$AAn?$AA?9?$AAn?$AAo?$AA?$AA@ 10013344     LIBCMT:winapinls.obj
 0001:00012350       ??_C@_1M@BDGHHBFL@?$AAn?$AAs?$AA?9?$AAz?$AAa?$AA?$AA@ 10013350     LIBCMT:winapinls.obj
 0001:0001235c       ??_C@_1M@IDEHOAP@?$AAp?$AAa?$AA?9?$AAi?$AAn?$AA?$AA@ 1001335c     LIBCMT:winapinls.obj
 0001:00012368       ??_C@_1M@HDBKGOGH@?$AAp?$AAl?$AA?9?$AAp?$AAl?$AA?$AA@ 10013368     LIBCMT:winapinls.obj
 0001:00012374       ??_C@_1M@LJLLCMEH@?$AAp?$AAt?$AA?9?$AAb?$AAr?$AA?$AA@ 10013374     LIBCMT:winapinls.obj
 0001:00012380       ??_C@_1M@NCMONAAL@?$AAp?$AAt?$AA?9?$AAp?$AAt?$AA?$AA@ 10013380     LIBCMT:winapinls.obj
 0001:0001238c       ??_C@_1O@EAKMAJDN@?$AAq?$AAu?$AAz?$AA?9?$AAb?$AAo?$AA?$AA@ 1001338c     LIBCMT:winapinls.obj
 0001:0001239c       ??_C@_1O@BHHPIGDN@?$AAq?$AAu?$AAz?$AA?9?$AAe?$AAc?$AA?$AA@ 1001339c     LIBCMT:winapinls.obj
 0001:000123ac       ??_C@_1O@GBAPEKMJ@?$AAq?$AAu?$AAz?$AA?9?$AAp?$AAe?$AA?$AA@ 100133ac     LIBCMT:winapinls.obj
 0001:000123bc       ??_C@_1M@CLGLEFBO@?$AAr?$AAo?$AA?9?$AAr?$AAo?$AA?$AA@ 100133bc     LIBCMT:winapinls.obj
 0001:000123c8       ??_C@_1M@CEEDODME@?$AAr?$AAu?$AA?9?$AAr?$AAu?$AA?$AA@ 100133c8     LIBCMT:winapinls.obj
 0001:000123d4       ??_C@_1M@HPKKKMPP@?$AAs?$AAa?$AA?9?$AAi?$AAn?$AA?$AA@ 100133d4     LIBCMT:winapinls.obj
 0001:000123e0       ??_C@_1M@BKMAIGOJ@?$AAs?$AAe?$AA?9?$AAf?$AAi?$AA?$AA@ 100133e0     LIBCMT:winapinls.obj
 0001:000123ec       ??_C@_1M@NDPIFLFI@?$AAs?$AAe?$AA?9?$AAn?$AAo?$AA?$AA@ 100133ec     LIBCMT:winapinls.obj
 0001:000123f8       ??_C@_1M@DANKKHJ@?$AAs?$AAe?$AA?9?$AAs?$AAe?$AA?$AA@ 100133f8     LIBCMT:winapinls.obj
 0001:00012404       ??_C@_1M@PNBLONPJ@?$AAs?$AAk?$AA?9?$AAs?$AAk?$AA?$AA@ 10013404     LIBCMT:winapinls.obj
 0001:00012410       ??_C@_1M@LFMODOAL@?$AAs?$AAl?$AA?9?$AAs?$AAi?$AA?$AA@ 10013410     LIBCMT:winapinls.obj
 0001:0001241c       ??_C@_1O@DFKOMPG@?$AAs?$AAm?$AAa?$AA?9?$AAn?$AAo?$AA?$AA@ 1001341c     LIBCMT:winapinls.obj
 0001:0001242c       ??_C@_1O@NDKPBNNH@?$AAs?$AAm?$AAa?$AA?9?$AAs?$AAe?$AA?$AA@ 1001342c     LIBCMT:winapinls.obj
 0001:0001243c       ??_C@_1O@PLLKBHAB@?$AAs?$AAm?$AAj?$AA?9?$AAn?$AAo?$AA?$AA@ 1001343c     LIBCMT:winapinls.obj
 0001:0001244c       ??_C@_1O@CLEPOGCA@?$AAs?$AAm?$AAj?$AA?9?$AAs?$AAe?$AA?$AA@ 1001344c     LIBCMT:winapinls.obj
 0001:0001245c       ??_C@_1O@DLGJGKMK@?$AAs?$AAm?$AAn?$AA?9?$AAf?$AAi?$AA?$AA@ 1001345c     LIBCMT:winapinls.obj
 0001:0001246c       ??_C@_1O@OJDJGAJC@?$AAs?$AAm?$AAs?$AA?9?$AAf?$AAi?$AA?$AA@ 1001346c     LIBCMT:winapinls.obj
 0001:0001247c       ??_C@_1M@BOFOGHPB@?$AAs?$AAq?$AA?9?$AAa?$AAl?$AA?$AA@ 1001347c     LIBCMT:winapinls.obj
 0001:00012488       ??_C@_1BG@LJBBIPGB@?$AAs?$AAr?$AA?9?$AAb?$AAa?$AA?9?$AAc?$AAy?$AAr?$AAl?$AA?$AA@ 10013488     LIBCMT:winapinls.obj
 0001:000124a0       ??_C@_1BG@JLBENFOE@?$AAs?$AAr?$AA?9?$AAb?$AAa?$AA?9?$AAl?$AAa?$AAt?$AAn?$AA?$AA@ 100134a0     LIBCMT:winapinls.obj
 0001:000124b8       ??_C@_1BG@KODPNHE@?$AAs?$AAr?$AA?9?$AAs?$AAp?$AA?9?$AAc?$AAy?$AAr?$AAl?$AA?$AA@ 100134b8     LIBCMT:winapinls.obj
 0001:000124d0       ??_C@_1BG@CIOGKHPB@?$AAs?$AAr?$AA?9?$AAs?$AAp?$AA?9?$AAl?$AAa?$AAt?$AAn?$AA?$AA@ 100134d0     LIBCMT:winapinls.obj
 0001:000124e8       ??_C@_1M@NGFJLMAC@?$AAs?$AAv?$AA?9?$AAf?$AAi?$AA?$AA@ 100134e8     LIBCMT:winapinls.obj
 0001:000124f4       ??_C@_1M@MPJEJAJC@?$AAs?$AAv?$AA?9?$AAs?$AAe?$AA?$AA@ 100134f4     LIBCMT:winapinls.obj
 0001:00012500       ??_C@_1M@MPNDHLFK@?$AAs?$AAw?$AA?9?$AAk?$AAe?$AA?$AA@ 10013500     LIBCMT:winapinls.obj
 0001:0001250c       ??_C@_1O@KOHBJJI@?$AAs?$AAy?$AAr?$AA?9?$AAs?$AAy?$AA?$AA@ 1001350c     LIBCMT:winapinls.obj
 0001:0001251c       ??_C@_1M@LDCEFHA@?$AAt?$AAa?$AA?9?$AAi?$AAn?$AA?$AA@ 1001351c     LIBCMT:winapinls.obj
 0001:00012528       ??_C@_1M@CNJOFAK@?$AAt?$AAe?$AA?9?$AAi?$AAn?$AA?$AA@ 10013528     LIBCMT:winapinls.obj
 0001:00012534       ??_C@_1M@GNAECACD@?$AAt?$AAh?$AA?9?$AAt?$AAh?$AA?$AA@ 10013534     LIBCMT:winapinls.obj
 0001:00012540       ??_C@_1M@CHBIHOJO@?$AAt?$AAn?$AA?9?$AAz?$AAa?$AA?$AA@ 10013540     LIBCMT:winapinls.obj
 0001:0001254c       ??_C@_1M@GCCMIGPJ@?$AAt?$AAr?$AA?9?$AAt?$AAr?$AA?$AA@ 1001354c     LIBCMT:winapinls.obj
 0001:00012558       ??_C@_1M@CELMCNBK@?$AAt?$AAt?$AA?9?$AAr?$AAu?$AA?$AA@ 10013558     LIBCMT:winapinls.obj
 0001:00012564       ??_C@_1M@KLMCELGA@?$AAu?$AAk?$AA?9?$AAu?$AAa?$AA?$AA@ 10013564     LIBCMT:winapinls.obj
 0001:00012570       ??_C@_1M@EPAJJAJF@?$AAu?$AAr?$AA?9?$AAp?$AAk?$AA?$AA@ 10013570     LIBCMT:winapinls.obj
 0001:0001257c       ??_C@_1BG@GEGPMCDJ@?$AAu?$AAz?$AA?9?$AAu?$AAz?$AA?9?$AAc?$AAy?$AAr?$AAl?$AA?$AA@ 1001357c     LIBCMT:winapinls.obj
 0001:00012594       ??_C@_1BG@EGGKJILM@?$AAu?$AAz?$AA?9?$AAu?$AAz?$AA?9?$AAl?$AAa?$AAt?$AAn?$AA?$AA@ 10013594     LIBCMT:winapinls.obj
 0001:000125ac       ??_C@_1M@GFOCLFF@?$AAv?$AAi?$AA?9?$AAv?$AAn?$AA?$AA@ 100135ac     LIBCMT:winapinls.obj
 0001:000125b8       ??_C@_1M@CPAMEDFI@?$AAx?$AAh?$AA?9?$AAz?$AAa?$AA?$AA@ 100135b8     LIBCMT:winapinls.obj
 0001:000125c4       ??_C@_1O@EBKIFIGN@?$AAz?$AAh?$AA?9?$AAc?$AAh?$AAs?$AA?$AA@ 100135c4     LIBCMT:winapinls.obj
 0001:000125d4       ??_C@_1O@NMHPGANE@?$AAz?$AAh?$AA?9?$AAc?$AAh?$AAt?$AA?$AA@ 100135d4     LIBCMT:winapinls.obj
 0001:000125e4       ??_C@_1M@LPINJOMC@?$AAz?$AAh?$AA?9?$AAc?$AAn?$AA?$AA@ 100135e4     LIBCMT:winapinls.obj
 0001:000125f0       ??_C@_1M@OCJEJODD@?$AAz?$AAh?$AA?9?$AAh?$AAk?$AA?$AA@ 100135f0     LIBCMT:winapinls.obj
 0001:000125fc       ??_C@_1M@DNDLJINH@?$AAz?$AAh?$AA?9?$AAm?$AAo?$AA?$AA@ 100135fc     LIBCMT:winapinls.obj
 0001:00012608       ??_C@_1M@MBFDNDND@?$AAz?$AAh?$AA?9?$AAs?$AAg?$AA?$AA@ 10013608     LIBCMT:winapinls.obj
 0001:00012614       ??_C@_1M@IMEPLEPE@?$AAz?$AAh?$AA?9?$AAt?$AAw?$AA?$AA@ 10013614     LIBCMT:winapinls.obj
 0001:00012620       ??_C@_1M@BBGHNHJP@?$AAz?$AAu?$AA?9?$AAz?$AAa?$AA?$AA@ 10013620     LIBCMT:winapinls.obj
 0001:00012f50       __infinity                 10013f50     LIBCMT:87tran.obj
 0001:00012f5a       __minfinity                10013f5a     LIBCMT:87tran.obj
 0001:00012f64       __logemax                  10013f64     LIBCMT:87tran.obj
 0001:00012f8a       __OP_EXPjmptab             10013f8a     LIBCMT:87tran.obj
 0001:00012fb0       __indefinite               10013fb0     LIBCMT:87disp.obj
 0001:00012fba       __piby2                    10013fba     LIBCMT:87disp.obj
 0001:00012fe8       __DEFAULT_CW_in_mem        10013fe8     LIBCMT:common.obj
 0001:00012fea       __pi_by_2_to_61            10013fea     LIBCMT:common.obj
 0001:00013024       ??_C@_04COOMCNPB@sinh?$AA@ 10014024     LIBCMT:fpexcept.obj
 0001:0001302c       ??_C@_04HPJJNFIM@cosh?$AA@ 1001402c     LIBCMT:fpexcept.obj
 0001:00013034       ??_C@_04FJHINJAO@tanh?$AA@ 10014034     LIBCMT:fpexcept.obj
 0001:0001303c       ??_C@_05KNGEOGJB@atan2?$AA@ 1001403c     LIBCMT:fpexcept.obj
 0001:00013044       ??_C@_04ODHECPBC@fabs?$AA@ 10014044     LIBCMT:fpexcept.obj
 0001:0001304c       ??_C@_05CEJMAHNP@ldexp?$AA@ 1001404c     LIBCMT:fpexcept.obj
 0001:00013054       ??_C@_05KBKMEMPO@_cabs?$AA@ 10014054     LIBCMT:fpexcept.obj
 0001:0001305c       ??_C@_06MEIMCGCF@_hypot?$AA@ 1001405c     LIBCMT:fpexcept.obj
 0001:00013064       ??_C@_04KEPJIHGP@fmod?$AA@ 10014064     LIBCMT:fpexcept.obj
 0001:0001306c       ??_C@_05GKKHEGJL@frexp?$AA@ 1001406c     LIBCMT:fpexcept.obj
 0001:00013074       ??_C@_03MJLDFKDL@_y0?$AA@  10014074     LIBCMT:fpexcept.obj
 0001:00013078       ??_C@_03NAKIGLHK@_y1?$AA@  10014078     LIBCMT:fpexcept.obj
 0001:0001307c       ??_C@_03ONILCKOB@_yn?$AA@  1001407c     LIBCMT:fpexcept.obj
 0001:00013080       ??_C@_05JGDBENOH@_logb?$AA@ 10014080     LIBCMT:fpexcept.obj
 0001:00013088       ??_C@_0L@KDOEJCKC@_nextafter?$AA@ 10014088     LIBCMT:fpexcept.obj
 0001:00013094       ??_C@_06PGGFOGJG@1?$CDSNAN?$AA@ 10014094     LIBCMT:x10fout.obj
 0001:0001309c       ??_C@_05PHHOCPM@1?$CDIND?$AA@ 1001409c     LIBCMT:x10fout.obj
 0001:000130a4       ??_C@_05DNEBIAHO@1?$CDINF?$AA@ 100140a4     LIBCMT:x10fout.obj
 0001:000130ac       ??_C@_06IMKFLFPG@1?$CDQNAN?$AA@ 100140ac     LIBCMT:x10fout.obj
 0001:000130b8       __real@3fe0000000000000    100140b8     LIBCMT:powhlp.obj
 0001:000130c0       ??_C@_1BA@BALFACEM@?$AAC?$AAO?$AAN?$AAO?$AAU?$AAT?$AA$?$AA?$AA@ 100140c0     LIBCMT:initcon.obj
 0001:000130d0       __load_config_used         100140d0     LIBCMT:loadcfg.obj
 0001:000131a0       ___safe_se_handler_table   100141a0     <linker-defined>
 0001:000131ac       ___rtc_iaa                 100141ac     LIBCMT:initsect.obj
 0001:000131b0       ___rtc_izz                 100141b0     LIBCMT:initsect.obj
 0001:000131b4       ___rtc_taa                 100141b4     LIBCMT:initsect.obj
 0001:000131b8       ___rtc_tzz                 100141b8     LIBCMT:initsect.obj
 0001:000131c0       __chkstk                   100141c0 f   chkstk.obj
 0001:000131c0       __alloca_probe             100141c0     chkstk.obj
 0001:00014c10       _bit64_getvalue            10015c10 f   bit64.obj
 0001:00014c90       _bit64_push                10015c90 f   bit64.obj
 0001:00014d30       _bit64_pushuserdata        10015d30 f   bit64.obj
 0001:00014d70       _luaopen_bit64             10015d70 f   bit64.obj
 0001:00014db0       _AddBufToCollector         10015db0 f   exported.obj
 0001:00014e00       _AddStringToCollectorField 10015e00 f   exported.obj
 0001:00014e60       _CreateStringsArray        10015e60 f   exported.obj
 0001:00014fa0       _DestroyCollector          10015fa0 f   exported.obj
 0001:00014fe0       _FarPanelItemFreeCallback@8 10015fe0 f   exported.obj
 0001:00015250       _FillFindData              10016250 f   exported.obj
 0001:00015560       _FillPluginPanelItem       10016560 f   exported.obj
 0001:00015740       _GetExportFunction         10016740 f   exported.obj
 0001:000157c0       _LF_Analyse                100167c0 f   exported.obj
 0001:00015860       _LF_CloseAnalyse           10016860 f   exported.obj
 0001:00015880       _LF_ClosePanel             10016880 f   exported.obj
 0001:00015930       _LF_Compare                10016930 f   exported.obj
 0001:000159e0       _LF_Configure              100169e0 f   exported.obj
 0001:00015a40       _LF_DeleteFiles            10016a40 f   exported.obj
 0001:00015af0       _LF_ExitFAR                10016af0 f   exported.obj
 0001:00015b20       _LF_FreeCustomData         10016b20 f   exported.obj
 0001:00015b30       _LF_FreeFindData           10016b30 f   exported.obj
 0001:00015b80       _LF_GetCustomData          10016b80 f   exported.obj
 0001:00015c10       _LF_GetFiles               10016c10 f   exported.obj
 0001:00015d40       _LF_GetFindData            10016d40 f   exported.obj
 0001:00015e20       _LF_GetGlobalInfo          10016e20 f   exported.obj
 0001:000161b0       _LF_GetOpenPanelInfo       100171b0 f   exported.obj
 0001:00016820       _LF_GetPluginInfo          10017820 f   exported.obj
 0001:00016920       _LF_MakeDirectory          10017920 f   exported.obj
 0001:00016a30       _LF_Open                   10017a30 f   exported.obj
 0001:00016cc0       _LF_ProcessConsoleInput    10017cc0 f   exported.obj
 0001:00016d70       _LF_ProcessDialogEvent     10017d70 f   exported.obj
 0001:00016eb0       _LF_ProcessEditorEvent     10017eb0 f   exported.obj
 0001:00016fd0       _LF_ProcessEditorInput     10017fd0 f   exported.obj
 0001:00017030       _LF_ProcessHostFile        10018030 f   exported.obj
 0001:00017110       _LF_ProcessPanelEvent      10018110 f   exported.obj
 0001:000171b0       _LF_ProcessPanelInput      100181b0 f   exported.obj
 0001:00017240       _LF_ProcessSynchroEvent    10018240 f   exported.obj
 0001:000173a0       _LF_ProcessViewerEvent     100183a0 f   exported.obj
 0001:00017420       _LF_PutFiles               10018420 f   exported.obj
 0001:00017510       _LF_SetDirectory           10018510 f   exported.obj
 0001:000175b0       _LF_SetFindList            100185b0 f   exported.obj
 0001:00017640       _PackMacroValues           10018640 f   exported.obj
 0001:000177e0       _PushFarMacroValue         100187e0 f   exported.obj
 0001:000178e0       _RegisterObject            100188e0 f   exported.obj
 0001:00017930       _ReplacePluginInfoCollector 10018930 f   exported.obj
 0001:00017960       _UpdateFileSelection       10018960 f   exported.obj
 0001:00017a20       _getPluginMenuItems        10018a20 f   exported.obj
 0001:00017ab0       _pcall_msg                 10018ab0 f   exported.obj
 0001:00017b50       _traceback                 10018b50 f   exported.obj
 0001:00017be0       _push_flags_table          10018be0 f   flags.obj
 0001:00017c30       _SetFarColors              10018c30 f   keysandcolors.obj
 0001:00017c60       _LF_Gsub                   10018c60 f   lflua.obj
 0001:00017d70       _LF_LoadFile               10018d70 f   lflua.obj
 0001:00018010       _luaB_dofileW              10019010 f   lflua.obj
 0001:00018060       _luaB_loadfileW            10019060 f   lflua.obj
 0001:00018100       _method_gc                 10019100 f   lregex.obj
 0001:00018160       _method_tostring           10019160 f   lregex.obj
 0001:000181b0       _func_Gmatch               100191b0 f   lregex.obj
 0001:000181c0       _func_GmatchW              100191c0 f   lregex.obj
 0001:000181d0       _method_bracketscount      100191d0 f   lregex.obj
 0001:00018230       _func_New                  10019230 f   lregex.obj
 0001:00018260       _method_find               10019260 f   lregex.obj
 0001:00018280       _func_find                 10019280 f   lregex.obj
 0001:000182a0       _method_findW              100192a0 f   lregex.obj
 0001:000182c0       _func_findW                100192c0 f   lregex.obj
 0001:000182e0       _method_match              100192e0 f   lregex.obj
 0001:00018300       _func_match                10019300 f   lregex.obj
 0001:00018320       _method_matchW             10019320 f   lregex.obj
 0001:00018340       _func_matchW               10019340 f   lregex.obj
 0001:00018360       _method_gsub               10019360 f   lregex.obj
 0001:00018380       _func_gsub                 10019380 f   lregex.obj
 0001:000183a0       _method_gsubW              100193a0 f   lregex.obj
 0001:000183c0       _func_gsubW                100193c0 f   lregex.obj
 0001:000183e0       __Gmatch                   100193e0 f   lregex.obj
 0001:000184c0       __regex_gmatch_closure     100194c0 f   lregex.obj
 0001:000185a0       _check_regex_pattern       100195a0 f   lregex.obj
 0001:00018640       _luaopen_regex             10019640 f   lregex.obj
 0001:000186b0       _push_far_regex            100196b0 f   lregex.obj
 0001:00018720       _regex_gmatch_closure      10019720 f   lregex.obj
 0001:00018730       _regex_gmatch_closureW     10019730 f   lregex.obj
 0001:00018740       _rx_find_match             10019740 f   lregex.obj
 0001:00018940       _rx_gsub                   10019940 f   lregex.obj
 0001:00019130       _Open_Luamacro             1001a130 f   luamacro.obj
 0001:000194a0       _far_MacroCallFar          1001a4a0 f   luamacro.obj
 0001:00019600       _far_MacroCallPlugin       1001a600 f   luamacro.obj
 0001:00019760       _uc_len                    1001a760 f   lusercontrol.obj
 0001:00019970       _CheckFarUserControl       1001a970 f   lusercontrol.obj
 0001:00019990       _luaopen_usercontrol       1001a990 f   lusercontrol.obj
 0001:000199d0       _CreateRegKey              1001a9d0 f   reg.obj
 0001:00019a00       _OpenRegKey                1001aa00 f   reg.obj
 0001:00019a30       _SetRegKeyArr              1001aa30 f   reg.obj
 0001:00019a80       _SetRegKeyDword            1001aa80 f   reg.obj
 0001:00019ad0       _SetRegKeyStr              1001aad0 f   reg.obj
 0001:000227f0       _ConvertLuaValue           100237f0 f   service.obj
 0001:00022940       _CreateList                10023940 f   service.obj
 0001:00022ae0       _DialogHandleEqual         10023ae0 f   service.obj
 0001:00022cd0       _FillInputRecord           10023cd0 f   service.obj
 0001:00023180       _GetFarColorFromTable      10024180 f   service.obj
 0001:00023270       _GetFlagCombination        10024270 f   service.obj
 0001:00023490       _GetFlagsFromTable         10024490 f   service.obj
 0001:000235d0       _GetPluginData             100245d0 f   service.obj
 0001:000235f0       _LF_DlgProc                100245f0 f   service.obj
 0001:00023930       _LF_DoFile                 10024930 f   service.obj
 0001:000239c0       _LF_Error                  100249c0 f   service.obj
 0001:00023a80       _LF_InitLuaState1          10024a80 f   service.obj
 0001:00023bd0       _LF_InitLuaState2          10024bd0 f   service.obj
 0001:00023c60       _LF_LuaClose               10024c60 f   service.obj
 0001:00023c70       _LF_LuaOpen                10024c70 f   service.obj
 0001:00023c80       _LF_MacroCallback          10024c80 f   service.obj
 0001:00023cf0       _LF_Message                10024cf0 f   service.obj
 0001:00024150       _LF_ProcessEnvVars         10025150 f   service.obj
 0001:00024450       _LF_RunDefaultScript       10025450 f   service.obj
 0001:00024720       _NewDialogData             10025720 f   service.obj
 0001:00024790       _NewVirtualKeyTable        10025790 f   service.obj
 0001:00024ad0       _PushDMParams              10025ad0 f   service.obj
 0001:00024bb0       _PushDNParams              10025bb0 f   service.obj
 0001:00025060       _PushFarColor              10026060 f   service.obj
 0001:000250f0       _PushPanelItem             100260f0 f   service.obj
 0001:00025350       _PushPanelItems            10026350 f   service.obj
 0001:000255e0       _PutFlagsToTable           100265e0 f   service.obj
 0001:00025610       _PutMouseEvent             10026610 f   service.obj
 0001:00025d90       _TimerThreadFunc@4         10026d90 f   service.obj
 0001:00026290       _dir_exist                 10027290 f   service.obj
 0001:000268d0       _pushFileTime              100278d0 f   service.obj
 0001:00026920       _pushInputRecord           10027920 f   service.obj
 0001:00028230       _luaopen_unicode           10029230 f   slnunico.obj
 0001:0002a690       _luaopen_uio               1002b690 f   uliolib51.obj
 0001:0002b390       _luaopen_upackage          1002c390 f   uloadlib51.obj
 0001:0002b7d0       _ustring_Uuid              1002c7d0 f   ustring.obj
 0001:0002b8b0       _ustring_SearchPath        1002c8b0 f   ustring.obj
 0001:0002bab0       _ustring_GlobalMemoryStatus 1002cab0 f   ustring.obj
 0001:0002bdb0       _ustring_Sleep             1002cdb0 f   ustring.obj
 0001:0002bdf0       _ustring_SetFileAttr       1002cdf0 f   ustring.obj
 0001:0002bee0       _ustring_GetFileAttr       1002cee0 f   ustring.obj
 0001:0002bfb0       _ustring_SHGetFolderPath   1002cfb0 f   ustring.obj
 0001:0002c0b0       _ustring_sub               1002d0b0 f   ustring.obj
 0001:0002c140       _ustring_len               1002d140 f   ustring.obj
 0001:0002c170       _ustring_WideCharToMultiByte 1002d170 f   ustring.obj
 0001:0002c2a0       _ustring_MultiByteToWideChar 1002d2a0 f   ustring.obj
 0001:0002c3e0       _ustring_OemToUtf8         1002d3e0 f   ustring.obj
 0001:0002c420       _ustring_Utf8ToOem         1002d420 f   ustring.obj
 0001:0002c4d0       _ustring_Utf16ToUtf8       1002d4d0 f   ustring.obj
 0001:0002c510       _ustring_Utf8ToUtf16       1002d510 f   ustring.obj
 0001:0002c5c0       _ustring_GetACP            1002d5c0 f   ustring.obj
 0001:0002c5e0       _ustring_GetOEMCP          1002d5e0 f   ustring.obj
 0001:0002c600       _ustring_EnumSystemCodePages 1002d600 f   ustring.obj
 0001:0002c670       _ustring_GetCPInfo         1002d670 f   ustring.obj
 0001:0002c870       _ustring_GetLogicalDriveStrings 1002d870 f   ustring.obj
 0001:0002c9b0       _ustring_GetDriveType      1002d9b0 f   ustring.obj
 0001:0002caa0       _DecodeAttributes          1002daa0 f   ustring.obj
 0001:0002cb70       _EnumCodePagesProc@4       1002db70 f   ustring.obj
 0001:0002cc30       _GetBoolFromTable          1002dc30 f   ustring.obj
 0001:0002cc60       _GetOptBoolFromTable       1002dc60 f   ustring.obj
 0001:0002ccc0       _GetOptIntFromArray        1002dcc0 f   ustring.obj
 0001:0002cd10       _GetOptIntFromTable        1002dd10 f   ustring.obj
 0001:0002cd60       _GetOptNumFromTable        1002dd60 f   ustring.obj
 0001:0002cdd0       _PushAttrString            1002ddd0 f   ustring.obj
 0001:0002ce60       _PutAttrToTable            1002de60 f   ustring.obj
 0001:0002ce90       _PutBoolToTable            1002de90 f   ustring.obj
 0001:0002ceb0       _PutIntToArray             1002deb0 f   ustring.obj
 0001:0002cef0       _PutIntToTable             1002def0 f   ustring.obj
 0001:0002cf20       _PutLStrToTable            1002df20 f   ustring.obj
 0001:0002cf50       _PutNumToTable             1002df50 f   ustring.obj
 0001:0002cf80       _PutWStrToArray            1002df80 f   ustring.obj
 0001:0002cfc0       _PutWStrToTable            1002dfc0 f   ustring.obj
 0001:0002cff0       _SysErrorReturn            1002dff0 f   ustring.obj
 0001:0002d020       _check_utf16_string        1002e020 f   ustring.obj
 0001:0002d050       _check_utf8_string         1002e050 f   ustring.obj
 0001:0002d070       _convert_multibyte_string  1002e070 f   ustring.obj
 0001:0002d170       _luaopen_ustring           1002e170 f   ustring.obj
 0001:0002d1c0       _oem_to_utf16              1002e1c0 f   ustring.obj
 0001:0002d290       _opt_utf16_string          1002e290 f   ustring.obj
 0001:0002d2b0       _opt_utf8_string           1002e2b0 f   ustring.obj
 0001:0002d390       _push_multibyte_string     1002e390 f   ustring.obj
 0001:0002d440       _push_utf16_string         1002e440 f   ustring.obj
 0001:0002d480       _push_utf8_string          1002e480 f   ustring.obj
 0001:0002d4a0       _pusherror                 1002e4a0 f   ustring.obj
 0001:0002d4c0       _pusherrorcode             1002e4c0 f   ustring.obj
 0001:0002d530       _utf8_to_utf16             1002e530 f   ustring.obj
 0001:0002d610       _GetAttrFromTable          1002e610 f   util.obj
 0001:0002d660       _GetFileSizeFromTable      1002e660 f   util.obj
 0001:0002d710       _GetFileTimeFromTable      1002e710 f   util.obj
 0001:0002d790       _GetIntFromArray           1002e790 f   util.obj
 0001:0002d810       _InitSynchroData           1002e810 f   util.obj
 0001:0002d830       _PutFileTimeToTable        1002e830 f   util.obj
 0001:0002d870       _luaLF_FieldError          1002e870 f   util.obj
 0001:0002d8b0       _luaLF_SlotError           1002e8b0 f   util.obj
 0001:0002ebb0       _luaopen_win               1002fbb0 f   win.obj
 0001:0002efa0       _DecodePointerWrapper@4    1002ffa0 f   vc_crt_fix_impl.obj
 0001:0002efb0       _EncodePointerWrapper@4    1002ffb0 f   vc_crt_fix_impl.obj
 0001:0002efc0       _GetModuleHandleExWWrapper@12 1002ffc0 f   vc_crt_fix_impl.obj
 0001:0002f022       _lua_gettop                10030022 f   lua5.1:lua5.1.dll
 0001:0002f028       _lua_settop                10030028 f   lua5.1:lua5.1.dll
 0001:0002f02e       _lua_type                  1003002e f   lua5.1:lua5.1.dll
 0001:0002f034       _lua_rawequal              10030034 f   lua5.1:lua5.1.dll
 0001:0002f03a       _lua_tonumber              1003003a f   lua5.1:lua5.1.dll
 0001:0002f040       _lua_tolstring             10030040 f   lua5.1:lua5.1.dll
 0001:0002f046       _lua_touserdata            10030046 f   lua5.1:lua5.1.dll
 0001:0002f04c       _lua_pushnil               1003004c f   lua5.1:lua5.1.dll
 0001:0002f052       _lua_pushnumber            10030052 f   lua5.1:lua5.1.dll
 0001:0002f058       _lua_pushstring            10030058 f   lua5.1:lua5.1.dll
 0001:0002f05e       _lua_pushboolean           1003005e f   lua5.1:lua5.1.dll
 0001:0002f064       _lua_getfield              10030064 f   lua5.1:lua5.1.dll
 0001:0002f06a       _lua_newuserdata           1003006a f   lua5.1:lua5.1.dll
 0001:0002f070       _lua_getmetatable          10030070 f   lua5.1:lua5.1.dll
 0001:0002f076       _lua_setmetatable          10030076 f   lua5.1:lua5.1.dll
 0001:0002f07c       _luaL_register             1003007c f   lua5.1:lua5.1.dll
 0001:0002f082       _luaL_argerror             10030082 f   lua5.1:lua5.1.dll
 0001:0002f088       _luaL_checkinteger         10030088 f   lua5.1:lua5.1.dll
 0001:0002f08e       _luaL_newmetatable         1003008e f   lua5.1:lua5.1.dll
 0001:0002f094       _lua_pushvalue             10030094 f   lua5.1:lua5.1.dll
 0001:0002f09a       _lua_remove                1003009a f   lua5.1:lua5.1.dll
 0001:0002f0a0       _lua_insert                100300a0 f   lua5.1:lua5.1.dll
 0001:0002f0a6       _lua_isnumber              100300a6 f   lua5.1:lua5.1.dll
 0001:0002f0ac       _lua_isstring              100300ac f   lua5.1:lua5.1.dll
 0001:0002f0b2       _lua_tointeger             100300b2 f   lua5.1:lua5.1.dll
 0001:0002f0b8       _lua_toboolean             100300b8 f   lua5.1:lua5.1.dll
 0001:0002f0be       _lua_objlen                100300be f   lua5.1:lua5.1.dll
 0001:0002f0c4       _lua_pushinteger           100300c4 f   lua5.1:lua5.1.dll
 0001:0002f0ca       _lua_pushlstring           100300ca f   lua5.1:lua5.1.dll
 0001:0002f0d0       _lua_pushcclosure          100300d0 f   lua5.1:lua5.1.dll
 0001:0002f0d6       _lua_pushlightuserdata     100300d6 f   lua5.1:lua5.1.dll
 0001:0002f0dc       _lua_gettable              100300dc f   lua5.1:lua5.1.dll
 0001:0002f0e2       _lua_rawgeti               100300e2 f   lua5.1:lua5.1.dll
 0001:0002f0e8       _lua_createtable           100300e8 f   lua5.1:lua5.1.dll
 0001:0002f0ee       _lua_setfield              100300ee f   lua5.1:lua5.1.dll
 0001:0002f0f4       _lua_rawseti               100300f4 f   lua5.1:lua5.1.dll
 0001:0002f0fa       _lua_call                  100300fa f   lua5.1:lua5.1.dll
 0001:0002f100       _lua_pcall                 10030100 f   lua5.1:lua5.1.dll
 0001:0002f106       _lua_gc                    10030106 f   lua5.1:lua5.1.dll
 0001:0002f10c       _luaL_ref                  1003010c f   lua5.1:lua5.1.dll
 0001:0002f112       _luaL_unref                10030112 f   lua5.1:lua5.1.dll
 0001:0002f118       _luaL_loadstring           10030118 f   lua5.1:lua5.1.dll
 0001:0002f11e       _lua_pushfstring           1003011e f   lua5.1:lua5.1.dll
 0001:0002f124       _lua_load                  10030124 f   lua5.1:lua5.1.dll
 0001:0002f12a       _lua_error                 1003012a f   lua5.1:lua5.1.dll
 0001:0002f130       _lua_concat                10030130 f   lua5.1:lua5.1.dll
 0001:0002f136       _luaL_buffinit             10030136 f   lua5.1:lua5.1.dll
 0001:0002f13c       _luaL_addlstring           1003013c f   lua5.1:lua5.1.dll
 0001:0002f142       _luaL_pushresult           10030142 f   lua5.1:lua5.1.dll
 0001:0002f148       _lua_replace               10030148 f   lua5.1:lua5.1.dll
 0001:0002f14e       _lua_checkstack            1003014e f   lua5.1:lua5.1.dll
 0001:0002f154       _luaL_checklstring         10030154 f   lua5.1:lua5.1.dll
 0001:0002f15a       _luaL_optlstring           1003015a f   lua5.1:lua5.1.dll
 0001:0002f160       _luaL_optinteger           10030160 f   lua5.1:lua5.1.dll
 0001:0002f166       _luaL_checkudata           10030166 f   lua5.1:lua5.1.dll
 0001:0002f16c       _luaL_error                1003016c f   lua5.1:lua5.1.dll
 0001:0002f172       _luaL_addvalue             10030172 f   lua5.1:lua5.1.dll
 0001:0002f178       _lua_getstack              10030178 f   lua5.1:lua5.1.dll
 0001:0002f17e       _lua_getinfo               1003017e f   lua5.1:lua5.1.dll
 0001:0002f184       _luaL_checktype            10030184 f   lua5.1:lua5.1.dll
 0001:0002f18a       _luaopen_base              1003018a f   lua5.1:lua5.1.dll
 0001:0002f190       _luaopen_table             10030190 f   lua5.1:lua5.1.dll
 0001:0002f196       _luaopen_os                10030196 f   lua5.1:lua5.1.dll
 0001:0002f19c       _luaopen_string            1003019c f   lua5.1:lua5.1.dll
 0001:0002f1a2       _luaopen_math              100301a2 f   lua5.1:lua5.1.dll
 0001:0002f1a8       _luaopen_debug             100301a8 f   lua5.1:lua5.1.dll
 0001:0002f1ae       _lua_close                 100301ae f   lua5.1:lua5.1.dll
 0001:0002f1b4       _lua_rawget                100301b4 f   lua5.1:lua5.1.dll
 0001:0002f1ba       _lua_getfenv               100301ba f   lua5.1:lua5.1.dll
 0001:0002f1c0       _lua_settable              100301c0 f   lua5.1:lua5.1.dll
 0001:0002f1c6       _lua_rawset                100301c6 f   lua5.1:lua5.1.dll
 0001:0002f1cc       _lua_setfenv               100301cc f   lua5.1:lua5.1.dll
 0001:0002f1d2       _lua_next                  100301d2 f   lua5.1:lua5.1.dll
 0001:0002f1d8       _lua_getallocf             100301d8 f   lua5.1:lua5.1.dll
 0001:0002f1de       _lua_setallocf             100301de f   lua5.1:lua5.1.dll
 0001:0002f1e4       _luaL_typerror             100301e4 f   lua5.1:lua5.1.dll
 0001:0002f1ea       _luaL_checknumber          100301ea f   lua5.1:lua5.1.dll
 0001:0002f1f0       _luaL_optnumber            100301f0 f   lua5.1:lua5.1.dll
 0001:0002f1f6       _luaL_checkany             100301f6 f   lua5.1:lua5.1.dll
 0001:0002f1fc       _luaL_newstate             100301fc f   lua5.1:lua5.1.dll
 0001:0002f202       _lua_typename              10030202 f   lua5.1:lua5.1.dll
 0001:0002f208       _lua_dump                  10030208 f   lua5.1:lua5.1.dll
 0001:0002f20e       _luaL_checkstack           1003020e f   lua5.1:lua5.1.dll
 0001:0002f214       _luaL_prepbuffer           10030214 f   lua5.1:lua5.1.dll
 0001:0002f21a       _lua_tocfunction           1003021a f   lua5.1:lua5.1.dll
 0001:0002f220       _luaL_checkoption          10030220 f   lua5.1:lua5.1.dll
 0001:0002f226       _lua_iscfunction           10030226 f   lua5.1:lua5.1.dll
 0001:0002f22c       _luaL_gsub                 1003022c f   lua5.1:lua5.1.dll
 0001:0002f232       _luaL_findtable            10030232 f   lua5.1:lua5.1.dll
 0001:0002f238       _lua_isuserdata            10030238 f   lua5.1:lua5.1.dll
 0001:0002f23e       _sprintf                   1003023e f   LIBCMT:sprintf.obj
 0001:0002f2c0       __alldiv                   100302c0 f   LIBCMT:lldiv.obj
 0001:0002f370       __allmul                   10030370 f   LIBCMT:llmul.obj
 0001:0002f3b0       __allrem                   100303b0 f   LIBCMT:llrem.obj
 0001:0002f470       __allshl                   10030470 f   LIBCMT:llshl.obj
 0001:0002f490       __allshr                   10030490 f   LIBCMT:llshr.obj
 0001:0002f4c0       __aullshr                  100304c0 f   LIBCMT:ullshr.obj
 0001:0002f4e0       __ftol2_sse                100304e0 f   LIBCMT:ftol2.obj
 0001:0002f4e9       __ftol2_pentium4           100304e9 f   LIBCMT:ftol2.obj
 0001:0002f4fc       __ftol2_sse_excpt          100304fc f   LIBCMT:ftol2.obj
 0001:0002f516       __ftol2                    10030516 f   LIBCMT:ftol2.obj
 0001:0002f58b       __fpmath                   1003058b f   LIBCMT:fpinit.obj
 0001:0002f5a2       __cfltcvt_init             100305a2 f   LIBCMT:fpinit.obj
 0001:0002f602       _wcsdup                    10030602 f   LIBCMT:wcsdup.obj
 0001:0002f602       __wcsdup                   10030602 f   LIBCMT:wcsdup.obj
 0001:0002f655       _free                      10030655 f   LIBCMT:free.obj
 0001:0002f68d       _malloc                    1003068d f   LIBCMT:malloc.obj
 0001:0002f7c8       __control87                100307c8 f i LIBCMT:ieee87.obj
 0001:0002fb60       _memcpy                    10030b60 f   LIBCMT:memcpy.obj
 0001:000301b0       _memset                    100311b0 f   LIBCMT:memset.obj
 0001:00030240       __get_sys_err_msg          10031240 f i LIBCMT:strerror.obj
 0001:00030266       _strerror                  10031266 f   LIBCMT:strerror.obj
 0001:000302ce       _wcsstr                    100312ce f   LIBCMT:wcsstr.obj
 0001:00030565       ___doserrno                10031565 f   LIBCMT:dosmap.obj
 0001:00030578       __dosmaperr                10031578 f   LIBCMT:dosmap.obj
 0001:00030599       __errno                    10031599 f   LIBCMT:dosmap.obj
 0001:000305ac       __get_errno_from_oserr     100315ac f   LIBCMT:dosmap.obj
 0001:000305ed       ___initstdio               100315ed f   LIBCMT:_file.obj
 0001:00030660       ___endstdio                10031660 f   LIBCMT:_file.obj
 0001:00030687       ___iob_func                10031687 f   LIBCMT:_file.obj
 0001:0003068d       __lock_file                1003168d f   LIBCMT:_file.obj
 0001:000306cc       __lock_file2               100316cc f   LIBCMT:_file.obj
 0001:000306fc       __unlock_file              100316fc f   LIBCMT:_file.obj
 0001:00030736       __unlock_file2             10031736 f   LIBCMT:_file.obj
 0001:00030763       __fclose_nolock            10031763 f   LIBCMT:fclose.obj
 0001:000307cf       _fclose                    100317cf f   LIBCMT:fclose.obj
 0001:00030846       _feof                      10031846 f   LIBCMT:feoferr.obj
 0001:0003086c       _ferror                    1003186c f   LIBCMT:feoferr.obj
 0001:00030892       __fread_nolock_s           10031892 f   LIBCMT:fread.obj
 0001:00030a55       _fread                     10031a55 f   LIBCMT:fread.obj
 0001:00030a70       _fread_s                   10031a70 f   LIBCMT:fread.obj
 0001:00030b01       _getc                      10031b01 f   LIBCMT:fgetc.obj
 0001:00030bfa       _rewind                    10031bfa f   LIBCMT:rewind.obj
 0001:00030cb9       __ungetc_nolock            10031cb9 f   LIBCMT:ungetc.obj
 0001:00030d99       _ungetc                    10031d99 f   LIBCMT:ungetc.obj
 0001:00030e05       __wfopen                   10031e05 f   LIBCMT:wfopen.obj
 0001:00030e1a       __wfsopen                  10031e1a f   LIBCMT:wfopen.obj
 0001:00030ee4       __wfreopen                 10031ee4 f   LIBCMT:wfreopen.obj
 0001:00030f08       __wfreopen_helper          10031f08 f   LIBCMT:wfreopen.obj
 0001:00030fdb       ??0_LocaleUpdate@@QAE@PAUlocaleinfo_struct@@@Z 10031fdb f i LIBCMT:_ctype.obj
 0001:00031063       __isalnum_l                10032063 f i LIBCMT:_ctype.obj
 0001:000310b9       __isdigit_l                100320b9 f i LIBCMT:_ctype.obj
 0001:00031109       __isspace_l                10032109 f i LIBCMT:_ctype.obj
 0001:00031159       __isxdigit_l               10032159 f i LIBCMT:_ctype.obj
 0001:000311af       _isalnum                   100321af f i LIBCMT:_ctype.obj
 0001:000311dc       _isdigit                   100321dc f i LIBCMT:_ctype.obj
 0001:00031207       _isspace                   10032207 f i LIBCMT:_ctype.obj
 0001:00031232       _isxdigit                  10032232 f i LIBCMT:_ctype.obj
 0001:00031260       _strchr                    10032260 f   LIBCMT:strchr.obj
 0001:000312ce       ___from_strstr_to_strchr   100322ce     LIBCMT:strchr.obj
 0001:00031390       _strncmp                   10032390 f   LIBCMT:strncmp.obj
 0001:00031408       _wcschr                    10032408 f   LIBCMT:wcschr.obj
 0001:000314b6       _wcsncpy                   100324b6 f   LIBCMT:wcsncpy.obj
 0001:00031500       _wcsrchr                   10032500 f   LIBCMT:wcsrchr.obj
 0001:000315a6       __wcsicmp                  100325a6 f   LIBCMT:wcsicmp.obj
 0001:00031639       __wcsicmp_l                10032639 f   LIBCMT:wcsicmp.obj
 0001:00031712       _fprintf                   10032712 f   LIBCMT:fprintf.obj
 0001:00031830       __libm_sse2_log10_precise  10032830 f   LIBCMT:log10_sse2_precise.obj
 0001:00031ae0       _floor                     10032ae0 f   LIBCMT:floor_pentium4.obj
 0001:00031b20       __floor_pentium4           10032b20 f   LIBCMT:floor_pentium4.obj
 0001:00031c01       __snwprintf                10032c01 f   LIBCMT:snwprint.obj
 0001:00031ce0       _memchr                    10032ce0 f   LIBCMT:memchr.obj
 0001:00031d90       _strncpy                   10032d90 f   LIBCMT:strncpy.obj
 0001:00031ec0       _strpbrk                   10032ec0 f   LIBCMT:strpbrk.obj
 0001:00031f00       _clearerr                  10032f00 f   LIBCMT:clearerr.obj
 0001:00031f05       _clearerr_s                10032f05 f   LIBCMT:clearerr.obj
 0001:00031faa       __fflush_nolock            10032faa f   LIBCMT:fflush.obj
 0001:00031ff0       __flush                    10032ff0 f   LIBCMT:fflush.obj
 0001:00032054       __flushall                 10033054 f   LIBCMT:fflush.obj
 0001:0003205d       _fflush                    1003305d f   LIBCMT:fflush.obj
 0001:00032196       _fgets                     10033196 f   LIBCMT:fgets.obj
 0001:000322d5       _fscanf                    100332d5 f   LIBCMT:fscanf.obj
 0001:000322f3       _vfscanf                   100332f3 f   LIBCMT:fscanf.obj
 0001:000323f2       __fseek_nolock             100333f2 f   LIBCMT:fseek.obj
 0001:00032481       _fseek                     10033481 f   LIBCMT:fseek.obj
 0001:00032500       __ftell_nolock             10033500 f   LIBCMT:ftell.obj
 0001:00032859       _ftell                     10033859 f   LIBCMT:ftell.obj
 0001:000328c1       __fwrite_nolock            100338c1 f   LIBCMT:fwrite.obj
 0001:00032a18       _fwrite                    10033a18 f   LIBCMT:fwrite.obj
 0001:00032a96       __pclose                   10033a96 f   LIBCMT:popen.obj
 0001:00032bce       _setvbuf                   10033bce f   LIBCMT:setvbuf.obj
 0001:00032cd4       __tmpfile_helper           10033cd4 f   LIBCMT:tmpfile.obj
 0001:0003301b       _tmpfile                   1003401b f   LIBCMT:tmpfile.obj
 0001:00033035       __wpopen                   10034035 f   LIBCMT:wpopen.obj
 0001:0003354c       __wdupenv_s                1003454c f   LIBCMT:wgetenv.obj
 0001:00033620       __wgetenv                  10034620 f   LIBCMT:wgetenv.obj
 0001:0003369c       __wgetenv_helper_nolock    1003469c f   LIBCMT:wgetenv.obj
 0001:00033740       _strrchr                   10034740 f   LIBCMT:strrchr.obj
 0001:00033880       __alldvrm                  10034880 f   LIBCMT:lldvrm.obj
 0001:0003395f       _wcscmp                    1003495f f   LIBCMT:wcscmp.obj
 0001:0003399d       __CRT_INIT@12              1003499d f   LIBCMT:dllcrt0.obj
 0001:00033b0f       __DllMainCRTStartup@12     10034b0f f   LIBCMT:dllcrt0.obj
 0001:00033c40       ___DllXcptFilter           10034c40 f   LIBCMT:dllcrt0.obj
 0001:00033c65       __call_reportfault         10034c65 f   LIBCMT:invarg.obj
 0001:00033d88       __initp_misc_invarg        10034d88 f   LIBCMT:invarg.obj
 0001:00033d95       __invalid_parameter        10034d95 f   LIBCMT:invarg.obj
 0001:00033dc0       __invalid_parameter_noinfo 10034dc0 f   LIBCMT:invarg.obj
 0001:00033dd0       __invoke_watson            10034dd0 f   LIBCMT:invarg.obj
 0001:00033dfb       __flsbuf                   10034dfb f   LIBCMT:_flsbuf.obj
 0001:00033f48       __output_l                 10034f48 f   LIBCMT:output.obj
 0001:00034bba       ___isa_available_init      10035bba f   LIBCMT:cpu_disp.obj
 0001:00034cf3       __cfltcvt                  10035cf3 f   LIBCMT:cvt.obj
 0001:00034d14       __cfltcvt_l                10035d14 f   LIBCMT:cvt.obj
 0001:00034d9a       __cftoa_l                  10035d9a f   LIBCMT:cvt.obj
 0001:000350f4       __cftoe                    100360f4 f   LIBCMT:cvt.obj
 0001:00035261       __cftoe_l                  10036261 f   LIBCMT:cvt.obj
 0001:00035417       __cftof_l                  10036417 f   LIBCMT:cvt.obj
 0001:000354d6       __cftog_l                  100364d6 f   LIBCMT:cvt.obj
 0001:000355d3       __cropzeros                100365d3 f   LIBCMT:cvt.obj
 0001:000355e4       __cropzeros_l              100365e4 f   LIBCMT:cvt.obj
 0001:00035662       __fassign                  10036662 f   LIBCMT:cvt.obj
 0001:0003567a       __fassign_l                1003667a f   LIBCMT:cvt.obj
 0001:000356ba       __forcdecpt                100366ba f   LIBCMT:cvt.obj
 0001:000356cb       __forcdecpt_l              100366cb f   LIBCMT:cvt.obj
 0001:0003573d       __positive                 1003673d f   LIBCMT:cvt.obj
 0001:0003577f       __setdefaultprecision      1003677f f   LIBCMT:fp8.obj
 0001:000357a6       __initp_misc_cfltcvt_tab   100367a6 f   LIBCMT:cmiscdat.obj
 0001:000357c5       _calloc                    100367c5 f   LIBCMT:calloc.obj
 0001:00035803       _wcscpy_s                  10036803 f   LIBCMT:wcscpy_s.obj
 0001:0003585f       _wcslen                    1003685f f   LIBCMT:wcslen.obj
 0001:00035878       __heap_init                10036878 f   LIBCMT:heapinit.obj
 0001:0003588d       __heap_term                1003688d f   LIBCMT:heapinit.obj
 0001:00035895       __callnewh                 10036895 f   LIBCMT:handler.obj
 0001:000358bb       __initp_heap_handler       100368bb f   LIBCMT:handler.obj
 0001:000358c8       ___copy_path_to_wide_string 100368c8 f   LIBCMT:crt0dat.obj
 0001:00035978       ___crtCorExitProcess       10036978 f   LIBCMT:crt0dat.obj
 0001:000359aa       ___crtExitProcess          100369aa f   LIBCMT:crt0dat.obj
 0001:000359c0       ___freeCrtMemory           100369c0 f   LIBCMT:crt0dat.obj
 0001:00035ad0       __amsg_exit                10036ad0 f   LIBCMT:crt0dat.obj
 0001:00035aec       __cexit                    10036aec f   LIBCMT:crt0dat.obj
 0001:00035afb       __cinit                    10036afb f   LIBCMT:crt0dat.obj
 0001:00035b8c       __exit                     10036b8c f   LIBCMT:crt0dat.obj
 0001:00035ba0       __init_pointers            10036ba0 f   LIBCMT:crt0dat.obj
 0001:00035bf4       __initterm_e               10036bf4 f   LIBCMT:crt0dat.obj
 0001:00035c16       __lockexit                 10036c16 f   LIBCMT:crt0dat.obj
 0001:00035c1f       __unlockexit               10036c1f f   LIBCMT:crt0dat.obj
 0001:00035d57       __FF_MSGBANNER             10036d57 f   LIBCMT:crt0msg.obj
 0001:00035d90       __GET_RTERRMSG             10036d90 f   LIBCMT:crt0msg.obj
 0001:00035db4       __NMSG_WRITE               10036db4 f   LIBCMT:crt0msg.obj
 0001:00035f6f       __controlfp_s              10036f6f f   LIBCMT:contrlfp.obj
 0001:00035fcc       ___get_sigabrt             10036fcc f   LIBCMT:winsig.obj
 0001:00035fd9       __initp_misc_winsig        10036fd9 f   LIBCMT:winsig.obj
 0001:00035ff5       _raise                     10036ff5 f   LIBCMT:winsig.obj
 0001:000361e6       ___set_fpsr_sse2           100371e6 f   LIBCMT:fpctrl.obj
 0001:0003625c       __clrfp                    1003725c f   LIBCMT:fpctrl.obj
 0001:0003626b       __ctrlfp                   1003726b f   LIBCMT:fpctrl.obj
 0001:00036294       __set_statfp               10037294 f   LIBCMT:fpctrl.obj
 0001:000362ea       __statfp                   100372ea f   LIBCMT:fpctrl.obj
 0001:000362f8       __VEC_memset               100372f8 f   LIBCMT:p4_memset.obj
 0001:000363c0       ___sys_errlist             100373c0 f   LIBCMT:syserr.obj
 0001:000363c6       ___sys_nerr                100373c6 f   LIBCMT:syserr.obj
 0001:000363cc       _strcpy_s                  100373cc f   LIBCMT:strcpy_s.obj
 0001:00036421       __freefls@4                10037421 f   LIBCMT:tidtable.obj
 0001:00036558       __freeptd                  10037558 f   LIBCMT:tidtable.obj
 0001:0003658e       __getptd                   1003758e f   LIBCMT:tidtable.obj
 0001:000365a6       __getptd_noexit            100375a6 f   LIBCMT:tidtable.obj
 0001:00036615       __initptd                  10037615 f   LIBCMT:tidtable.obj
 0001:000366c8       __mtinit                   100376c8 f   LIBCMT:tidtable.obj
 0001:0003673e       __mtterm                   1003773e f   LIBCMT:tidtable.obj
 0001:0003675b       __calloc_crt               1003775b f   LIBCMT:crtheap.obj
 0001:000367a5       __malloc_crt               100377a5 f   LIBCMT:crtheap.obj
 0001:000367ee       __realloc_crt              100377ee f   LIBCMT:crtheap.obj
 0001:0003683a       __recalloc_crt             1003783a f   LIBCMT:crtheap.obj
 0001:0003688a       __fcloseall                1003788a f   LIBCMT:closeall.obj
 0001:00036927       __lock                     10037927 f   LIBCMT:mlock.obj
 0001:0003695b       __mtdeletelocks            1003795b f   LIBCMT:mlock.obj
 0001:000369af       __mtinitlocknum            100379af f   LIBCMT:mlock.obj
 0001:00036a56       __mtinitlocks              10037a56 f   LIBCMT:mlock.obj
 0001:00036a8b       __unlock                   10037a8b f   LIBCMT:mlock.obj
 0001:00036aa0       __fileno                   10037aa0 f   LIBCMT:fileno.obj
 0001:00036ac4       __close                    10037ac4 f   LIBCMT:close.obj
 0001:00036b8e       __close_nolock             10037b8e f   LIBCMT:close.obj
 0001:00036c28       __freebuf                  10037c28 f   LIBCMT:_freebuf.obj
 0001:00036c60       __SEH_prolog4              10037c60 f   LIBCMT:sehprolg4.obj
 0001:00036ca5       __SEH_epilog4              10037ca5 f   LIBCMT:sehprolg4.obj
 0001:00036cc0       __except_handler4          10037cc0 f   LIBCMT:chandler4.obj
 0001:00036e55       __filbuf                   10037e55 f   LIBCMT:_filbuf.obj
 0001:00036f76       _memcpy_s                  10037f76 f   LIBCMT:memcpy_s.obj
 0001:00036ff5       __read                     10037ff5 f   LIBCMT:read.obj
 0001:000370fd       __read_nolock              100380fd f   LIBCMT:read.obj
 0001:0003788c       __ioinit                   1003888c f   LIBCMT:ioinit.obj
 0001:00037b3a       __ioterm                   10038b3a f   LIBCMT:ioinit.obj
 0001:00037b8c       __lseek                    10038b8c f   LIBCMT:lseek.obj
 0001:00037c6e       __lseek_nolock             10038c6e f   LIBCMT:lseek.obj
 0001:00037ce0       __getbuf                   10038ce0 f   LIBCMT:_getbuf.obj
 0001:00037d26       __getstream                10038d26 f   LIBCMT:stream.obj
 0001:00037e3e       __wopenfile                10038e3e f   LIBCMT:_wopen.obj
 0001:000380e0       __local_unwind4            100390e0 f   LIBCMT:exsup4.obj
 0001:000381b6       __seh_longjmp_unwind4@4    100391b6 f   LIBCMT:exsup4.obj
 0001:000381d2       @_EH4_CallFilterFunc@8     100391d2 f   LIBCMT:exsup4.obj
 0001:000381e9       @_EH4_TransferToHandler@8  100391e9 f   LIBCMT:exsup4.obj
 0001:00038202       @_EH4_GlobalUnwind2@8      10039202 f   LIBCMT:exsup4.obj
 0001:0003821b       @_EH4_LocalUnwind@16       1003921b f   LIBCMT:exsup4.obj
 0001:00038232       ___addlocaleref            10039232 f   LIBCMT:localref.obj
 0001:000382c2       ___freetlocinfo            100392c2 f   LIBCMT:localref.obj
 0001:0003841c       ___removelocaleref         1003941c f   LIBCMT:localref.obj
 0001:000384b7       ___updatetlocinfo          100394b7 f   LIBCMT:localref.obj
 0001:00038533       __updatetlocinfoEx_nolock  10039533 f   LIBCMT:localref.obj
 0001:0003857e       ___initmbctable            1003957e f   LIBCMT:mbctype.obj
 0001:00038839       ___updatetmbcinfo          10039839 f   LIBCMT:mbctype.obj
 0001:000388de       __setmbcp                  100398de f   LIBCMT:mbctype.obj
 0001:00038a8c       __setmbcp_nolock           10039a8c f   LIBCMT:mbctype.obj
 0001:00038c81       __isctype_l                10039c81 f   LIBCMT:isctype.obj
 0001:00038d30       __locterm                  10039d30 f   LIBCMT:wsetloca.obj
 0001:00038d82       __towlower_l               10039d82 f   LIBCMT:towlower.obj
 0001:00038e34       __ftbuf                    10039e34 f   LIBCMT:_sftbuf.obj
 0001:00038e65       __stbuf                    10039e65 f   LIBCMT:_sftbuf.obj
 0001:00038f0b       ___libm_error_support      10039f0b f   LIBCMT:libm_error.obj
 0001:00039200       _log10                     1003a200 f   LIBCMT:log10.obj
 0001:00039240       __CIlog10                  1003a240 f   LIBCMT:log10.obj
 0001:0003927b       __CIlog10_default          1003a27b f   LIBCMT:log10.obj
 0001:0003928f       __log10_default            1003a28f     LIBCMT:log10.obj
 0001:00039350       __sse2_mathfcns_init       1003a350 f   LIBCMT:mathfcns.obj
 0001:0003935f       __floor_default            1003a35f f   LIBCMT:floor.obj
 0001:00039432       __woutput_l                1003a432 f   LIBCMT:woutput.obj
 0001:0003a129       __commit                   1003b129 f   LIBCMT:commit.obj
 0001:0003a20f       __write                    1003b20f f   LIBCMT:write.obj
 0001:0003a2f1       __write_nolock             1003b2f1 f   LIBCMT:write.obj
 0001:0003abbd       __input_l                  1003bbbd f   LIBCMT:input.obj
 0001:0003bcd9       __lseeki64                 1003ccd9 f   LIBCMT:lseeki64.obj
 0001:0003bdd5       __lseeki64_nolock          1003cdd5 f   LIBCMT:lseeki64.obj
 0001:0003be46       @__security_check_cookie@4 1003ce46 f   LIBCMT:secchk.obj
 0001:0003be55       __cwait                    1003ce55 f   LIBCMT:wait.obj
 0001:0003bee1       __pipe                     1003cee1 f   LIBCMT:pipe.obj
 0001:0003c16a       _strcat_s                  1003d16a f   LIBCMT:strcat_s.obj
 0001:0003c1d0       _strlen                    1003d1d0 f   LIBCMT:strlen.obj
 0001:0003c25b       __mbsrchr                  1003d25b f   LIBCMT:mbsrchr.obj
 0001:0003c270       __mbsrchr_l                1003d270 f   LIBCMT:mbsrchr.obj
 0001:0003c2ff       __getpid                   1003d2ff f   LIBCMT:getpid.obj
 0001:0003c305       __sopen_helper             1003d305 f   LIBCMT:open.obj
 0001:0003c3cc       __sopen_nolock             1003d3cc f   LIBCMT:open.obj
 0001:0003c418       __sopen_s                  1003d418 f   LIBCMT:open.obj
 0001:0003c436       __strdup                   1003d436 f   LIBCMT:strdup.obj
 0001:0003c6aa       _strtoul                   1003d6aa f   LIBCMT:strtol.obj
 0001:0003c6d4       __ultoa_s                  1003d6d4 f   LIBCMT:xtoas.obj
 0001:0003c7c1       __rmtmp                    1003d7c1 f   LIBCMT:rmtmp.obj
 0001:0003c86e       __wfdopen                  1003d86e f   LIBCMT:wfdopen.obj
 0001:0003ca0b       __waccess_s                1003da0b f   LIBCMT:waccess.obj
 0001:0003caa7       _wcscat_s                  1003daa7 f   LIBCMT:wcscat_s.obj
 0001:0003cb13       __wgetpath                 1003db13 f   LIBCMT:wgetpath.obj
 0001:0003cbe0       __SEH_prolog4_GS           1003dbe0 f   LIBCMT:sehprolg4gs.obj
 0001:0003cc28       __SEH_epilog4_GS           1003dc28 f   LIBCMT:sehprolg4gs.obj
 0001:0003cc37       _wcsnlen                   1003dc37 f   LIBCMT:wcslen_s.obj
 0001:0003cc56       __wcsnicoll                1003dc56 f   LIBCMT:wcsnicol.obj
 0001:0003cd20       __wcsnicoll_l              1003dd20 f   LIBCMT:wcsnicol.obj
 0001:0003ce44       __wsetenvp                 1003de44 f   LIBCMT:wstdenvp.obj
 0001:0003cf26       ___mbtow_environ           1003df26 f   LIBCMT:mbtowenv.obj
 0001:0003cfa1       ___crtGetEnvironmentStringsW 1003dfa1 f   LIBCMT:w_env.obj
 0001:0003cffc       __XcptFilter               1003dffc f   LIBCMT:winxfltr.obj
 0001:0003d157       ___CppXcptFilter           1003e157 f   LIBCMT:winxfltr.obj
 0001:0003d175       __setargv                  1003e175 f   LIBCMT:stdargv.obj
 0001:0003d3a2       __setenvp                  1003e3a2 f   LIBCMT:stdenvp.obj
 0001:0003d483       ___security_init_cookie    1003e483 f   LIBCMT:gs_support.obj
 0001:0003d51d       _DllMain@12                1003e51d f   LIBCMT:dllmain.obj
 0001:0003d523       ___crtGetEnvironmentStringsA 1003e523 f   LIBCMT:a_env.obj
 0001:0003d5ae       ___crtFlsAlloc             1003e5ae f   LIBCMT:winapisupp.obj
 0001:0003d5cc       ___crtFlsFree              1003e5cc f   LIBCMT:winapisupp.obj
 0001:0003d5eb       ___crtFlsGetValue          1003e5eb f   LIBCMT:winapisupp.obj
 0001:0003d60a       ___crtFlsSetValue          1003e60a f   LIBCMT:winapisupp.obj
 0001:0003d62c       ___crtIsPackagedApp        1003e62c f   LIBCMT:winapisupp.obj
 0001:0003d66a       ___crtLoadWinApiPointers   1003e66a f   LIBCMT:winapisupp.obj
 0001:0003d8a9       ___crtTerminateProcess     1003e8a9 f   LIBCMT:winapisupp.obj
 0001:0003d8be       ___crtUnhandledException   1003e8be f   LIBCMT:winapisupp.obj
 0001:0003d8d4       __RTC_Initialize           1003e8d4 f   LIBCMT:initsect.obj
 0001:0003d8f4       __RTC_Terminate            1003e8f4 f   LIBCMT:initsect.obj
 0001:0003d914       __crt_debugger_hook        1003e914 f   LIBCMT:dbghook.obj
 0001:0003d91c       __isatty                   1003e91c f   LIBCMT:isatty.obj
 0001:0003d970       __isleadbyte_l             1003e970 f i LIBCMT:_wctype.obj
 0001:0003d9a6       _isleadbyte                1003e9a6 f i LIBCMT:_wctype.obj
 0001:0003d9b7       __get_printf_count_output  1003e9b7 f   LIBCMT:printf.obj
 0001:0003d9cc       __wctomb_s_l               1003e9cc f   LIBCMT:wctomb.obj
 0001:0003daee       _wctomb_s                  1003eaee f   LIBCMT:wctomb.obj
 0001:0003db10       __aulldvrm                 1003eb10 f   LIBCMT:ulldvrm.obj
 0001:0003dba5       __tolower_l                1003eba5 f   LIBCMT:tolower.obj
 0001:0003dce6       _tolower                   1003ece6 f   LIBCMT:tolower.obj
 0001:0003dd20       _memmove                   1003ed20 f   LIBCMT:memmove.obj
 0001:0003e364       __fptostr                  1003f364 f   LIBCMT:_fptostr.obj
 0001:0003e414       __atodbl_l                 1003f414 f   LIBCMT:atodbl.obj
 0001:0003e4a0       __atoflt_l                 1003f4a0 f   LIBCMT:atodbl.obj
 0001:0003e52c       ___dtold                   1003f52c f   LIBCMT:cfout.obj
 0001:0003e5f2       __fltout2                  1003f5f2 f   LIBCMT:cfout.obj
 0001:0003e67e       __fptrap                   1003f67e f   LIBCMT:crt0fp.obj
 0001:0003e687       __calloc_impl              1003f687 f   LIBCMT:calloc_impl.obj
 0001:0003e710       __FindPESection            1003f710 f   LIBCMT:pesect.obj
 0001:0003e760       __IsNonwritableInCurrentImage 1003f760 f   LIBCMT:pesect.obj
 0001:0003e820       __ValidateImageBase        1003f820 f   LIBCMT:pesect.obj
 0001:0003e851       ___onexitinit              1003f851 f   LIBCMT:onexit.obj
 0001:0003e880       __onexit                   1003f880 f   LIBCMT:onexit.obj
 0001:0003e976       _atexit                    1003f976 f   LIBCMT:onexit.obj
 0001:0003e98b       ?terminate@@YAXXZ          1003f98b f   LIBCMT:hooks.obj
 0001:0003e9bf       __initp_eh_hooks           1003f9bf f   LIBCMT:hooks.obj
 0001:0003e9d0       __initp_misc_purevirt      1003f9d0 f   LIBCMT:inithelp.obj
 0001:0003e9dd       __initp_misc_rand_s        1003f9dd f   LIBCMT:rand_s.obj
 0001:0003e9ea       _wcsncpy_s                 1003f9ea f   LIBCMT:wcsncpy_s.obj
 0001:0003eaa8       __set_error_mode           1003faa8 f   LIBCMT:errmode.obj
 0001:0003eae8       ___crtMessageBoxW          1003fae8 f   LIBCMT:crtmboxw.obj
 0001:0003ecca       _realloc                   1003fcca f   LIBCMT:realloc.obj
 0001:0003ed75       __recalloc                 1003fd75 f   LIBCMT:recalloc.obj
 0001:0003edde       ___lock_fhandle            1003fdde f   LIBCMT:osfinfo.obj
 0001:0003ee6a       __alloc_osfhnd             1003fe6a f   LIBCMT:osfinfo.obj
 0001:0003f00f       __free_osfhnd              1004000f f   LIBCMT:osfinfo.obj
 0001:0003f095       __get_osfhandle            10040095 f   LIBCMT:osfinfo.obj
 0001:0003f0fc       __set_osfhnd               100400fc f   LIBCMT:osfinfo.obj
 0001:0003f17e       __unlock_fhandle           1004017e f   LIBCMT:osfinfo.obj
 0001:0003f235       __wsopen_helper            10040235 f   LIBCMT:wopen.obj
 0001:0003f2fc       __wsopen_nolock            100402fc f   LIBCMT:wopen.obj
 0001:0003fa4d       __wsopen_s                 10040a4d f   LIBCMT:wopen.obj
 0001:0003fa6b       _wcsncmp                   10040a6b f   LIBCMT:wcsncmp.obj
 0001:0003faa1       __wcsnicmp                 10040aa1 f   LIBCMT:wcsnicmp.obj
 0001:0003fb55       __wcsnicmp_l               10040b55 f   LIBCMT:wcsnicmp.obj
 0001:0003fc50       __global_unwind2           10040c50 f   LIBCMT:exsup.obj
 0001:0003fcb5       __local_unwind2            10040cb5 f   LIBCMT:exsup.obj
 0001:0003fd39       __abnormal_termination     10040d39 f   LIBCMT:exsup.obj
 0001:0003fd5c       __NLG_Notify1              10040d5c f   LIBCMT:exsup.obj
 0001:0003fd65       __NLG_Notify               10040d65 f   LIBCMT:exsup.obj
 0001:0003fd7c       __NLG_Dispatch2            10040d7c     LIBCMT:exsup.obj
 0001:0003fd7c       __NLG_Dispatch             10040d7c     LIBCMT:exsup.obj
 0001:0003fd84       __NLG_Call                 10040d84 f   LIBCMT:exsup.obj
 0001:0003fd86       __NLG_Return2              10040d86     LIBCMT:exsup.obj
 0001:0003fd87       ___free_lconv_mon          10040d87 f   LIBCMT:initmon.obj
 0001:0003fe83       ___free_lconv_num          10040e83 f   LIBCMT:initnum.obj
 0001:0003feea       ___free_lc_time            10040eea f   LIBCMT:inittime.obj
 0001:00040453       ___crtLCMapStringA         10041453 f   LIBCMT:a_map.obj
 0001:00040497       __freea                    10041497 f i LIBCMT:a_map.obj
 0001:000405a1       ___crtGetStringTypeA       100415a1 f   LIBCMT:a_str.obj
 0001:000405df       ___raise_securityfailure   100415df f   LIBCMT:gs_report.obj
 0001:0004061c       ___report_gsfailure        1004161c f   LIBCMT:gs_report.obj
 0001:00040715       _GetTableIndexFromLocaleName 10041715 f   LIBCMT:winapinls.obj
 0001:00040763       ___crtCompareStringEx      10041763 f   LIBCMT:winapinls.obj
 0001:000407af       ___crtDownlevelLocaleNameToLCID 100417af f   LIBCMT:winapinls.obj
 0001:000407d9       ___crtLCMapStringEx        100417d9 f   LIBCMT:winapinls.obj
 0001:00040825       ___wcsnicmp_ascii          10041825 f   LIBCMT:winapinls.obj
 0001:00040893       _iswctype                  10041893 f   LIBCMT:iswctype.obj
 0001:000408e5       ___crtLCMapStringW         100418e5 f   LIBCMT:w_map.obj
 0001:00040914       __matherr                  10041914 f   LIBCMT:matherr.obj
 0001:00040920       __CIlog10_pentium4         10041920 f   LIBCMT:log10_pentium4.obj
 0001:00040938       __log10_pentium4           10041938     LIBCMT:log10_pentium4.obj
 0001:00040bc1       __fFEXP                    10041bc1     LIBCMT:87tran.obj
 0001:00040c18       __rtinfpopse               10041c18     LIBCMT:87tran.obj
 0001:00040c1a       __rtinfnpopse              10041c1a     LIBCMT:87tran.obj
 0001:00040c2a       __fFLN                     10041c2a     LIBCMT:87tran.obj
 0001:00040cdf       __rtinfpop                 10041cdf     LIBCMT:87tran.obj
 0001:00040ce1       __rtinfnpop                10041ce1     LIBCMT:87tran.obj
 0001:00040cfe       __ffexpm1                  10041cfe     LIBCMT:87tran.obj
 0001:00040db0       __trandisp1                10041db0 f   LIBCMT:87disp.obj
 0001:00040e17       __trandisp2                10041e17 f   LIBCMT:87disp.obj
 0001:00040ea3       __rttospopde               10041ea3     LIBCMT:87disp.obj
 0001:00040ea8       __rttospop                 10041ea8     LIBCMT:87disp.obj
 0001:00040eaa       __rtnospop                 10041eaa     LIBCMT:87disp.obj
 0001:00040eac       __rttosnpop                10041eac     LIBCMT:87disp.obj
 0001:00040ead       __rtnospopde               10041ead     LIBCMT:87disp.obj
 0001:00040eb4       __rtzeropop                10041eb4     LIBCMT:87disp.obj
 0001:00040eb6       __rtzeronpop               10041eb6     LIBCMT:87disp.obj
 0001:00040ebb       __rtonepop                 10041ebb     LIBCMT:87disp.obj
 0001:00040ebd       __rtonenpop                10041ebd     LIBCMT:87disp.obj
 0001:00040ec2       __tosnan1                  10041ec2     LIBCMT:87disp.obj
 0001:00040eed       __nosnan2                  10041eed     LIBCMT:87disp.obj
 0001:00040eef       __tosnan2                  10041eef     LIBCMT:87disp.obj
 0001:00040f17       __nan2                     10041f17     LIBCMT:87disp.obj
 0001:00040f56       __rtindfpop                10041f56     LIBCMT:87disp.obj
 0001:00040f58       __rtindfnpop               10041f58     LIBCMT:87disp.obj
 0001:00040f69       __rttosnpopde              10041f69     LIBCMT:87disp.obj
 0001:00040f73       __rtchsifneg               10041f73     LIBCMT:87disp.obj
 0001:00040f80       __twoToTOS                 10041f80 f   LIBCMT:common.obj
 0001:00040f95       __load_CW                  10041f95 f   LIBCMT:common.obj
 0001:00040fac       __convertTOStoQNaN         10041fac f   LIBCMT:common.obj
 0001:00040fc5       __fload_withFB             10041fc5 f   LIBCMT:common.obj
 0001:00041008       __checkTOS_withFB          10042008 f   LIBCMT:common.obj
 0001:0004101e       __fast_exit                1004201e f   LIBCMT:common.obj
 0001:0004102b       __math_exit                1004202b f   LIBCMT:common.obj
 0001:00041055       __check_overflow_exit      10042055 f   LIBCMT:common.obj
 0001:00041069       __check_range_exit         10042069 f   LIBCMT:common.obj
 0001:00041110       __startTwoArgErrorHandling 10042110 f   LIBCMT:genexcep.obj
 0001:00041127       __startOneArgErrorHandling 10042127 f   LIBCMT:genexcep.obj
 0001:00041163       __frnd                     10042163 f   LIBCMT:frnd.obj
 0001:00041175       __errcode                  10042175 f   LIBCMT:fpexcept.obj
 0001:000411a7       __except1                  100421a7 f   LIBCMT:fpexcept.obj
 0001:0004126f       __handle_exc               1004226f f   LIBCMT:fpexcept.obj
 0001:0004144b       __handle_qnan1             1004244b f   LIBCMT:fpexcept.obj
 0001:0004149b       __raise_exc                1004249b f   LIBCMT:fpexcept.obj
 0001:000414bc       __raise_exc_ex             100424bc f   LIBCMT:fpexcept.obj
 0001:000417a1       __set_errno_from_matherr   100427a1 f   LIBCMT:fpexcept.obj
 0001:000417ce       __umatherr                 100427ce f   LIBCMT:fpexcept.obj
 0001:0004186c       __decomp                   1004286c f   LIBCMT:util.obj
 0001:0004193e       __set_exp                  1004293e f   LIBCMT:util.obj
 0001:00041969       __sptype                   10042969 f   LIBCMT:util.obj
 0001:000419c5       __fputwc_nolock            100429c5 f   LIBCMT:fputwc.obj
 0001:00041b4a       __mbtowc_l                 10042b4a f   LIBCMT:mbtowc.obj
 0001:00041c3d       _mbtowc                    10042c3d f   LIBCMT:mbtowc.obj
 0001:00041c55       __putwch_nolock            10042c55 f   LIBCMT:putwch.obj
 0001:00041c96       _strnlen                   10042c96 f   LIBCMT:strlen_s.obj
 0001:00041cb1       __get_fmode                10042cb1 f   LIBCMT:setmode.obj
 0001:00041cdb       __setmode_nolock           10042cdb f   LIBCMT:setmode.obj
 0001:00041da8       ___crtCompareStringW       10042da8 f   LIBCMT:w_cmp.obj
 0001:00041e0c       ___crtwsetenv              10042e0c f   LIBCMT:wsetenv.obj
 0001:0004218d       __ismbblead                1004318d f   LIBCMT:ismbbyte.obj
 0001:000421a3       __ld12tod                  100431a3 f   LIBCMT:intrncvt.obj
 0001:00042713       __ld12tof                  10043713 f   LIBCMT:intrncvt.obj
 0001:00042c83       ___strgtold12_l            10043c83 f   LIBCMT:strgtold.obj
 0001:000433ff       _$I10_OUTPUT               100443ff f   LIBCMT:x10fout.obj
 0001:00043dc3       __msize                    10044dc3 f   LIBCMT:msize.obj
 0001:00043df4       _abort                     10044df4 f   LIBCMT:abort.obj
 0001:00043e37       __chsize_nolock            10044e37 f   LIBCMT:chsize.obj
 0001:00043ff0       __alloca_probe_16          10044ff0 f   LIBCMT:alloca16.obj
 0001:00044006       __alloca_probe_8           10045006     LIBCMT:alloca16.obj
 0001:0004401c       __d_inttype                1004501c f   LIBCMT:powhlp.obj
 0001:00044082       __powhlp                   10045082 f   LIBCMT:powhlp.obj
 0001:000441b8       __87except                 100451b8 f   LIBCMT:87except.obj
 0001:000442c1       __flswbuf                  100452c1 f   LIBCMT:_flswbuf.obj
 0001:00044421       ___termconout              10045421 f   LIBCMT:initcon.obj
 0001:00044438       ___initconout              10045438 f   LIBCMT:initcon.obj
 0001:00044457       ___mtold12                 10045457 f   LIBCMT:mantold.obj
 0001:00044639       __fpclass                  10045639 f   LIBCMT:ieeemisc.obj
 0001:000446e0       ___ascii_strnicmp          100456e0 f   LIBCMT:_strnicm.obj
 0001:00044742       _IsProcessorFeaturePresent@4 10045742 f   kernel32:KERNEL32.dll
 0001:00044748       _RtlUnwind@16              10045748 f   kernel32:KERNEL32.dll
 0001:000448c0       __strupr                   100458c0 f   LIBCMT:strupr.obj
 0001:000448c0       _strupr                    100458c0 f   LIBCMT:strupr.obj
 0001:0004491b       __strupr_s_l               1004591b f   LIBCMT:strupr.obj
 0001:0004501c       __IMPORT_DESCRIPTOR_KERNEL32 1004601c     kernel32:KERNEL32.dll
 0001:00045030       __IMPORT_DESCRIPTOR_USER32 10046030     user32:USER32.dll
 0001:00045044       __IMPORT_DESCRIPTOR_ADVAPI32 10046044     advapi32:ADVAPI32.dll
 0001:00045058       __IMPORT_DESCRIPTOR_SHELL32 10046058     shell32:SHELL32.dll
 0001:0004506c       __IMPORT_DESCRIPTOR_lua5.1 1004606c     lua5.1:lua5.1.dll
 0001:00045080       __IMPORT_DESCRIPTOR_RPCRT4 10046080     rpcrt4:RPCRT4.dll
 0001:00045094       __NULL_IMPORT_DESCRIPTOR   10046094     kernel32:KERNEL32.dll
 0002:00000000       _Keys                      10048000     flags.obj
 0002:00000a90       _VirtualKeyStrings         10048a90     service.obj
 0002:00007bf0       __fltused                  1004fbf0     LIBCMT:fpinit.obj
 0002:00007bf4       __ldused                   1004fbf4     LIBCMT:fpinit.obj
 0002:00007d70       __iob                      1004fd70     LIBCMT:_file.obj
 0002:00007ff0       ___nullstring              1004fff0     LIBCMT:output.obj
 0002:00007ff4       ___wnullstring             1004fff4     LIBCMT:output.obj
 0002:00007ff8       ___isa_enabled             1004fff8     LIBCMT:cpu_disp.obj
 0002:00007ffc       __cfltcvt_tab              1004fffc     LIBCMT:cmiscdat.obj
 0002:00008040       __sys_nerr                 10050040     LIBCMT:syserr.obj
 0002:00008044       ___flsindex                10050044     LIBCMT:tidtable.obj
 0002:00008170       __lookuptrailbytes         10050170     LIBCMT:read.obj
 0002:00008270       ___badioinfo               10050270     LIBCMT:ioinit.obj
 0002:000082b0       ___security_cookie         100502b0     LIBCMT:gs_cookie.obj
 0002:000082b4       ___security_cookie_complement 100502b4     LIBCMT:gs_cookie.obj
 0002:000082b8       ___ptmbcinfo               100502b8     LIBCMT:mbctype.obj
 0002:000083b0       __mbctype                  100503b0     LIBCMT:mbctype.obj
 0002:000084b8       __mbcasemap                100504b8     LIBCMT:mbctype.obj
 0002:000085b8       ___initialmbcinfo          100505b8     LIBCMT:mbctype.obj
 0002:000087d8       ___wclocalestr             100507d8     LIBCMT:nlsdata.obj
 0002:000087e0       ___lc_time_c               100507e0     LIBCMT:nlsdata.obj
 0002:00008944       ___ptlocinfo               10050944     LIBCMT:nlsdata.obj
 0002:00008948       ___initiallocinfo          10050948     LIBCMT:nlsdata.obj
 0002:00008a00       ___initiallocalestructinfo 10050a00     LIBCMT:nlsdata.obj
 0002:00008a08       ___mb_cur_max              10050a08     LIBCMT:nlsdata.obj
 0002:00008a0c       ___globallocalestatus      10050a0c     LIBCMT:glstatus.obj
 0002:00008a30       __tempoff                  10050a30     LIBCMT:rmtmp.obj
 0002:00008a34       __tmpoff                   10050a34     LIBCMT:rmtmp.obj
 0002:00008a50       __NLG_Destination          10050a50     LIBCMT:exsup.obj
 0002:00008a60       ___lconv                   10050a60     LIBCMT:lconv.obj
 0002:00008a64       ___lconv_static_decimal    10050a64     LIBCMT:lconv.obj
 0002:00008a68       ___lconv_c                 10050a68     LIBCMT:lconv.obj
 0002:00008ab8       ___lconv_static_W_decimal  10050ab8     LIBCMT:lconv.obj
 0002:00008abc       __pctype                   10050abc     LIBCMT:ctype.obj
 0002:00008ac0       __pwctype                  10050ac0     LIBCMT:ctype.obj
 0002:00008ac4       __matherr_flag             10050ac4     LIBCMT:matherr.obj
 0002:00008bb8       __d_inf                    10050bb8     LIBCMT:util.obj
 0002:00008bc0       __d_ind                    10050bc0     LIBCMT:util.obj
 0002:00008bc8       __d_max                    10050bc8     LIBCMT:util.obj
 0002:00008bd0       __d_min                    10050bd0     LIBCMT:util.obj
 0002:00008bd8       __d_mzero                  10050bd8     LIBCMT:util.obj
 0002:00008c10       ___abort_behavior          10050c10     LIBCMT:abort.obj
 0002:00008c20       __confh                    10050c20     LIBCMT:initcon.obj
 0002:00008c28       __pow10pos                 10050c28     LIBCMT:constpow.obj
 0002:00008d88       __pow10neg                 10050d88     LIBCMT:constpow.obj
 0002:00008f24       ___fastflag                10050f24     LIBCMT:fpinit.obj
 0002:00008f28       __cflush                   10050f28     LIBCMT:_file.obj
 0002:00008f2c       ___idtabsiz                10050f2c     LIBCMT:popen.obj
 0002:00008f30       ___idpairs                 10050f30     LIBCMT:popen.obj
 0002:00009070       __aenvptr                  10051070     LIBCMT:dllcrt0.obj
 0002:00009074       __wenvptr                  10051074     LIBCMT:dllcrt0.obj
 0002:00009078       ___pInvalidArgHandler      10051078     LIBCMT:invarg.obj
 0002:0000907c       ___isa_available           1005107c     LIBCMT:cpu_disp.obj
 0002:00009080       ___favor                   10051080     LIBCMT:cpu_disp.obj
 0002:00009084       __crtheap                  10051084     LIBCMT:heapinit.obj
 0002:00009088       ?_pnhHeap@@3P6AHI@ZA       10051088     LIBCMT:handler.obj
 0002:0000908c       __umaskval                 1005108c     LIBCMT:crt0dat.obj
 0002:00009090       __exitflag                 10051090     LIBCMT:crt0dat.obj
 0002:00009094       __C_Termination_Done       10051094     LIBCMT:crt0dat.obj
 0002:00009098       ___winitenv                10051098     LIBCMT:crt0dat.obj
 0002:0000909c       ___initenv                 1005109c     LIBCMT:crt0dat.obj
 0002:000090a0       __C_Exit_Done              100510a0     LIBCMT:crt0dat.obj
 0002:000090a4       ___argc                    100510a4     LIBCMT:crt0dat.obj
 0002:000090a8       ___argv                    100510a8     LIBCMT:crt0dat.obj
 0002:000090ac       ___wargv                   100510ac     LIBCMT:crt0dat.obj
 0002:000090b0       __environ                  100510b0     LIBCMT:crt0dat.obj
 0002:000090b4       __wenviron                 100510b4     LIBCMT:crt0dat.obj
 0002:000090b8       __pgmptr                   100510b8     LIBCMT:crt0dat.obj
 0002:000090bc       __wpgmptr                  100510bc     LIBCMT:crt0dat.obj
 0002:000090c0       ___app_type                100510c0     LIBCMT:crt0msg.obj
 0002:000096f0       __newmode                  100516f0     LIBCMT:_newmode.obj
 0002:00009708       __maxwait                  10051708     LIBCMT:crtheap.obj
 0002:00009860       ___pioinfo                 10051860     LIBCMT:ioinit.obj
 0002:00009960       ___mblocalename            10051960     LIBCMT:mbctype.obj
 0002:00009964       ___mbcodepage              10051964     LIBCMT:mbctype.obj
 0002:00009968       ___ismbcodepage            10051968     LIBCMT:mbctype.obj
 0002:0000996c       ___mbulinfo                1005196c     LIBCMT:mbctype.obj
 0002:0000997c       ___locale_changed          1005197c     LIBCMT:wsetloca.obj
 0002:00009980       __stdbuf                   10051980     LIBCMT:_sftbuf.obj
 0002:0000998c       __commode                  1005198c     LIBCMT:ncommode.obj
 0002:00009990       __old_pfxlen               10051990     LIBCMT:rmtmp.obj
 0002:00009aa4       __outputformat             10051aa4     LIBCMT:outputformat.obj
 0002:00009aa8       ?__pInconsistency@@3P6AXXZA 10051aa8     LIBCMT:hooks.obj
 0002:00009aac       ___pPurecall               10051aac     LIBCMT:inithelp.obj
 0002:00009ab4       ___error_mode              10051ab4     LIBCMT:errmode.obj
 0002:00009acc       ___lconv_static_null       10051acc     LIBCMT:lconv.obj
 0002:00009ad0       ___lconv_static_W_null     10051ad0     LIBCMT:lconv.obj
 0002:00009dfc       __fmode                    10051dfc     LIBCMT:txtmode.obj
 0002:00009e00       _EnumCP                    10051e00     <common>
 0002:00009e08       __debugger_hook_dummy      10051e08     <common>
 0002:00009e20       _encodedKERNEL32Functions  10051e20     <common>
 0002:00009e94       ___use_sse2_mathfcns       10051e94     <common>
 0002:00009e98       __pmatherr                 10051e98     <common>
 0002:00009e9c       __nhandle                  10051e9c     <common>
 0002:00009ea0       __pDestructExceptionObject 10051ea0     <common>
 0002:00009ea4       ___dyn_tls_init_callback   10051ea4     <common>
 0002:00009ea8       ___onexitend               10051ea8     <common>
 0002:00009eac       ___onexitbegin             10051eac     <common>
 0002:00009eb0       ___mbctype_initialized     10051eb0     <common>
 0002:00009eb4       ___env_initialized         10051eb4     <common>
 0002:00009eb8       __acmdln                   10051eb8     <common>
 0002:00009ebc       ___piob                    10051ebc     <common>
 0002:00009ec0       __nstream                  10051ec0     <common>
 0002:00009ee0       __bufin                    10051ee0     <common>

 entry point at        0001:00033b0f

 Static symbols

 0000:fffa8000       .debug$S                   10000000     kernel32:KERNEL32.dll
 0000:fffa8000       .debug$S                   10000000     kernel32:KERNEL32.dll
 0000:fffa8000       .debug$S                   10000000     kernel32:KERNEL32.dll
 0000:fffa8000       .debug$S                   10000000     kernel32:KERNEL32.dll
 0000:fffa8000       .debug$S                   10000000     kernel32:KERNEL32.dll
 0000:fffa8000       .debug$S                   10000000     kernel32:KERNEL32.dll
 0000:fffa8000       .debug$S                   10000000     kernel32:KERNEL32.dll
 0000:fffa8000       .debug$S                   10000000     kernel32:KERNEL32.dll
 0000:fffa8000       .debug$S                   10000000     kernel32:KERNEL32.dll
 0000:fffa8000       .debug$S                   10000000     rpcrt4:RPCRT4.dll
 0000:fffa8000       .debug$S                   10000000     rpcrt4:RPCRT4.dll
 0000:fffa8000       .debug$S                   10000000     rpcrt4:RPCRT4.dll
 0000:fffa8000       .debug$S                   10000000     rpcrt4:RPCRT4.dll
 0000:fffa8000       .debug$S                   10000000     lua5.1:lua5.1.dll
 0000:fffa8000       .debug$S                   10000000     kernel32:KERNEL32.dll
 0000:fffa8000       .debug$S                   10000000     lua5.1:lua5.1.dll
 0000:fffa8000       .debug$S                   10000000     lua5.1:lua5.1.dll
 0000:fffa8000       .debug$S                   10000000     lua5.1:lua5.1.dll
 0000:fffa8000       .debug$S                   10000000     lua5.1:lua5.1.dll
 0000:fffa8000       .debug$S                   10000000     lua5.1:lua5.1.dll
 0000:fffa8000       .debug$S                   10000000     lua5.1:lua5.1.dll
 0000:fffa8000       .debug$S                   10000000     lua5.1:lua5.1.dll
 0000:fffa8000       .debug$S                   10000000     lua5.1:lua5.1.dll
 0000:fffa8000       .debug$S                   10000000     lua5.1:lua5.1.dll
 0000:fffa8000       .debug$S                   10000000     lua5.1:lua5.1.dll
 0000:fffa8000       .debug$S                   10000000     lua5.1:lua5.1.dll
 0000:fffa8000       .debug$S                   10000000     lua5.1:lua5.1.dll
 0000:fffa8000       .debug$S                   10000000     lua5.1:lua5.1.dll
 0000:fffa8000       .debug$S                   10000000     lua5.1:lua5.1.dll
 0000:fffa8000       .debug$S                   10000000     lua5.1:lua5.1.dll
 0000:fffa8000       .debug$S                   10000000     lua5.1:lua5.1.dll
 0000:fffa8000       .debug$S                   10000000     lua5.1:lua5.1.dll
 0000:fffa8000       .debug$S                   10000000     lua5.1:lua5.1.dll
 0000:fffa8000       .debug$S                   10000000     lua5.1:lua5.1.dll
 0000:fffa8000       .debug$S                   10000000     lua5.1:lua5.1.dll
 0000:fffa8000       .debug$S                   10000000     lua5.1:lua5.1.dll
 0000:fffa8000       .debug$S                   10000000     lua5.1:lua5.1.dll
 0000:fffa8000       .debug$S                   10000000     lua5.1:lua5.1.dll
 0000:fffa8000       .debug$S                   10000000     lua5.1:lua5.1.dll
 0000:fffa8000       .debug$S                   10000000     lua5.1:lua5.1.dll
 0000:fffa8000       .debug$S                   10000000     lua5.1:lua5.1.dll
 0000:fffa8000       .debug$S                   10000000     lua5.1:lua5.1.dll
 0000:fffa8000       .debug$S                   10000000     lua5.1:lua5.1.dll
 0000:fffa8000       .debug$S                   10000000     lua5.1:lua5.1.dll
 0000:fffa8000       .debug$S                   10000000     lua5.1:lua5.1.dll
 0000:fffa8000       .debug$S                   10000000     lua5.1:lua5.1.dll
 0000:fffa8000       .debug$S                   10000000     lua5.1:lua5.1.dll
 0000:fffa8000       .debug$S                   10000000     lua5.1:lua5.1.dll
 0000:fffa8000       .debug$S                   10000000     lua5.1:lua5.1.dll
 0000:fffa8000       .debug$S                   10000000     lua5.1:lua5.1.dll
 0000:fffa8000       .debug$S                   10000000     lua5.1:lua5.1.dll
 0000:fffa8000       .debug$S                   10000000     lua5.1:lua5.1.dll
 0000:fffa8000       .debug$S                   10000000     lua5.1:lua5.1.dll
 0000:fffa8000       .debug$S                   10000000     lua5.1:lua5.1.dll
 0000:fffa8000       .debug$S                   10000000     lua5.1:lua5.1.dll
 0000:fffa8000       .debug$S                   10000000     lua5.1:lua5.1.dll
 0000:fffa8000       .debug$S                   10000000     lua5.1:lua5.1.dll
 0000:fffa8000       .debug$S                   10000000     lua5.1:lua5.1.dll
 0000:fffa8000       .debug$S                   10000000     lua5.1:lua5.1.dll
 0000:fffa8000       .debug$S                   10000000     lua5.1:lua5.1.dll
 0000:fffa8000       .debug$S                   10000000     lua5.1:lua5.1.dll
 0000:fffa8000       .debug$S                   10000000     lua5.1:lua5.1.dll
 0000:fffa8000       .debug$S                   10000000     lua5.1:lua5.1.dll
 0000:fffa8000       .debug$S                   10000000     lua5.1:lua5.1.dll
 0000:fffa8000       .debug$S                   10000000     lua5.1:lua5.1.dll
 0000:fffa8000       .debug$S                   10000000     lua5.1:lua5.1.dll
 0000:fffa8000       .debug$S                   10000000     lua5.1:lua5.1.dll
 0000:fffa8000       .debug$S                   10000000     lua5.1:lua5.1.dll
 0000:fffa8000       .debug$S                   10000000     lua5.1:lua5.1.dll
 0000:fffa8000       .debug$S                   10000000     lua5.1:lua5.1.dll
 0000:fffa8000       .debug$S                   10000000     lua5.1:lua5.1.dll
 0000:fffa8000       .debug$S                   10000000     lua5.1:lua5.1.dll
 0000:fffa8000       .debug$S                   10000000     lua5.1:lua5.1.dll
 0000:fffa8000       .debug$S                   10000000     lua5.1:lua5.1.dll
 0000:fffa8000       .debug$S                   10000000     lua5.1:lua5.1.dll
 0000:fffa8000       .debug$S                   10000000     lua5.1:lua5.1.dll
 0000:fffa8000       .debug$S                   10000000     lua5.1:lua5.1.dll
 0000:fffa8000       .debug$S                   10000000     lua5.1:lua5.1.dll
 0000:fffa8000       .debug$S                   10000000     lua5.1:lua5.1.dll
 0000:fffa8000       .debug$S                   10000000     lua5.1:lua5.1.dll
 0000:fffa8000       .debug$S                   10000000     lua5.1:lua5.1.dll
 0000:fffa8000       .debug$S                   10000000     lua5.1:lua5.1.dll
 0000:fffa8000       .debug$S                   10000000     lua5.1:lua5.1.dll
 0000:fffa8000       .debug$S                   10000000     lua5.1:lua5.1.dll
 0000:fffa8000       .debug$S                   10000000     lua5.1:lua5.1.dll
 0000:fffa8000       .debug$S                   10000000     lua5.1:lua5.1.dll
 0000:fffa8000       .debug$S                   10000000     lua5.1:lua5.1.dll
 0000:fffa8000       .debug$S                   10000000     lua5.1:lua5.1.dll
 0000:fffa8000       .debug$S                   10000000     lua5.1:lua5.1.dll
 0000:fffa8000       .debug$S                   10000000     lua5.1:lua5.1.dll
 0000:fffa8000       .debug$S                   10000000     lua5.1:lua5.1.dll
 0000:fffa8000       .debug$S                   10000000     lua5.1:lua5.1.dll
 0000:fffa8000       .debug$S                   10000000     lua5.1:lua5.1.dll
 0000:fffa8000       .debug$S                   10000000     lua5.1:lua5.1.dll
 0000:fffa8000       .debug$S                   10000000     lua5.1:lua5.1.dll
 0000:fffa8000       .debug$S                   10000000     lua5.1:lua5.1.dll
 0000:fffa8000       .debug$S                   10000000     lua5.1:lua5.1.dll
 0000:fffa8000       .debug$S                   10000000     lua5.1:lua5.1.dll
 0000:fffa8000       .debug$S                   10000000     lua5.1:lua5.1.dll
 0000:fffa8000       .debug$S                   10000000     lua5.1:lua5.1.dll
 0000:fffa8000       .debug$S                   10000000     lua5.1:lua5.1.dll
 0000:fffa8000       .debug$S                   10000000     lua5.1:lua5.1.dll
 0000:fffa8000       .debug$S                   10000000     lua5.1:lua5.1.dll
 0000:fffa8000       .debug$S                   10000000     lua5.1:lua5.1.dll
 0000:fffa8000       .debug$S                   10000000     shell32:SHELL32.dll
 0000:fffa8000       .debug$S                   10000000     shell32:SHELL32.dll
 0000:fffa8000       .debug$S                   10000000     advapi32:ADVAPI32.dll
 0000:fffa8000       .debug$S                   10000000     advapi32:ADVAPI32.dll
 0000:fffa8000       .debug$S                   10000000     advapi32:ADVAPI32.dll
 0000:fffa8000       .debug$S                   10000000     advapi32:ADVAPI32.dll
 0000:fffa8000       .debug$S                   10000000     advapi32:ADVAPI32.dll
 0000:fffa8000       .debug$S                   10000000     advapi32:ADVAPI32.dll
 0000:fffa8000       .debug$S                   10000000     advapi32:ADVAPI32.dll
 0000:fffa8000       .debug$S                   10000000     advapi32:ADVAPI32.dll
 0000:fffa8000       .debug$S                   10000000     user32:USER32.dll
 0000:fffa8000       .debug$S                   10000000     kernel32:KERNEL32.dll
 0000:fffa8000       .debug$S                   10000000     kernel32:KERNEL32.dll
 0000:fffa8000       .debug$S                   10000000     kernel32:KERNEL32.dll
 0000:fffa8000       .debug$S                   10000000     kernel32:KERNEL32.dll
 0000:fffa8000       .debug$S                   10000000     kernel32:KERNEL32.dll
 0000:fffa8000       .debug$S                   10000000     kernel32:KERNEL32.dll
 0000:fffa8000       .debug$S                   10000000     kernel32:KERNEL32.dll
 0000:fffa8000       .debug$S                   10000000     kernel32:KERNEL32.dll
 0000:fffa8000       .debug$S                   10000000     kernel32:KERNEL32.dll
 0000:fffa8000       .debug$S                   10000000     kernel32:KERNEL32.dll
 0000:fffa8000       .debug$S                   10000000     kernel32:KERNEL32.dll
 0000:fffa8000       .debug$S                   10000000     kernel32:KERNEL32.dll
 0000:fffa8000       .debug$S                   10000000     kernel32:KERNEL32.dll
 0000:fffa8000       .debug$S                   10000000     kernel32:KERNEL32.dll
 0000:fffa8000       .debug$S                   10000000     kernel32:KERNEL32.dll
 0000:fffa8000       .debug$S                   10000000     kernel32:KERNEL32.dll
 0000:fffa8000       .debug$S                   10000000     kernel32:KERNEL32.dll
 0000:fffa8000       .debug$S                   10000000     kernel32:KERNEL32.dll
 0000:fffa8000       .debug$S                   10000000     kernel32:KERNEL32.dll
 0000:fffa8000       .debug$S                   10000000     kernel32:KERNEL32.dll
 0000:fffa8000       .debug$S                   10000000     kernel32:KERNEL32.dll
 0000:fffa8000       .debug$S                   10000000     kernel32:KERNEL32.dll
 0000:fffa8000       .debug$S                   10000000     kernel32:KERNEL32.dll
 0000:fffa8000       .debug$S                   10000000     kernel32:KERNEL32.dll
 0000:fffa8000       .debug$S                   10000000     kernel32:KERNEL32.dll
 0000:fffa8000       .debug$S                   10000000     kernel32:KERNEL32.dll
 0000:fffa8000       .debug$S                   10000000     kernel32:KERNEL32.dll
 0000:fffa8000       .debug$S                   10000000     kernel32:KERNEL32.dll
 0000:fffa8000       .debug$S                   10000000     kernel32:KERNEL32.dll
 0000:fffa8000       .debug$S                   10000000     kernel32:KERNEL32.dll
 0000:fffa8000       .debug$S                   10000000     kernel32:KERNEL32.dll
 0000:fffa8000       .debug$S                   10000000     kernel32:KERNEL32.dll
 0000:fffa8000       .debug$S                   10000000     kernel32:KERNEL32.dll
 0000:fffa8000       .debug$S                   10000000     kernel32:KERNEL32.dll
 0000:fffa8000       .debug$S                   10000000     kernel32:KERNEL32.dll
 0000:fffa8000       .debug$S                   10000000     kernel32:KERNEL32.dll
 0000:fffa8000       .debug$S                   10000000     kernel32:KERNEL32.dll
 0000:fffa8000       .debug$S                   10000000     kernel32:KERNEL32.dll
 0000:fffa8000       .debug$S                   10000000     kernel32:KERNEL32.dll
 0000:fffa8000       .debug$S                   10000000     kernel32:KERNEL32.dll
 0000:fffa8000       .debug$S                   10000000     kernel32:KERNEL32.dll
 0000:fffa8000       .debug$S                   10000000     kernel32:KERNEL32.dll
 0000:fffa8000       .debug$S                   10000000     kernel32:KERNEL32.dll
 0000:fffa8000       .debug$S                   10000000     kernel32:KERNEL32.dll
 0000:fffa8000       .debug$S                   10000000     kernel32:KERNEL32.dll
 0000:fffa8000       .debug$S                   10000000     kernel32:KERNEL32.dll
 0000:fffa8000       .debug$S                   10000000     kernel32:KERNEL32.dll
 0000:fffa8000       .debug$S                   10000000     kernel32:KERNEL32.dll
 0000:fffa8000       .debug$S                   10000000     kernel32:KERNEL32.dll
 0000:fffa8000       .debug$S                   10000000     kernel32:KERNEL32.dll
 0000:fffa8000       .debug$S                   10000000     kernel32:KERNEL32.dll
 0000:fffa8000       .debug$S                   10000000     kernel32:KERNEL32.dll
 0000:fffa8000       .debug$S                   10000000     kernel32:KERNEL32.dll
 0000:fffa8000       .debug$S                   10000000     kernel32:KERNEL32.dll
 0000:fffa8000       .debug$S                   10000000     kernel32:KERNEL32.dll
 0000:fffa8000       .debug$S                   10000000     kernel32:KERNEL32.dll
 0000:fffa8000       .debug$S                   10000000     kernel32:KERNEL32.dll
 0000:fffa8000       .debug$S                   10000000     kernel32:KERNEL32.dll
 0000:fffa8000       .debug$S                   10000000     kernel32:KERNEL32.dll
 0000:fffa8000       .debug$S                   10000000     kernel32:KERNEL32.dll
 0000:fffa8000       .debug$S                   10000000     kernel32:KERNEL32.dll
 0000:fffa8000       .debug$S                   10000000     kernel32:KERNEL32.dll
 0000:fffa8000       .debug$S                   10000000     kernel32:KERNEL32.dll
 0000:fffa8000       .debug$S                   10000000     kernel32:KERNEL32.dll
 0000:fffa8000       .debug$S                   10000000     kernel32:KERNEL32.dll
 0000:fffa8000       .debug$S                   10000000     kernel32:KERNEL32.dll
 0000:fffa8000       .debug$S                   10000000     kernel32:KERNEL32.dll
 0000:fffa8000       .debug$S                   10000000     kernel32:KERNEL32.dll
 0000:fffa8000       .debug$S                   10000000     kernel32:KERNEL32.dll
 0000:fffa8000       .debug$S                   10000000     kernel32:KERNEL32.dll
 0000:fffa8000       .debug$S                   10000000     kernel32:KERNEL32.dll
 0000:fffa8000       .debug$S                   10000000     kernel32:KERNEL32.dll
 0000:fffa8000       .debug$S                   10000000     kernel32:KERNEL32.dll
 0000:fffa8000       .debug$S                   10000000     kernel32:KERNEL32.dll
 0000:fffa8000       .debug$S                   10000000     kernel32:KERNEL32.dll
 0000:fffa8000       .debug$S                   10000000     kernel32:KERNEL32.dll
 0000:fffa8000       .debug$S                   10000000     kernel32:KERNEL32.dll
 0000:fffa8000       .debug$S                   10000000     kernel32:KERNEL32.dll
 0000:fffa8000       .debug$S                   10000000     kernel32:KERNEL32.dll
 0000:fffa8000       .debug$S                   10000000     kernel32:KERNEL32.dll
 0000:fffa8000       .debug$S                   10000000     kernel32:KERNEL32.dll
 0000:fffa8000       .debug$S                   10000000     kernel32:KERNEL32.dll
 0000:fffa8000       .debug$S                   10000000     kernel32:KERNEL32.dll
 0000:fffa8000       .debug$S                   10000000     kernel32:KERNEL32.dll
 0000:fffa8000       .debug$S                   10000000     kernel32:KERNEL32.dll
 0000:fffa8000       .debug$S                   10000000     kernel32:KERNEL32.dll
 0000:fffa8000       .debug$S                   10000000     kernel32:KERNEL32.dll
 0000:fffa8000       .debug$S                   10000000     kernel32:KERNEL32.dll
 0000:fffa8000       .debug$S                   10000000     kernel32:KERNEL32.dll
 0000:fffa8000       .debug$S                   10000000     kernel32:KERNEL32.dll
 0000:fffa8000       .debug$S                   10000000     kernel32:KERNEL32.dll
 0000:fffa8000       .debug$S                   10000000     kernel32:KERNEL32.dll
 0000:fffa8000       .debug$S                   10000000     kernel32:KERNEL32.dll
 0000:fffa8000       .debug$S                   10000000     kernel32:KERNEL32.dll
 0000:fffa8000       .debug$S                   10000000     kernel32:KERNEL32.dll
 0000:fffa8000       .debug$S                   10000000     kernel32:KERNEL32.dll
 0000:fffa8000       .debug$S                   10000000     kernel32:KERNEL32.dll
 0000:fffa8000       .debug$S                   10000000     kernel32:KERNEL32.dll
 0000:fffa8000       .debug$S                   10000000     kernel32:KERNEL32.dll
 0000:fffa8000       .debug$S                   10000000     kernel32:KERNEL32.dll
 0000:fffa8000       .debug$S                   10000000     kernel32:KERNEL32.dll
 0000:fffa8000       .debug$S                   10000000     kernel32:KERNEL32.dll
 0000:fffa8000       .debug$S                   10000000     kernel32:KERNEL32.dll
 0000:fffa8000       .debug$S                   10000000     kernel32:KERNEL32.dll
 0000:fffa8000       .debug$S                   10000000     kernel32:KERNEL32.dll
 0001:00000360       _pinit                     10001360     LIBCMT:_file.obj
 0001:00000364       _pinit                     10001364     LIBCMT:cpu_disp.obj
 0001:00000368       _pinit                     10001368     LIBCMT:mbctype.obj
 0001:0000036c       _pinit                     1000136c     LIBCMT:mathfcns.obj
 0001:00000370       _pinit                     10001370     LIBCMT:onexit.obj
 0001:0000037c       _pterm                     1000137c     LIBCMT:wsetloca.obj
 0001:00000380       _pterm                     10001380     LIBCMT:rmtmp.obj
 0001:00000384       _pterm                     10001384     LIBCMT:initcon.obj
 0001:00000388       _pterm                     10001388     LIBCMT:_file.obj
 0001:000003e8       _funcs                     100013e8     bit64.obj
 0001:00000478       _metamethods               10001478     bit64.obj
 0001:000005c0       _FHELP_NONE                100015c0     exported.obj
 0001:000005c8       _KMFLAGS_SILENTCHECK       100015c8     exported.obj
 0001:000005d0       _KMFLAGS_DISABLEOUTPUT     100015d0     exported.obj
 0001:000005d8       _KMFLAGS_NOSENDKEYSTOPLUGINS 100015d8     exported.obj
 0001:000005e0       _KMFLAGS_ENABLEOUTPUT      100015e0     exported.obj
 0001:000005e8       _KMFLAGS_NONE              100015e8     exported.obj
 0001:000005f0       _AKMFLAGS_NONE             100015f0     exported.obj
 0001:000005f8       _FSETCLR_REDRAW            100015f8     exported.obj
 0001:00000600       _FSETCLR_NONE              10001600     exported.obj
 0001:00000608       _PF_PRELOAD                10001608     exported.obj
 0001:00000610       _PF_DISABLEPANELS          10001610     exported.obj
 0001:00000618       _PF_EDITOR                 10001618     exported.obj
 0001:00000620       _PF_VIEWER                 10001620     exported.obj
 0001:00000628       _PF_FULLCMDLINE            10001628     exported.obj
 0001:00000630       _PF_DIALOG                 10001630     exported.obj
 0001:00000638       _PF_NONE                   10001638     exported.obj
 0001:00000640       _WIF_MODIFIED              10001640     exported.obj
 0001:00000648       _WIF_CURRENT               10001648     exported.obj
 0001:00000650       _WIF_MODAL                 10001650     exported.obj
 0001:00000658       _VOPT_SAVEFILEPOSITION     10001658     exported.obj
 0001:00000660       _VOPT_AUTODETECTCODEPAGE   10001660     exported.obj
 0001:00000668       _VOPT_NONE                 10001668     exported.obj
 0001:00000670       _VSMFL_REDRAW              10001670     exported.obj
 0001:00000678       _IPLFLAGS_SEPARATOR        10001678     exported.obj
 0001:00000680       _VSP_NOREDRAW              10001680     exported.obj
 0001:00000688       _VSP_PERCENT               10001688     exported.obj
 0001:00000690       _VSP_RELATIVE              10001690     exported.obj
 0001:00000698       _VSP_NORETNEWPOS           10001698     exported.obj
 0001:000006a0       _PMFLAGS_FULLSCREEN        100016a0     exported.obj
 0001:000006a8       _PMFLAGS_DETAILEDSTATUS    100016a8     exported.obj
 0001:000006b0       _PMFLAGS_ALIGNEXTENSIONS   100016b0     exported.obj
 0001:000006b8       _PMFLAGS_CASECONVERSION    100016b8     exported.obj
 0001:000006c0       _VMF_WRAP                  100016c0     exported.obj
 0001:000006c8       _VMF_WORDWRAP              100016c8     exported.obj
 0001:000006d0       _OPIF_DISABLEFILTER        100016d0     exported.obj
 0001:000006d8       _OPIF_DISABLESORTGROUPS    100016d8     exported.obj
 0001:000006e0       _OPIF_DISABLEHIGHLIGHTING  100016e0     exported.obj
 0001:000006e8       _OPIF_ADDDOTS              100016e8     exported.obj
 0001:000006f0       _OPIF_RAWSELECTION         100016f0     exported.obj
 0001:000006f8       _OPIF_REALNAMES            100016f8     exported.obj
 0001:00000700       _OPIF_SHOWNAMESONLY        10001700     exported.obj
 0001:00000708       _OPIF_SHOWRIGHTALIGNNAMES  10001708     exported.obj
 0001:00000710       _OPIF_SHOWPRESERVECASE     10001710     exported.obj
 0001:00000718       _OPIF_COMPAREFATTIME       10001718     exported.obj
 0001:00000720       _OPIF_EXTERNALGET          10001720     exported.obj
 0001:00000728       _OPIF_EXTERNALPUT          10001728     exported.obj
 0001:00000730       _OPIF_EXTERNALDELETE       10001730     exported.obj
 0001:00000738       _OPIF_EXTERNALMKDIR        10001738     exported.obj
 0001:00000740       _OPIF_USEATTRHIGHLIGHTING  10001740     exported.obj
 0001:00000748       _OPIF_USECRC32             10001748     exported.obj
 0001:00000750       _OPIF_USEFREESIZE          10001750     exported.obj
 0001:00000758       _OPIF_SHORTCUT             10001758     exported.obj
 0001:00000760       _OPIF_NONE                 10001760     exported.obj
 0001:00000768       _OPM_SILENT                10001768     exported.obj
 0001:00000770       _OPM_FIND                  10001770     exported.obj
 0001:00000778       _OPM_VIEW                  10001778     exported.obj
 0001:00000780       _OPM_EDIT                  10001780     exported.obj
 0001:00000788       _OPM_TOPLEVEL              10001788     exported.obj
 0001:00000790       _OPM_DESCR                 10001790     exported.obj
 0001:00000798       _OPM_QUICKVIEW             10001798     exported.obj
 0001:000007a0       _OPM_PGDN                  100017a0     exported.obj
 0001:000007a8       _FCF_FG_4BIT               100017a8     exported.obj
 0001:000007b0       _OPM_COMMANDS              100017b0     exported.obj
 0001:000007b8       _FCF_BG_4BIT               100017b8     exported.obj
 0001:000007c0       _OPM_NONE                  100017c0     exported.obj
 0001:000007c8       _FCF_4BITMASK              100017c8     exported.obj
 0001:000007d0       _FCF_EXTENDEDFLAGS         100017d0     exported.obj
 0001:000007d8       _FCF_FG_BOLD               100017d8     exported.obj
 0001:000007e0       _FCF_FG_ITALIC             100017e0     exported.obj
 0001:000007e8       _FCF_FG_UNDERLINE          100017e8     exported.obj
 0001:000007f0       _FCF_STYLEMASK             100017f0     exported.obj
 0001:000007f8       _FCF_NONE                  100017f8     exported.obj
 0001:00000800       _CDF_NONE                  10001800     exported.obj
 0001:00000808       _FMSG_WARNING              10001808     exported.obj
 0001:00000810       _FMSG_ERRORTYPE            10001810     exported.obj
 0001:00000818       _FMSG_KEEPBACKGROUND       10001818     exported.obj
 0001:00000820       _FMSG_LEFTALIGN            10001820     exported.obj
 0001:00000828       _FMSG_ALLINONE             10001828     exported.obj
 0001:00000830       _FMSG_MB_OK                10001830     exported.obj
 0001:00000838       _FMSG_MB_OKCANCEL          10001838     exported.obj
 0001:00000840       _FMSG_MB_ABORTRETRYIGNORE  10001840     exported.obj
 0001:00000848       _FMSG_MB_YESNO             10001848     exported.obj
 0001:00000850       _FMSG_MB_YESNOCANCEL       10001850     exported.obj
 0001:00000858       _FMSG_MB_RETRYCANCEL       10001858     exported.obj
 0001:00000860       _FMSG_NONE                 10001860     exported.obj
 0001:00000868       _FOSF_ACTIVE               10001868     exported.obj
 0001:00000870       _FOSF_NONE                 10001870     exported.obj
 0001:00000878       _DIF_BOXCOLOR              10001878     exported.obj
 0001:00000880       _DIF_GROUP                 10001880     exported.obj
 0001:00000888       _DIF_LEFTTEXT              10001888     exported.obj
 0001:00000890       _DIF_MOVESELECT            10001890     exported.obj
 0001:00000898       _DIF_SHOWAMPERSAND         10001898     exported.obj
 0001:000008a0       _DIF_CENTERGROUP           100018a0     exported.obj
 0001:000008a8       _DIF_NOBRACKETS            100018a8     exported.obj
 0001:000008b0       _DIF_MANUALADDHISTORY      100018b0     exported.obj
 0001:000008b8       _DIF_SEPARATOR             100018b8     exported.obj
 0001:000008c0       _DIF_SEPARATOR2            100018c0     exported.obj
 0001:000008c8       _DIF_EDITOR                100018c8     exported.obj
 0001:000008d0       _DIF_LISTNOAMPERSAND       100018d0     exported.obj
 0001:000008d8       _DIF_LISTNOBOX             100018d8     exported.obj
 0001:000008e0       _DIF_HISTORY               100018e0     exported.obj
 0001:000008e8       _DIF_BTNNOCLOSE            100018e8     exported.obj
 0001:000008f0       _DIF_CENTERTEXT            100018f0     exported.obj
 0001:000008f8       _DIF_SEPARATORUSER         100018f8     exported.obj
 0001:00000900       _DIF_SETSHIELD             10001900     exported.obj
 0001:00000908       _DIF_EDITEXPAND            10001908     exported.obj
 0001:00000910       _DIF_DROPDOWNLIST          10001910     exported.obj
 0001:00000918       _DIF_USELASTHISTORY        10001918     exported.obj
 0001:00000920       _DIF_MASKEDIT              10001920     exported.obj
 0001:00000928       _DIF_LISTTRACKMOUSE        10001928     exported.obj
 0001:00000930       _DIF_LISTTRACKMOUSEINFOCUS 10001930     exported.obj
 0001:00000938       _DIF_SELECTONENTRY         10001938     exported.obj
 0001:00000940       _DIF_3STATE                10001940     exported.obj
 0001:00000948       _DIF_EDITPATH              10001948     exported.obj
 0001:00000950       _DIF_LISTWRAPMODE          10001950     exported.obj
 0001:00000958       _DIF_NOAUTOCOMPLETE        10001958     exported.obj
 0001:00000960       _DIF_LISTAUTOHIGHLIGHT     10001960     exported.obj
 0001:00000968       _DIF_LISTNOCLOSE           10001968     exported.obj
 0001:00000970       _DIF_EDITPATHEXEC          10001970     exported.obj
 0001:00000978       _DIF_HIDDEN                10001978     exported.obj
 0001:00000980       _DIF_READONLY              10001980     exported.obj
 0001:00000988       _DIF_NOFOCUS               10001988     exported.obj
 0001:00000990       _DIF_DISABLE               10001990     exported.obj
 0001:00000998       _DIF_DEFAULTBUTTON         10001998     exported.obj
 0001:000009a0       _DIF_FOCUS                 100019a0     exported.obj
 0001:000009a8       _DIF_RIGHTTEXT             100019a8     exported.obj
 0001:000009b0       _DIF_WORDWRAP              100019b0     exported.obj
 0001:000009b8       _DIF_NONE                  100019b8     exported.obj
 0001:000009c0       _ECF_TABMARKFIRST          100019c0     exported.obj
 0001:000009c8       _ECF_TABMARKCURRENT        100019c8     exported.obj
 0001:000009d0       _FIB_ENABLEEMPTY           100019d0     exported.obj
 0001:000009d8       _FIB_PASSWORD              100019d8     exported.obj
 0001:000009e0       _FIB_EXPANDENV             100019e0     exported.obj
 0001:000009e8       _FIB_NOUSELASTHISTORY      100019e8     exported.obj
 0001:000009f0       _FIB_BUTTONS               100019f0     exported.obj
 0001:000009f8       _FIB_NOAMPERSAND           100019f8     exported.obj
 0001:00000a00       _FIB_EDITPATH              10001a00     exported.obj
 0001:00000a08       _PCIF_FROMMAIN             10001a08     exported.obj
 0001:00000a10       _FIB_EDITPATHEXEC          10001a10     exported.obj
 0001:00000a18       _FIB_NONE                  10001a18     exported.obj
 0001:00000a20       _PCIF_NONE                 10001a20     exported.obj
 0001:00000a28       _LIF_SELECTED              10001a28     exported.obj
 0001:00000a30       _LIF_CHECKED               10001a30     exported.obj
 0001:00000a38       _LIF_SEPARATOR             10001a38     exported.obj
 0001:00000a40       _LIF_DISABLE               10001a40     exported.obj
 0001:00000a48       _LIF_GRAYED                10001a48     exported.obj
 0001:00000a50       _LIF_HIDDEN                10001a50     exported.obj
 0001:00000a58       _LIF_DELETEUSERDATA        10001a58     exported.obj
 0001:00000a60       _LIF_NONE                  10001a60     exported.obj
 0001:00000a68       _FPF_LOADED                10001a68     exported.obj
 0001:00000a70       _FPF_ANSI                  10001a70     exported.obj
 0001:00000a78       _FPF_NONE                  10001a78     exported.obj
 0001:00000a80       _FarGuid                   10001a80     exported.obj
 0001:00000a90       _LIFIND_EXACTMATCH         10001a90     exported.obj
 0001:00000a98       _LIFIND_NONE               10001a98     exported.obj
 0001:00000aa0       _LINFO_SHOWNOBOX           10001aa0     exported.obj
 0001:00000aa8       _LINFO_AUTOHIGHLIGHT       10001aa8     exported.obj
 0001:00000ab0       _LINFO_REVERSEHIGHLIGHT    10001ab0     exported.obj
 0001:00000ab8       _LINFO_WRAPMODE            10001ab8     exported.obj
 0001:00000ac0       _LINFO_SHOWAMPERSAND       10001ac0     exported.obj
 0001:00000ac8       _LINFO_NONE                10001ac8     exported.obj
 0001:00000b20       _FDLG_WARNING              10001b20     exported.obj
 0001:00000b28       _FDLG_SMALLDIALOG          10001b28     exported.obj
 0001:00000b30       _FDLG_NODRAWSHADOW         10001b30     exported.obj
 0001:00000b38       _FDLG_NODRAWPANEL          10001b38     exported.obj
 0001:00000b40       _FDLG_KEEPCONSOLETITLE     10001b40     exported.obj
 0001:00000b48       _FDLG_NONE                 10001b48     exported.obj
 0001:00000b50       _MIF_SELECTED              10001b50     exported.obj
 0001:00000b58       _MIF_CHECKED               10001b58     exported.obj
 0001:00000b60       _MIF_SEPARATOR             10001b60     exported.obj
 0001:00000b68       _MIF_DISABLE               10001b68     exported.obj
 0001:00000b70       _MIF_GRAYED                10001b70     exported.obj
 0001:00000b78       _MIF_HIDDEN                10001b78     exported.obj
 0001:00000b80       _MIF_NONE                  10001b80     exported.obj
 0001:00000b88       _FMENU_SHOWAMPERSAND       10001b88     exported.obj
 0001:00000b90       _FMENU_WRAPMODE            10001b90     exported.obj
 0001:00000b98       _FMENU_AUTOHIGHLIGHT       10001b98     exported.obj
 0001:00000ba0       _FMENU_REVERSEAUTOHIGHLIGHT 10001ba0     exported.obj
 0001:00000ba8       _FMENU_CHANGECONSOLETITLE  10001ba8     exported.obj
 0001:00000bb0       _FMENU_NONE                10001bb0     exported.obj
 0001:00000bb8       _PPIF_SELECTED             10001bb8     exported.obj
 0001:00000bc0       _PPIF_PROCESSDESCR         10001bc0     exported.obj
 0001:00000bc8       _PPIF_NONE                 10001bc8     exported.obj
 0001:00000bd0       _PFLAGS_SHOWHIDDEN         10001bd0     exported.obj
 0001:00000bd8       _PFLAGS_HIGHLIGHT          10001bd8     exported.obj
 0001:00000be0       _PFLAGS_REVERSESORTORDER   10001be0     exported.obj
 0001:00000be8       _PFLAGS_USESORTGROUPS      10001be8     exported.obj
 0001:00000bf0       _PFLAGS_SELECTEDFIRST      10001bf0     exported.obj
 0001:00000bf8       _PFLAGS_REALNAMES          10001bf8     exported.obj
 0001:00000c00       _PFLAGS_NUMERICSORT        10001c00     exported.obj
 0001:00000c08       _PFLAGS_PANELLEFT          10001c08     exported.obj
 0001:00000c10       _PFLAGS_DIRECTORIESFIRST   10001c10     exported.obj
 0001:00000c18       _PFLAGS_USECRC32           10001c18     exported.obj
 0001:00000c20       _PFLAGS_CASESENSITIVESORT  10001c20     exported.obj
 0001:00000c28       _PFLAGS_PLUGIN             10001c28     exported.obj
 0001:00000c30       _PFLAGS_VISIBLE            10001c30     exported.obj
 0001:00000c38       _PFLAGS_FOCUS              10001c38     exported.obj
 0001:00000c40       _PFLAGS_ALTERNATIVENAMES   10001c40     exported.obj
 0001:00000c48       _PFLAGS_SHORTCUT           10001c48     exported.obj
 0001:00000c50       _PFLAGS_NONE               10001c50     exported.obj
 0001:00000c58       _PN_CMPNAME                10001c58     exported.obj
 0001:00000c60       _PN_CMPNAMELIST            10001c60     exported.obj
 0001:00000c68       _PN_GENERATENAME           10001c68     exported.obj
 0001:00000c70       _PN_CHECKMASK              10001c70     exported.obj
 0001:00000c78       _PN_SKIPPATH               10001c78     exported.obj
 0001:00000c80       _PN_SHOWERRORMESSAGE       10001c80     exported.obj
 0001:00000c88       _XLAT_SWITCHKEYBLAYOUT     10001c88     exported.obj
 0001:00000c90       _XLAT_SWITCHKEYBBEEP       10001c90     exported.obj
 0001:00000c98       _XLAT_USEKEYBLAYOUTNAME    10001c98     exported.obj
 0001:00000ca0       _XLAT_CONVERTALLCMDLINE    10001ca0     exported.obj
 0001:00000ca8       _XLAT_NONE                 10001ca8     exported.obj
 0001:00000cb0       _FRS_RETUPDIR              10001cb0     exported.obj
 0001:00000cb8       _FRS_RECUR                 10001cb8     exported.obj
 0001:00000cc0       _FRS_SCANSYMLINK           10001cc0     exported.obj
 0001:00000cc8       _VF_NONMODAL               10001cc8     exported.obj
 0001:00000cd0       _VF_DELETEONCLOSE          10001cd0     exported.obj
 0001:00000cd8       _VF_ENABLE_F6              10001cd8     exported.obj
 0001:00000ce0       _VF_DISABLEHISTORY         10001ce0     exported.obj
 0001:00000ce8       _VF_IMMEDIATERETURN        10001ce8     exported.obj
 0001:00000cf0       _VF_DELETEONLYFILEONCLOSE  10001cf0     exported.obj
 0001:00000cf8       _VF_NONE                   10001cf8     exported.obj
 0001:00000d00       _MLF_SHOWERRMSG            10001d00     exported.obj
 0001:00000d08       _MLF_DONOTUPDATEPANEL      10001d08     exported.obj
 0001:00000d10       _MLF_NONE                  10001d10     exported.obj
 0001:00000d18       _EF_NONMODAL               10001d18     exported.obj
 0001:00000d20       _EF_CREATENEW              10001d20     exported.obj
 0001:00000d28       _EF_ENABLE_F6              10001d28     exported.obj
 0001:00000d30       _EF_DISABLEHISTORY         10001d30     exported.obj
 0001:00000d38       _EF_DELETEONCLOSE          10001d38     exported.obj
 0001:00000d40       _EF_IMMEDIATERETURN        10001d40     exported.obj
 0001:00000d48       _EF_DELETEONLYFILEONCLOSE  10001d48     exported.obj
 0001:00000d50       _EF_LOCKED                 10001d50     exported.obj
 0001:00000d58       _EF_DISABLESAVEPOS         10001d58     exported.obj
 0001:00000d60       _EN_NONE                   10001d60     exported.obj
 0001:00000d68       _FFFS_COMMAS               10001d68     exported.obj
 0001:00000d70       _FFFS_FLOATSIZE            10001d70     exported.obj
 0001:00000d78       _FFFS_SHOWBYTESINDEX       10001d78     exported.obj
 0001:00000d80       _FFFS_ECONOMIC             10001d80     exported.obj
 0001:00000d88       _FFFS_THOUSAND             10001d88     exported.obj
 0001:00000d90       _FFFS_MINSIZEINDEX         10001d90     exported.obj
 0001:00000d98       _FFFS_MINSIZEINDEX_MASK    10001d98     exported.obj
 0001:00000da0       _FHELP_NOSHOWERROR         10001da0     exported.obj
 0001:00000da8       _FHELP_SELFHELP            10001da8     exported.obj
 0001:00000db0       _FHELP_FARHELP             10001db0     exported.obj
 0001:00000db8       _FHELP_CUSTOMFILE          10001db8     exported.obj
 0001:00000dc0       _FHELP_CUSTOMPATH          10001dc0     exported.obj
 0001:00000dc8       _FHELP_GUID                10001dc8     exported.obj
 0001:00000dd0       _FHELP_USECONTENTS         10001dd0     exported.obj
 0001:000013b0       _LINFO_SHOWAMPERSAND       100023b0     flags.obj
 0001:000013b8       _LINFO_NONE                100023b8     flags.obj
 0001:000013c0       _FDLG_WARNING              100023c0     flags.obj
 0001:000013c8       _FDLG_SMALLDIALOG          100023c8     flags.obj
 0001:000013d0       _FDLG_NODRAWSHADOW         100023d0     flags.obj
 0001:000013d8       _FDLG_NODRAWPANEL          100023d8     flags.obj
 0001:000013e0       _FDLG_KEEPCONSOLETITLE     100023e0     flags.obj
 0001:000013e8       _FDLG_NONE                 100023e8     flags.obj
 0001:000013f0       _MIF_SELECTED              100023f0     flags.obj
 0001:000013f8       _MIF_CHECKED               100023f8     flags.obj
 0001:00001400       _MIF_SEPARATOR             10002400     flags.obj
 0001:00001408       _MIF_DISABLE               10002408     flags.obj
 0001:00001410       _MIF_GRAYED                10002410     flags.obj
 0001:00001418       _MIF_HIDDEN                10002418     flags.obj
 0001:00001420       _MIF_NONE                  10002420     flags.obj
 0001:00001428       _FMENU_SHOWAMPERSAND       10002428     flags.obj
 0001:00001430       _FMENU_WRAPMODE            10002430     flags.obj
 0001:00001438       _FMENU_AUTOHIGHLIGHT       10002438     flags.obj
 0001:00001440       _FMENU_REVERSEAUTOHIGHLIGHT 10002440     flags.obj
 0001:00001448       _FMENU_CHANGECONSOLETITLE  10002448     flags.obj
 0001:00001450       _FMENU_NONE                10002450     flags.obj
 0001:00001458       _PPIF_SELECTED             10002458     flags.obj
 0001:00001460       _PPIF_PROCESSDESCR         10002460     flags.obj
 0001:00001468       _PPIF_NONE                 10002468     flags.obj
 0001:00001470       _PFLAGS_SHOWHIDDEN         10002470     flags.obj
 0001:00001478       _PFLAGS_HIGHLIGHT          10002478     flags.obj
 0001:00001480       _PFLAGS_REVERSESORTORDER   10002480     flags.obj
 0001:00001488       _PFLAGS_USESORTGROUPS      10002488     flags.obj
 0001:00001490       _PFLAGS_SELECTEDFIRST      10002490     flags.obj
 0001:00001498       _PFLAGS_REALNAMES          10002498     flags.obj
 0001:000014a0       _PFLAGS_NUMERICSORT        100024a0     flags.obj
 0001:000014a8       _PFLAGS_PANELLEFT          100024a8     flags.obj
 0001:000014b0       _PFLAGS_DIRECTORIESFIRST   100024b0     flags.obj
 0001:000014b8       _PFLAGS_USECRC32           100024b8     flags.obj
 0001:000014c0       _PFLAGS_CASESENSITIVESORT  100024c0     flags.obj
 0001:000014c8       _PFLAGS_PLUGIN             100024c8     flags.obj
 0001:000014d0       _PFLAGS_VISIBLE            100024d0     flags.obj
 0001:000014d8       _PFLAGS_FOCUS              100024d8     flags.obj
 0001:000014e0       _PFLAGS_ALTERNATIVENAMES   100024e0     flags.obj
 0001:000014e8       _PFLAGS_SHORTCUT           100024e8     flags.obj
 0001:000014f0       _PFLAGS_NONE               100024f0     flags.obj
 0001:000014f8       _PN_CMPNAME                100024f8     flags.obj
 0001:00001500       _PN_CMPNAMELIST            10002500     flags.obj
 0001:00001508       _PN_GENERATENAME           10002508     flags.obj
 0001:00001510       _PN_CHECKMASK              10002510     flags.obj
 0001:00001518       _PN_SKIPPATH               10002518     flags.obj
 0001:00001520       _PN_SHOWERRORMESSAGE       10002520     flags.obj
 0001:00001528       _XLAT_SWITCHKEYBLAYOUT     10002528     flags.obj
 0001:00001530       _XLAT_SWITCHKEYBBEEP       10002530     flags.obj
 0001:00001538       _XLAT_USEKEYBLAYOUTNAME    10002538     flags.obj
 0001:00001540       _XLAT_CONVERTALLCMDLINE    10002540     flags.obj
 0001:00001548       _XLAT_NONE                 10002548     flags.obj
 0001:00001550       _FRS_RETUPDIR              10002550     flags.obj
 0001:00001558       _FRS_RECUR                 10002558     flags.obj
 0001:00001560       _FRS_SCANSYMLINK           10002560     flags.obj
 0001:00001568       _VF_NONMODAL               10002568     flags.obj
 0001:00001570       _VF_DELETEONCLOSE          10002570     flags.obj
 0001:00001578       _VF_ENABLE_F6              10002578     flags.obj
 0001:00001580       _VF_DISABLEHISTORY         10002580     flags.obj
 0001:00001588       _VF_IMMEDIATERETURN        10002588     flags.obj
 0001:00001590       _VF_DELETEONLYFILEONCLOSE  10002590     flags.obj
 0001:00001598       _VF_NONE                   10002598     flags.obj
 0001:000015a0       _MLF_SHOWERRMSG            100025a0     flags.obj
 0001:000015a8       _MLF_DONOTUPDATEPANEL      100025a8     flags.obj
 0001:000015b0       _MLF_NONE                  100025b0     flags.obj
 0001:000015b8       _EF_NONMODAL               100025b8     flags.obj
 0001:000015c0       _EF_CREATENEW              100025c0     flags.obj
 0001:000015c8       _EF_ENABLE_F6              100025c8     flags.obj
 0001:000015d0       _EF_DISABLEHISTORY         100025d0     flags.obj
 0001:000015d8       _EF_DELETEONCLOSE          100025d8     flags.obj
 0001:000015e0       _EF_IMMEDIATERETURN        100025e0     flags.obj
 0001:000015e8       _EF_DELETEONLYFILEONCLOSE  100025e8     flags.obj
 0001:000015f0       _EF_LOCKED                 100025f0     flags.obj
 0001:000015f8       _EF_DISABLESAVEPOS         100025f8     flags.obj
 0001:00001600       _EN_NONE                   10002600     flags.obj
 0001:00001608       _FFFS_COMMAS               10002608     flags.obj
 0001:00001610       _FFFS_FLOATSIZE            10002610     flags.obj
 0001:00001618       _FFFS_SHOWBYTESINDEX       10002618     flags.obj
 0001:00001620       _FFFS_ECONOMIC             10002620     flags.obj
 0001:00001628       _FFFS_THOUSAND             10002628     flags.obj
 0001:00001630       _FFFS_MINSIZEINDEX         10002630     flags.obj
 0001:00001638       _FFFS_MINSIZEINDEX_MASK    10002638     flags.obj
 0001:00001640       _FHELP_NOSHOWERROR         10002640     flags.obj
 0001:00001648       _FHELP_SELFHELP            10002648     flags.obj
 0001:00001650       _FHELP_FARHELP             10002650     flags.obj
 0001:00001658       _FHELP_CUSTOMFILE          10002658     flags.obj
 0001:00001660       _FHELP_CUSTOMPATH          10002660     flags.obj
 0001:00001668       _FHELP_GUID                10002668     flags.obj
 0001:00001670       _FHELP_USECONTENTS         10002670     flags.obj
 0001:00001678       _FHELP_NONE                10002678     flags.obj
 0001:00001680       _KMFLAGS_SILENTCHECK       10002680     flags.obj
 0001:00001688       _KMFLAGS_DISABLEOUTPUT     10002688     flags.obj
 0001:00001690       _KMFLAGS_NOSENDKEYSTOPLUGINS 10002690     flags.obj
 0001:00001698       _KMFLAGS_ENABLEOUTPUT      10002698     flags.obj
 0001:000016a0       _KMFLAGS_NONE              100026a0     flags.obj
 0001:000016a8       _AKMFLAGS_NONE             100026a8     flags.obj
 0001:000016b0       _FSETCLR_REDRAW            100026b0     flags.obj
 0001:000016b8       _FSETCLR_NONE              100026b8     flags.obj
 0001:000016c0       _PF_PRELOAD                100026c0     flags.obj
 0001:000016c8       _PF_DISABLEPANELS          100026c8     flags.obj
 0001:000016d0       _PF_EDITOR                 100026d0     flags.obj
 0001:000016d8       _PF_VIEWER                 100026d8     flags.obj
 0001:000016e0       _PF_FULLCMDLINE            100026e0     flags.obj
 0001:000016e8       _PF_DIALOG                 100026e8     flags.obj
 0001:000016f0       _PF_NONE                   100026f0     flags.obj
 0001:000016f8       _WIF_MODIFIED              100026f8     flags.obj
 0001:00001700       _WIF_CURRENT               10002700     flags.obj
 0001:00001708       _WIF_MODAL                 10002708     flags.obj
 0001:00001710       _VOPT_SAVEFILEPOSITION     10002710     flags.obj
 0001:00001718       _VOPT_AUTODETECTCODEPAGE   10002718     flags.obj
 0001:00001720       _VOPT_NONE                 10002720     flags.obj
 0001:00001728       _VSMFL_REDRAW              10002728     flags.obj
 0001:00001730       _IPLFLAGS_SEPARATOR        10002730     flags.obj
 0001:00001738       _VSP_NOREDRAW              10002738     flags.obj
 0001:00001740       _VSP_PERCENT               10002740     flags.obj
 0001:00001748       _VSP_RELATIVE              10002748     flags.obj
 0001:00001750       _VSP_NORETNEWPOS           10002750     flags.obj
 0001:00001758       _PMFLAGS_FULLSCREEN        10002758     flags.obj
 0001:00001760       _PMFLAGS_DETAILEDSTATUS    10002760     flags.obj
 0001:00001768       _PMFLAGS_ALIGNEXTENSIONS   10002768     flags.obj
 0001:00001770       _PMFLAGS_CASECONVERSION    10002770     flags.obj
 0001:00001778       _VMF_WRAP                  10002778     flags.obj
 0001:00001780       _VMF_WORDWRAP              10002780     flags.obj
 0001:00001788       _OPIF_DISABLEFILTER        10002788     flags.obj
 0001:00001790       _OPIF_DISABLESORTGROUPS    10002790     flags.obj
 0001:00001798       _OPIF_DISABLEHIGHLIGHTING  10002798     flags.obj
 0001:000017a0       _OPIF_ADDDOTS              100027a0     flags.obj
 0001:000017a8       _OPIF_RAWSELECTION         100027a8     flags.obj
 0001:000017b0       _OPIF_REALNAMES            100027b0     flags.obj
 0001:000017b8       _OPIF_SHOWNAMESONLY        100027b8     flags.obj
 0001:000017c0       _OPIF_SHOWRIGHTALIGNNAMES  100027c0     flags.obj
 0001:000017c8       _OPIF_SHOWPRESERVECASE     100027c8     flags.obj
 0001:000017d0       _OPIF_COMPAREFATTIME       100027d0     flags.obj
 0001:000017d8       _OPIF_EXTERNALGET          100027d8     flags.obj
 0001:000017e0       _OPIF_EXTERNALPUT          100027e0     flags.obj
 0001:000017e8       _OPIF_EXTERNALDELETE       100027e8     flags.obj
 0001:000017f0       _OPIF_EXTERNALMKDIR        100027f0     flags.obj
 0001:000017f8       _OPIF_USEATTRHIGHLIGHTING  100027f8     flags.obj
 0001:00001800       _OPIF_USECRC32             10002800     flags.obj
 0001:00001808       _OPIF_USEFREESIZE          10002808     flags.obj
 0001:00001810       _OPIF_SHORTCUT             10002810     flags.obj
 0001:00001818       _OPIF_NONE                 10002818     flags.obj
 0001:00002d20       _OPM_SILENT                10003d20     flags.obj
 0001:00002d28       _OPM_FIND                  10003d28     flags.obj
 0001:00002d30       _OPM_VIEW                  10003d30     flags.obj
 0001:00002d38       _OPM_EDIT                  10003d38     flags.obj
 0001:00002d40       _OPM_TOPLEVEL              10003d40     flags.obj
 0001:00002d48       _OPM_DESCR                 10003d48     flags.obj
 0001:00002d50       _OPM_QUICKVIEW             10003d50     flags.obj
 0001:00002d58       _OPM_PGDN                  10003d58     flags.obj
 0001:00002d60       _FCF_FG_4BIT               10003d60     flags.obj
 0001:00002d68       _OPM_COMMANDS              10003d68     flags.obj
 0001:00002d70       _FCF_BG_4BIT               10003d70     flags.obj
 0001:00002d78       _OPM_NONE                  10003d78     flags.obj
 0001:00002d80       _FCF_4BITMASK              10003d80     flags.obj
 0001:00002d88       _FCF_EXTENDEDFLAGS         10003d88     flags.obj
 0001:00002d90       _FCF_FG_BOLD               10003d90     flags.obj
 0001:00002d98       _FCF_FG_ITALIC             10003d98     flags.obj
 0001:00002da0       _FCF_FG_UNDERLINE          10003da0     flags.obj
 0001:00002da8       _FCF_STYLEMASK             10003da8     flags.obj
 0001:00002db0       _FCF_NONE                  10003db0     flags.obj
 0001:00002db8       _CDF_NONE                  10003db8     flags.obj
 0001:00002dc0       _FMSG_WARNING              10003dc0     flags.obj
 0001:00002dc8       _FMSG_ERRORTYPE            10003dc8     flags.obj
 0001:00002dd0       _FMSG_KEEPBACKGROUND       10003dd0     flags.obj
 0001:00002dd8       _FMSG_LEFTALIGN            10003dd8     flags.obj
 0001:00002de0       _FMSG_ALLINONE             10003de0     flags.obj
 0001:00002de8       _FMSG_MB_OK                10003de8     flags.obj
 0001:00002df0       _FMSG_MB_OKCANCEL          10003df0     flags.obj
 0001:00002df8       _FMSG_MB_ABORTRETRYIGNORE  10003df8     flags.obj
 0001:00002e00       _FMSG_MB_YESNO             10003e00     flags.obj
 0001:00002e08       _FMSG_MB_YESNOCANCEL       10003e08     flags.obj
 0001:00002e10       _FMSG_MB_RETRYCANCEL       10003e10     flags.obj
 0001:00002e18       _FMSG_NONE                 10003e18     flags.obj
 0001:00002e20       _FOSF_ACTIVE               10003e20     flags.obj
 0001:00002e28       _FOSF_NONE                 10003e28     flags.obj
 0001:00002e30       _DIF_BOXCOLOR              10003e30     flags.obj
 0001:00002e38       _DIF_GROUP                 10003e38     flags.obj
 0001:00002e40       _DIF_LEFTTEXT              10003e40     flags.obj
 0001:00002e48       _DIF_MOVESELECT            10003e48     flags.obj
 0001:00002e50       _DIF_SHOWAMPERSAND         10003e50     flags.obj
 0001:00002e58       _DIF_CENTERGROUP           10003e58     flags.obj
 0001:00002e60       _DIF_NOBRACKETS            10003e60     flags.obj
 0001:00002e68       _DIF_MANUALADDHISTORY      10003e68     flags.obj
 0001:00002e70       _DIF_SEPARATOR             10003e70     flags.obj
 0001:00002e78       _DIF_SEPARATOR2            10003e78     flags.obj
 0001:00002e80       _DIF_EDITOR                10003e80     flags.obj
 0001:00002e88       _DIF_LISTNOAMPERSAND       10003e88     flags.obj
 0001:00002e90       _DIF_LISTNOBOX             10003e90     flags.obj
 0001:00002e98       _DIF_HISTORY               10003e98     flags.obj
 0001:00002ea0       _DIF_BTNNOCLOSE            10003ea0     flags.obj
 0001:00002ea8       _DIF_CENTERTEXT            10003ea8     flags.obj
 0001:00002eb0       _DIF_SEPARATORUSER         10003eb0     flags.obj
 0001:00002eb8       _DIF_SETSHIELD             10003eb8     flags.obj
 0001:00002ec0       _DIF_EDITEXPAND            10003ec0     flags.obj
 0001:00002ec8       _DIF_DROPDOWNLIST          10003ec8     flags.obj
 0001:00002ed0       _DIF_USELASTHISTORY        10003ed0     flags.obj
 0001:00002ed8       _DIF_MASKEDIT              10003ed8     flags.obj
 0001:00002ee0       _DIF_LISTTRACKMOUSE        10003ee0     flags.obj
 0001:00002ee8       _DIF_LISTTRACKMOUSEINFOCUS 10003ee8     flags.obj
 0001:00002ef0       _DIF_SELECTONENTRY         10003ef0     flags.obj
 0001:00002ef8       _DIF_3STATE                10003ef8     flags.obj
 0001:00002f00       _DIF_EDITPATH              10003f00     flags.obj
 0001:00002f08       _DIF_LISTWRAPMODE          10003f08     flags.obj
 0001:00002f10       _DIF_NOAUTOCOMPLETE        10003f10     flags.obj
 0001:00002f18       _DIF_LISTAUTOHIGHLIGHT     10003f18     flags.obj
 0001:00002f20       _DIF_LISTNOCLOSE           10003f20     flags.obj
 0001:00002f28       _DIF_EDITPATHEXEC          10003f28     flags.obj
 0001:00002f30       _DIF_HIDDEN                10003f30     flags.obj
 0001:00002f38       _DIF_READONLY              10003f38     flags.obj
 0001:00002f40       _DIF_NOFOCUS               10003f40     flags.obj
 0001:00002f48       _DIF_DISABLE               10003f48     flags.obj
 0001:00002f50       _DIF_DEFAULTBUTTON         10003f50     flags.obj
 0001:00002f58       _DIF_FOCUS                 10003f58     flags.obj
 0001:00002f60       _DIF_RIGHTTEXT             10003f60     flags.obj
 0001:00002f68       _DIF_WORDWRAP              10003f68     flags.obj
 0001:00002f70       _DIF_NONE                  10003f70     flags.obj
 0001:00002f78       _ECF_TABMARKFIRST          10003f78     flags.obj
 0001:00002f80       _ECF_TABMARKCURRENT        10003f80     flags.obj
 0001:00002f88       _FIB_ENABLEEMPTY           10003f88     flags.obj
 0001:00002f90       _FIB_PASSWORD              10003f90     flags.obj
 0001:00002f98       _FIB_EXPANDENV             10003f98     flags.obj
 0001:00002fa0       _FIB_NOUSELASTHISTORY      10003fa0     flags.obj
 0001:00002fa8       _FIB_BUTTONS               10003fa8     flags.obj
 0001:00002fb0       _FIB_NOAMPERSAND           10003fb0     flags.obj
 0001:00002fb8       _FIB_EDITPATH              10003fb8     flags.obj
 0001:00002fc0       _PCIF_FROMMAIN             10003fc0     flags.obj
 0001:00002fc8       _FIB_EDITPATHEXEC          10003fc8     flags.obj
 0001:00002fd0       _FIB_NONE                  10003fd0     flags.obj
 0001:00002fd8       _PCIF_NONE                 10003fd8     flags.obj
 0001:00002fe0       _LIF_SELECTED              10003fe0     flags.obj
 0001:00002fe8       _LIF_CHECKED               10003fe8     flags.obj
 0001:00002ff0       _LIF_SEPARATOR             10003ff0     flags.obj
 0001:00002ff8       _LIF_DISABLE               10003ff8     flags.obj
 0001:00003000       _LIF_GRAYED                10004000     flags.obj
 0001:00003008       _LIF_HIDDEN                10004008     flags.obj
 0001:00003010       _LIF_DELETEUSERDATA        10004010     flags.obj
 0001:00003018       _LIF_NONE                  10004018     flags.obj
 0001:00003020       _FPF_LOADED                10004020     flags.obj
 0001:00003028       _FPF_ANSI                  10004028     flags.obj
 0001:00003030       _FPF_NONE                  10004030     flags.obj
 0001:00003038       _FarGuid                   10004038     flags.obj
 0001:00003048       _LIFIND_EXACTMATCH         10004048     flags.obj
 0001:00003050       _LIFIND_NONE               10004050     flags.obj
 0001:00003058       _LINFO_SHOWNOBOX           10004058     flags.obj
 0001:00003060       _LINFO_AUTOHIGHLIGHT       10004060     flags.obj
 0001:00003068       _LINFO_REVERSEHIGHLIGHT    10004068     flags.obj
 0001:00003070       _LINFO_WRAPMODE            10004070     flags.obj
 0001:00005ca0       _colors                    10006ca0     keysandcolors.obj
 0001:00006c98       _FDLG_WARNING              10007c98     lflua.obj
 0001:00006ca0       _FDLG_SMALLDIALOG          10007ca0     lflua.obj
 0001:00006ca8       _FDLG_NODRAWSHADOW         10007ca8     lflua.obj
 0001:00006cb0       _FDLG_NODRAWPANEL          10007cb0     lflua.obj
 0001:00006cb8       _FDLG_KEEPCONSOLETITLE     10007cb8     lflua.obj
 0001:00006cc0       _FDLG_NONE                 10007cc0     lflua.obj
 0001:00006cc8       _MIF_SELECTED              10007cc8     lflua.obj
 0001:00006cd0       _MIF_CHECKED               10007cd0     lflua.obj
 0001:00006cd8       _MIF_SEPARATOR             10007cd8     lflua.obj
 0001:00006ce0       _MIF_DISABLE               10007ce0     lflua.obj
 0001:00006ce8       _MIF_GRAYED                10007ce8     lflua.obj
 0001:00006cf0       _MIF_HIDDEN                10007cf0     lflua.obj
 0001:00006cf8       _MIF_NONE                  10007cf8     lflua.obj
 0001:00006d00       _FMENU_SHOWAMPERSAND       10007d00     lflua.obj
 0001:00006d08       _FMENU_WRAPMODE            10007d08     lflua.obj
 0001:00006d10       _FMENU_AUTOHIGHLIGHT       10007d10     lflua.obj
 0001:00006d18       _FMENU_REVERSEAUTOHIGHLIGHT 10007d18     lflua.obj
 0001:00006d20       _FMENU_CHANGECONSOLETITLE  10007d20     lflua.obj
 0001:00006d28       _FMENU_NONE                10007d28     lflua.obj
 0001:00006d30       _PPIF_SELECTED             10007d30     lflua.obj
 0001:00006d38       _PPIF_PROCESSDESCR         10007d38     lflua.obj
 0001:00006d40       _PPIF_NONE                 10007d40     lflua.obj
 0001:00006d48       _PFLAGS_SHOWHIDDEN         10007d48     lflua.obj
 0001:00006d50       _PFLAGS_HIGHLIGHT          10007d50     lflua.obj
 0001:00006d58       _PFLAGS_REVERSESORTORDER   10007d58     lflua.obj
 0001:00006d60       _PFLAGS_USESORTGROUPS      10007d60     lflua.obj
 0001:00006d68       _PFLAGS_SELECTEDFIRST      10007d68     lflua.obj
 0001:00006d70       _PFLAGS_REALNAMES          10007d70     lflua.obj
 0001:00006d78       _PFLAGS_NUMERICSORT        10007d78     lflua.obj
 0001:00006d80       _PFLAGS_PANELLEFT          10007d80     lflua.obj
 0001:00006d88       _PFLAGS_DIRECTORIESFIRST   10007d88     lflua.obj
 0001:00006d90       _PFLAGS_USECRC32           10007d90     lflua.obj
 0001:00006d98       _PFLAGS_CASESENSITIVESORT  10007d98     lflua.obj
 0001:00006da0       _PFLAGS_PLUGIN             10007da0     lflua.obj
 0001:00006da8       _PFLAGS_VISIBLE            10007da8     lflua.obj
 0001:00006db0       _PFLAGS_FOCUS              10007db0     lflua.obj
 0001:00006db8       _PFLAGS_ALTERNATIVENAMES   10007db8     lflua.obj
 0001:00006dc0       _PFLAGS_SHORTCUT           10007dc0     lflua.obj
 0001:00006dc8       _PFLAGS_NONE               10007dc8     lflua.obj
 0001:00006dd0       _PN_CMPNAME                10007dd0     lflua.obj
 0001:00006dd8       _PN_CMPNAMELIST            10007dd8     lflua.obj
 0001:00006de0       _PN_GENERATENAME           10007de0     lflua.obj
 0001:00006de8       _PN_CHECKMASK              10007de8     lflua.obj
 0001:00006df0       _PN_SKIPPATH               10007df0     lflua.obj
 0001:00006df8       _PN_SHOWERRORMESSAGE       10007df8     lflua.obj
 0001:00006e00       _XLAT_SWITCHKEYBLAYOUT     10007e00     lflua.obj
 0001:00006e08       _XLAT_SWITCHKEYBBEEP       10007e08     lflua.obj
 0001:00006e10       _XLAT_USEKEYBLAYOUTNAME    10007e10     lflua.obj
 0001:00006e18       _XLAT_CONVERTALLCMDLINE    10007e18     lflua.obj
 0001:00006e20       _XLAT_NONE                 10007e20     lflua.obj
 0001:00006e28       _FRS_RETUPDIR              10007e28     lflua.obj
 0001:00006e30       _FRS_RECUR                 10007e30     lflua.obj
 0001:00006e38       _FRS_SCANSYMLINK           10007e38     lflua.obj
 0001:00006e40       _VF_NONMODAL               10007e40     lflua.obj
 0001:00006e48       _VF_DELETEONCLOSE          10007e48     lflua.obj
 0001:00006e50       _VF_ENABLE_F6              10007e50     lflua.obj
 0001:00006e58       _VF_DISABLEHISTORY         10007e58     lflua.obj
 0001:00006e60       _VF_IMMEDIATERETURN        10007e60     lflua.obj
 0001:00006e68       _VF_DELETEONLYFILEONCLOSE  10007e68     lflua.obj
 0001:00006e70       _VF_NONE                   10007e70     lflua.obj
 0001:00006e78       _MLF_SHOWERRMSG            10007e78     lflua.obj
 0001:00006e80       _MLF_DONOTUPDATEPANEL      10007e80     lflua.obj
 0001:00006e88       _MLF_NONE                  10007e88     lflua.obj
 0001:00006e90       _EF_NONMODAL               10007e90     lflua.obj
 0001:00006e98       _EF_CREATENEW              10007e98     lflua.obj
 0001:00006ea0       _EF_ENABLE_F6              10007ea0     lflua.obj
 0001:00006ea8       _EF_DISABLEHISTORY         10007ea8     lflua.obj
 0001:00006eb0       _EF_DELETEONCLOSE          10007eb0     lflua.obj
 0001:00006eb8       _EF_IMMEDIATERETURN        10007eb8     lflua.obj
 0001:00006ec0       _EF_DELETEONLYFILEONCLOSE  10007ec0     lflua.obj
 0001:00006ec8       _EF_LOCKED                 10007ec8     lflua.obj
 0001:00006ed0       _EF_DISABLESAVEPOS         10007ed0     lflua.obj
 0001:00006ed8       _EN_NONE                   10007ed8     lflua.obj
 0001:00006ee0       _FFFS_COMMAS               10007ee0     lflua.obj
 0001:00006ee8       _FFFS_FLOATSIZE            10007ee8     lflua.obj
 0001:00006ef0       _FFFS_SHOWBYTESINDEX       10007ef0     lflua.obj
 0001:00006ef8       _FFFS_ECONOMIC             10007ef8     lflua.obj
 0001:00006f00       _FFFS_THOUSAND             10007f00     lflua.obj
 0001:00006f08       _FFFS_MINSIZEINDEX         10007f08     lflua.obj
 0001:00006f10       _FFFS_MINSIZEINDEX_MASK    10007f10     lflua.obj
 0001:00006f18       _FHELP_NOSHOWERROR         10007f18     lflua.obj
 0001:00006f20       _FHELP_SELFHELP            10007f20     lflua.obj
 0001:00006f28       _FHELP_FARHELP             10007f28     lflua.obj
 0001:00006f30       _FHELP_CUSTOMFILE          10007f30     lflua.obj
 0001:00006f38       _FHELP_CUSTOMPATH          10007f38     lflua.obj
 0001:00006f40       _FHELP_GUID                10007f40     lflua.obj
 0001:00006f48       _FHELP_USECONTENTS         10007f48     lflua.obj
 0001:00006f50       _FHELP_NONE                10007f50     lflua.obj
 0001:00006f58       _KMFLAGS_SILENTCHECK       10007f58     lflua.obj
 0001:00006f60       _KMFLAGS_DISABLEOUTPUT     10007f60     lflua.obj
 0001:00006f68       _KMFLAGS_NOSENDKEYSTOPLUGINS 10007f68     lflua.obj
 0001:00006f70       _KMFLAGS_ENABLEOUTPUT      10007f70     lflua.obj
 0001:00006f78       _KMFLAGS_NONE              10007f78     lflua.obj
 0001:00006f80       _AKMFLAGS_NONE             10007f80     lflua.obj
 0001:00006f88       _FSETCLR_REDRAW            10007f88     lflua.obj
 0001:00006f90       _FSETCLR_NONE              10007f90     lflua.obj
 0001:00006f98       _PF_PRELOAD                10007f98     lflua.obj
 0001:00006fa0       _PF_DISABLEPANELS          10007fa0     lflua.obj
 0001:00006fa8       _PF_EDITOR                 10007fa8     lflua.obj
 0001:00006fb0       _PF_VIEWER                 10007fb0     lflua.obj
 0001:00006fb8       _PF_FULLCMDLINE            10007fb8     lflua.obj
 0001:00006fc0       _PF_DIALOG                 10007fc0     lflua.obj
 0001:00006fc8       _PF_NONE                   10007fc8     lflua.obj
 0001:00006fd0       _WIF_MODIFIED              10007fd0     lflua.obj
 0001:00006fd8       _WIF_CURRENT               10007fd8     lflua.obj
 0001:00006fe0       _WIF_MODAL                 10007fe0     lflua.obj
 0001:00006fe8       _VOPT_SAVEFILEPOSITION     10007fe8     lflua.obj
 0001:00006ff0       _VOPT_AUTODETECTCODEPAGE   10007ff0     lflua.obj
 0001:00006ff8       _VOPT_NONE                 10007ff8     lflua.obj
 0001:00007000       _VSMFL_REDRAW              10008000     lflua.obj
 0001:00007008       _IPLFLAGS_SEPARATOR        10008008     lflua.obj
 0001:00007010       _VSP_NOREDRAW              10008010     lflua.obj
 0001:00007018       _VSP_PERCENT               10008018     lflua.obj
 0001:00007020       _VSP_RELATIVE              10008020     lflua.obj
 0001:00007028       _VSP_NORETNEWPOS           10008028     lflua.obj
 0001:00007030       _PMFLAGS_FULLSCREEN        10008030     lflua.obj
 0001:00007038       _PMFLAGS_DETAILEDSTATUS    10008038     lflua.obj
 0001:00007040       _PMFLAGS_ALIGNEXTENSIONS   10008040     lflua.obj
 0001:00007048       _PMFLAGS_CASECONVERSION    10008048     lflua.obj
 0001:00007050       _VMF_WRAP                  10008050     lflua.obj
 0001:00007058       _VMF_WORDWRAP              10008058     lflua.obj
 0001:00007060       _OPIF_DISABLEFILTER        10008060     lflua.obj
 0001:00007068       _OPIF_DISABLESORTGROUPS    10008068     lflua.obj
 0001:00007070       _OPIF_DISABLEHIGHLIGHTING  10008070     lflua.obj
 0001:00007078       _OPIF_ADDDOTS              10008078     lflua.obj
 0001:00007080       _OPIF_RAWSELECTION         10008080     lflua.obj
 0001:00007088       _OPIF_REALNAMES            10008088     lflua.obj
 0001:00007090       _OPIF_SHOWNAMESONLY        10008090     lflua.obj
 0001:00007098       _OPIF_SHOWRIGHTALIGNNAMES  10008098     lflua.obj
 0001:000070a0       _OPIF_SHOWPRESERVECASE     100080a0     lflua.obj
 0001:000070a8       _OPIF_COMPAREFATTIME       100080a8     lflua.obj
 0001:000070b0       _OPIF_EXTERNALGET          100080b0     lflua.obj
 0001:000070b8       _OPIF_EXTERNALPUT          100080b8     lflua.obj
 0001:000070c0       _OPIF_EXTERNALDELETE       100080c0     lflua.obj
 0001:000070c8       _OPIF_EXTERNALMKDIR        100080c8     lflua.obj
 0001:000070d0       _OPIF_USEATTRHIGHLIGHTING  100080d0     lflua.obj
 0001:000070d8       _OPIF_USECRC32             100080d8     lflua.obj
 0001:000070e0       _OPIF_USEFREESIZE          100080e0     lflua.obj
 0001:000070e8       _OPIF_SHORTCUT             100080e8     lflua.obj
 0001:000070f0       _OPIF_NONE                 100080f0     lflua.obj
 0001:000070f8       _OPM_SILENT                100080f8     lflua.obj
 0001:00007100       _OPM_FIND                  10008100     lflua.obj
 0001:00007108       _OPM_VIEW                  10008108     lflua.obj
 0001:00007110       _OPM_EDIT                  10008110     lflua.obj
 0001:00007118       _OPM_TOPLEVEL              10008118     lflua.obj
 0001:00007120       _OPM_DESCR                 10008120     lflua.obj
 0001:00007128       _OPM_QUICKVIEW             10008128     lflua.obj
 0001:00007130       _OPM_PGDN                  10008130     lflua.obj
 0001:00007138       _FCF_FG_4BIT               10008138     lflua.obj
 0001:00007140       _OPM_COMMANDS              10008140     lflua.obj
 0001:00007148       _FCF_BG_4BIT               10008148     lflua.obj
 0001:00007150       _OPM_NONE                  10008150     lflua.obj
 0001:00007158       _FCF_4BITMASK              10008158     lflua.obj
 0001:00007160       _FCF_EXTENDEDFLAGS         10008160     lflua.obj
 0001:00007168       _FCF_FG_BOLD               10008168     lflua.obj
 0001:00007170       _FCF_FG_ITALIC             10008170     lflua.obj
 0001:00007178       _FCF_FG_UNDERLINE          10008178     lflua.obj
 0001:00007180       _FCF_STYLEMASK             10008180     lflua.obj
 0001:00007188       _FCF_NONE                  10008188     lflua.obj
 0001:00007190       _CDF_NONE                  10008190     lflua.obj
 0001:00007198       _FMSG_WARNING              10008198     lflua.obj
 0001:000071a0       _FMSG_ERRORTYPE            100081a0     lflua.obj
 0001:000071a8       _FMSG_KEEPBACKGROUND       100081a8     lflua.obj
 0001:000071b0       _FMSG_LEFTALIGN            100081b0     lflua.obj
 0001:000071b8       _FMSG_ALLINONE             100081b8     lflua.obj
 0001:000071c0       _FMSG_MB_OK                100081c0     lflua.obj
 0001:000071c8       _FMSG_MB_OKCANCEL          100081c8     lflua.obj
 0001:000071d0       _FMSG_MB_ABORTRETRYIGNORE  100081d0     lflua.obj
 0001:000071d8       _FMSG_MB_YESNO             100081d8     lflua.obj
 0001:000071e0       _FMSG_MB_YESNOCANCEL       100081e0     lflua.obj
 0001:000071e8       _FMSG_MB_RETRYCANCEL       100081e8     lflua.obj
 0001:000071f0       _FMSG_NONE                 100081f0     lflua.obj
 0001:000071f8       _FOSF_ACTIVE               100081f8     lflua.obj
 0001:00007200       _FOSF_NONE                 10008200     lflua.obj
 0001:00007208       _DIF_BOXCOLOR              10008208     lflua.obj
 0001:00007210       _DIF_GROUP                 10008210     lflua.obj
 0001:00007218       _DIF_LEFTTEXT              10008218     lflua.obj
 0001:00007220       _DIF_MOVESELECT            10008220     lflua.obj
 0001:00007228       _DIF_SHOWAMPERSAND         10008228     lflua.obj
 0001:00007230       _DIF_CENTERGROUP           10008230     lflua.obj
 0001:00007238       _DIF_NOBRACKETS            10008238     lflua.obj
 0001:00007240       _DIF_MANUALADDHISTORY      10008240     lflua.obj
 0001:00007248       _DIF_SEPARATOR             10008248     lflua.obj
 0001:00007250       _DIF_SEPARATOR2            10008250     lflua.obj
 0001:00007258       _DIF_EDITOR                10008258     lflua.obj
 0001:00007260       _DIF_LISTNOAMPERSAND       10008260     lflua.obj
 0001:00007268       _DIF_LISTNOBOX             10008268     lflua.obj
 0001:00007270       _DIF_HISTORY               10008270     lflua.obj
 0001:00007278       _DIF_BTNNOCLOSE            10008278     lflua.obj
 0001:00007280       _DIF_CENTERTEXT            10008280     lflua.obj
 0001:00007288       _DIF_SEPARATORUSER         10008288     lflua.obj
 0001:00007290       _DIF_SETSHIELD             10008290     lflua.obj
 0001:00007298       _DIF_EDITEXPAND            10008298     lflua.obj
 0001:000072a0       _DIF_DROPDOWNLIST          100082a0     lflua.obj
 0001:000072a8       _DIF_USELASTHISTORY        100082a8     lflua.obj
 0001:000072b0       _DIF_MASKEDIT              100082b0     lflua.obj
 0001:000072b8       _DIF_LISTTRACKMOUSE        100082b8     lflua.obj
 0001:000072c0       _DIF_LISTTRACKMOUSEINFOCUS 100082c0     lflua.obj
 0001:000072c8       _DIF_SELECTONENTRY         100082c8     lflua.obj
 0001:000072d0       _DIF_3STATE                100082d0     lflua.obj
 0001:000072d8       _DIF_EDITPATH              100082d8     lflua.obj
 0001:000072e0       _DIF_LISTWRAPMODE          100082e0     lflua.obj
 0001:000072e8       _DIF_NOAUTOCOMPLETE        100082e8     lflua.obj
 0001:000072f0       _DIF_LISTAUTOHIGHLIGHT     100082f0     lflua.obj
 0001:000072f8       _DIF_LISTNOCLOSE           100082f8     lflua.obj
 0001:00007300       _DIF_EDITPATHEXEC          10008300     lflua.obj
 0001:00007308       _DIF_HIDDEN                10008308     lflua.obj
 0001:00007310       _DIF_READONLY              10008310     lflua.obj
 0001:00007318       _DIF_NOFOCUS               10008318     lflua.obj
 0001:00007320       _DIF_DISABLE               10008320     lflua.obj
 0001:00007328       _DIF_DEFAULTBUTTON         10008328     lflua.obj
 0001:00007330       _DIF_FOCUS                 10008330     lflua.obj
 0001:00007338       _DIF_RIGHTTEXT             10008338     lflua.obj
 0001:00007340       _DIF_WORDWRAP              10008340     lflua.obj
 0001:00007348       _DIF_NONE                  10008348     lflua.obj
 0001:00007350       _ECF_TABMARKFIRST          10008350     lflua.obj
 0001:00007358       _ECF_TABMARKCURRENT        10008358     lflua.obj
 0001:00007360       _FIB_ENABLEEMPTY           10008360     lflua.obj
 0001:00007368       _FIB_PASSWORD              10008368     lflua.obj
 0001:00007370       _FIB_EXPANDENV             10008370     lflua.obj
 0001:00007378       _FIB_NOUSELASTHISTORY      10008378     lflua.obj
 0001:00007380       _FIB_BUTTONS               10008380     lflua.obj
 0001:00007388       _FIB_NOAMPERSAND           10008388     lflua.obj
 0001:00007390       _FIB_EDITPATH              10008390     lflua.obj
 0001:00007398       _PCIF_FROMMAIN             10008398     lflua.obj
 0001:000073a0       _FIB_EDITPATHEXEC          100083a0     lflua.obj
 0001:000073a8       _FIB_NONE                  100083a8     lflua.obj
 0001:000073b0       _PCIF_NONE                 100083b0     lflua.obj
 0001:000073b8       _LIF_SELECTED              100083b8     lflua.obj
 0001:000073c0       _LIF_CHECKED               100083c0     lflua.obj
 0001:000073c8       _LIF_SEPARATOR             100083c8     lflua.obj
 0001:000073d0       _LIF_DISABLE               100083d0     lflua.obj
 0001:000073d8       _LIF_GRAYED                100083d8     lflua.obj
 0001:000073e0       _LIF_HIDDEN                100083e0     lflua.obj
 0001:000073e8       _LIF_DELETEUSERDATA        100083e8     lflua.obj
 0001:000073f0       _LIF_NONE                  100083f0     lflua.obj
 0001:000073f8       _FPF_LOADED                100083f8     lflua.obj
 0001:00007400       _FPF_ANSI                  10008400     lflua.obj
 0001:00007408       _FPF_NONE                  10008408     lflua.obj
 0001:00007410       _FarGuid                   10008410     lflua.obj
 0001:00007420       _LIFIND_EXACTMATCH         10008420     lflua.obj
 0001:00007428       _LIFIND_NONE               10008428     lflua.obj
 0001:00007430       _LINFO_SHOWNOBOX           10008430     lflua.obj
 0001:00007438       _LINFO_AUTOHIGHLIGHT       10008438     lflua.obj
 0001:00007440       _LINFO_REVERSEHIGHLIGHT    10008440     lflua.obj
 0001:00007448       _LINFO_WRAPMODE            10008448     lflua.obj
 0001:00007450       _LINFO_SHOWAMPERSAND       10008450     lflua.obj
 0001:00007458       _LINFO_NONE                10008458     lflua.obj
 0001:000074b0       _KMFLAGS_SILENTCHECK       100084b0     lregex.obj
 0001:000074b8       _KMFLAGS_DISABLEOUTPUT     100084b8     lregex.obj
 0001:000074c0       _KMFLAGS_NOSENDKEYSTOPLUGINS 100084c0     lregex.obj
 0001:000074c8       _KMFLAGS_ENABLEOUTPUT      100084c8     lregex.obj
 0001:000074d0       _KMFLAGS_NONE              100084d0     lregex.obj
 0001:000074d8       _AKMFLAGS_NONE             100084d8     lregex.obj
 0001:000074e0       _FSETCLR_REDRAW            100084e0     lregex.obj
 0001:000074e8       _FSETCLR_NONE              100084e8     lregex.obj
 0001:000074f0       _PF_PRELOAD                100084f0     lregex.obj
 0001:000074f8       _PF_DISABLEPANELS          100084f8     lregex.obj
 0001:00007500       _PF_EDITOR                 10008500     lregex.obj
 0001:00007508       _PF_VIEWER                 10008508     lregex.obj
 0001:00007510       _PF_FULLCMDLINE            10008510     lregex.obj
 0001:00007518       _PF_DIALOG                 10008518     lregex.obj
 0001:00007520       _PF_NONE                   10008520     lregex.obj
 0001:00007528       _WIF_MODIFIED              10008528     lregex.obj
 0001:00007530       _WIF_CURRENT               10008530     lregex.obj
 0001:00007538       _WIF_MODAL                 10008538     lregex.obj
 0001:00007540       _VOPT_SAVEFILEPOSITION     10008540     lregex.obj
 0001:00007548       _VOPT_AUTODETECTCODEPAGE   10008548     lregex.obj
 0001:00007550       _VOPT_NONE                 10008550     lregex.obj
 0001:00007558       _VSMFL_REDRAW              10008558     lregex.obj
 0001:00007560       _IPLFLAGS_SEPARATOR        10008560     lregex.obj
 0001:00007568       _VSP_NOREDRAW              10008568     lregex.obj
 0001:00007570       _VSP_PERCENT               10008570     lregex.obj
 0001:00007578       _VSP_RELATIVE              10008578     lregex.obj
 0001:00007580       _VSP_NORETNEWPOS           10008580     lregex.obj
 0001:00007588       _PMFLAGS_FULLSCREEN        10008588     lregex.obj
 0001:00007590       _PMFLAGS_DETAILEDSTATUS    10008590     lregex.obj
 0001:00007598       _PMFLAGS_ALIGNEXTENSIONS   10008598     lregex.obj
 0001:000075a0       _PMFLAGS_CASECONVERSION    100085a0     lregex.obj
 0001:000075a8       _VMF_WRAP                  100085a8     lregex.obj
 0001:000075b0       _VMF_WORDWRAP              100085b0     lregex.obj
 0001:000075b8       _OPIF_DISABLEFILTER        100085b8     lregex.obj
 0001:000075c0       _OPIF_DISABLESORTGROUPS    100085c0     lregex.obj
 0001:000075c8       _OPIF_DISABLEHIGHLIGHTING  100085c8     lregex.obj
 0001:000075d0       _OPIF_ADDDOTS              100085d0     lregex.obj
 0001:000075d8       _OPIF_RAWSELECTION         100085d8     lregex.obj
 0001:000075e0       _OPIF_REALNAMES            100085e0     lregex.obj
 0001:000075e8       _OPIF_SHOWNAMESONLY        100085e8     lregex.obj
 0001:000075f0       _OPIF_SHOWRIGHTALIGNNAMES  100085f0     lregex.obj
 0001:000075f8       _OPIF_SHOWPRESERVECASE     100085f8     lregex.obj
 0001:00007600       _OPIF_COMPAREFATTIME       10008600     lregex.obj
 0001:00007608       _OPIF_EXTERNALGET          10008608     lregex.obj
 0001:00007610       _OPIF_EXTERNALPUT          10008610     lregex.obj
 0001:00007618       _OPIF_EXTERNALDELETE       10008618     lregex.obj
 0001:00007620       _OPIF_EXTERNALMKDIR        10008620     lregex.obj
 0001:00007628       _OPIF_USEATTRHIGHLIGHTING  10008628     lregex.obj
 0001:00007630       _OPIF_USECRC32             10008630     lregex.obj
 0001:00007638       _OPIF_USEFREESIZE          10008638     lregex.obj
 0001:00007640       _OPIF_SHORTCUT             10008640     lregex.obj
 0001:00007648       _OPIF_NONE                 10008648     lregex.obj
 0001:00007650       _OPM_SILENT                10008650     lregex.obj
 0001:00007658       _OPM_FIND                  10008658     lregex.obj
 0001:00007660       _OPM_VIEW                  10008660     lregex.obj
 0001:00007668       _OPM_EDIT                  10008668     lregex.obj
 0001:00007670       _OPM_TOPLEVEL              10008670     lregex.obj
 0001:00007678       _OPM_DESCR                 10008678     lregex.obj
 0001:00007680       _OPM_QUICKVIEW             10008680     lregex.obj
 0001:00007688       _OPM_PGDN                  10008688     lregex.obj
 0001:00007690       _FCF_FG_4BIT               10008690     lregex.obj
 0001:00007698       _OPM_COMMANDS              10008698     lregex.obj
 0001:000076a0       _FCF_BG_4BIT               100086a0     lregex.obj
 0001:000076a8       _OPM_NONE                  100086a8     lregex.obj
 0001:000076b0       _FCF_4BITMASK              100086b0     lregex.obj
 0001:000076b8       _FCF_EXTENDEDFLAGS         100086b8     lregex.obj
 0001:000076c0       _FCF_FG_BOLD               100086c0     lregex.obj
 0001:000076c8       _FCF_FG_ITALIC             100086c8     lregex.obj
 0001:000076d0       _FCF_FG_UNDERLINE          100086d0     lregex.obj
 0001:000076d8       _FCF_STYLEMASK             100086d8     lregex.obj
 0001:000076e0       _FCF_NONE                  100086e0     lregex.obj
 0001:000076e8       _CDF_NONE                  100086e8     lregex.obj
 0001:000076f0       _FMSG_WARNING              100086f0     lregex.obj
 0001:000076f8       _FMSG_ERRORTYPE            100086f8     lregex.obj
 0001:00007700       _FMSG_KEEPBACKGROUND       10008700     lregex.obj
 0001:00007708       _FMSG_LEFTALIGN            10008708     lregex.obj
 0001:00007710       _FMSG_ALLINONE             10008710     lregex.obj
 0001:00007718       _FMSG_MB_OK                10008718     lregex.obj
 0001:00007720       _FMSG_MB_OKCANCEL          10008720     lregex.obj
 0001:00007728       _FMSG_MB_ABORTRETRYIGNORE  10008728     lregex.obj
 0001:00007730       _FMSG_MB_YESNO             10008730     lregex.obj
 0001:00007738       _FMSG_MB_YESNOCANCEL       10008738     lregex.obj
 0001:00007740       _FMSG_MB_RETRYCANCEL       10008740     lregex.obj
 0001:00007748       _FMSG_NONE                 10008748     lregex.obj
 0001:00007750       _FOSF_ACTIVE               10008750     lregex.obj
 0001:00007758       _FOSF_NONE                 10008758     lregex.obj
 0001:00007760       _DIF_BOXCOLOR              10008760     lregex.obj
 0001:00007768       _DIF_GROUP                 10008768     lregex.obj
 0001:00007770       _DIF_LEFTTEXT              10008770     lregex.obj
 0001:00007778       _DIF_MOVESELECT            10008778     lregex.obj
 0001:00007780       _DIF_SHOWAMPERSAND         10008780     lregex.obj
 0001:00007788       _DIF_CENTERGROUP           10008788     lregex.obj
 0001:00007790       _DIF_NOBRACKETS            10008790     lregex.obj
 0001:00007798       _DIF_MANUALADDHISTORY      10008798     lregex.obj
 0001:000077a0       _DIF_SEPARATOR             100087a0     lregex.obj
 0001:000077a8       _DIF_SEPARATOR2            100087a8     lregex.obj
 0001:000077b0       _DIF_EDITOR                100087b0     lregex.obj
 0001:000077b8       _DIF_LISTNOAMPERSAND       100087b8     lregex.obj
 0001:000077c0       _DIF_LISTNOBOX             100087c0     lregex.obj
 0001:000077c8       _DIF_HISTORY               100087c8     lregex.obj
 0001:000077d0       _DIF_BTNNOCLOSE            100087d0     lregex.obj
 0001:000077d8       _DIF_CENTERTEXT            100087d8     lregex.obj
 0001:000077e0       _DIF_SEPARATORUSER         100087e0     lregex.obj
 0001:000077e8       _DIF_SETSHIELD             100087e8     lregex.obj
 0001:000077f0       _DIF_EDITEXPAND            100087f0     lregex.obj
 0001:000077f8       _DIF_DROPDOWNLIST          100087f8     lregex.obj
 0001:00007800       _DIF_USELASTHISTORY        10008800     lregex.obj
 0001:00007808       _DIF_MASKEDIT              10008808     lregex.obj
 0001:00007810       _DIF_LISTTRACKMOUSE        10008810     lregex.obj
 0001:00007818       _DIF_LISTTRACKMOUSEINFOCUS 10008818     lregex.obj
 0001:00007820       _DIF_SELECTONENTRY         10008820     lregex.obj
 0001:00007828       _DIF_3STATE                10008828     lregex.obj
 0001:00007830       _DIF_EDITPATH              10008830     lregex.obj
 0001:00007838       _DIF_LISTWRAPMODE          10008838     lregex.obj
 0001:00007840       _DIF_NOAUTOCOMPLETE        10008840     lregex.obj
 0001:00007848       _DIF_LISTAUTOHIGHLIGHT     10008848     lregex.obj
 0001:00007850       _DIF_LISTNOCLOSE           10008850     lregex.obj
 0001:00007858       _DIF_EDITPATHEXEC          10008858     lregex.obj
 0001:00007860       _DIF_HIDDEN                10008860     lregex.obj
 0001:00007868       _DIF_READONLY              10008868     lregex.obj
 0001:00007870       _DIF_NOFOCUS               10008870     lregex.obj
 0001:00007878       _DIF_DISABLE               10008878     lregex.obj
 0001:00007880       _DIF_DEFAULTBUTTON         10008880     lregex.obj
 0001:00007888       _DIF_FOCUS                 10008888     lregex.obj
 0001:00007890       _DIF_RIGHTTEXT             10008890     lregex.obj
 0001:00007898       _DIF_WORDWRAP              10008898     lregex.obj
 0001:000078a0       _DIF_NONE                  100088a0     lregex.obj
 0001:000078a8       _ECF_TABMARKFIRST          100088a8     lregex.obj
 0001:000078b0       _ECF_TABMARKCURRENT        100088b0     lregex.obj
 0001:000078b8       _FIB_ENABLEEMPTY           100088b8     lregex.obj
 0001:000078c0       _FIB_PASSWORD              100088c0     lregex.obj
 0001:000078c8       _FIB_EXPANDENV             100088c8     lregex.obj
 0001:000078d0       _FIB_NOUSELASTHISTORY      100088d0     lregex.obj
 0001:000078d8       _FIB_BUTTONS               100088d8     lregex.obj
 0001:000078e0       _FIB_NOAMPERSAND           100088e0     lregex.obj
 0001:000078e8       _FIB_EDITPATH              100088e8     lregex.obj
 0001:000078f0       _PCIF_FROMMAIN             100088f0     lregex.obj
 0001:000078f8       _FIB_EDITPATHEXEC          100088f8     lregex.obj
 0001:00007900       _FIB_NONE                  10008900     lregex.obj
 0001:00007908       _PCIF_NONE                 10008908     lregex.obj
 0001:00007910       _LIF_SELECTED              10008910     lregex.obj
 0001:00007918       _LIF_CHECKED               10008918     lregex.obj
 0001:00007920       _LIF_SEPARATOR             10008920     lregex.obj
 0001:00007928       _LIF_DISABLE               10008928     lregex.obj
 0001:00007930       _LIF_GRAYED                10008930     lregex.obj
 0001:00007938       _LIF_HIDDEN                10008938     lregex.obj
 0001:00007940       _LIF_DELETEUSERDATA        10008940     lregex.obj
 0001:00007948       _LIF_NONE                  10008948     lregex.obj
 0001:00007950       _FPF_LOADED                10008950     lregex.obj
 0001:00007958       _FPF_ANSI                  10008958     lregex.obj
 0001:00007960       _FPF_NONE                  10008960     lregex.obj
 0001:00007968       _FarGuid                   10008968     lregex.obj
 0001:00007978       _LIFIND_EXACTMATCH         10008978     lregex.obj
 0001:00007980       _LIFIND_NONE               10008980     lregex.obj
 0001:00007988       _LINFO_SHOWNOBOX           10008988     lregex.obj
 0001:00007990       _LINFO_AUTOHIGHLIGHT       10008990     lregex.obj
 0001:00007998       _LINFO_REVERSEHIGHLIGHT    10008998     lregex.obj
 0001:000079a0       _LINFO_WRAPMODE            100089a0     lregex.obj
 0001:000079a8       _LINFO_SHOWAMPERSAND       100089a8     lregex.obj
 0001:000079b0       _LINFO_NONE                100089b0     lregex.obj
 0001:000079b8       _FDLG_WARNING              100089b8     lregex.obj
 0001:000079c0       _FDLG_SMALLDIALOG          100089c0     lregex.obj
 0001:000079c8       _FDLG_NODRAWSHADOW         100089c8     lregex.obj
 0001:000079d0       _FDLG_NODRAWPANEL          100089d0     lregex.obj
 0001:000079d8       _FDLG_KEEPCONSOLETITLE     100089d8     lregex.obj
 0001:000079e0       _FDLG_NONE                 100089e0     lregex.obj
 0001:000079e8       _MIF_SELECTED              100089e8     lregex.obj
 0001:000079f0       _MIF_CHECKED               100089f0     lregex.obj
 0001:000079f8       _MIF_SEPARATOR             100089f8     lregex.obj
 0001:00007a00       _MIF_DISABLE               10008a00     lregex.obj
 0001:00007a08       _MIF_GRAYED                10008a08     lregex.obj
 0001:00007a10       _MIF_HIDDEN                10008a10     lregex.obj
 0001:00007a18       _MIF_NONE                  10008a18     lregex.obj
 0001:00007a20       _FMENU_SHOWAMPERSAND       10008a20     lregex.obj
 0001:00007a28       _FMENU_WRAPMODE            10008a28     lregex.obj
 0001:00007a30       _FMENU_AUTOHIGHLIGHT       10008a30     lregex.obj
 0001:00007a38       _FMENU_REVERSEAUTOHIGHLIGHT 10008a38     lregex.obj
 0001:00007a40       _FMENU_CHANGECONSOLETITLE  10008a40     lregex.obj
 0001:00007a48       _FMENU_NONE                10008a48     lregex.obj
 0001:00007a50       _PPIF_SELECTED             10008a50     lregex.obj
 0001:00007a58       _PPIF_PROCESSDESCR         10008a58     lregex.obj
 0001:00007a60       _PPIF_NONE                 10008a60     lregex.obj
 0001:00007b08       _PFLAGS_SHOWHIDDEN         10008b08     lregex.obj
 0001:00007b10       _PFLAGS_HIGHLIGHT          10008b10     lregex.obj
 0001:00007b18       _PFLAGS_REVERSESORTORDER   10008b18     lregex.obj
 0001:00007b20       _PFLAGS_USESORTGROUPS      10008b20     lregex.obj
 0001:00007b28       _PFLAGS_SELECTEDFIRST      10008b28     lregex.obj
 0001:00007b30       _PFLAGS_REALNAMES          10008b30     lregex.obj
 0001:00007b38       _PFLAGS_NUMERICSORT        10008b38     lregex.obj
 0001:00007b40       _PFLAGS_PANELLEFT          10008b40     lregex.obj
 0001:00007b48       _PFLAGS_DIRECTORIESFIRST   10008b48     lregex.obj
 0001:00007b50       _PFLAGS_USECRC32           10008b50     lregex.obj
 0001:00007b58       _PFLAGS_CASESENSITIVESORT  10008b58     lregex.obj
 0001:00007b60       _PFLAGS_PLUGIN             10008b60     lregex.obj
 0001:00007b68       _PFLAGS_VISIBLE            10008b68     lregex.obj
 0001:00007b70       _PFLAGS_FOCUS              10008b70     lregex.obj
 0001:00007b78       _PFLAGS_ALTERNATIVENAMES   10008b78     lregex.obj
 0001:00007b80       _PFLAGS_SHORTCUT           10008b80     lregex.obj
 0001:00007b88       _PFLAGS_NONE               10008b88     lregex.obj
 0001:00007b90       _PN_CMPNAME                10008b90     lregex.obj
 0001:00007b98       _PN_CMPNAMELIST            10008b98     lregex.obj
 0001:00007ba0       _PN_GENERATENAME           10008ba0     lregex.obj
 0001:00007ba8       _PN_CHECKMASK              10008ba8     lregex.obj
 0001:00007bb0       _PN_SKIPPATH               10008bb0     lregex.obj
 0001:00007bb8       _PN_SHOWERRORMESSAGE       10008bb8     lregex.obj
 0001:00007bc0       _XLAT_SWITCHKEYBLAYOUT     10008bc0     lregex.obj
 0001:00007bc8       _XLAT_SWITCHKEYBBEEP       10008bc8     lregex.obj
 0001:00007bd0       _XLAT_USEKEYBLAYOUTNAME    10008bd0     lregex.obj
 0001:00007bd8       _XLAT_CONVERTALLCMDLINE    10008bd8     lregex.obj
 0001:00007be0       _XLAT_NONE                 10008be0     lregex.obj
 0001:00007be8       _FRS_RETUPDIR              10008be8     lregex.obj
 0001:00007bf0       _FRS_RECUR                 10008bf0     lregex.obj
 0001:00007bf8       _FRS_SCANSYMLINK           10008bf8     lregex.obj
 0001:00007c00       _VF_NONMODAL               10008c00     lregex.obj
 0001:00007c08       _VF_DELETEONCLOSE          10008c08     lregex.obj
 0001:00007c10       _VF_ENABLE_F6              10008c10     lregex.obj
 0001:00007c18       _VF_DISABLEHISTORY         10008c18     lregex.obj
 0001:00007c20       _VF_IMMEDIATERETURN        10008c20     lregex.obj
 0001:00007c28       _VF_DELETEONLYFILEONCLOSE  10008c28     lregex.obj
 0001:00007c30       _VF_NONE                   10008c30     lregex.obj
 0001:00007c38       _MLF_SHOWERRMSG            10008c38     lregex.obj
 0001:00007c40       _MLF_DONOTUPDATEPANEL      10008c40     lregex.obj
 0001:00007c48       _MLF_NONE                  10008c48     lregex.obj
 0001:00007c50       _EF_NONMODAL               10008c50     lregex.obj
 0001:00007c58       _EF_CREATENEW              10008c58     lregex.obj
 0001:00007c60       _EF_ENABLE_F6              10008c60     lregex.obj
 0001:00007c68       _EF_DISABLEHISTORY         10008c68     lregex.obj
 0001:00007c70       _EF_DELETEONCLOSE          10008c70     lregex.obj
 0001:00007c78       _EF_IMMEDIATERETURN        10008c78     lregex.obj
 0001:00007c80       _EF_DELETEONLYFILEONCLOSE  10008c80     lregex.obj
 0001:00007c88       _EF_LOCKED                 10008c88     lregex.obj
 0001:00007c90       _EF_DISABLESAVEPOS         10008c90     lregex.obj
 0001:00007c98       _EN_NONE                   10008c98     lregex.obj
 0001:00007ca0       _FFFS_COMMAS               10008ca0     lregex.obj
 0001:00007ca8       _FFFS_FLOATSIZE            10008ca8     lregex.obj
 0001:00007cb0       _FFFS_SHOWBYTESINDEX       10008cb0     lregex.obj
 0001:00007cb8       _FFFS_ECONOMIC             10008cb8     lregex.obj
 0001:00007cc0       _FFFS_THOUSAND             10008cc0     lregex.obj
 0001:00007cc8       _FFFS_MINSIZEINDEX         10008cc8     lregex.obj
 0001:00007cd0       _FFFS_MINSIZEINDEX_MASK    10008cd0     lregex.obj
 0001:00007cd8       _FHELP_NOSHOWERROR         10008cd8     lregex.obj
 0001:00007ce0       _FHELP_SELFHELP            10008ce0     lregex.obj
 0001:00007ce8       _FHELP_FARHELP             10008ce8     lregex.obj
 0001:00007cf0       _FHELP_CUSTOMFILE          10008cf0     lregex.obj
 0001:00007cf8       _FHELP_CUSTOMPATH          10008cf8     lregex.obj
 0001:00007d00       _FHELP_GUID                10008d00     lregex.obj
 0001:00007d08       _FHELP_USECONTENTS         10008d08     lregex.obj
 0001:00007d10       _FHELP_NONE                10008d10     lregex.obj
 0001:00007e60       _KMFLAGS_SILENTCHECK       10008e60     luamacro.obj
 0001:00007e68       _KMFLAGS_DISABLEOUTPUT     10008e68     luamacro.obj
 0001:00007e70       _KMFLAGS_NOSENDKEYSTOPLUGINS 10008e70     luamacro.obj
 0001:00007e78       _KMFLAGS_ENABLEOUTPUT      10008e78     luamacro.obj
 0001:00007e80       _KMFLAGS_NONE              10008e80     luamacro.obj
 0001:00007e88       _AKMFLAGS_NONE             10008e88     luamacro.obj
 0001:00007e90       _FSETCLR_REDRAW            10008e90     luamacro.obj
 0001:00007e98       _FSETCLR_NONE              10008e98     luamacro.obj
 0001:00007ea0       _PF_PRELOAD                10008ea0     luamacro.obj
 0001:00007ea8       _PF_DISABLEPANELS          10008ea8     luamacro.obj
 0001:00007eb0       _PF_EDITOR                 10008eb0     luamacro.obj
 0001:00007eb8       _PF_VIEWER                 10008eb8     luamacro.obj
 0001:00007ec0       _PF_FULLCMDLINE            10008ec0     luamacro.obj
 0001:00007ec8       _PF_DIALOG                 10008ec8     luamacro.obj
 0001:00007ed0       _PF_NONE                   10008ed0     luamacro.obj
 0001:00007ed8       _WIF_MODIFIED              10008ed8     luamacro.obj
 0001:00007ee0       _WIF_CURRENT               10008ee0     luamacro.obj
 0001:00007ee8       _WIF_MODAL                 10008ee8     luamacro.obj
 0001:00007ef0       _VOPT_SAVEFILEPOSITION     10008ef0     luamacro.obj
 0001:00007ef8       _VOPT_AUTODETECTCODEPAGE   10008ef8     luamacro.obj
 0001:00007f00       _VOPT_NONE                 10008f00     luamacro.obj
 0001:00007f08       _VSMFL_REDRAW              10008f08     luamacro.obj
 0001:00007f10       _IPLFLAGS_SEPARATOR        10008f10     luamacro.obj
 0001:00007f18       _VSP_NOREDRAW              10008f18     luamacro.obj
 0001:00007f20       _VSP_PERCENT               10008f20     luamacro.obj
 0001:00007f28       _VSP_RELATIVE              10008f28     luamacro.obj
 0001:00007f30       _VSP_NORETNEWPOS           10008f30     luamacro.obj
 0001:00007f38       _PMFLAGS_FULLSCREEN        10008f38     luamacro.obj
 0001:00007f40       _PMFLAGS_DETAILEDSTATUS    10008f40     luamacro.obj
 0001:00007f48       _PMFLAGS_ALIGNEXTENSIONS   10008f48     luamacro.obj
 0001:00007f50       _PMFLAGS_CASECONVERSION    10008f50     luamacro.obj
 0001:00007f58       _VMF_WRAP                  10008f58     luamacro.obj
 0001:00007f60       _VMF_WORDWRAP              10008f60     luamacro.obj
 0001:00007f68       _OPIF_DISABLEFILTER        10008f68     luamacro.obj
 0001:00007f70       _OPIF_DISABLESORTGROUPS    10008f70     luamacro.obj
 0001:00007f78       _OPIF_DISABLEHIGHLIGHTING  10008f78     luamacro.obj
 0001:00007f80       _OPIF_ADDDOTS              10008f80     luamacro.obj
 0001:00007f88       _OPIF_RAWSELECTION         10008f88     luamacro.obj
 0001:00007f90       _OPIF_REALNAMES            10008f90     luamacro.obj
 0001:00007f98       _OPIF_SHOWNAMESONLY        10008f98     luamacro.obj
 0001:00007fa0       _OPIF_SHOWRIGHTALIGNNAMES  10008fa0     luamacro.obj
 0001:00007fa8       _OPIF_SHOWPRESERVECASE     10008fa8     luamacro.obj
 0001:00007fb0       _OPIF_COMPAREFATTIME       10008fb0     luamacro.obj
 0001:00007fb8       _OPIF_EXTERNALGET          10008fb8     luamacro.obj
 0001:00007fc0       _OPIF_EXTERNALPUT          10008fc0     luamacro.obj
 0001:00007fc8       _OPIF_EXTERNALDELETE       10008fc8     luamacro.obj
 0001:00007fd0       _OPIF_EXTERNALMKDIR        10008fd0     luamacro.obj
 0001:00007fd8       _OPIF_USEATTRHIGHLIGHTING  10008fd8     luamacro.obj
 0001:00007fe0       _OPIF_USECRC32             10008fe0     luamacro.obj
 0001:00007fe8       _OPIF_USEFREESIZE          10008fe8     luamacro.obj
 0001:00007ff0       _OPIF_SHORTCUT             10008ff0     luamacro.obj
 0001:00007ff8       _OPIF_NONE                 10008ff8     luamacro.obj
 0001:00008000       _OPM_SILENT                10009000     luamacro.obj
 0001:00008008       _OPM_FIND                  10009008     luamacro.obj
 0001:00008010       _OPM_VIEW                  10009010     luamacro.obj
 0001:00008018       _OPM_EDIT                  10009018     luamacro.obj
 0001:00008020       _OPM_TOPLEVEL              10009020     luamacro.obj
 0001:00008028       _OPM_DESCR                 10009028     luamacro.obj
 0001:00008030       _OPM_QUICKVIEW             10009030     luamacro.obj
 0001:00008038       _OPM_PGDN                  10009038     luamacro.obj
 0001:00008040       _FCF_FG_4BIT               10009040     luamacro.obj
 0001:00008048       _OPM_COMMANDS              10009048     luamacro.obj
 0001:00008050       _FCF_BG_4BIT               10009050     luamacro.obj
 0001:00008058       _OPM_NONE                  10009058     luamacro.obj
 0001:00008060       _FCF_4BITMASK              10009060     luamacro.obj
 0001:00008068       _FCF_EXTENDEDFLAGS         10009068     luamacro.obj
 0001:00008070       _FCF_FG_BOLD               10009070     luamacro.obj
 0001:00008078       _FCF_FG_ITALIC             10009078     luamacro.obj
 0001:00008080       _FCF_FG_UNDERLINE          10009080     luamacro.obj
 0001:00008088       _FCF_STYLEMASK             10009088     luamacro.obj
 0001:00008090       _FCF_NONE                  10009090     luamacro.obj
 0001:00008098       _CDF_NONE                  10009098     luamacro.obj
 0001:000080a0       _FMSG_WARNING              100090a0     luamacro.obj
 0001:000080a8       _FMSG_ERRORTYPE            100090a8     luamacro.obj
 0001:000080b0       _FMSG_KEEPBACKGROUND       100090b0     luamacro.obj
 0001:000080b8       _FMSG_LEFTALIGN            100090b8     luamacro.obj
 0001:000080c0       _FMSG_ALLINONE             100090c0     luamacro.obj
 0001:000080c8       _FMSG_MB_OK                100090c8     luamacro.obj
 0001:000080d0       _FMSG_MB_OKCANCEL          100090d0     luamacro.obj
 0001:000080d8       _FMSG_MB_ABORTRETRYIGNORE  100090d8     luamacro.obj
 0001:000080e0       _FMSG_MB_YESNO             100090e0     luamacro.obj
 0001:000080e8       _FMSG_MB_YESNOCANCEL       100090e8     luamacro.obj
 0001:000080f0       _FMSG_MB_RETRYCANCEL       100090f0     luamacro.obj
 0001:000080f8       _FMSG_NONE                 100090f8     luamacro.obj
 0001:00008100       _FOSF_ACTIVE               10009100     luamacro.obj
 0001:00008108       _FOSF_NONE                 10009108     luamacro.obj
 0001:00008110       _DIF_BOXCOLOR              10009110     luamacro.obj
 0001:00008118       _DIF_GROUP                 10009118     luamacro.obj
 0001:00008120       _DIF_LEFTTEXT              10009120     luamacro.obj
 0001:00008128       _DIF_MOVESELECT            10009128     luamacro.obj
 0001:00008130       _DIF_SHOWAMPERSAND         10009130     luamacro.obj
 0001:00008138       _DIF_CENTERGROUP           10009138     luamacro.obj
 0001:00008140       _DIF_NOBRACKETS            10009140     luamacro.obj
 0001:00008148       _DIF_MANUALADDHISTORY      10009148     luamacro.obj
 0001:00008150       _DIF_SEPARATOR             10009150     luamacro.obj
 0001:00008158       _DIF_SEPARATOR2            10009158     luamacro.obj
 0001:00008160       _DIF_EDITOR                10009160     luamacro.obj
 0001:00008168       _DIF_LISTNOAMPERSAND       10009168     luamacro.obj
 0001:00008170       _DIF_LISTNOBOX             10009170     luamacro.obj
 0001:00008178       _DIF_HISTORY               10009178     luamacro.obj
 0001:00008180       _DIF_BTNNOCLOSE            10009180     luamacro.obj
 0001:00008188       _DIF_CENTERTEXT            10009188     luamacro.obj
 0001:00008190       _DIF_SEPARATORUSER         10009190     luamacro.obj
 0001:00008198       _DIF_SETSHIELD             10009198     luamacro.obj
 0001:000081a0       _DIF_EDITEXPAND            100091a0     luamacro.obj
 0001:000081a8       _DIF_DROPDOWNLIST          100091a8     luamacro.obj
 0001:000081b0       _DIF_USELASTHISTORY        100091b0     luamacro.obj
 0001:000081b8       _DIF_MASKEDIT              100091b8     luamacro.obj
 0001:000081c0       _DIF_LISTTRACKMOUSE        100091c0     luamacro.obj
 0001:000081c8       _DIF_LISTTRACKMOUSEINFOCUS 100091c8     luamacro.obj
 0001:000081d0       _DIF_SELECTONENTRY         100091d0     luamacro.obj
 0001:000081d8       _DIF_3STATE                100091d8     luamacro.obj
 0001:000081e0       _DIF_EDITPATH              100091e0     luamacro.obj
 0001:000081e8       _DIF_LISTWRAPMODE          100091e8     luamacro.obj
 0001:000081f0       _DIF_NOAUTOCOMPLETE        100091f0     luamacro.obj
 0001:000081f8       _DIF_LISTAUTOHIGHLIGHT     100091f8     luamacro.obj
 0001:00008200       _DIF_LISTNOCLOSE           10009200     luamacro.obj
 0001:00008208       _DIF_EDITPATHEXEC          10009208     luamacro.obj
 0001:00008210       _DIF_HIDDEN                10009210     luamacro.obj
 0001:00008218       _DIF_READONLY              10009218     luamacro.obj
 0001:00008220       _DIF_NOFOCUS               10009220     luamacro.obj
 0001:00008228       _DIF_DISABLE               10009228     luamacro.obj
 0001:00008230       _DIF_DEFAULTBUTTON         10009230     luamacro.obj
 0001:00008238       _DIF_FOCUS                 10009238     luamacro.obj
 0001:00008240       _DIF_RIGHTTEXT             10009240     luamacro.obj
 0001:00008248       _DIF_WORDWRAP              10009248     luamacro.obj
 0001:00008250       _DIF_NONE                  10009250     luamacro.obj
 0001:00008258       _LuamacroGuid              10009258     luamacro.obj
 0001:00008268       _ECF_TABMARKFIRST          10009268     luamacro.obj
 0001:00008270       _ECF_TABMARKCURRENT        10009270     luamacro.obj
 0001:00008278       _FIB_ENABLEEMPTY           10009278     luamacro.obj
 0001:00008280       _FIB_PASSWORD              10009280     luamacro.obj
 0001:00008288       _FIB_EXPANDENV             10009288     luamacro.obj
 0001:00008290       _FIB_NOUSELASTHISTORY      10009290     luamacro.obj
 0001:00008298       _FIB_BUTTONS               10009298     luamacro.obj
 0001:000082a0       _FIB_NOAMPERSAND           100092a0     luamacro.obj
 0001:000082a8       _FIB_EDITPATH              100092a8     luamacro.obj
 0001:000082b0       _PCIF_FROMMAIN             100092b0     luamacro.obj
 0001:000082b8       _FIB_EDITPATHEXEC          100092b8     luamacro.obj
 0001:000082c0       _FIB_NONE                  100092c0     luamacro.obj
 0001:000082c8       _PCIF_NONE                 100092c8     luamacro.obj
 0001:000082d0       _LIF_SELECTED              100092d0     luamacro.obj
 0001:000082d8       _LIF_CHECKED               100092d8     luamacro.obj
 0001:000082e0       _LIF_SEPARATOR             100092e0     luamacro.obj
 0001:000082e8       _LIF_DISABLE               100092e8     luamacro.obj
 0001:000082f0       _LIF_GRAYED                100092f0     luamacro.obj
 0001:000082f8       _LIF_HIDDEN                100092f8     luamacro.obj
 0001:00008300       _LIF_DELETEUSERDATA        10009300     luamacro.obj
 0001:00008308       _LIF_NONE                  10009308     luamacro.obj
 0001:00008310       _FPF_LOADED                10009310     luamacro.obj
 0001:00008318       _FPF_ANSI                  10009318     luamacro.obj
 0001:00008320       _FPF_NONE                  10009320     luamacro.obj
 0001:00008328       _FarGuid                   10009328     luamacro.obj
 0001:00008338       _LIFIND_EXACTMATCH         10009338     luamacro.obj
 0001:00008340       _LIFIND_NONE               10009340     luamacro.obj
 0001:00008348       _LINFO_SHOWNOBOX           10009348     luamacro.obj
 0001:00008350       _LINFO_AUTOHIGHLIGHT       10009350     luamacro.obj
 0001:00008358       _LINFO_REVERSEHIGHLIGHT    10009358     luamacro.obj
 0001:00008360       _LINFO_WRAPMODE            10009360     luamacro.obj
 0001:00008368       _LINFO_SHOWAMPERSAND       10009368     luamacro.obj
 0001:00008370       _LINFO_NONE                10009370     luamacro.obj
 0001:00008378       _FDLG_WARNING              10009378     luamacro.obj
 0001:00008380       _FDLG_SMALLDIALOG          10009380     luamacro.obj
 0001:00008388       _FDLG_NODRAWSHADOW         10009388     luamacro.obj
 0001:00008390       _FDLG_NODRAWPANEL          10009390     luamacro.obj
 0001:00008398       _FDLG_KEEPCONSOLETITLE     10009398     luamacro.obj
 0001:000083a0       _FDLG_NONE                 100093a0     luamacro.obj
 0001:000083a8       _MIF_SELECTED              100093a8     luamacro.obj
 0001:000083b0       _MIF_CHECKED               100093b0     luamacro.obj
 0001:000083b8       _MIF_SEPARATOR             100093b8     luamacro.obj
 0001:000083c0       _MIF_DISABLE               100093c0     luamacro.obj
 0001:000083c8       _MIF_GRAYED                100093c8     luamacro.obj
 0001:000083d0       _MIF_HIDDEN                100093d0     luamacro.obj
 0001:000083d8       _MIF_NONE                  100093d8     luamacro.obj
 0001:000083e0       _FMENU_SHOWAMPERSAND       100093e0     luamacro.obj
 0001:000083e8       _FMENU_WRAPMODE            100093e8     luamacro.obj
 0001:000083f0       _FMENU_AUTOHIGHLIGHT       100093f0     luamacro.obj
 0001:000083f8       _FMENU_REVERSEAUTOHIGHLIGHT 100093f8     luamacro.obj
 0001:00008400       _FMENU_CHANGECONSOLETITLE  10009400     luamacro.obj
 0001:00008408       _FMENU_NONE                10009408     luamacro.obj
 0001:00008410       _PPIF_SELECTED             10009410     luamacro.obj
 0001:00008418       _PPIF_PROCESSDESCR         10009418     luamacro.obj
 0001:00008420       _PPIF_NONE                 10009420     luamacro.obj
 0001:00008428       _PFLAGS_SHOWHIDDEN         10009428     luamacro.obj
 0001:00008430       _PFLAGS_HIGHLIGHT          10009430     luamacro.obj
 0001:00008438       _PFLAGS_REVERSESORTORDER   10009438     luamacro.obj
 0001:00008440       _PFLAGS_USESORTGROUPS      10009440     luamacro.obj
 0001:00008448       _PFLAGS_SELECTEDFIRST      10009448     luamacro.obj
 0001:00008450       _PFLAGS_REALNAMES          10009450     luamacro.obj
 0001:00008458       _PFLAGS_NUMERICSORT        10009458     luamacro.obj
 0001:00008460       _PFLAGS_PANELLEFT          10009460     luamacro.obj
 0001:00008468       _PFLAGS_DIRECTORIESFIRST   10009468     luamacro.obj
 0001:00008470       _PFLAGS_USECRC32           10009470     luamacro.obj
 0001:00008478       _PFLAGS_CASESENSITIVESORT  10009478     luamacro.obj
 0001:00008480       _PFLAGS_PLUGIN             10009480     luamacro.obj
 0001:00008488       _PFLAGS_VISIBLE            10009488     luamacro.obj
 0001:00008490       _PFLAGS_FOCUS              10009490     luamacro.obj
 0001:00008498       _PFLAGS_ALTERNATIVENAMES   10009498     luamacro.obj
 0001:000084a0       _PFLAGS_SHORTCUT           100094a0     luamacro.obj
 0001:000084a8       _PFLAGS_NONE               100094a8     luamacro.obj
 0001:000084b0       _PN_CMPNAME                100094b0     luamacro.obj
 0001:000084b8       _PN_CMPNAMELIST            100094b8     luamacro.obj
 0001:000084c0       _PN_GENERATENAME           100094c0     luamacro.obj
 0001:000084c8       _PN_CHECKMASK              100094c8     luamacro.obj
 0001:000084d0       _PN_SKIPPATH               100094d0     luamacro.obj
 0001:000084d8       _PN_SHOWERRORMESSAGE       100094d8     luamacro.obj
 0001:000084e0       _XLAT_SWITCHKEYBLAYOUT     100094e0     luamacro.obj
 0001:000084e8       _XLAT_SWITCHKEYBBEEP       100094e8     luamacro.obj
 0001:000084f0       _XLAT_USEKEYBLAYOUTNAME    100094f0     luamacro.obj
 0001:000084f8       _XLAT_CONVERTALLCMDLINE    100094f8     luamacro.obj
 0001:00008500       _XLAT_NONE                 10009500     luamacro.obj
 0001:00008508       _FRS_RETUPDIR              10009508     luamacro.obj
 0001:00008510       _FRS_RECUR                 10009510     luamacro.obj
 0001:00008518       _FRS_SCANSYMLINK           10009518     luamacro.obj
 0001:00008520       _VF_NONMODAL               10009520     luamacro.obj
 0001:00008528       _VF_DELETEONCLOSE          10009528     luamacro.obj
 0001:00008530       _VF_ENABLE_F6              10009530     luamacro.obj
 0001:00008538       _VF_DISABLEHISTORY         10009538     luamacro.obj
 0001:00008540       _VF_IMMEDIATERETURN        10009540     luamacro.obj
 0001:00008548       _VF_DELETEONLYFILEONCLOSE  10009548     luamacro.obj
 0001:00008550       _VF_NONE                   10009550     luamacro.obj
 0001:00008558       _MLF_SHOWERRMSG            10009558     luamacro.obj
 0001:00008560       _MLF_DONOTUPDATEPANEL      10009560     luamacro.obj
 0001:00008568       _MLF_NONE                  10009568     luamacro.obj
 0001:00008570       _EF_NONMODAL               10009570     luamacro.obj
 0001:00008578       _EF_CREATENEW              10009578     luamacro.obj
 0001:00008580       _EF_ENABLE_F6              10009580     luamacro.obj
 0001:00008588       _EF_DISABLEHISTORY         10009588     luamacro.obj
 0001:00008590       _EF_DELETEONCLOSE          10009590     luamacro.obj
 0001:00008598       _EF_IMMEDIATERETURN        10009598     luamacro.obj
 0001:000085a0       _EF_DELETEONLYFILEONCLOSE  100095a0     luamacro.obj
 0001:000085a8       _EF_LOCKED                 100095a8     luamacro.obj
 0001:000085b0       _EF_DISABLESAVEPOS         100095b0     luamacro.obj
 0001:000085b8       _EN_NONE                   100095b8     luamacro.obj
 0001:000085c0       _FFFS_COMMAS               100095c0     luamacro.obj
 0001:000085c8       _FFFS_FLOATSIZE            100095c8     luamacro.obj
 0001:000085d0       _FFFS_SHOWBYTESINDEX       100095d0     luamacro.obj
 0001:000085d8       _FFFS_ECONOMIC             100095d8     luamacro.obj
 0001:000085e0       _FFFS_THOUSAND             100095e0     luamacro.obj
 0001:000085e8       _FFFS_MINSIZEINDEX         100095e8     luamacro.obj
 0001:000085f0       _FFFS_MINSIZEINDEX_MASK    100095f0     luamacro.obj
 0001:000085f8       _FHELP_NOSHOWERROR         100095f8     luamacro.obj
 0001:00008600       _FHELP_SELFHELP            10009600     luamacro.obj
 0001:00008608       _FHELP_FARHELP             10009608     luamacro.obj
 0001:00008610       _FHELP_CUSTOMFILE          10009610     luamacro.obj
 0001:00008618       _FHELP_CUSTOMPATH          10009618     luamacro.obj
 0001:00008620       _FHELP_GUID                10009620     luamacro.obj
 0001:00008628       _FHELP_USECONTENTS         10009628     luamacro.obj
 0001:00008630       _FHELP_NONE                10009630     luamacro.obj
 0001:00008730       _FDLG_WARNING              10009730     lusercontrol.obj
 0001:00008738       _FDLG_SMALLDIALOG          10009738     lusercontrol.obj
 0001:00008740       _FDLG_NODRAWSHADOW         10009740     lusercontrol.obj
 0001:00008748       _FDLG_NODRAWPANEL          10009748     lusercontrol.obj
 0001:00008750       _FDLG_KEEPCONSOLETITLE     10009750     lusercontrol.obj
 0001:00008758       _FDLG_NONE                 10009758     lusercontrol.obj
 0001:00008760       _MIF_SELECTED              10009760     lusercontrol.obj
 0001:00008768       _MIF_CHECKED               10009768     lusercontrol.obj
 0001:00008770       _MIF_SEPARATOR             10009770     lusercontrol.obj
 0001:00008778       _MIF_DISABLE               10009778     lusercontrol.obj
 0001:00008780       _MIF_GRAYED                10009780     lusercontrol.obj
 0001:00008788       _MIF_HIDDEN                10009788     lusercontrol.obj
 0001:00008790       _MIF_NONE                  10009790     lusercontrol.obj
 0001:00008798       _FMENU_SHOWAMPERSAND       10009798     lusercontrol.obj
 0001:000087a0       _FMENU_WRAPMODE            100097a0     lusercontrol.obj
 0001:000087a8       _FMENU_AUTOHIGHLIGHT       100097a8     lusercontrol.obj
 0001:000087b0       _FMENU_REVERSEAUTOHIGHLIGHT 100097b0     lusercontrol.obj
 0001:000087b8       _FMENU_CHANGECONSOLETITLE  100097b8     lusercontrol.obj
 0001:000087c0       _FMENU_NONE                100097c0     lusercontrol.obj
 0001:000087c8       _PPIF_SELECTED             100097c8     lusercontrol.obj
 0001:000087d0       _PPIF_PROCESSDESCR         100097d0     lusercontrol.obj
 0001:000087d8       _PPIF_NONE                 100097d8     lusercontrol.obj
 0001:000087e0       _PFLAGS_SHOWHIDDEN         100097e0     lusercontrol.obj
 0001:000087e8       _PFLAGS_HIGHLIGHT          100097e8     lusercontrol.obj
 0001:000087f0       _PFLAGS_REVERSESORTORDER   100097f0     lusercontrol.obj
 0001:000087f8       _PFLAGS_USESORTGROUPS      100097f8     lusercontrol.obj
 0001:00008800       _PFLAGS_SELECTEDFIRST      10009800     lusercontrol.obj
 0001:00008808       _PFLAGS_REALNAMES          10009808     lusercontrol.obj
 0001:00008810       _PFLAGS_NUMERICSORT        10009810     lusercontrol.obj
 0001:00008818       _PFLAGS_PANELLEFT          10009818     lusercontrol.obj
 0001:00008820       _PFLAGS_DIRECTORIESFIRST   10009820     lusercontrol.obj
 0001:00008828       _PFLAGS_USECRC32           10009828     lusercontrol.obj
 0001:00008830       _PFLAGS_CASESENSITIVESORT  10009830     lusercontrol.obj
 0001:00008838       _PFLAGS_PLUGIN             10009838     lusercontrol.obj
 0001:00008840       _PFLAGS_VISIBLE            10009840     lusercontrol.obj
 0001:00008848       _PFLAGS_FOCUS              10009848     lusercontrol.obj
 0001:00008850       _PFLAGS_ALTERNATIVENAMES   10009850     lusercontrol.obj
 0001:00008858       _PFLAGS_SHORTCUT           10009858     lusercontrol.obj
 0001:00008860       _PFLAGS_NONE               10009860     lusercontrol.obj
 0001:000088a0       _PN_CMPNAME                100098a0     lusercontrol.obj
 0001:000088a8       _PN_CMPNAMELIST            100098a8     lusercontrol.obj
 0001:000088b0       _PN_GENERATENAME           100098b0     lusercontrol.obj
 0001:000088b8       _PN_CHECKMASK              100098b8     lusercontrol.obj
 0001:000088c0       _PN_SKIPPATH               100098c0     lusercontrol.obj
 0001:000088c8       _PN_SHOWERRORMESSAGE       100098c8     lusercontrol.obj
 0001:000088d0       _XLAT_SWITCHKEYBLAYOUT     100098d0     lusercontrol.obj
 0001:000088d8       _XLAT_SWITCHKEYBBEEP       100098d8     lusercontrol.obj
 0001:000088e0       _XLAT_USEKEYBLAYOUTNAME    100098e0     lusercontrol.obj
 0001:000088e8       _XLAT_CONVERTALLCMDLINE    100098e8     lusercontrol.obj
 0001:000088f0       _XLAT_NONE                 100098f0     lusercontrol.obj
 0001:000088f8       _FRS_RETUPDIR              100098f8     lusercontrol.obj
 0001:00008900       _FRS_RECUR                 10009900     lusercontrol.obj
 0001:00008908       _FRS_SCANSYMLINK           10009908     lusercontrol.obj
 0001:00008910       _VF_NONMODAL               10009910     lusercontrol.obj
 0001:00008918       _VF_DELETEONCLOSE          10009918     lusercontrol.obj
 0001:00008920       _VF_ENABLE_F6              10009920     lusercontrol.obj
 0001:00008928       _VF_DISABLEHISTORY         10009928     lusercontrol.obj
 0001:00008930       _VF_IMMEDIATERETURN        10009930     lusercontrol.obj
 0001:00008938       _VF_DELETEONLYFILEONCLOSE  10009938     lusercontrol.obj
 0001:00008940       _VF_NONE                   10009940     lusercontrol.obj
 0001:00008948       _MLF_SHOWERRMSG            10009948     lusercontrol.obj
 0001:00008950       _MLF_DONOTUPDATEPANEL      10009950     lusercontrol.obj
 0001:00008958       _MLF_NONE                  10009958     lusercontrol.obj
 0001:00008960       _EF_NONMODAL               10009960     lusercontrol.obj
 0001:00008968       _EF_CREATENEW              10009968     lusercontrol.obj
 0001:00008970       _EF_ENABLE_F6              10009970     lusercontrol.obj
 0001:00008978       _EF_DISABLEHISTORY         10009978     lusercontrol.obj
 0001:00008980       _EF_DELETEONCLOSE          10009980     lusercontrol.obj
 0001:00008988       _EF_IMMEDIATERETURN        10009988     lusercontrol.obj
 0001:00008990       _EF_DELETEONLYFILEONCLOSE  10009990     lusercontrol.obj
 0001:00008998       _EF_LOCKED                 10009998     lusercontrol.obj
 0001:000089a0       _EF_DISABLESAVEPOS         100099a0     lusercontrol.obj
 0001:000089a8       _EN_NONE                   100099a8     lusercontrol.obj
 0001:000089b0       _FFFS_COMMAS               100099b0     lusercontrol.obj
 0001:000089b8       _FFFS_FLOATSIZE            100099b8     lusercontrol.obj
 0001:000089c0       _FFFS_SHOWBYTESINDEX       100099c0     lusercontrol.obj
 0001:000089c8       _FFFS_ECONOMIC             100099c8     lusercontrol.obj
 0001:000089d0       _FFFS_THOUSAND             100099d0     lusercontrol.obj
 0001:000089d8       _FFFS_MINSIZEINDEX         100099d8     lusercontrol.obj
 0001:000089e0       _FFFS_MINSIZEINDEX_MASK    100099e0     lusercontrol.obj
 0001:000089e8       _FHELP_NOSHOWERROR         100099e8     lusercontrol.obj
 0001:000089f0       _FHELP_SELFHELP            100099f0     lusercontrol.obj
 0001:000089f8       _FHELP_FARHELP             100099f8     lusercontrol.obj
 0001:00008a00       _FHELP_CUSTOMFILE          10009a00     lusercontrol.obj
 0001:00008a08       _FHELP_CUSTOMPATH          10009a08     lusercontrol.obj
 0001:00008a10       _FHELP_GUID                10009a10     lusercontrol.obj
 0001:00008a18       _FHELP_USECONTENTS         10009a18     lusercontrol.obj
 0001:00008a20       _FHELP_NONE                10009a20     lusercontrol.obj
 0001:00008a28       _KMFLAGS_SILENTCHECK       10009a28     lusercontrol.obj
 0001:00008a30       _KMFLAGS_DISABLEOUTPUT     10009a30     lusercontrol.obj
 0001:00008a38       _KMFLAGS_NOSENDKEYSTOPLUGINS 10009a38     lusercontrol.obj
 0001:00008a40       _KMFLAGS_ENABLEOUTPUT      10009a40     lusercontrol.obj
 0001:00008a48       _KMFLAGS_NONE              10009a48     lusercontrol.obj
 0001:00008a50       _AKMFLAGS_NONE             10009a50     lusercontrol.obj
 0001:00008a58       _FSETCLR_REDRAW            10009a58     lusercontrol.obj
 0001:00008a60       _FSETCLR_NONE              10009a60     lusercontrol.obj
 0001:00008a68       _PF_PRELOAD                10009a68     lusercontrol.obj
 0001:00008a70       _PF_DISABLEPANELS          10009a70     lusercontrol.obj
 0001:00008a78       _PF_EDITOR                 10009a78     lusercontrol.obj
 0001:00008a80       _PF_VIEWER                 10009a80     lusercontrol.obj
 0001:00008a88       _PF_FULLCMDLINE            10009a88     lusercontrol.obj
 0001:00008a90       _PF_DIALOG                 10009a90     lusercontrol.obj
 0001:00008a98       _PF_NONE                   10009a98     lusercontrol.obj
 0001:00008aa0       _WIF_MODIFIED              10009aa0     lusercontrol.obj
 0001:00008aa8       _WIF_CURRENT               10009aa8     lusercontrol.obj
 0001:00008ab0       _WIF_MODAL                 10009ab0     lusercontrol.obj
 0001:00008ab8       _VOPT_SAVEFILEPOSITION     10009ab8     lusercontrol.obj
 0001:00008ac0       _VOPT_AUTODETECTCODEPAGE   10009ac0     lusercontrol.obj
 0001:00008ac8       _VOPT_NONE                 10009ac8     lusercontrol.obj
 0001:00008ad0       _VSMFL_REDRAW              10009ad0     lusercontrol.obj
 0001:00008ad8       _IPLFLAGS_SEPARATOR        10009ad8     lusercontrol.obj
 0001:00008ae0       _VSP_NOREDRAW              10009ae0     lusercontrol.obj
 0001:00008ae8       _VSP_PERCENT               10009ae8     lusercontrol.obj
 0001:00008af0       _VSP_RELATIVE              10009af0     lusercontrol.obj
 0001:00008af8       _VSP_NORETNEWPOS           10009af8     lusercontrol.obj
 0001:00008b00       _PMFLAGS_FULLSCREEN        10009b00     lusercontrol.obj
 0001:00008b08       _PMFLAGS_DETAILEDSTATUS    10009b08     lusercontrol.obj
 0001:00008b10       _PMFLAGS_ALIGNEXTENSIONS   10009b10     lusercontrol.obj
 0001:00008b18       _PMFLAGS_CASECONVERSION    10009b18     lusercontrol.obj
 0001:00008b20       _VMF_WRAP                  10009b20     lusercontrol.obj
 0001:00008b28       _VMF_WORDWRAP              10009b28     lusercontrol.obj
 0001:00008b30       _OPIF_DISABLEFILTER        10009b30     lusercontrol.obj
 0001:00008b38       _OPIF_DISABLESORTGROUPS    10009b38     lusercontrol.obj
 0001:00008b40       _OPIF_DISABLEHIGHLIGHTING  10009b40     lusercontrol.obj
 0001:00008b48       _OPIF_ADDDOTS              10009b48     lusercontrol.obj
 0001:00008b50       _OPIF_RAWSELECTION         10009b50     lusercontrol.obj
 0001:00008b58       _OPIF_REALNAMES            10009b58     lusercontrol.obj
 0001:00008b60       _OPIF_SHOWNAMESONLY        10009b60     lusercontrol.obj
 0001:00008b68       _OPIF_SHOWRIGHTALIGNNAMES  10009b68     lusercontrol.obj
 0001:00008b70       _OPIF_SHOWPRESERVECASE     10009b70     lusercontrol.obj
 0001:00008b78       _OPIF_COMPAREFATTIME       10009b78     lusercontrol.obj
 0001:00008b80       _OPIF_EXTERNALGET          10009b80     lusercontrol.obj
 0001:00008b88       _OPIF_EXTERNALPUT          10009b88     lusercontrol.obj
 0001:00008b90       _OPIF_EXTERNALDELETE       10009b90     lusercontrol.obj
 0001:00008b98       _OPIF_EXTERNALMKDIR        10009b98     lusercontrol.obj
 0001:00008ba0       _OPIF_USEATTRHIGHLIGHTING  10009ba0     lusercontrol.obj
 0001:00008ba8       _OPIF_USECRC32             10009ba8     lusercontrol.obj
 0001:00008bb0       _OPIF_USEFREESIZE          10009bb0     lusercontrol.obj
 0001:00008bb8       _OPIF_SHORTCUT             10009bb8     lusercontrol.obj
 0001:00008bc0       _OPIF_NONE                 10009bc0     lusercontrol.obj
 0001:00008bc8       _OPM_SILENT                10009bc8     lusercontrol.obj
 0001:00008bd0       _OPM_FIND                  10009bd0     lusercontrol.obj
 0001:00008bd8       _OPM_VIEW                  10009bd8     lusercontrol.obj
 0001:00008be0       _OPM_EDIT                  10009be0     lusercontrol.obj
 0001:00008be8       _OPM_TOPLEVEL              10009be8     lusercontrol.obj
 0001:00008bf0       _OPM_DESCR                 10009bf0     lusercontrol.obj
 0001:00008bf8       _OPM_QUICKVIEW             10009bf8     lusercontrol.obj
 0001:00008c00       _OPM_PGDN                  10009c00     lusercontrol.obj
 0001:00008c08       _FCF_FG_4BIT               10009c08     lusercontrol.obj
 0001:00008c10       _OPM_COMMANDS              10009c10     lusercontrol.obj
 0001:00008c18       _FCF_BG_4BIT               10009c18     lusercontrol.obj
 0001:00008c20       _OPM_NONE                  10009c20     lusercontrol.obj
 0001:00008c28       _FCF_4BITMASK              10009c28     lusercontrol.obj
 0001:00008c30       _FCF_EXTENDEDFLAGS         10009c30     lusercontrol.obj
 0001:00008c38       _FCF_FG_BOLD               10009c38     lusercontrol.obj
 0001:00008c40       _FCF_FG_ITALIC             10009c40     lusercontrol.obj
 0001:00008c48       _FCF_FG_UNDERLINE          10009c48     lusercontrol.obj
 0001:00008c50       _FCF_STYLEMASK             10009c50     lusercontrol.obj
 0001:00008c58       _FCF_NONE                  10009c58     lusercontrol.obj
 0001:00008c60       _CDF_NONE                  10009c60     lusercontrol.obj
 0001:00008c68       _FMSG_WARNING              10009c68     lusercontrol.obj
 0001:00008c70       _FMSG_ERRORTYPE            10009c70     lusercontrol.obj
 0001:00008c78       _FMSG_KEEPBACKGROUND       10009c78     lusercontrol.obj
 0001:00008c80       _FMSG_LEFTALIGN            10009c80     lusercontrol.obj
 0001:00008c88       _FMSG_ALLINONE             10009c88     lusercontrol.obj
 0001:00008c90       _FMSG_MB_OK                10009c90     lusercontrol.obj
 0001:00008c98       _FMSG_MB_OKCANCEL          10009c98     lusercontrol.obj
 0001:00008ca0       _FMSG_MB_ABORTRETRYIGNORE  10009ca0     lusercontrol.obj
 0001:00008ca8       _FMSG_MB_YESNO             10009ca8     lusercontrol.obj
 0001:00008cb0       _FMSG_MB_YESNOCANCEL       10009cb0     lusercontrol.obj
 0001:00008cb8       _FMSG_MB_RETRYCANCEL       10009cb8     lusercontrol.obj
 0001:00008cc0       _FMSG_NONE                 10009cc0     lusercontrol.obj
 0001:00008cc8       _FOSF_ACTIVE               10009cc8     lusercontrol.obj
 0001:00008cd0       _FOSF_NONE                 10009cd0     lusercontrol.obj
 0001:00008cd8       _DIF_BOXCOLOR              10009cd8     lusercontrol.obj
 0001:00008ce0       _DIF_GROUP                 10009ce0     lusercontrol.obj
 0001:00008ce8       _DIF_LEFTTEXT              10009ce8     lusercontrol.obj
 0001:00008cf0       _DIF_MOVESELECT            10009cf0     lusercontrol.obj
 0001:00008cf8       _DIF_SHOWAMPERSAND         10009cf8     lusercontrol.obj
 0001:00008d00       _DIF_CENTERGROUP           10009d00     lusercontrol.obj
 0001:00008d08       _DIF_NOBRACKETS            10009d08     lusercontrol.obj
 0001:00008d10       _DIF_MANUALADDHISTORY      10009d10     lusercontrol.obj
 0001:00008d18       _DIF_SEPARATOR             10009d18     lusercontrol.obj
 0001:00008d20       _DIF_SEPARATOR2            10009d20     lusercontrol.obj
 0001:00008d28       _DIF_EDITOR                10009d28     lusercontrol.obj
 0001:00008d30       _DIF_LISTNOAMPERSAND       10009d30     lusercontrol.obj
 0001:00008d38       _DIF_LISTNOBOX             10009d38     lusercontrol.obj
 0001:00008d40       _DIF_HISTORY               10009d40     lusercontrol.obj
 0001:00008d48       _DIF_BTNNOCLOSE            10009d48     lusercontrol.obj
 0001:00008d50       _DIF_CENTERTEXT            10009d50     lusercontrol.obj
 0001:00008d58       _DIF_SEPARATORUSER         10009d58     lusercontrol.obj
 0001:00008d60       _DIF_SETSHIELD             10009d60     lusercontrol.obj
 0001:00008d68       _DIF_EDITEXPAND            10009d68     lusercontrol.obj
 0001:00008d70       _DIF_DROPDOWNLIST          10009d70     lusercontrol.obj
 0001:00008d78       _DIF_USELASTHISTORY        10009d78     lusercontrol.obj
 0001:00008d80       _DIF_MASKEDIT              10009d80     lusercontrol.obj
 0001:00008d88       _DIF_LISTTRACKMOUSE        10009d88     lusercontrol.obj
 0001:00008d90       _DIF_LISTTRACKMOUSEINFOCUS 10009d90     lusercontrol.obj
 0001:00008d98       _DIF_SELECTONENTRY         10009d98     lusercontrol.obj
 0001:00008da0       _DIF_3STATE                10009da0     lusercontrol.obj
 0001:00008da8       _DIF_EDITPATH              10009da8     lusercontrol.obj
 0001:00008db0       _DIF_LISTWRAPMODE          10009db0     lusercontrol.obj
 0001:00008db8       _DIF_NOAUTOCOMPLETE        10009db8     lusercontrol.obj
 0001:00008dc0       _DIF_LISTAUTOHIGHLIGHT     10009dc0     lusercontrol.obj
 0001:00008dc8       _DIF_LISTNOCLOSE           10009dc8     lusercontrol.obj
 0001:00008dd0       _DIF_EDITPATHEXEC          10009dd0     lusercontrol.obj
 0001:00008dd8       _DIF_HIDDEN                10009dd8     lusercontrol.obj
 0001:00008de0       _DIF_READONLY              10009de0     lusercontrol.obj
 0001:00008de8       _DIF_NOFOCUS               10009de8     lusercontrol.obj
 0001:00008df0       _DIF_DISABLE               10009df0     lusercontrol.obj
 0001:00008df8       _DIF_DEFAULTBUTTON         10009df8     lusercontrol.obj
 0001:00008e00       _DIF_FOCUS                 10009e00     lusercontrol.obj
 0001:00008e08       _DIF_RIGHTTEXT             10009e08     lusercontrol.obj
 0001:00008e10       _DIF_WORDWRAP              10009e10     lusercontrol.obj
 0001:00008e18       _DIF_NONE                  10009e18     lusercontrol.obj
 0001:00008e20       _ECF_TABMARKFIRST          10009e20     lusercontrol.obj
 0001:00008e28       _ECF_TABMARKCURRENT        10009e28     lusercontrol.obj
 0001:00008e30       _FIB_ENABLEEMPTY           10009e30     lusercontrol.obj
 0001:00008e38       _FIB_PASSWORD              10009e38     lusercontrol.obj
 0001:00008e40       _FIB_EXPANDENV             10009e40     lusercontrol.obj
 0001:00008e48       _FIB_NOUSELASTHISTORY      10009e48     lusercontrol.obj
 0001:00008e50       _FIB_BUTTONS               10009e50     lusercontrol.obj
 0001:00008e58       _FIB_NOAMPERSAND           10009e58     lusercontrol.obj
 0001:00008e60       _FIB_EDITPATH              10009e60     lusercontrol.obj
 0001:00008e68       _PCIF_FROMMAIN             10009e68     lusercontrol.obj
 0001:00008e70       _FIB_EDITPATHEXEC          10009e70     lusercontrol.obj
 0001:00008e78       _FIB_NONE                  10009e78     lusercontrol.obj
 0001:00008e80       _PCIF_NONE                 10009e80     lusercontrol.obj
 0001:00008e88       _LIF_SELECTED              10009e88     lusercontrol.obj
 0001:00008e90       _LIF_CHECKED               10009e90     lusercontrol.obj
 0001:00008e98       _LIF_SEPARATOR             10009e98     lusercontrol.obj
 0001:00008ea0       _LIF_DISABLE               10009ea0     lusercontrol.obj
 0001:00008ea8       _LIF_GRAYED                10009ea8     lusercontrol.obj
 0001:00008eb0       _LIF_HIDDEN                10009eb0     lusercontrol.obj
 0001:00008eb8       _LIF_DELETEUSERDATA        10009eb8     lusercontrol.obj
 0001:00008ec0       _LIF_NONE                  10009ec0     lusercontrol.obj
 0001:00008ec8       _FPF_LOADED                10009ec8     lusercontrol.obj
 0001:00008ed0       _FPF_ANSI                  10009ed0     lusercontrol.obj
 0001:00008ed8       _FPF_NONE                  10009ed8     lusercontrol.obj
 0001:00008ee0       _FarGuid                   10009ee0     lusercontrol.obj
 0001:00008ef0       _LIFIND_EXACTMATCH         10009ef0     lusercontrol.obj
 0001:00008ef8       _LIFIND_NONE               10009ef8     lusercontrol.obj
 0001:00008f00       _LINFO_SHOWNOBOX           10009f00     lusercontrol.obj
 0001:00008f08       _LINFO_AUTOHIGHLIGHT       10009f08     lusercontrol.obj
 0001:00008f10       _LINFO_REVERSEHIGHLIGHT    10009f10     lusercontrol.obj
 0001:00008f18       _LINFO_WRAPMODE            10009f18     lusercontrol.obj
 0001:00008f20       _LINFO_SHOWAMPERSAND       10009f20     lusercontrol.obj
 0001:00008f28       _LINFO_NONE                10009f28     lusercontrol.obj
 0001:00008fc0       _PN_GENERATENAME           10009fc0     service.obj
 0001:00008fc8       _PN_CHECKMASK              10009fc8     service.obj
 0001:00008fd0       _PN_SKIPPATH               10009fd0     service.obj
 0001:00008fd8       _PN_SHOWERRORMESSAGE       10009fd8     service.obj
 0001:00008fe0       _XLAT_SWITCHKEYBLAYOUT     10009fe0     service.obj
 0001:00008fe8       _XLAT_SWITCHKEYBBEEP       10009fe8     service.obj
 0001:00008ff0       _XLAT_USEKEYBLAYOUTNAME    10009ff0     service.obj
 0001:00008ff8       _XLAT_CONVERTALLCMDLINE    10009ff8     service.obj
 0001:00009000       _XLAT_NONE                 1000a000     service.obj
 0001:00009008       _FRS_RETUPDIR              1000a008     service.obj
 0001:00009010       _FRS_RECUR                 1000a010     service.obj
 0001:00009018       _FRS_SCANSYMLINK           1000a018     service.obj
 0001:00009020       _VF_NONMODAL               1000a020     service.obj
 0001:00009028       _VF_DELETEONCLOSE          1000a028     service.obj
 0001:00009030       _VF_ENABLE_F6              1000a030     service.obj
 0001:00009038       _VF_DISABLEHISTORY         1000a038     service.obj
 0001:00009040       _VF_IMMEDIATERETURN        1000a040     service.obj
 0001:00009048       _VF_DELETEONLYFILEONCLOSE  1000a048     service.obj
 0001:00009050       _VF_NONE                   1000a050     service.obj
 0001:00009058       _MLF_SHOWERRMSG            1000a058     service.obj
 0001:00009060       _MLF_DONOTUPDATEPANEL      1000a060     service.obj
 0001:00009068       _MLF_NONE                  1000a068     service.obj
 0001:00009070       _EF_NONMODAL               1000a070     service.obj
 0001:00009078       _EF_CREATENEW              1000a078     service.obj
 0001:00009080       _EF_ENABLE_F6              1000a080     service.obj
 0001:00009088       _EF_DISABLEHISTORY         1000a088     service.obj
 0001:00009090       _EF_DELETEONCLOSE          1000a090     service.obj
 0001:00009098       _EF_IMMEDIATERETURN        1000a098     service.obj
 0001:000090a0       _EF_DELETEONLYFILEONCLOSE  1000a0a0     service.obj
 0001:000090a8       _EF_LOCKED                 1000a0a8     service.obj
 0001:000090b0       _EF_DISABLESAVEPOS         1000a0b0     service.obj
 0001:000090b8       _EN_NONE                   1000a0b8     service.obj
 0001:000090c0       _FFFS_COMMAS               1000a0c0     service.obj
 0001:000090c8       _FFFS_FLOATSIZE            1000a0c8     service.obj
 0001:000090d0       _FFFS_SHOWBYTESINDEX       1000a0d0     service.obj
 0001:000090d8       _FFFS_ECONOMIC             1000a0d8     service.obj
 0001:000090e0       _FFFS_THOUSAND             1000a0e0     service.obj
 0001:000090e8       _FFFS_MINSIZEINDEX         1000a0e8     service.obj
 0001:000090f0       _FFFS_MINSIZEINDEX_MASK    1000a0f0     service.obj
 0001:000090f8       _FHELP_NOSHOWERROR         1000a0f8     service.obj
 0001:00009100       _FHELP_SELFHELP            1000a100     service.obj
 0001:00009108       _FHELP_FARHELP             1000a108     service.obj
 0001:00009110       _FHELP_CUSTOMFILE          1000a110     service.obj
 0001:00009118       _FHELP_CUSTOMPATH          1000a118     service.obj
 0001:00009120       _FHELP_GUID                1000a120     service.obj
 0001:00009128       _FHELP_USECONTENTS         1000a128     service.obj
 0001:00009130       _FHELP_NONE                1000a130     service.obj
 0001:00009138       ?FarGuid@?1??far_CreateSettings@@9@9 1000a138     service.obj
 0001:00009148       _KMFLAGS_SILENTCHECK       1000a148     service.obj
 0001:00009150       _KMFLAGS_DISABLEOUTPUT     1000a150     service.obj
 0001:00009158       _KMFLAGS_NOSENDKEYSTOPLUGINS 1000a158     service.obj
 0001:00009160       _KMFLAGS_ENABLEOUTPUT      1000a160     service.obj
 0001:00009168       _KMFLAGS_NONE              1000a168     service.obj
 0001:00009170       _AKMFLAGS_NONE             1000a170     service.obj
 0001:00009178       _FSETCLR_REDRAW            1000a178     service.obj
 0001:00009180       ?C@?3??far_InputRecordToName@@9@9 1000a180     service.obj
 0001:00009188       _FSETCLR_NONE              1000a188     service.obj
 0001:00009190       ?A@?3??far_InputRecordToName@@9@9 1000a190     service.obj
 0001:00009198       ?S@?3??far_InputRecordToName@@9@9 1000a198     service.obj
 0001:000091a0       _PF_PRELOAD                1000a1a0     service.obj
 0001:000091a8       _PF_DISABLEPANELS          1000a1a8     service.obj
 0001:000091b0       _PF_EDITOR                 1000a1b0     service.obj
 0001:000091b8       _PF_VIEWER                 1000a1b8     service.obj
 0001:000091c0       _PF_FULLCMDLINE            1000a1c0     service.obj
 0001:000091c8       _PF_DIALOG                 1000a1c8     service.obj
 0001:000091d0       _PF_NONE                   1000a1d0     service.obj
 0001:000091d8       _WIF_MODIFIED              1000a1d8     service.obj
 0001:000091e0       _WIF_CURRENT               1000a1e0     service.obj
 0001:000091e8       _WIF_MODAL                 1000a1e8     service.obj
 0001:000091f0       _VOPT_SAVEFILEPOSITION     1000a1f0     service.obj
 0001:000091f8       _VOPT_AUTODETECTCODEPAGE   1000a1f8     service.obj
 0001:00009200       _VOPT_NONE                 1000a200     service.obj
 0001:00009208       _VSMFL_REDRAW              1000a208     service.obj
 0001:00009238       _IPLFLAGS_SEPARATOR        1000a238     service.obj
 0001:00009278       _VSP_NOREDRAW              1000a278     service.obj
 0001:00009280       _VSP_PERCENT               1000a280     service.obj
 0001:00009288       _VSP_RELATIVE              1000a288     service.obj
 0001:00009290       _VSP_NORETNEWPOS           1000a290     service.obj
 0001:00009298       _PMFLAGS_FULLSCREEN        1000a298     service.obj
 0001:000092a0       _PMFLAGS_DETAILEDSTATUS    1000a2a0     service.obj
 0001:000092a8       _PMFLAGS_ALIGNEXTENSIONS   1000a2a8     service.obj
 0001:000092c8       _PMFLAGS_CASECONVERSION    1000a2c8     service.obj
 0001:00009320       _VMF_WRAP                  1000a320     service.obj
 0001:00009328       _VMF_WORDWRAP              1000a328     service.obj
 0001:00009330       _OPIF_DISABLEFILTER        1000a330     service.obj
 0001:00009338       _OPIF_DISABLESORTGROUPS    1000a338     service.obj
 0001:00009340       _OPIF_DISABLEHIGHLIGHTING  1000a340     service.obj
 0001:00009348       _OPIF_ADDDOTS              1000a348     service.obj
 0001:00009490       _OPIF_RAWSELECTION         1000a490     service.obj
 0001:00009498       _OPIF_REALNAMES            1000a498     service.obj
 0001:000094a0       _OPIF_SHOWNAMESONLY        1000a4a0     service.obj
 0001:000094a8       _OPIF_SHOWRIGHTALIGNNAMES  1000a4a8     service.obj
 0001:000094b0       _OPIF_SHOWPRESERVECASE     1000a4b0     service.obj
 0001:000094b8       _OPIF_COMPAREFATTIME       1000a4b8     service.obj
 0001:000094c0       _OPIF_EXTERNALGET          1000a4c0     service.obj
 0001:000094c8       _OPIF_EXTERNALPUT          1000a4c8     service.obj
 0001:000094d0       _OPIF_EXTERNALDELETE       1000a4d0     service.obj
 0001:000094d8       _OPIF_EXTERNALMKDIR        1000a4d8     service.obj
 0001:000094e0       _OPIF_USEATTRHIGHLIGHTING  1000a4e0     service.obj
 0001:000094e8       _OPIF_USECRC32             1000a4e8     service.obj
 0001:000094f0       _OPIF_USEFREESIZE          1000a4f0     service.obj
 0001:000094f8       _OPIF_SHORTCUT             1000a4f8     service.obj
 0001:00009500       _OPIF_NONE                 1000a500     service.obj
 0001:00009508       _OPM_SILENT                1000a508     service.obj
 0001:00009510       _OPM_FIND                  1000a510     service.obj
 0001:00009518       _OPM_VIEW                  1000a518     service.obj
 0001:00009520       _OPM_EDIT                  1000a520     service.obj
 0001:00009528       _OPM_TOPLEVEL              1000a528     service.obj
 0001:00009530       _OPM_DESCR                 1000a530     service.obj
 0001:00009538       _OPM_QUICKVIEW             1000a538     service.obj
 0001:00009540       _OPM_PGDN                  1000a540     service.obj
 0001:00009548       _FCF_FG_4BIT               1000a548     service.obj
 0001:00009550       _OPM_COMMANDS              1000a550     service.obj
 0001:00009558       _FCF_BG_4BIT               1000a558     service.obj
 0001:00009560       _OPM_NONE                  1000a560     service.obj
 0001:00009568       _FCF_4BITMASK              1000a568     service.obj
 0001:00009570       _FCF_EXTENDEDFLAGS         1000a570     service.obj
 0001:00009578       _FCF_FG_BOLD               1000a578     service.obj
 0001:00009580       _FCF_FG_ITALIC             1000a580     service.obj
 0001:00009588       _FCF_FG_UNDERLINE          1000a588     service.obj
 0001:00009590       _FCF_STYLEMASK             1000a590     service.obj
 0001:000095e8       _FCF_NONE                  1000a5e8     service.obj
 0001:00009708       _CDF_NONE                  1000a708     service.obj
 0001:00009710       _FMSG_WARNING              1000a710     service.obj
 0001:00009718       _FMSG_ERRORTYPE            1000a718     service.obj
 0001:00009720       _FMSG_KEEPBACKGROUND       1000a720     service.obj
 0001:00009728       _FMSG_LEFTALIGN            1000a728     service.obj
 0001:00009730       _FMSG_ALLINONE             1000a730     service.obj
 0001:00009738       _FMSG_MB_OK                1000a738     service.obj
 0001:00009740       _FMSG_MB_OKCANCEL          1000a740     service.obj
 0001:00009748       _FMSG_MB_ABORTRETRYIGNORE  1000a748     service.obj
 0001:00009750       _FMSG_MB_YESNO             1000a750     service.obj
 0001:00009758       _FMSG_MB_YESNOCANCEL       1000a758     service.obj
 0001:00009760       _FMSG_MB_RETRYCANCEL       1000a760     service.obj
 0001:00009768       _FMSG_NONE                 1000a768     service.obj
 0001:00009770       _FOSF_ACTIVE               1000a770     service.obj
 0001:00009778       _FOSF_NONE                 1000a778     service.obj
 0001:000099b8       _DIF_BOXCOLOR              1000a9b8     service.obj
 0001:000099c0       _DIF_GROUP                 1000a9c0     service.obj
 0001:000099c8       _DIF_LEFTTEXT              1000a9c8     service.obj
 0001:000099d0       _DIF_MOVESELECT            1000a9d0     service.obj
 0001:000099d8       _DIF_SHOWAMPERSAND         1000a9d8     service.obj
 0001:000099e0       _DIF_CENTERGROUP           1000a9e0     service.obj
 0001:000099e8       _DIF_NOBRACKETS            1000a9e8     service.obj
 0001:000099f0       _DIF_MANUALADDHISTORY      1000a9f0     service.obj
 0001:000099f8       _DIF_SEPARATOR             1000a9f8     service.obj
 0001:00009a00       _DIF_SEPARATOR2            1000aa00     service.obj
 0001:00009a08       _DIF_EDITOR                1000aa08     service.obj
 0001:00009a10       _DIF_LISTNOAMPERSAND       1000aa10     service.obj
 0001:00009a18       _DIF_LISTNOBOX             1000aa18     service.obj
 0001:00009a20       _DIF_HISTORY               1000aa20     service.obj
 0001:00009a28       _DIF_BTNNOCLOSE            1000aa28     service.obj
 0001:00009a30       _DIF_CENTERTEXT            1000aa30     service.obj
 0001:00009a38       _DIF_SEPARATORUSER         1000aa38     service.obj
 0001:00009a40       _DIF_SETSHIELD             1000aa40     service.obj
 0001:00009a48       _DIF_EDITEXPAND            1000aa48     service.obj
 0001:00009a50       _DIF_DROPDOWNLIST          1000aa50     service.obj
 0001:00009a58       _DIF_USELASTHISTORY        1000aa58     service.obj
 0001:00009a60       _DIF_MASKEDIT              1000aa60     service.obj
 0001:00009a68       _DIF_LISTTRACKMOUSE        1000aa68     service.obj
 0001:00009a70       _DIF_LISTTRACKMOUSEINFOCUS 1000aa70     service.obj
 0001:00009a78       _DIF_SELECTONENTRY         1000aa78     service.obj
 0001:00009a80       _DIF_3STATE                1000aa80     service.obj
 0001:00009a88       _DIF_EDITPATH              1000aa88     service.obj
 0001:00009a90       _DIF_LISTWRAPMODE          1000aa90     service.obj
 0001:00009a98       _DIF_NOAUTOCOMPLETE        1000aa98     service.obj
 0001:00009aa0       _DIF_LISTAUTOHIGHLIGHT     1000aaa0     service.obj
 0001:00009aa8       _DIF_LISTNOCLOSE           1000aaa8     service.obj
 0001:00009ab0       _DIF_EDITPATHEXEC          1000aab0     service.obj
 0001:00009ab8       _DIF_HIDDEN                1000aab8     service.obj
 0001:00009ac0       _DIF_READONLY              1000aac0     service.obj
 0001:00009ac8       _DIF_NOFOCUS               1000aac8     service.obj
 0001:00009ad0       _DIF_DISABLE               1000aad0     service.obj
 0001:00009ad8       _DIF_DEFAULTBUTTON         1000aad8     service.obj
 0001:00009ae0       _DIF_FOCUS                 1000aae0     service.obj
 0001:00009ae8       _DIF_RIGHTTEXT             1000aae8     service.obj
 0001:00009af0       _DIF_WORDWRAP              1000aaf0     service.obj
 0001:00009af8       _DIF_NONE                  1000aaf8     service.obj
 0001:00009d30       _ECF_TABMARKFIRST          1000ad30     service.obj
 0001:00009d38       _ECF_TABMARKCURRENT        1000ad38     service.obj
 0001:00009d40       _FIB_ENABLEEMPTY           1000ad40     service.obj
 0001:00009d48       _FIB_PASSWORD              1000ad48     service.obj
 0001:00009d50       _FIB_EXPANDENV             1000ad50     service.obj
 0001:00009d58       _FIB_NOUSELASTHISTORY      1000ad58     service.obj
 0001:00009d60       _FIB_BUTTONS               1000ad60     service.obj
 0001:00009d68       _FIB_NOAMPERSAND           1000ad68     service.obj
 0001:00009d70       _FIB_EDITPATH              1000ad70     service.obj
 0001:00009d78       _PCIF_FROMMAIN             1000ad78     service.obj
 0001:00009d80       _FIB_EDITPATHEXEC          1000ad80     service.obj
 0001:00009d88       _FIB_NONE                  1000ad88     service.obj
 0001:00009d90       _PCIF_NONE                 1000ad90     service.obj
 0001:00009d98       _lualibs                   1000ad98     service.obj
 0001:00009df8       _LIF_SELECTED              1000adf8     service.obj
 0001:00009e00       _LIF_CHECKED               1000ae00     service.obj
 0001:00009e08       _LIF_SEPARATOR             1000ae08     service.obj
 0001:00009e10       _LIF_DISABLE               1000ae10     service.obj
 0001:00009e18       _LIF_GRAYED                1000ae18     service.obj
 0001:00009e20       _LIF_HIDDEN                1000ae20     service.obj
 0001:00009e28       _LIF_DELETEUSERDATA        1000ae28     service.obj
 0001:00009e30       _LIF_NONE                  1000ae30     service.obj
 0001:00009e38       _FPF_LOADED                1000ae38     service.obj
 0001:00009e40       _FPF_ANSI                  1000ae40     service.obj
 0001:00009e48       _FPF_NONE                  1000ae48     service.obj
 0001:00009e50       _FarGuid                   1000ae50     service.obj
 0001:00009e60       _LIFIND_EXACTMATCH         1000ae60     service.obj
 0001:00009e68       _LIFIND_NONE               1000ae68     service.obj
 0001:00009e70       _LINFO_SHOWNOBOX           1000ae70     service.obj
 0001:00009e78       _LINFO_AUTOHIGHLIGHT       1000ae78     service.obj
 0001:00009e80       _LINFO_REVERSEHIGHLIGHT    1000ae80     service.obj
 0001:00009e88       _LINFO_WRAPMODE            1000ae88     service.obj
 0001:00009e90       _LINFO_SHOWAMPERSAND       1000ae90     service.obj
 0001:00009e98       _LINFO_NONE                1000ae98     service.obj
 0001:00009f18       _FDLG_WARNING              1000af18     service.obj
 0001:00009f20       _FDLG_SMALLDIALOG          1000af20     service.obj
 0001:00009f28       _FDLG_NODRAWSHADOW         1000af28     service.obj
 0001:00009f30       _FDLG_NODRAWPANEL          1000af30     service.obj
 0001:00009f38       _FDLG_KEEPCONSOLETITLE     1000af38     service.obj
 0001:00009f40       _FDLG_NONE                 1000af40     service.obj
 0001:00009f48       _MIF_SELECTED              1000af48     service.obj
 0001:00009f50       _MIF_CHECKED               1000af50     service.obj
 0001:00009f58       _MIF_SEPARATOR             1000af58     service.obj
 0001:00009f60       _MIF_DISABLE               1000af60     service.obj
 0001:00009f68       _MIF_GRAYED                1000af68     service.obj
 0001:00009f70       _MIF_HIDDEN                1000af70     service.obj
 0001:00009f78       _MIF_NONE                  1000af78     service.obj
 0001:00009f80       _FMENU_SHOWAMPERSAND       1000af80     service.obj
 0001:00009f88       _FMENU_WRAPMODE            1000af88     service.obj
 0001:00009f90       _FMENU_AUTOHIGHLIGHT       1000af90     service.obj
 0001:00009f98       _FMENU_REVERSEAUTOHIGHLIGHT 1000af98     service.obj
 0001:00009fa0       _FMENU_CHANGECONSOLETITLE  1000afa0     service.obj
 0001:00009fa8       _FMENU_NONE                1000afa8     service.obj
 0001:00009fb0       _PPIF_SELECTED             1000afb0     service.obj
 0001:00009fb8       _PPIF_PROCESSDESCR         1000afb8     service.obj
 0001:00009fc0       _PPIF_NONE                 1000afc0     service.obj
 0001:00009fc8       _PFLAGS_SHOWHIDDEN         1000afc8     service.obj
 0001:00009fd0       _PFLAGS_HIGHLIGHT          1000afd0     service.obj
 0001:00009fd8       _PFLAGS_REVERSESORTORDER   1000afd8     service.obj
 0001:00009fe0       _PFLAGS_USESORTGROUPS      1000afe0     service.obj
 0001:00009fe8       _PFLAGS_SELECTEDFIRST      1000afe8     service.obj
 0001:00009ff0       _PFLAGS_REALNAMES          1000aff0     service.obj
 0001:00009ff8       _PFLAGS_NUMERICSORT        1000aff8     service.obj
 0001:0000a000       _PFLAGS_PANELLEFT          1000b000     service.obj
 0001:0000a008       _PFLAGS_DIRECTORIESFIRST   1000b008     service.obj
 0001:0000a010       _PFLAGS_USECRC32           1000b010     service.obj
 0001:0000a018       _PFLAGS_CASESENSITIVESORT  1000b018     service.obj
 0001:0000a020       _PFLAGS_PLUGIN             1000b020     service.obj
 0001:0000a028       _PFLAGS_VISIBLE            1000b028     service.obj
 0001:0000a030       _PFLAGS_FOCUS              1000b030     service.obj
 0001:0000a038       _PFLAGS_ALTERNATIVENAMES   1000b038     service.obj
 0001:0000a040       _PFLAGS_SHORTCUT           1000b040     service.obj
 0001:0000a048       _PFLAGS_NONE               1000b048     service.obj
 0001:0000a050       ?key@?2??far_Menu@@9@9     1000b050     service.obj
 0001:0000a058       _PN_CMPNAME                1000b058     service.obj
 0001:0000a060       _PN_CMPNAMELIST            1000b060     service.obj
 0001:0000ba60       _uniclib                   1000ca60     slnunico.obj
 0001:0000bd88       ?mode@?1??f_seek@@9@9      1000cd88     uliolib51.obj
 0001:0000bd94       ?modenames@?1??f_seek@@9@9 1000cd94     uliolib51.obj
 0001:0000bda4       ?mode@?1??f_setvbuf@@9@9   1000cda4     uliolib51.obj
 0001:0000bdb0       ?modenames@?1??f_setvbuf@@9@9 1000cdb0     uliolib51.obj
 0001:0000bdc0       _iolib                     1000cdc0     uliolib51.obj
 0001:0000be20       _flib                      1000ce20     uliolib51.obj
 0001:0000be70       _fnames                    1000ce70     uliolib51.obj
 0001:0000c024       _pk_funcs                  1000d024     uloadlib51.obj
 0001:0000c03c       _ll_funcs                  1000d03c     uloadlib51.obj
 0001:0000c054       _loaders                   1000d054     uloadlib51.obj
 0001:0000c068       _sentinel_                 1000d068     uloadlib51.obj
 0001:0000c718       _FDLG_WARNING              1000d718     util.obj
 0001:0000c720       _FDLG_SMALLDIALOG          1000d720     util.obj
 0001:0000c728       _FDLG_NODRAWSHADOW         1000d728     util.obj
 0001:0000c730       _FDLG_NODRAWPANEL          1000d730     util.obj
 0001:0000c738       _FDLG_KEEPCONSOLETITLE     1000d738     util.obj
 0001:0000c740       _FDLG_NONE                 1000d740     util.obj
 0001:0000c748       _MIF_SELECTED              1000d748     util.obj
 0001:0000c750       _MIF_CHECKED               1000d750     util.obj
 0001:0000c758       _MIF_SEPARATOR             1000d758     util.obj
 0001:0000c760       _MIF_DISABLE               1000d760     util.obj
 0001:0000c768       _MIF_GRAYED                1000d768     util.obj
 0001:0000c770       _MIF_HIDDEN                1000d770     util.obj
 0001:0000c778       _MIF_NONE                  1000d778     util.obj
 0001:0000c780       _FMENU_SHOWAMPERSAND       1000d780     util.obj
 0001:0000c788       _FMENU_WRAPMODE            1000d788     util.obj
 0001:0000c790       _FMENU_AUTOHIGHLIGHT       1000d790     util.obj
 0001:0000c798       _FMENU_REVERSEAUTOHIGHLIGHT 1000d798     util.obj
 0001:0000c7a0       _FMENU_CHANGECONSOLETITLE  1000d7a0     util.obj
 0001:0000c7a8       _FMENU_NONE                1000d7a8     util.obj
 0001:0000c7b0       _PPIF_SELECTED             1000d7b0     util.obj
 0001:0000c7b8       _PPIF_PROCESSDESCR         1000d7b8     util.obj
 0001:0000c7c0       _PPIF_NONE                 1000d7c0     util.obj
 0001:0000c7c8       _PFLAGS_SHOWHIDDEN         1000d7c8     util.obj
 0001:0000c7d0       _PFLAGS_HIGHLIGHT          1000d7d0     util.obj
 0001:0000c7d8       _PFLAGS_REVERSESORTORDER   1000d7d8     util.obj
 0001:0000c7e0       _PFLAGS_USESORTGROUPS      1000d7e0     util.obj
 0001:0000c7e8       _PFLAGS_SELECTEDFIRST      1000d7e8     util.obj
 0001:0000c7f0       _PFLAGS_REALNAMES          1000d7f0     util.obj
 0001:0000c7f8       _PFLAGS_NUMERICSORT        1000d7f8     util.obj
 0001:0000c800       _PFLAGS_PANELLEFT          1000d800     util.obj
 0001:0000c808       _PFLAGS_DIRECTORIESFIRST   1000d808     util.obj
 0001:0000c810       _PFLAGS_USECRC32           1000d810     util.obj
 0001:0000c818       _PFLAGS_CASESENSITIVESORT  1000d818     util.obj
 0001:0000c820       _PFLAGS_PLUGIN             1000d820     util.obj
 0001:0000c828       _PFLAGS_VISIBLE            1000d828     util.obj
 0001:0000c830       _PFLAGS_FOCUS              1000d830     util.obj
 0001:0000c838       _PFLAGS_ALTERNATIVENAMES   1000d838     util.obj
 0001:0000c840       _PFLAGS_SHORTCUT           1000d840     util.obj
 0001:0000c848       _PFLAGS_NONE               1000d848     util.obj
 0001:0000c850       _PN_CMPNAME                1000d850     util.obj
 0001:0000c858       _PN_CMPNAMELIST            1000d858     util.obj
 0001:0000c860       _PN_GENERATENAME           1000d860     util.obj
 0001:0000c868       _PN_CHECKMASK              1000d868     util.obj
 0001:0000c870       _PN_SKIPPATH               1000d870     util.obj
 0001:0000c878       _PN_SHOWERRORMESSAGE       1000d878     util.obj
 0001:0000c880       _XLAT_SWITCHKEYBLAYOUT     1000d880     util.obj
 0001:0000c888       _XLAT_SWITCHKEYBBEEP       1000d888     util.obj
 0001:0000c890       _XLAT_USEKEYBLAYOUTNAME    1000d890     util.obj
 0001:0000c898       _XLAT_CONVERTALLCMDLINE    1000d898     util.obj
 0001:0000c8a0       _XLAT_NONE                 1000d8a0     util.obj
 0001:0000c8a8       _FRS_RETUPDIR              1000d8a8     util.obj
 0001:0000c8b0       _FRS_RECUR                 1000d8b0     util.obj
 0001:0000c8b8       _FRS_SCANSYMLINK           1000d8b8     util.obj
 0001:0000c8c0       _VF_NONMODAL               1000d8c0     util.obj
 0001:0000c8c8       _VF_DELETEONCLOSE          1000d8c8     util.obj
 0001:0000c8d0       _VF_ENABLE_F6              1000d8d0     util.obj
 0001:0000c8d8       _VF_DISABLEHISTORY         1000d8d8     util.obj
 0001:0000c8e0       _VF_IMMEDIATERETURN        1000d8e0     util.obj
 0001:0000c8e8       _VF_DELETEONLYFILEONCLOSE  1000d8e8     util.obj
 0001:0000c8f0       _VF_NONE                   1000d8f0     util.obj
 0001:0000c8f8       _MLF_SHOWERRMSG            1000d8f8     util.obj
 0001:0000c900       _MLF_DONOTUPDATEPANEL      1000d900     util.obj
 0001:0000c908       _MLF_NONE                  1000d908     util.obj
 0001:0000c910       _EF_NONMODAL               1000d910     util.obj
 0001:0000c918       _EF_CREATENEW              1000d918     util.obj
 0001:0000c920       _EF_ENABLE_F6              1000d920     util.obj
 0001:0000c928       _EF_DISABLEHISTORY         1000d928     util.obj
 0001:0000c930       _EF_DELETEONCLOSE          1000d930     util.obj
 0001:0000c938       _EF_IMMEDIATERETURN        1000d938     util.obj
 0001:0000c940       _EF_DELETEONLYFILEONCLOSE  1000d940     util.obj
 0001:0000c948       _EF_LOCKED                 1000d948     util.obj
 0001:0000c950       _EF_DISABLESAVEPOS         1000d950     util.obj
 0001:0000c958       _EN_NONE                   1000d958     util.obj
 0001:0000c960       _FFFS_COMMAS               1000d960     util.obj
 0001:0000c968       _FFFS_FLOATSIZE            1000d968     util.obj
 0001:0000c970       _FFFS_SHOWBYTESINDEX       1000d970     util.obj
 0001:0000c978       _FFFS_ECONOMIC             1000d978     util.obj
 0001:0000c980       _FFFS_THOUSAND             1000d980     util.obj
 0001:0000c988       _FFFS_MINSIZEINDEX         1000d988     util.obj
 0001:0000c990       _FFFS_MINSIZEINDEX_MASK    1000d990     util.obj
 0001:0000c998       _FHELP_NOSHOWERROR         1000d998     util.obj
 0001:0000c9a0       _FHELP_SELFHELP            1000d9a0     util.obj
 0001:0000c9a8       _FHELP_FARHELP             1000d9a8     util.obj
 0001:0000c9b0       _FHELP_CUSTOMFILE          1000d9b0     util.obj
 0001:0000c9b8       _FHELP_CUSTOMPATH          1000d9b8     util.obj
 0001:0000c9c0       _FHELP_GUID                1000d9c0     util.obj
 0001:0000c9c8       _FHELP_USECONTENTS         1000d9c8     util.obj
 0001:0000c9d0       _FHELP_NONE                1000d9d0     util.obj
 0001:0000c9d8       _KMFLAGS_SILENTCHECK       1000d9d8     util.obj
 0001:0000c9e0       _KMFLAGS_DISABLEOUTPUT     1000d9e0     util.obj
 0001:0000c9e8       _KMFLAGS_NOSENDKEYSTOPLUGINS 1000d9e8     util.obj
 0001:0000c9f0       _KMFLAGS_ENABLEOUTPUT      1000d9f0     util.obj
 0001:0000c9f8       _KMFLAGS_NONE              1000d9f8     util.obj
 0001:0000ca00       _AKMFLAGS_NONE             1000da00     util.obj
 0001:0000ca08       _FSETCLR_REDRAW            1000da08     util.obj
 0001:0000ca10       _FSETCLR_NONE              1000da10     util.obj
 0001:0000ca18       _PF_PRELOAD                1000da18     util.obj
 0001:0000ca20       _PF_DISABLEPANELS          1000da20     util.obj
 0001:0000ca28       _PF_EDITOR                 1000da28     util.obj
 0001:0000ca30       _PF_VIEWER                 1000da30     util.obj
 0001:0000ca38       _PF_FULLCMDLINE            1000da38     util.obj
 0001:0000ca40       _PF_DIALOG                 1000da40     util.obj
 0001:0000ca48       _PF_NONE                   1000da48     util.obj
 0001:0000ca50       _WIF_MODIFIED              1000da50     util.obj
 0001:0000ca58       _WIF_CURRENT               1000da58     util.obj
 0001:0000ca60       _WIF_MODAL                 1000da60     util.obj
 0001:0000ca68       _VOPT_SAVEFILEPOSITION     1000da68     util.obj
 0001:0000ca70       _VOPT_AUTODETECTCODEPAGE   1000da70     util.obj
 0001:0000ca78       _VOPT_NONE                 1000da78     util.obj
 0001:0000ca80       _VSMFL_REDRAW              1000da80     util.obj
 0001:0000ca88       _IPLFLAGS_SEPARATOR        1000da88     util.obj
 0001:0000ca90       _VSP_NOREDRAW              1000da90     util.obj
 0001:0000ca98       _VSP_PERCENT               1000da98     util.obj
 0001:0000caa0       _VSP_RELATIVE              1000daa0     util.obj
 0001:0000caa8       _VSP_NORETNEWPOS           1000daa8     util.obj
 0001:0000cab0       _PMFLAGS_FULLSCREEN        1000dab0     util.obj
 0001:0000cab8       _PMFLAGS_DETAILEDSTATUS    1000dab8     util.obj
 0001:0000cac0       _PMFLAGS_ALIGNEXTENSIONS   1000dac0     util.obj
 0001:0000cac8       _PMFLAGS_CASECONVERSION    1000dac8     util.obj
 0001:0000cad0       _VMF_WRAP                  1000dad0     util.obj
 0001:0000cad8       _VMF_WORDWRAP              1000dad8     util.obj
 0001:0000cae0       _OPIF_DISABLEFILTER        1000dae0     util.obj
 0001:0000cae8       _OPIF_DISABLESORTGROUPS    1000dae8     util.obj
 0001:0000caf0       _OPIF_DISABLEHIGHLIGHTING  1000daf0     util.obj
 0001:0000caf8       _OPIF_ADDDOTS              1000daf8     util.obj
 0001:0000cb00       _OPIF_RAWSELECTION         1000db00     util.obj
 0001:0000cb08       _OPIF_REALNAMES            1000db08     util.obj
 0001:0000cb10       _OPIF_SHOWNAMESONLY        1000db10     util.obj
 0001:0000cb18       _OPIF_SHOWRIGHTALIGNNAMES  1000db18     util.obj
 0001:0000cb20       _OPIF_SHOWPRESERVECASE     1000db20     util.obj
 0001:0000cb28       _OPIF_COMPAREFATTIME       1000db28     util.obj
 0001:0000cb30       _OPIF_EXTERNALGET          1000db30     util.obj
 0001:0000cb38       _OPIF_EXTERNALPUT          1000db38     util.obj
 0001:0000cb40       _OPIF_EXTERNALDELETE       1000db40     util.obj
 0001:0000cb48       _OPIF_EXTERNALMKDIR        1000db48     util.obj
 0001:0000cb50       _OPIF_USEATTRHIGHLIGHTING  1000db50     util.obj
 0001:0000cb58       _OPIF_USECRC32             1000db58     util.obj
 0001:0000cb60       _OPIF_USEFREESIZE          1000db60     util.obj
 0001:0000cb68       _OPIF_SHORTCUT             1000db68     util.obj
 0001:0000cb70       _OPIF_NONE                 1000db70     util.obj
 0001:0000cb78       _OPM_SILENT                1000db78     util.obj
 0001:0000cb80       _OPM_FIND                  1000db80     util.obj
 0001:0000cb88       _OPM_VIEW                  1000db88     util.obj
 0001:0000cb90       _OPM_EDIT                  1000db90     util.obj
 0001:0000cb98       _OPM_TOPLEVEL              1000db98     util.obj
 0001:0000cba0       _OPM_DESCR                 1000dba0     util.obj
 0001:0000cba8       _OPM_QUICKVIEW             1000dba8     util.obj
 0001:0000cbb0       _OPM_PGDN                  1000dbb0     util.obj
 0001:0000cbb8       _FCF_FG_4BIT               1000dbb8     util.obj
 0001:0000cbc0       _OPM_COMMANDS              1000dbc0     util.obj
 0001:0000cbc8       _FCF_BG_4BIT               1000dbc8     util.obj
 0001:0000cbd0       _OPM_NONE                  1000dbd0     util.obj
 0001:0000cbd8       _FCF_4BITMASK              1000dbd8     util.obj
 0001:0000cbe0       _FCF_EXTENDEDFLAGS         1000dbe0     util.obj
 0001:0000cbe8       _FCF_FG_BOLD               1000dbe8     util.obj
 0001:0000cbf0       _FCF_FG_ITALIC             1000dbf0     util.obj
 0001:0000cbf8       _FCF_FG_UNDERLINE          1000dbf8     util.obj
 0001:0000cc00       _FCF_STYLEMASK             1000dc00     util.obj
 0001:0000cc08       _FCF_NONE                  1000dc08     util.obj
 0001:0000cc10       _CDF_NONE                  1000dc10     util.obj
 0001:0000cc18       _FMSG_WARNING              1000dc18     util.obj
 0001:0000cc20       _FMSG_ERRORTYPE            1000dc20     util.obj
 0001:0000cc28       _FMSG_KEEPBACKGROUND       1000dc28     util.obj
 0001:0000cc30       _FMSG_LEFTALIGN            1000dc30     util.obj
 0001:0000cc38       _FMSG_ALLINONE             1000dc38     util.obj
 0001:0000cc40       _FMSG_MB_OK                1000dc40     util.obj
 0001:0000cc48       _FMSG_MB_OKCANCEL          1000dc48     util.obj
 0001:0000cc50       _FMSG_MB_ABORTRETRYIGNORE  1000dc50     util.obj
 0001:0000cc58       _FMSG_MB_YESNO             1000dc58     util.obj
 0001:0000cc60       _FMSG_MB_YESNOCANCEL       1000dc60     util.obj
 0001:0000cc68       _FMSG_MB_RETRYCANCEL       1000dc68     util.obj
 0001:0000cc70       _FMSG_NONE                 1000dc70     util.obj
 0001:0000cc78       _FOSF_ACTIVE               1000dc78     util.obj
 0001:0000cc80       _FOSF_NONE                 1000dc80     util.obj
 0001:0000cc88       _DIF_BOXCOLOR              1000dc88     util.obj
 0001:0000cc90       _DIF_GROUP                 1000dc90     util.obj
 0001:0000cc98       _DIF_LEFTTEXT              1000dc98     util.obj
 0001:0000cca0       _DIF_MOVESELECT            1000dca0     util.obj
 0001:0000cca8       _DIF_SHOWAMPERSAND         1000dca8     util.obj
 0001:0000ccb0       _DIF_CENTERGROUP           1000dcb0     util.obj
 0001:0000ccb8       _DIF_NOBRACKETS            1000dcb8     util.obj
 0001:0000ccc0       _DIF_MANUALADDHISTORY      1000dcc0     util.obj
 0001:0000ccc8       _DIF_SEPARATOR             1000dcc8     util.obj
 0001:0000ccd0       _DIF_SEPARATOR2            1000dcd0     util.obj
 0001:0000ccd8       _DIF_EDITOR                1000dcd8     util.obj
 0001:0000cce0       _DIF_LISTNOAMPERSAND       1000dce0     util.obj
 0001:0000cce8       _DIF_LISTNOBOX             1000dce8     util.obj
 0001:0000ccf0       _DIF_HISTORY               1000dcf0     util.obj
 0001:0000ccf8       _DIF_BTNNOCLOSE            1000dcf8     util.obj
 0001:0000cd00       _DIF_CENTERTEXT            1000dd00     util.obj
 0001:0000cd08       _DIF_SEPARATORUSER         1000dd08     util.obj
 0001:0000cd10       _DIF_SETSHIELD             1000dd10     util.obj
 0001:0000cd18       _DIF_EDITEXPAND            1000dd18     util.obj
 0001:0000cd20       _DIF_DROPDOWNLIST          1000dd20     util.obj
 0001:0000cd28       _DIF_USELASTHISTORY        1000dd28     util.obj
 0001:0000cd30       _DIF_MASKEDIT              1000dd30     util.obj
 0001:0000cd38       _DIF_LISTTRACKMOUSE        1000dd38     util.obj
 0001:0000cd40       _DIF_LISTTRACKMOUSEINFOCUS 1000dd40     util.obj
 0001:0000cd48       _DIF_SELECTONENTRY         1000dd48     util.obj
 0001:0000cd50       _DIF_3STATE                1000dd50     util.obj
 0001:0000cd58       _DIF_EDITPATH              1000dd58     util.obj
 0001:0000cd60       _DIF_LISTWRAPMODE          1000dd60     util.obj
 0001:0000cd68       _DIF_NOAUTOCOMPLETE        1000dd68     util.obj
 0001:0000cd70       _DIF_LISTAUTOHIGHLIGHT     1000dd70     util.obj
 0001:0000cd78       _DIF_LISTNOCLOSE           1000dd78     util.obj
 0001:0000cd80       _DIF_EDITPATHEXEC          1000dd80     util.obj
 0001:0000cd88       _DIF_HIDDEN                1000dd88     util.obj
 0001:0000cd90       _DIF_READONLY              1000dd90     util.obj
 0001:0000cd98       _DIF_NOFOCUS               1000dd98     util.obj
 0001:0000cda0       _DIF_DISABLE               1000dda0     util.obj
 0001:0000cda8       _DIF_DEFAULTBUTTON         1000dda8     util.obj
 0001:0000cdb0       _DIF_FOCUS                 1000ddb0     util.obj
 0001:0000cdb8       _DIF_RIGHTTEXT             1000ddb8     util.obj
 0001:0000cdc0       _DIF_WORDWRAP              1000ddc0     util.obj
 0001:0000cdc8       _DIF_NONE                  1000ddc8     util.obj
 0001:0000cdd0       _ECF_TABMARKFIRST          1000ddd0     util.obj
 0001:0000cdd8       _ECF_TABMARKCURRENT        1000ddd8     util.obj
 0001:0000cde0       _FIB_ENABLEEMPTY           1000dde0     util.obj
 0001:0000cde8       _FIB_PASSWORD              1000dde8     util.obj
 0001:0000cdf0       _FIB_EXPANDENV             1000ddf0     util.obj
 0001:0000cdf8       _FIB_NOUSELASTHISTORY      1000ddf8     util.obj
 0001:0000ce00       _FIB_BUTTONS               1000de00     util.obj
 0001:0000ce08       _FIB_NOAMPERSAND           1000de08     util.obj
 0001:0000ce10       _FIB_EDITPATH              1000de10     util.obj
 0001:0000ce18       _PCIF_FROMMAIN             1000de18     util.obj
 0001:0000ce20       _FIB_EDITPATHEXEC          1000de20     util.obj
 0001:0000ce28       _FIB_NONE                  1000de28     util.obj
 0001:0000ce30       _PCIF_NONE                 1000de30     util.obj
 0001:0000ce38       _LIF_SELECTED              1000de38     util.obj
 0001:0000ce40       _LIF_CHECKED               1000de40     util.obj
 0001:0000ce48       _LIF_SEPARATOR             1000de48     util.obj
 0001:0000ce50       _LIF_DISABLE               1000de50     util.obj
 0001:0000ce58       _LIF_GRAYED                1000de58     util.obj
 0001:0000ce60       _LIF_HIDDEN                1000de60     util.obj
 0001:0000ce68       _LIF_DELETEUSERDATA        1000de68     util.obj
 0001:0000ce70       _LIF_NONE                  1000de70     util.obj
 0001:0000ce78       _FPF_LOADED                1000de78     util.obj
 0001:0000ce80       _FPF_ANSI                  1000de80     util.obj
 0001:0000ce88       _FPF_NONE                  1000de88     util.obj
 0001:0000ce90       _FarGuid                   1000de90     util.obj
 0001:0000cea0       _LIFIND_EXACTMATCH         1000dea0     util.obj
 0001:0000cea8       _LIFIND_NONE               1000dea8     util.obj
 0001:0000ceb0       _LINFO_SHOWNOBOX           1000deb0     util.obj
 0001:0000ceb8       _LINFO_AUTOHIGHLIGHT       1000deb8     util.obj
 0001:0000cec0       _LINFO_REVERSEHIGHLIGHT    1000dec0     util.obj
 0001:0000cec8       _LINFO_WRAPMODE            1000dec8     util.obj
 0001:0000ced0       _LINFO_SHOWAMPERSAND       1000ded0     util.obj
 0001:0000ced8       _LINFO_NONE                1000ded8     util.obj
 0001:0000cf60       _VF_NONMODAL               1000df60     win.obj
 0001:0000cf68       _VF_DELETEONCLOSE          1000df68     win.obj
 0001:0000cf70       _VF_ENABLE_F6              1000df70     win.obj
 0001:0000cf78       _VF_DISABLEHISTORY         1000df78     win.obj
 0001:0000cf80       _VF_IMMEDIATERETURN        1000df80     win.obj
 0001:0000cf88       _VF_DELETEONLYFILEONCLOSE  1000df88     win.obj
 0001:0000cf90       _VF_NONE                   1000df90     win.obj
 0001:0000cf98       _MLF_SHOWERRMSG            1000df98     win.obj
 0001:0000cfa0       _MLF_DONOTUPDATEPANEL      1000dfa0     win.obj
 0001:0000cfa8       _MLF_NONE                  1000dfa8     win.obj
 0001:0000cfb0       _EF_NONMODAL               1000dfb0     win.obj
 0001:0000cfb8       _EF_CREATENEW              1000dfb8     win.obj
 0001:0000cfc0       _EF_ENABLE_F6              1000dfc0     win.obj
 0001:0000cfc8       _EF_DISABLEHISTORY         1000dfc8     win.obj
 0001:0000cfd0       _EF_DELETEONCLOSE          1000dfd0     win.obj
 0001:0000cfd8       _EF_IMMEDIATERETURN        1000dfd8     win.obj
 0001:0000cfe0       _EF_DELETEONLYFILEONCLOSE  1000dfe0     win.obj
 0001:0000cfe8       _EF_LOCKED                 1000dfe8     win.obj
 0001:0000cff0       _EF_DISABLESAVEPOS         1000dff0     win.obj
 0001:0000cff8       _EN_NONE                   1000dff8     win.obj
 0001:0000d000       _FFFS_COMMAS               1000e000     win.obj
 0001:0000d008       _FFFS_FLOATSIZE            1000e008     win.obj
 0001:0000d010       _FFFS_SHOWBYTESINDEX       1000e010     win.obj
 0001:0000d018       _FFFS_ECONOMIC             1000e018     win.obj
 0001:0000d020       _FFFS_THOUSAND             1000e020     win.obj
 0001:0000d028       _FFFS_MINSIZEINDEX         1000e028     win.obj
 0001:0000d030       _FFFS_MINSIZEINDEX_MASK    1000e030     win.obj
 0001:0000d038       _FHELP_NOSHOWERROR         1000e038     win.obj
 0001:0000d040       _FHELP_SELFHELP            1000e040     win.obj
 0001:0000d048       _FHELP_FARHELP             1000e048     win.obj
 0001:0000d050       _FHELP_CUSTOMFILE          1000e050     win.obj
 0001:0000d058       _FHELP_CUSTOMPATH          1000e058     win.obj
 0001:0000d060       _FHELP_GUID                1000e060     win.obj
 0001:0000d068       _FHELP_USECONTENTS         1000e068     win.obj
 0001:0000d070       _FHELP_NONE                1000e070     win.obj
 0001:0000d078       _KMFLAGS_SILENTCHECK       1000e078     win.obj
 0001:0000d080       _KMFLAGS_DISABLEOUTPUT     1000e080     win.obj
 0001:0000d088       _KMFLAGS_NOSENDKEYSTOPLUGINS 1000e088     win.obj
 0001:0000d090       _KMFLAGS_ENABLEOUTPUT      1000e090     win.obj
 0001:0000d098       _KMFLAGS_NONE              1000e098     win.obj
 0001:0000d0a0       _AKMFLAGS_NONE             1000e0a0     win.obj
 0001:0000d0a8       _FSETCLR_REDRAW            1000e0a8     win.obj
 0001:0000d0b0       _FSETCLR_NONE              1000e0b0     win.obj
 0001:0000d0b8       _PF_PRELOAD                1000e0b8     win.obj
 0001:0000d0c0       _PF_DISABLEPANELS          1000e0c0     win.obj
 0001:0000d0c8       _PF_EDITOR                 1000e0c8     win.obj
 0001:0000d0d0       _PF_VIEWER                 1000e0d0     win.obj
 0001:0000d0d8       _PF_FULLCMDLINE            1000e0d8     win.obj
 0001:0000d0e0       _PF_DIALOG                 1000e0e0     win.obj
 0001:0000d0e8       _PF_NONE                   1000e0e8     win.obj
 0001:0000d0f0       _WIF_MODIFIED              1000e0f0     win.obj
 0001:0000d0f8       _WIF_CURRENT               1000e0f8     win.obj
 0001:0000d100       _WIF_MODAL                 1000e100     win.obj
 0001:0000d108       _VOPT_SAVEFILEPOSITION     1000e108     win.obj
 0001:0000d110       _VOPT_AUTODETECTCODEPAGE   1000e110     win.obj
 0001:0000d118       _VOPT_NONE                 1000e118     win.obj
 0001:0000d120       _VSMFL_REDRAW              1000e120     win.obj
 0001:0000d128       _IPLFLAGS_SEPARATOR        1000e128     win.obj
 0001:0000d130       _VSP_NOREDRAW              1000e130     win.obj
 0001:0000d138       _VSP_PERCENT               1000e138     win.obj
 0001:0000d140       _VSP_RELATIVE              1000e140     win.obj
 0001:0000d148       _VSP_NORETNEWPOS           1000e148     win.obj
 0001:0000d150       _PMFLAGS_FULLSCREEN        1000e150     win.obj
 0001:0000d158       _PMFLAGS_DETAILEDSTATUS    1000e158     win.obj
 0001:0000d160       _PMFLAGS_ALIGNEXTENSIONS   1000e160     win.obj
 0001:0000d168       _PMFLAGS_CASECONVERSION    1000e168     win.obj
 0001:0000d170       _VMF_WRAP                  1000e170     win.obj
 0001:0000d178       _VMF_WORDWRAP              1000e178     win.obj
 0001:0000d180       _OPIF_DISABLEFILTER        1000e180     win.obj
 0001:0000d188       _OPIF_DISABLESORTGROUPS    1000e188     win.obj
 0001:0000d190       _OPIF_DISABLEHIGHLIGHTING  1000e190     win.obj
 0001:0000d198       _OPIF_ADDDOTS              1000e198     win.obj
 0001:0000d1a0       _OPIF_RAWSELECTION         1000e1a0     win.obj
 0001:0000d1a8       _OPIF_REALNAMES            1000e1a8     win.obj
 0001:0000d1b0       _OPIF_SHOWNAMESONLY        1000e1b0     win.obj
 0001:0000d1b8       _OPIF_SHOWRIGHTALIGNNAMES  1000e1b8     win.obj
 0001:0000d1c0       _OPIF_SHOWPRESERVECASE     1000e1c0     win.obj
 0001:0000d1c8       _OPIF_COMPAREFATTIME       1000e1c8     win.obj
 0001:0000d1d0       _OPIF_EXTERNALGET          1000e1d0     win.obj
 0001:0000d1d8       _OPIF_EXTERNALPUT          1000e1d8     win.obj
 0001:0000d1e0       _OPIF_EXTERNALDELETE       1000e1e0     win.obj
 0001:0000d1e8       _OPIF_EXTERNALMKDIR        1000e1e8     win.obj
 0001:0000d1f0       _OPIF_USEATTRHIGHLIGHTING  1000e1f0     win.obj
 0001:0000d1f8       _OPIF_USECRC32             1000e1f8     win.obj
 0001:0000d200       _OPIF_USEFREESIZE          1000e200     win.obj
 0001:0000d208       _OPIF_SHORTCUT             1000e208     win.obj
 0001:0000d210       _OPIF_NONE                 1000e210     win.obj
 0001:0000d218       _OPM_SILENT                1000e218     win.obj
 0001:0000d220       _OPM_FIND                  1000e220     win.obj
 0001:0000d228       _OPM_VIEW                  1000e228     win.obj
 0001:0000d230       _OPM_EDIT                  1000e230     win.obj
 0001:0000d238       _OPM_TOPLEVEL              1000e238     win.obj
 0001:0000d240       _OPM_DESCR                 1000e240     win.obj
 0001:0000d248       _OPM_QUICKVIEW             1000e248     win.obj
 0001:0000d250       _OPM_PGDN                  1000e250     win.obj
 0001:0000d258       _FCF_FG_4BIT               1000e258     win.obj
 0001:0000d260       _OPM_COMMANDS              1000e260     win.obj
 0001:0000d268       _FCF_BG_4BIT               1000e268     win.obj
 0001:0000d270       _OPM_NONE                  1000e270     win.obj
 0001:0000d278       _FCF_4BITMASK              1000e278     win.obj
 0001:0000d280       _FCF_EXTENDEDFLAGS         1000e280     win.obj
 0001:0000d288       _FCF_FG_BOLD               1000e288     win.obj
 0001:0000d290       _FCF_FG_ITALIC             1000e290     win.obj
 0001:0000d298       _FCF_FG_UNDERLINE          1000e298     win.obj
 0001:0000d2a0       _FCF_STYLEMASK             1000e2a0     win.obj
 0001:0000d2a8       _FCF_NONE                  1000e2a8     win.obj
 0001:0000d2b0       _CDF_NONE                  1000e2b0     win.obj
 0001:0000d2b8       _FMSG_WARNING              1000e2b8     win.obj
 0001:0000d2c0       _FMSG_ERRORTYPE            1000e2c0     win.obj
 0001:0000d2c8       _FMSG_KEEPBACKGROUND       1000e2c8     win.obj
 0001:0000d2d0       _FMSG_LEFTALIGN            1000e2d0     win.obj
 0001:0000d2d8       _FMSG_ALLINONE             1000e2d8     win.obj
 0001:0000d2e0       _FMSG_MB_OK                1000e2e0     win.obj
 0001:0000d2e8       _FMSG_MB_OKCANCEL          1000e2e8     win.obj
 0001:0000d2f0       _FMSG_MB_ABORTRETRYIGNORE  1000e2f0     win.obj
 0001:0000d2f8       _FMSG_MB_YESNO             1000e2f8     win.obj
 0001:0000d300       _FMSG_MB_YESNOCANCEL       1000e300     win.obj
 0001:0000d308       _FMSG_MB_RETRYCANCEL       1000e308     win.obj
 0001:0000d310       _FMSG_NONE                 1000e310     win.obj
 0001:0000d318       _FOSF_ACTIVE               1000e318     win.obj
 0001:0000d320       _FOSF_NONE                 1000e320     win.obj
 0001:0000d328       _DIF_BOXCOLOR              1000e328     win.obj
 0001:0000d330       _DIF_GROUP                 1000e330     win.obj
 0001:0000d338       _DIF_LEFTTEXT              1000e338     win.obj
 0001:0000d340       _DIF_MOVESELECT            1000e340     win.obj
 0001:0000d348       _DIF_SHOWAMPERSAND         1000e348     win.obj
 0001:0000d350       _DIF_CENTERGROUP           1000e350     win.obj
 0001:0000d358       _DIF_NOBRACKETS            1000e358     win.obj
 0001:0000d360       _DIF_MANUALADDHISTORY      1000e360     win.obj
 0001:0000d368       _DIF_SEPARATOR             1000e368     win.obj
 0001:0000d370       _DIF_SEPARATOR2            1000e370     win.obj
 0001:0000d378       _DIF_EDITOR                1000e378     win.obj
 0001:0000d380       _DIF_LISTNOAMPERSAND       1000e380     win.obj
 0001:0000d388       _DIF_LISTNOBOX             1000e388     win.obj
 0001:0000d390       _DIF_HISTORY               1000e390     win.obj
 0001:0000d398       _DIF_BTNNOCLOSE            1000e398     win.obj
 0001:0000d3a0       _DIF_CENTERTEXT            1000e3a0     win.obj
 0001:0000d3a8       _DIF_SEPARATORUSER         1000e3a8     win.obj
 0001:0000d3b0       _DIF_SETSHIELD             1000e3b0     win.obj
 0001:0000d3b8       _DIF_EDITEXPAND            1000e3b8     win.obj
 0001:0000d3c0       _DIF_DROPDOWNLIST          1000e3c0     win.obj
 0001:0000d3c8       _DIF_USELASTHISTORY        1000e3c8     win.obj
 0001:0000d3d0       _DIF_MASKEDIT              1000e3d0     win.obj
 0001:0000d3d8       _DIF_LISTTRACKMOUSE        1000e3d8     win.obj
 0001:0000d3e0       _DIF_LISTTRACKMOUSEINFOCUS 1000e3e0     win.obj
 0001:0000d3e8       _DIF_SELECTONENTRY         1000e3e8     win.obj
 0001:0000d3f0       _DIF_3STATE                1000e3f0     win.obj
 0001:0000d3f8       _DIF_EDITPATH              1000e3f8     win.obj
 0001:0000d400       _DIF_LISTWRAPMODE          1000e400     win.obj
 0001:0000d408       _DIF_NOAUTOCOMPLETE        1000e408     win.obj
 0001:0000d410       _DIF_LISTAUTOHIGHLIGHT     1000e410     win.obj
 0001:0000d418       _DIF_LISTNOCLOSE           1000e418     win.obj
 0001:0000d420       _DIF_EDITPATHEXEC          1000e420     win.obj
 0001:0000d428       _DIF_HIDDEN                1000e428     win.obj
 0001:0000d430       _DIF_READONLY              1000e430     win.obj
 0001:0000d438       _DIF_NOFOCUS               1000e438     win.obj
 0001:0000d440       _DIF_DISABLE               1000e440     win.obj
 0001:0000d448       _DIF_DEFAULTBUTTON         1000e448     win.obj
 0001:0000d450       _DIF_FOCUS                 1000e450     win.obj
 0001:0000d458       _DIF_RIGHTTEXT             1000e458     win.obj
 0001:0000d460       _DIF_WORDWRAP              1000e460     win.obj
 0001:0000d468       _DIF_NONE                  1000e468     win.obj
 0001:0000d470       _ECF_TABMARKFIRST          1000e470     win.obj
 0001:0000d478       _ECF_TABMARKCURRENT        1000e478     win.obj
 0001:0000d480       _FIB_ENABLEEMPTY           1000e480     win.obj
 0001:0000d488       _FIB_PASSWORD              1000e488     win.obj
 0001:0000d490       _FIB_EXPANDENV             1000e490     win.obj
 0001:0000d498       _FIB_NOUSELASTHISTORY      1000e498     win.obj
 0001:0000d4a0       _FIB_BUTTONS               1000e4a0     win.obj
 0001:0000d4a8       _FIB_NOAMPERSAND           1000e4a8     win.obj
 0001:0000d4b0       _FIB_EDITPATH              1000e4b0     win.obj
 0001:0000d4b8       _PCIF_FROMMAIN             1000e4b8     win.obj
 0001:0000d4c0       _FIB_EDITPATHEXEC          1000e4c0     win.obj
 0001:0000d4c8       _FIB_NONE                  1000e4c8     win.obj
 0001:0000d4d0       _PCIF_NONE                 1000e4d0     win.obj
 0001:0000d4d8       _LIF_SELECTED              1000e4d8     win.obj
 0001:0000d4e0       _LIF_CHECKED               1000e4e0     win.obj
 0001:0000d4e8       _LIF_SEPARATOR             1000e4e8     win.obj
 0001:0000d4f0       _LIF_DISABLE               1000e4f0     win.obj
 0001:0000d4f8       _LIF_GRAYED                1000e4f8     win.obj
 0001:0000d500       _LIF_HIDDEN                1000e500     win.obj
 0001:0000d508       _LIF_DELETEUSERDATA        1000e508     win.obj
 0001:0000d510       _LIF_NONE                  1000e510     win.obj
 0001:0000d518       _FPF_LOADED                1000e518     win.obj
 0001:0000d520       _FPF_ANSI                  1000e520     win.obj
 0001:0000d528       _FPF_NONE                  1000e528     win.obj
 0001:0000d530       _FarGuid                   1000e530     win.obj
 0001:0000d540       _LIFIND_EXACTMATCH         1000e540     win.obj
 0001:0000d548       _LIFIND_NONE               1000e548     win.obj
 0001:0000d550       _LINFO_SHOWNOBOX           1000e550     win.obj
 0001:0000d558       _LINFO_AUTOHIGHLIGHT       1000e558     win.obj
 0001:0000d560       _LINFO_REVERSEHIGHLIGHT    1000e560     win.obj
 0001:0000d568       _LINFO_WRAPMODE            1000e568     win.obj
 0001:0000d570       _LINFO_SHOWAMPERSAND       1000e570     win.obj
 0001:0000d578       _LINFO_NONE                1000e578     win.obj
 0001:0000d580       _FDLG_WARNING              1000e580     win.obj
 0001:0000d588       _FDLG_SMALLDIALOG          1000e588     win.obj
 0001:0000d590       _FDLG_NODRAWSHADOW         1000e590     win.obj
 0001:0000d598       _FDLG_NODRAWPANEL          1000e598     win.obj
 0001:0000d5a0       _FDLG_KEEPCONSOLETITLE     1000e5a0     win.obj
 0001:0000d5a8       _FDLG_NONE                 1000e5a8     win.obj
 0001:0000d5b0       _MIF_SELECTED              1000e5b0     win.obj
 0001:0000d5b8       _MIF_CHECKED               1000e5b8     win.obj
 0001:0000d5c0       _MIF_SEPARATOR             1000e5c0     win.obj
 0001:0000d5c8       _MIF_DISABLE               1000e5c8     win.obj
 0001:0000d5d0       _MIF_GRAYED                1000e5d0     win.obj
 0001:0000d5d8       _MIF_HIDDEN                1000e5d8     win.obj
 0001:0000d6a8       _MIF_NONE                  1000e6a8     win.obj
 0001:0000d6b0       _FMENU_SHOWAMPERSAND       1000e6b0     win.obj
 0001:0000d6b8       _FMENU_WRAPMODE            1000e6b8     win.obj
 0001:0000d6c0       _FMENU_AUTOHIGHLIGHT       1000e6c0     win.obj
 0001:0000d6c8       _FMENU_REVERSEAUTOHIGHLIGHT 1000e6c8     win.obj
 0001:0000d6d0       _FMENU_CHANGECONSOLETITLE  1000e6d0     win.obj
 0001:0000d6d8       _FMENU_NONE                1000e6d8     win.obj
 0001:0000d6e0       _PPIF_SELECTED             1000e6e0     win.obj
 0001:0000d6e8       _PPIF_PROCESSDESCR         1000e6e8     win.obj
 0001:0000d6f0       _PPIF_NONE                 1000e6f0     win.obj
 0001:0000d6f8       _PFLAGS_SHOWHIDDEN         1000e6f8     win.obj
 0001:0000d700       _PFLAGS_HIGHLIGHT          1000e700     win.obj
 0001:0000d708       _PFLAGS_REVERSESORTORDER   1000e708     win.obj
 0001:0000d710       _PFLAGS_USESORTGROUPS      1000e710     win.obj
 0001:0000d718       _PFLAGS_SELECTEDFIRST      1000e718     win.obj
 0001:0000d720       _PFLAGS_REALNAMES          1000e720     win.obj
 0001:0000d728       _PFLAGS_NUMERICSORT        1000e728     win.obj
 0001:0000d730       _PFLAGS_PANELLEFT          1000e730     win.obj
 0001:0000d738       _PFLAGS_DIRECTORIESFIRST   1000e738     win.obj
 0001:0000d740       _PFLAGS_USECRC32           1000e740     win.obj
 0001:0000d748       _PFLAGS_CASESENSITIVESORT  1000e748     win.obj
 0001:0000d750       _PFLAGS_PLUGIN             1000e750     win.obj
 0001:0000d758       _PFLAGS_VISIBLE            1000e758     win.obj
 0001:0000d760       _PFLAGS_FOCUS              1000e760     win.obj
 0001:0000d768       _PFLAGS_ALTERNATIVENAMES   1000e768     win.obj
 0001:0000d770       _PFLAGS_SHORTCUT           1000e770     win.obj
 0001:0000d778       _PFLAGS_NONE               1000e778     win.obj
 0001:0000d780       _PN_CMPNAME                1000e780     win.obj
 0001:0000d788       _PN_CMPNAMELIST            1000e788     win.obj
 0001:0000d790       _PN_GENERATENAME           1000e790     win.obj
 0001:0000d798       _PN_CHECKMASK              1000e798     win.obj
 0001:0000d7a0       _PN_SKIPPATH               1000e7a0     win.obj
 0001:0000d7a8       _PN_SHOWERRORMESSAGE       1000e7a8     win.obj
 0001:0000d7b0       _XLAT_SWITCHKEYBLAYOUT     1000e7b0     win.obj
 0001:0000d7b8       _XLAT_SWITCHKEYBBEEP       1000e7b8     win.obj
 0001:0000d7c0       _XLAT_USEKEYBLAYOUTNAME    1000e7c0     win.obj
 0001:0000d7c8       _XLAT_CONVERTALLCMDLINE    1000e7c8     win.obj
 0001:0000d7d0       _XLAT_NONE                 1000e7d0     win.obj
 0001:0000d7d8       _FRS_RETUPDIR              1000e7d8     win.obj
 0001:0000d7e0       _FRS_RECUR                 1000e7e0     win.obj
 0001:0000d7e8       _FRS_SCANSYMLINK           1000e7e8     win.obj
 0001:0000dbd0       emask                      1000ebd0     LIBCMT:log10_sse2_precise.obj
 0001:0000dbe0       CC                         1000ebe0     LIBCMT:log10_sse2_precise.obj
 0001:0000dbf0       Magic                      1000ebf0     LIBCMT:log10_sse2_precise.obj
 0001:0000dc00       hi_mask                    1000ec00     LIBCMT:log10_sse2_precise.obj
 0001:0000dc10       LOG10_2                    1000ec10     LIBCMT:log10_sse2_precise.obj
 0001:0000dc20       place_L                    1000ec20     LIBCMT:log10_sse2_precise.obj
 0001:0000dc40       One                        1000ec40     LIBCMT:log10_sse2_precise.obj
 0001:0000dc50       Zero                       1000ec50     LIBCMT:log10_sse2_precise.obj
 0001:0000dc60       Two52                      1000ec60     LIBCMT:log10_sse2_precise.obj
 0001:0000dc70       Infs                       1000ec70     LIBCMT:log10_sse2_precise.obj
 0001:0000dc80       NaN                        1000ec80     LIBCMT:log10_sse2_precise.obj
 0001:0000dc90       coeff                      1000ec90     LIBCMT:log10_sse2_precise.obj
 0001:0000dcd0       T_Tbl                      1000ecd0     LIBCMT:log10_sse2_precise.obj
 0001:0000e0e0       CB_Tbl                     1000f0e0     LIBCMT:log10_sse2_precise.obj
 0001:0000e4f0       _One                       1000f4f0     LIBCMT:floor_pentium4.obj
 0001:0000e500       _Bns                       1000f500     LIBCMT:floor_pentium4.obj
 0001:0000e510       _NegOne                    1000f510     LIBCMT:floor_pentium4.obj
 0001:0000e520       _NegZero                   1000f520     LIBCMT:floor_pentium4.obj
 0001:0000e530       _S                         1000f530     LIBCMT:floor_pentium4.obj
 0001:0000eeb0       _rterrs                    1000feb0     LIBCMT:crt0msg.obj
 0001:0000f470       ?ccsField@?P@??_wopenfile@@9@9 10010470     LIBCMT:_wopen.obj
 0001:0000f478       ?utf8encoding@?P@??_wopenfile@@9@9 10010478     LIBCMT:_wopen.obj
 0001:0000f484       ?utf16encoding@?P@??_wopenfile@@9@9 10010484     LIBCMT:_wopen.obj
 0001:0000f498       ?unicodeencoding@?P@??_wopenfile@@9@9 10010498     LIBCMT:_wopen.obj
 0001:0000f4a8       __mb_locale_names          100104a8     LIBCMT:mbctype.obj
 0001:0000f848       __first_127char            10010848     LIBCMT:wsetloca.obj
 0001:0000f8c8       _INF                       100108c8     LIBCMT:libm_error.obj
 0001:0000f8d8       _BIG                       100108d8     LIBCMT:libm_error.obj
 0001:0000f8e8       _ZERO                      100108e8     LIBCMT:libm_error.obj
 0001:0000f8f8       _INF_32                    100108f8     LIBCMT:libm_error.obj
 0001:0000f900       _NAN_32                    10010900     LIBCMT:libm_error.obj
 0001:0000f908       _ZERO_32                   10010908     LIBCMT:libm_error.obj
 0001:0000f910       _libm_largef               10010910     LIBCMT:libm_error.obj
 0001:0000f918       _libm_smallf               10010918     LIBCMT:libm_error.obj
 0001:0000f920       _libm_small                10010920     LIBCMT:libm_error.obj
 0001:000105a8       _GS_ExceptionPointers      100115a8     LIBCMT:gs_report.obj
 0001:00012630       emask                      10013630     LIBCMT:log10_pentium4.obj
 0001:00012640       CC                         10013640     LIBCMT:log10_pentium4.obj
 0001:00012650       Magic                      10013650     LIBCMT:log10_pentium4.obj
 0001:00012660       hi_mask                    10013660     LIBCMT:log10_pentium4.obj
 0001:00012670       LOG10_2                    10013670     LIBCMT:log10_pentium4.obj
 0001:00012680       place_L                    10013680     LIBCMT:log10_pentium4.obj
 0001:000126a0       One                        100136a0     LIBCMT:log10_pentium4.obj
 0001:000126b0       Zero                       100136b0     LIBCMT:log10_pentium4.obj
 0001:000126c0       Two52                      100136c0     LIBCMT:log10_pentium4.obj
 0001:000126d0       Infs                       100136d0     LIBCMT:log10_pentium4.obj
 0001:000126e0       NaN                        100136e0     LIBCMT:log10_pentium4.obj
 0001:000126f0       coeff                      100136f0     LIBCMT:log10_pentium4.obj
 0001:00012730       T_Tbl                      10013730     LIBCMT:log10_pentium4.obj
 0001:00012b40       CB_Tbl                     10013b40     LIBCMT:log10_pentium4.obj
 0001:00012f6e       _log2max                   10013f6e     LIBCMT:87tran.obj
 0001:00012f78       _smallarg                  10013f78     LIBCMT:87tran.obj
 0001:00012f82       _half                      10013f82     LIBCMT:87tran.obj
 0001:00012fc4       One                        10013fc4     LIBCMT:87disp.obj
 0001:00012fcc       XAMtoTagTab                10013fcc     LIBCMT:87disp.obj
 0001:00012fe0       One                        10013fe0     LIBCMT:common.obj
 0001:00012ff4       DblMax                     10013ff4     LIBCMT:common.obj
 0001:00012ffc       DblMin                     10013ffc     LIBCMT:common.obj
 0001:00013004       IeeeAdjO                   10014004     LIBCMT:common.obj
 0001:0001300c       IeeeAdjU                   1001400c     LIBCMT:common.obj
 0001:00013014       _infinity                  10014014     LIBCMT:common.obj
 0001:0001301c       _zero                      1001401c     LIBCMT:common.obj
 0001:000131c0       $$000000                   100141c0     chkstk.obj
 0001:000131f0       _band                      100141f0 f   bit64.obj
 0001:000133d0       _bor                       100143d0 f   bit64.obj
 0001:000135b0       _bxor                      100145b0 f   bit64.obj
 0001:00013790       _bnot                      10014790 f   bit64.obj
 0001:00013850       _lshift                    10014850 f   bit64.obj
 0001:00013930       _rshift                    10014930 f   bit64.obj
 0001:00013a10       _arshift                   10014a10 f   bit64.obj
 0001:00013af0       _f_new                     10014af0 f   bit64.obj
 0001:00013d40       _f_tostring                10014d40 f   bit64.obj
 0001:00013e10       _f_type                    10014e10 f   bit64.obj
 0001:00013e80       _f_add                     10014e80 f   bit64.obj
 0001:00014060       _f_sub                     10015060 f   bit64.obj
 0001:000141b0       _f_mul                     100151b0 f   bit64.obj
 0001:000143b0       _f_div                     100153b0 f   bit64.obj
 0001:000145c0       _f_mod                     100155c0 f   bit64.obj
 0001:00014720       _f_unm                     10015720 f   bit64.obj
 0001:000147d0       _f_eq                      100157d0 f   bit64.obj
 0001:00014930       _f_lt                      10015930 f   bit64.obj
 0001:00014aa0       _f_le                      10015aa0 f   bit64.obj
 0001:00015010       _FillFarMacroCall          10016010 f   exported.obj
 0001:00015200       _FillFarMacroCall_Callback@12 10016200 f   exported.obj
 0001:00017780       _PushAnalyseInfo           10018780 f   exported.obj
 0001:00017f60       _errfile                   10018f60 f   lflua.obj
 0001:00017fb0       _getF                      10018fb0 f   lflua.obj
 0001:000180a0       _skipBOM                   100190a0 f   lflua.obj
 0001:00019050       _FL_PushParams             1001a050 f   luamacro.obj
 0001:000190c0       _InitMPR                   1001a0c0 f   luamacro.obj
 0001:00019110       _MacroCallFarCallback@12   1001a110 f   luamacro.obj
 0001:00019730       _uc_tostring               1001a730 f   lusercontrol.obj
 0001:00019790       _uc_index                  1001a790 f   lusercontrol.obj
 0001:00019820       _uc_newindex               1001a820 f   lusercontrol.obj
 0001:000198e0       _uc_New                    1001a8e0 f   lusercontrol.obj
 0001:00019b40       _far_IsPluginLoaded        1001ab40 f   service.obj
 0001:00019c40       _far_XLat                  1001ac40 f   service.obj
 0001:00019d30       _far_FormatFileSize        1001ad30 f   service.obj
 0001:00019e50       _far_DialogRun             1001ae50 f   service.obj
 0001:00019f00       _far_DialogFree            1001af00 f   service.obj
 0001:00019f60       _dialog_tostring           1001af60 f   service.obj
 0001:00019fc0       _far_GetDlgItem            1001afc0 f   service.obj
 0001:0001a030       _far_Timer                 1001b030 f   service.obj
 0001:0001a150       _far_SetDlgItem            1001b150 f   service.obj
 0001:0001a1b0       _editor_Editor             1001b1b0 f   service.obj
 0001:0001a2c0       _timer_Close               1001b2c0 f   service.obj
 0001:0001a2e0       _viewer_Viewer             1001b2e0 f   service.obj
 0001:0001a3d0       _timer_tostring            1001b3d0 f   service.obj
 0001:0001a420       _timer_index               1001b420 f   service.obj
 0001:0001a5e0       _viewer_GetFileName        1001b5e0 f   service.obj
 0001:0001a690       _viewer_GetInfo            1001b690 f   service.obj
 0001:0001a930       _far_Message               1001b930 f   service.obj
 0001:0001aa70       _timer_newindex            1001ba70 f   service.obj
 0001:0001abe0       _viewer_Quit               1001bbe0 f   service.obj
 0001:0001ac20       _far_GetFileOwner          1001bc20 f   service.obj
 0001:0001acb0       _viewer_Redraw             1001bcb0 f   service.obj
 0001:0001acf0       _viewer_Select             1001bcf0 f   service.obj
 0001:0001ad80       _far_GetNumberOfLinks      1001bd80 f   service.obj
 0001:0001add0       _far_LuafarVersion         1001bdd0 f   service.obj
 0001:0001ae20       _viewer_SetPosition        1001be20 f   service.obj
 0001:0001b010       _far_CreateSettings        1001c010 f   service.obj
 0001:0001b1e0       _panel_CheckPanelsExist    1001c1e0 f   service.obj
 0001:0001b240       _panel_ClosePanel          1001c240 f   service.obj
 0001:0001b2b0       _viewer_SetMode            1001c2b0 f   service.obj
 0001:0001b3c0       _panel_GetPanelInfo        1001c3c0 f   service.obj
 0001:0001b590       _far_ShowHelp              1001c590 f   service.obj
 0001:0001b620       _far_InputBox              1001c620 f   service.obj
 0001:0001b7b0       _Settings_set              1001c7b0 f   service.obj
 0001:0001b8e0       _panel_GetPanelItem        1001c8e0 f   service.obj
 0001:0001b8f0       _panel_GetSelectedPanelItem 1001c8f0 f   service.obj
 0001:0001b900       _far_GetMsg                1001c900 f   service.obj
 0001:0001b960       _panel_GetCurrentPanelItem 1001c960 f   service.obj
 0001:0001b970       _Settings_get              1001c970 f   service.obj
 0001:0001bab0       _far_Text                  1001cab0 f   service.obj
 0001:0001bb80       _Settings_delete           1001cb80 f   service.obj
 0001:0001bc20       _panel_GetPanelFormat      1001cc20 f   service.obj
 0001:0001bc30       _panel_GetPanelHostFile    1001cc30 f   service.obj
 0001:0001bc40       _Settings_createsubkey     1001cc40 f   service.obj
 0001:0001bd40       _far_CopyToClipboard       1001cd40 f   service.obj
 0001:0001bde0       _panel_GetColumnTypes      1001cde0 f   service.obj
 0001:0001bdf0       _panel_GetColumnWidths     1001cdf0 f   service.obj
 0001:0001be00       _panel_GetPanelPrefix      1001ce00 f   service.obj
 0001:0001be10       _far_PasteFromClipboard    1001ce10 f   service.obj
 0001:0001bf00       _panel_RedrawPanel         1001cf00 f   service.obj
 0001:0001bfe0       _far_PluginStartupInfo     1001cfe0 f   service.obj
 0001:0001c080       _Settings_opensubkey       1001d080 f   service.obj
 0001:0001c130       _Settings_enum             1001d130 f   service.obj
 0001:0001c410       _far_InputRecordToName     1001d410 f   service.obj
 0001:0001c5e0       _far_GetCurrentDirectory   1001d5e0 f   service.obj
 0001:0001c640       _panel_SetCaseSensitiveSort 1001d640 f   service.obj
 0001:0001c650       _panel_SetNumericSort      1001d650 f   service.obj
 0001:0001c660       _panel_SetSortOrder        1001d660 f   service.obj
 0001:0001c670       _editor_GetFileName        1001d670 f   service.obj
 0001:0001c720       _panel_SetDirectoriesFirst 1001d720 f   service.obj
 0001:0001c730       _far_NameToInputRecord     1001d730 f   service.obj
 0001:0001c7a0       _panel_UpdatePanel         1001d7a0 f   service.obj
 0001:0001c7b0       _Settings_free             1001d7b0 f   service.obj
 0001:0001c830       _editor_GetInfo            1001d830 f   service.obj
 0001:0001cbb0       _panel_SetSortMode         1001dbb0 f   service.obj
 0001:0001cbc0       _far_LStricmp              1001dbc0 f   service.obj
 0001:0001cc10       _panel_SetViewMode         1001dc10 f   service.obj
 0001:0001cc20       _far_FreeSettings          1001dc20 f   service.obj
 0001:0001cca0       _panel_GetPanelDirectory   1001dca0 f   service.obj
 0001:0001cdb0       _far_LStrnicmp             1001ddb0 f   service.obj
 0001:0001ce20       _Settings_tostring         1001de20 f   service.obj
 0001:0001ce80       _far_ProcessName           1001de80 f   service.obj
 0001:0001d0a0       _far_ColorDialog           1001e0a0 f   service.obj
 0001:0001d1d0       _panel_SetPanelDirectory   1001e1d0 f   service.obj
 0001:0001d380       _far_GetReparsePointInfo   1001e380 f   service.obj
 0001:0001d410       _panel_GetCmdLine          1001e410 f   service.obj
 0001:0001d4a0       _panel_SetCmdLine          1001e4a0 f   service.obj
 0001:0001d510       _far_LIsAlpha              1001e510 f   service.obj
 0001:0001d560       _panel_GetCmdLinePos       1001e560 f   service.obj
 0001:0001d5e0       _far_LIsAlphanum           1001e5e0 f   service.obj
 0001:0001d630       _far_LIsLower              1001e630 f   service.obj
 0001:0001d680       _panel_SetCmdLinePos       1001e680 f   service.obj
 0001:0001d6f0       _far_LIsUpper              1001e6f0 f   service.obj
 0001:0001d740       _panel_InsertCmdLine       1001e740 f   service.obj
 0001:0001d7b0       _editor_GetString          1001e7b0 f   service.obj
 0001:0001d7c0       _editor_GetStringW         1001e7c0 f   service.obj
 0001:0001d7d0       _panel_GetCmdLineSelection 1001e7d0 f   service.obj
 0001:0001d880       _far_LLowerBuf             1001e880 f   service.obj
 0001:0001d8e0       _panel_SetCmdLineSelection 1001e8e0 f   service.obj
 0001:0001d980       _far_LUpperBuf             1001e980 f   service.obj
 0001:0001d9e0       _far_MkTemp                1001e9e0 f   service.obj
 0001:0001da60       _editor_SetString          1001ea60 f   service.obj
 0001:0001da70       _editor_SetStringW         1001ea70 f   service.obj
 0001:0001da80       _far_MkLink                1001ea80 f   service.obj
 0001:0001db50       _editor_InsertString       1001eb50 f   service.obj
 0001:0001dbc0       _far_GetPathRoot           1001ebc0 f   service.obj
 0001:0001dc30       _editor_DeleteString       1001ec30 f   service.obj
 0001:0001dc80       _panel_SetSelection        1001ec80 f   service.obj
 0001:0001dc90       _panel_ClearSelection      1001ec90 f   service.obj
 0001:0001dca0       _editor_InsertText         1001eca0 f   service.obj
 0001:0001dd00       _panel_SetUserScreen       1001ed00 f   service.obj
 0001:0001dd60       _editor_InsertTextW        1001ed60 f   service.obj
 0001:0001ddc0       _editor_DeleteChar         1001edc0 f   service.obj
 0001:0001de10       _panel_GetUserScreen       1001ee10 f   service.obj
 0001:0001de70       _far_TruncPathStr          1001ee70 f   service.obj
 0001:0001de80       _editor_DeleteBlock        1001ee80 f   service.obj
 0001:0001ded0       _far_TruncStr              1001eed0 f   service.obj
 0001:0001dee0       _panel_IsActivePanel       1001eee0 f   service.obj
 0001:0001df40       _editor_UndoRedo           1001ef40 f   service.obj
 0001:0001dfe0       _panel_SetActivePanel      1001efe0 f   service.obj
 0001:0001e060       _far_GetDirList            1001f060 f   service.obj
 0001:0001e390       _far_RecursiveSearch       1001f390 f   service.obj
 0001:0001e490       _far_GetPluginDirList      1001f490 f   service.obj
 0001:0001e530       _far_ConvertPath           1001f530 f   service.obj
 0001:0001e600       _far_RestoreScreen         1001f600 f   service.obj
 0001:0001e660       _far_SaveScreen            1001f660 f   service.obj
 0001:0001e6e0       _far_AdvControl            1001f6e0 f   service.obj
 0001:0001ee74       $LN78                      1001fe74     service.obj
 0001:0001eeb8       $LN54                      1001feb8     service.obj
 0001:0001eee0       _editor_SetKeyBar          1001fee0 f   service.obj
 0001:0001eef0       _viewer_SetKeyBar          1001fef0 f   service.obj
 0001:0001ef00       _editor_SetParam           1001ff00 f   service.obj
 0001:0001f060       _editor_SetPosition        10020060 f   service.obj
 0001:0001f140       _editor_Redraw             10020140 f   service.obj
 0001:0001f190       _editor_ExpandTabs         10020190 f   service.obj
 0001:0001f1f0       _editor_GetBookmarks       100201f0 f   service.obj
 0001:0001f200       _editor_GetSessionBookmarks 10020200 f   service.obj
 0001:0001f210       _editor_AddSessionBookmark 10020210 f   service.obj
 0001:0001f260       _far_MacroLoadAll          10020260 f   service.obj
 0001:0001f2a0       _editor_ClearSessionBookmarks 100202a0 f   service.obj
 0001:0001f2f0       _far_MacroSaveAll          100202f0 f   service.obj
 0001:0001f330       _far_MacroGetState         10020330 f   service.obj
 0001:0001f370       _editor_DeleteSessionBookmark 10020370 f   service.obj
 0001:0001f3d0       _far_MacroGetArea          100203d0 f   service.obj
 0001:0001f410       _editor_NextSessionBookmark 10020410 f   service.obj
 0001:0001f460       _editor_PrevSessionBookmark 10020460 f   service.obj
 0001:0001f4b0       _far_MacroPost             100204b0 f   service.obj
 0001:0001f4c0       _editor_SetTitle           100204c0 f   service.obj
 0001:0001f520       _far_MacroCheck            10020520 f   service.obj
 0001:0001f530       _far_MacroGetLastError     10020530 f   service.obj
 0001:0001f5f0       _editor_Quit               100205f0 f   service.obj
 0001:0001f640       _editor_Select             10020640 f   service.obj
 0001:0001f720       _far_MacroAdd              10020720 f   service.obj
 0001:0001f8d0       _editor_GetSelection       100208d0 f   service.obj
 0001:0001fba0       _far_MacroDelete           10020ba0 f   service.obj
 0001:0001fc10       _far_MacroExecute          10020c10 f   service.obj
 0001:0001fd50       _far_SendDlgMessage        10020d50 f   service.obj
 0001:00020ab4       $LN106                     10021ab4     service.obj
 0001:00020ac0       $LN93                      10021ac0     service.obj
 0001:00020b04       $LN107                     10021b04     service.obj
 0001:00020b88       $LN94                      10021b88     service.obj
 0001:00020bd0       _far_CPluginStartupInfo    10021bd0 f   service.obj
 0001:00020c00       _editor_TabToReal          10021c00 f   service.obj
 0001:00020c10       _far_MakeMenuItems         10021c10 f   service.obj
 0001:00020e60       _editor_RealToTab          10021e60 f   service.obj
 0001:00020e70       _far_Show                  10021e70 f   service.obj
 0001:00020ef0       _editor_AddColor           10021ef0 f   service.obj
 0001:00021030       _editor_DelColor           10022030 f   service.obj
 0001:000210c0       _editor_GetColor           100220c0 f   service.obj
 0001:00021220       _editor_SaveFile           10022220 f   service.obj
 0001:000212b0       _far_CreateFileFilter      100222b0 f   service.obj
 0001:00021380       _filefilter_Free           10022380 f   service.obj
 0001:00021400       _editor_ReadInput          10022400 f   service.obj
 0001:00021460       _filefilter_gc             10022460 f   service.obj
 0001:00021470       _filefilter_tostring       10022470 f   service.obj
 0001:000214c0       _filefilter_OpenMenu       100224c0 f   service.obj
 0001:00021530       _filefilter_Starting       10022530 f   service.obj
 0001:000215a0       _filefilter_IsFileInFilter 100225a0 f   service.obj
 0001:00021640       _editor_ProcessInput       10022640 f   service.obj
 0001:000216b0       _far_LoadPlugin            100226b0 f   service.obj
 0001:000216c0       _editor_SubscribeChangeEvent 100226c0 f   service.obj
 0001:00021750       _far_ForcedLoadPlugin      10022750 f   service.obj
 0001:00021760       _far_UnloadPlugin          10022760 f   service.obj
 0001:000217b0       _far_Menu                  100227b0 f   service.obj
 0001:00021ed0       _far_FindPlugin            10022ed0 f   service.obj
 0001:00021fb0       _far_GetPluginInformation  10022fb0 f   service.obj
 0001:000221c0       _far_GetPlugins            100231c0 f   service.obj
 0001:00022280       _far_DialogInit            10023280 f   service.obj
 0001:00022540       _ChangePanelSelection      10023540 f   service.obj
 0001:00022740       _CheckFlags                10023740 f   service.obj
 0001:00022790       _CheckFlagsFromTable       10023790 f   service.obj
 0001:00022ac0       _CustomAllocator           10023ac0 f   service.obj
 0001:00022b20       _FastGetString             10023b20 f   service.obj
 0001:00022ba0       _FillEditorSelect          10023ba0 f   service.obj
 0001:00022c50       _FillEditorSetPosition     10023c50 f   service.obj
 0001:00022eac       $LN18                      10023eac     service.obj
 0001:00022ec4       $LN15                      10023ec4     service.obj
 0001:00022ef0       _FillKeyBarTitles          10023ef0 f   service.obj
 0001:00023080       _FrsUserFunc@12            10024080 f   service.obj
 0001:00023110       _GetDialogItemType         10024110 f   service.obj
 0001:000234d0       _GetMouseEvent             100244d0 f   service.obj
 0001:00023540       _GetOptGuid                10024540 f   service.obj
 0001:00024650       _MacroSendString           10025650 f   service.obj
 0001:00024810       _OptFlags                  10025810 f   service.obj
 0001:00024870       _OptInputRecord            10025870 f   service.obj
 0001:00024910       _PushBookmarks             10025910 f   service.obj
 0001:00024b60       $LN17                      10025b60     service.obj
 0001:00024b6c       $LN13                      10025b6c     service.obj
 0001:00024e10       $LN52                      10025e10     service.obj
 0001:00024e1c       $LN44                      10025e1c     service.obj
 0001:00024e30       _PushDlgItem               10025e30 f   service.obj
 0001:00024f20       _PushDlgItemNum            10025f20 f   service.obj
 0001:00024fe0       _PushEditorSetPosition     10025fe0 f   service.obj
 0001:000256f0       _PutPluginMenuItemToTable  100266f0 f   service.obj
 0001:000257c0       _PutVersionInfoToTable     100267c0 f   service.obj
 0001:00025820       _SetDlgItem                10026820 f   service.obj
 0001:00025890       _SetFarDialogItem          10026890 f   service.obj
 0001:00025b00       _SetKeyBar                 10026b00 f   service.obj
 0001:00025c40       _SetPanelBooleanProperty   10026c40 f   service.obj
 0001:00025cd0       _SetPanelIntegerProperty   10026cd0 f   service.obj
 0001:00025ea0       __EditorGetString          10026ea0 f   service.obj
 0001:000260c0       __EditorSetString          100270c0 f   service.obj
 0001:000261b0       __EditorTabConvert         100271b0 f   service.obj
 0001:00026240       _check_env_flag            10027240 f   service.obj
 0001:000262b0       _get_env_flag              100272b0 f   service.obj
 0001:000263e0       _get_panel_item            100273e0 f   service.obj
 0001:000264e0       _get_string_info           100274e0 f   service.obj
 0001:000265b0       _luaopen_far               100275b0 f   service.obj
 0001:00026810       _plugin_load               10027810 f   service.obj
 0001:00026ae0       _truncstring               10027ae0 f   service.obj
 0001:00026b90       _str_rep                   10027b90 f   slnunico.obj
 0001:00026c10       _unic_byte                 10027c10 f   slnunico.obj
 0001:00026db0       _unic_char                 10027db0 f   slnunico.obj
 0001:00026ea0       _str_dump                  10027ea0 f   slnunico.obj
 0001:00026f10       _unic_find                 10027f10 f   slnunico.obj
 0001:00026f20       _unic_match                10027f20 f   slnunico.obj
 0001:00026f30       _gmatch                    10027f30 f   slnunico.obj
 0001:00026fe0       _gfind_nodef               10027fe0 f   slnunico.obj
 0001:00027000       _unic_gsub                 10028000 f   slnunico.obj
 0001:000271a0       _str_format                100281a0 f   slnunico.obj
 0001:0002748c       $LN38                      1002848c     slnunico.obj
 0001:000274a8       $LN32                      100284a8     slnunico.obj
 0001:000274e0       _utf8_valid                100284e0 f   slnunico.obj
 0001:000275b0       _unic_len                  100285b0 f   slnunico.obj
 0001:00027630       _unic_sub                  10028630 f   slnunico.obj
 0001:00027790       _str_reverse               10028790 f   slnunico.obj
 0001:000278f0       _unic_lower                100288f0 f   slnunico.obj
 0001:00027a40       _unic_upper                10028a40 f   slnunico.obj
 0001:00027b90       _add_s                     10028b90 f   slnunico.obj
 0001:00027c80       _add_value                 10028c80 f   slnunico.obj
 0001:00027d90       $LN13                      10028d90     slnunico.obj
 0001:00027da0       _addquoted                 10028da0 f   slnunico.obj
 0001:00027e70       $LN24                      10028e70     slnunico.obj
 0001:00027e80       $LN20                      10028e80     slnunico.obj
 0001:00027ee0       _classend                  10028ee0 f   slnunico.obj
 0001:00027f90       _end_capture               10028f90 f   slnunico.obj
 0001:00027ff0       _gmatch_aux                10028ff0 f   slnunico.obj
 0001:000280d0       _grab_one_utf8             100290d0 f   slnunico.obj
 0001:00028180       _lmemfind                  10029180 f   slnunico.obj
 0001:00028390       _match                     10029390 f   slnunico.obj
 0001:00028510       $LN49                      10029510     slnunico.obj
 0001:00028528       $LN45                      10029528     slnunico.obj
 0001:00028554       $LN50                      10029554     slnunico.obj
 0001:00028568       $LN46                      10029568     slnunico.obj
 0001:00028580       _match_capture             10029580 f   slnunico.obj
 0001:00028620       _match_class               10029620 f   slnunico.obj
 0001:0002873c       $LN28                      1002973c     slnunico.obj
 0001:0002876c       $LN26                      1002976c     slnunico.obj
 0001:00028790       _matchbalance              10029790 f   slnunico.obj
 0001:00028810       _max_expand                10029810 f   slnunico.obj
 0001:00028900       _min_expand                10029900 f   slnunico.obj
 0001:00028c00       _push_captures             10029c00 f   slnunico.obj
 0001:00028cc0       _push_onecapture           10029cc0 f   slnunico.obj
 0001:00028d50       _scanformat                10029d50 f   slnunico.obj
 0001:00028e50       _singlematch               10029e50 f   slnunico.obj
 0001:00029140       _start_capture             1002a140 f   slnunico.obj
 0001:00029190       _unic_find_aux             1002a190 f   slnunico.obj
 0001:000293a0       _utf8_count                1002a3a0 f   slnunico.obj
 0001:00029450       _utf8_deco                 1002a450 f   slnunico.obj
 0001:00029520       _utf8_enco                 1002a520 f   slnunico.obj
 0001:00029610       _utf8_graphext             1002a610 f   slnunico.obj
 0001:00029730       _utf8_oced                 1002a730 f   slnunico.obj
 0001:00029810       _writer                    1002a810 f   slnunico.obj
 0001:00029830       _io_read                   1002a830 f   uliolib51.obj
 0001:00029880       _f_read                    1002a880 f   uliolib51.obj
 0001:000298c0       _io_write                  1002a8c0 f   uliolib51.obj
 0001:00029910       _f_write                   1002a910 f   uliolib51.obj
 0001:00029950       _f_seek                    1002a950 f   uliolib51.obj
 0001:00029a00       _f_setvbuf                 1002aa00 f   uliolib51.obj
 0001:00029ab0       _io_flush                  1002aab0 f   uliolib51.obj
 0001:00029b40       _f_flush                   1002ab40 f   uliolib51.obj
 0001:00029bd0       _io_type                   1002abd0 f   uliolib51.obj
 0001:00029c70       _io_close                  1002ac70 f   uliolib51.obj
 0001:00029cf0       _io_gc                     1002acf0 f   uliolib51.obj
 0001:00029d40       _io_tostring               1002ad40 f   uliolib51.obj
 0001:00029d90       _io_open                   1002ad90 f   uliolib51.obj
 0001:00029e70       _io_popen                  1002ae70 f   uliolib51.obj
 0001:00029ef0       _io_tmpfile                1002aef0 f   uliolib51.obj
 0001:00029f70       _io_input                  1002af70 f   uliolib51.obj
 0001:00029f90       _io_output                 1002af90 f   uliolib51.obj
 0001:00029fb0       _f_lines                   1002afb0 f   uliolib51.obj
 0001:0002a000       _io_lines                  1002b000 f   uliolib51.obj
 0001:0002a0b0       _aux_close                 1002b0b0 f   uliolib51.obj
 0001:0002a0e0       _fileerror                 1002b0e0 f   uliolib51.obj
 0001:0002a130       _g_iofile                  1002b130 f   uliolib51.obj
 0001:0002a220       _g_read                    1002b220 f   uliolib51.obj
 0001:0002a3d0       _g_write                   1002b3d0 f   uliolib51.obj
 0001:0002a4c0       _io_fclose                 1002b4c0 f   uliolib51.obj
 0001:0002a540       _io_noclose                1002b540 f   uliolib51.obj
 0001:0002a570       _io_pclose                 1002b570 f   uliolib51.obj
 0001:0002a5f0       _io_readline               1002b5f0 f   uliolib51.obj
 0001:0002a8b0       _pushresult                1002b8b0 f   uliolib51.obj
 0001:0002a950       _read_chars                1002b950 f   uliolib51.obj
 0001:0002a9f0       _read_line                 1002b9f0 f   uliolib51.obj
 0001:0002aac0       _read_number               1002bac0 f   uliolib51.obj
 0001:0002ab10       _ll_module                 1002bb10 f   uloadlib51.obj
 0001:0002abf0       _ll_seeall                 1002bbf0 f   uloadlib51.obj
 0001:0002ac50       _ll_loadlib                1002bc50 f   uloadlib51.obj
 0001:0002acc0       _loader_Lua                1002bcc0 f   uloadlib51.obj
 0001:0002ad10       _loader_C                  1002bd10 f   uloadlib51.obj
 0001:0002ada0       _loader_Croot              1002bda0 f   uloadlib51.obj
 0001:0002ae40       _loader_preload            1002be40 f   uloadlib51.obj
 0001:0002aeb0       _ll_require                1002beb0 f   uloadlib51.obj
 0001:0002b060       _dooptions                 1002c060 f   uloadlib51.obj
 0001:0002b0a0       _findfile                  1002c0a0 f   uloadlib51.obj
 0001:0002b1e0       _gctm                      1002c1e0 f   uloadlib51.obj
 0001:0002b210       _ll_loadfunc               1002c210 f   uloadlib51.obj
 0001:0002b290       _ll_register               1002c290 f   uloadlib51.obj
 0001:0002b340       _loaderror                 1002c340 f   uloadlib51.obj
 0001:0002b4d0       _mkfuncname                1002c4d0 f   uloadlib51.obj
 0001:0002b520       _modinit                   1002c520 f   uloadlib51.obj
 0001:0002b590       _pushnexttemplate          1002c590 f   uloadlib51.obj
 0001:0002b620       _setfenv                   1002c620 f   uloadlib51.obj
 0001:0002b690       _setpath                   1002c690 f   uloadlib51.obj
 0001:0002b740       _setprogdir                1002c740 f   uloadlib51.obj
 0001:0002ca80       $LN13                      1002da80     ustring.obj
 0001:0002d8f0       _win_GetEnv                1002e8f0 f   win.obj
 0001:0002d9b0       _win_SetEnv                1002e9b0 f   win.obj
 0001:0002d9f0       _win_SetRegKey             1002e9f0 f   win.obj
 0001:0002dc50       _win_GetRegKey             1002ec50 f   win.obj
 0001:0002ddcc       $LN17                      1002edcc     win.obj
 0001:0002ddf0       _win_DeleteRegKey          1002edf0 f   win.obj
 0001:0002de30       _win_EnumRegKey            1002ee30 f   win.obj
 0001:0002df10       _win_EnumRegValue          1002ef10 f   win.obj
 0001:0002dff0       _win_ExtractKey            1002eff0 f   win.obj
 0001:0002e040       _win_GetFileInfo           1002f040 f   win.obj
 0001:0002e0b0       _win_GetSystemTimeAsFileTime 1002f0b0 f   win.obj
 0001:0002e0e0       _win_FileTimeToSystemTime  1002f0e0 f   win.obj
 0001:0002e150       _win_SystemTimeToFileTime  1002f150 f   win.obj
 0001:0002e250       _win_FileTimeToLocalFileTime 1002f250 f   win.obj
 0001:0002e2c0       _win_CompareString         1002f2c0 f   win.obj
 0001:0002e450       _win_wcscmp                1002f450 f   win.obj
 0001:0002e4a0       _win_GetVirtualKeys        1002f4a0 f   win.obj
 0001:0002e4c0       _win_GetConsoleScreenBufferInfo 1002f4c0 f   win.obj
 0001:0002e5d0       _win_CopyFile              1002f5d0 f   win.obj
 0001:0002e640       _win_MoveFile              1002f640 f   win.obj
 0001:0002e710       _win_DeleteFile            1002f710 f   win.obj
 0001:0002e750       _win_CreateDir             1002f750 f   win.obj
 0001:0002e830       _win_RemoveDir             1002f830 f   win.obj
 0001:0002e870       _win_ShellExecute          1002f870 f   win.obj
 0001:0002e910       _CheckHKey                 1002f910 f   win.obj
 0001:0002ea60       _ExtractKey                1002fa60 f   win.obj
 0001:0002eae0       _PushWinFindData           1002fae0 f   win.obj
 0001:0002ec20       _mkdir                     1002fc20 f   win.obj
 0001:0002edd0       _pushSystemTime            1002fdd0 f   win.obj
 0001:0002ee70       ??$Wrapper@UDecodePointerName@?1?DecodePointerWrapper@4@@@YGPAXPAX@Z 1002fe70 f   vc_crt_fix_impl.obj
 0001:0002eee0       ??$Wrapper@UEncodePointerName@?1?EncodePointerWrapper@4@@@YGPAXPAX@Z 1002fee0 f   vc_crt_fix_impl.obj
 0001:0002ef50       ?GetModuleHandleExWImpl@@YGHKPB_WPAPAUHINSTANCE__@@@Z 1002ff50 f   vc_crt_fix_impl.obj
 0001:0002ef90       ?ReturnSamePointer@@YGPAXPAX@Z 1002ff90 f   vc_crt_fix_impl.obj
 0001:0002f2c0       $$000000                   100302c0     LIBCMT:lldiv.obj
 0001:0002f370       $$000000                   10030370     LIBCMT:llmul.obj
 0001:0002f3b0       $$000000                   100303b0     LIBCMT:llrem.obj
 0001:0002f470       $$000000                   10030470     LIBCMT:llshl.obj
 0001:0002f490       $$000000                   10030490     LIBCMT:llshr.obj
 0001:0002f4c0       $$000000                   100304c0     LIBCMT:ullshr.obj
 0001:0002f4e0       $$000000                   100304e0     LIBCMT:ftol2.obj
 0001:0002f71f       ___hw_cw_sse2              1003071f f   LIBCMT:ieee87.obj
 0001:0002fac8       __hw_cw                    10030ac8 f   LIBCMT:ieee87.obj
 0001:0002fb60       $$000000                   10030b60     LIBCMT:memcpy.obj
 0001:0002fdb0       LeadUpVec                  10030db0     LIBCMT:memcpy.obj
 0001:0002fe2c       UnwindUpVec                10030e2c     LIBCMT:memcpy.obj
 0001:0002fe98       TrailUpVec                 10030e98     LIBCMT:memcpy.obj
 0001:0002ff3c       LeadDownVec                10030f3c     LIBCMT:memcpy.obj
 0001:0002ffc8       UnwindDownVec              10030fc8     LIBCMT:memcpy.obj
 0001:00030034       TrailDownVec               10031034     LIBCMT:memcpy.obj
 0001:000301b0       $$000000                   100311b0     LIBCMT:memset.obj
 0001:00031260       $$000000                   10032260     LIBCMT:strchr.obj
 0001:00031390       $$000000                   10032390     LIBCMT:strncmp.obj
 0001:00031830       $$000000                   10032830     LIBCMT:log10_sse2_precise.obj
 0001:00031ae0       $$000000                   10032ae0     LIBCMT:floor_pentium4.obj
 0001:00031ce0       $$000000                   10032ce0     LIBCMT:memchr.obj
 0001:00031d90       $$000000                   10032d90     LIBCMT:strncpy.obj
 0001:00031ec0       $$000000                   10032ec0     LIBCMT:strpbrk.obj
 0001:000320b2       _flsall                    100330b2 f   LIBCMT:fflush.obj
 0001:00032b65       _idtab                     10033b65 f   LIBCMT:popen.obj
 0001:00032b65       _idtab                     10033b65 f   LIBCMT:popen.obj
 0001:00032e68       _genfname                  10033e68 f   LIBCMT:tmpfile.obj
 0001:00032efc       _init_namebuf              10033efc f   LIBCMT:tmpfile.obj
 0001:00033740       $$000000                   10034740     LIBCMT:strrchr.obj
 0001:00033880       $$000000                   10034880     LIBCMT:lldvrm.obj
 0001:00033b32       ___DllMainCRTStartup       10034b32 f   LIBCMT:dllcrt0.obj
 0001:00034ab0       $LN272                     10035ab0     LIBCMT:output.obj
 0001:00034ad0       _write_char                10035ad0 f   LIBCMT:output.obj
 0001:00034b16       _write_multi_char          10035b16 f   LIBCMT:output.obj
 0001:00034b42       _write_string              10035b42 f   LIBCMT:output.obj
 0001:00035112       __cftoe2_l                 10036112 f   LIBCMT:cvt.obj
 0001:0003532d       __cftof2_l                 1003632d f   LIBCMT:cvt.obj
 0001:00035757       __shift                    10036757 f   LIBCMT:cvt.obj
 0001:00035bd8       __initterm                 10036bd8 f   LIBCMT:crt0dat.obj
 0001:00035c28       _doexit                    10036c28 f   LIBCMT:crt0dat.obj
 0001:000361aa       _siglookup                 100371aa f   LIBCMT:winsig.obj
 0001:00036c60       $$000000                   10037c60     LIBCMT:sehprolg4.obj
 0001:000380e0       $$000000                   100390e0     LIBCMT:exsup4.obj
 0001:00038170       __unwind_handler4          10039170 f   LIBCMT:exsup4.obj
 0001:0003859c       ?CPtoLocaleName@@YAPB_WH@Z 1003959c f   LIBCMT:mbctype.obj
 0001:000385d6       ?getSystemCP@@YAHH@Z       100395d6 f   LIBCMT:mbctype.obj
 0001:00038642       ?setSBCS@@YAXPAUthreadmbcinfostruct@@@Z 10039642 f   LIBCMT:mbctype.obj
 0001:000386ab       ?setSBUpLow@@YAXPAUthreadmbcinfostruct@@@Z 100396ab f   LIBCMT:mbctype.obj
 0001:000391bb       $LN79                      1003a1bb     LIBCMT:libm_error.obj
 0001:00039200       $$000000                   1003a200     LIBCMT:log10.obj
 0001:0003a02e       $LN262                     1003b02e     LIBCMT:woutput.obj
 0001:0003a04e       _write_char                1003b04e f   LIBCMT:woutput.obj
 0001:0003a084       _write_multi_char          1003b084 f   LIBCMT:woutput.obj
 0001:0003a0b0       _write_string              1003b0b0 f   LIBCMT:woutput.obj
 0001:0003ab1b       ___check_float_string      1003bb1b f   LIBCMT:input.obj
 0001:0003ab7a       __hextodec                 1003bb7a f   LIBCMT:input.obj
 0001:0003ab9b       __inc                      1003bb9b f   LIBCMT:input.obj
 0001:0003bcab       __whiteout                 1003ccab f   LIBCMT:input.obj
 0001:0003c1d0       $$000000                   1003d1d0     LIBCMT:strlen.obj
 0001:0003c486       ?strtoxl@@YAKPAUlocaleinfo_struct@@PBDPAPBDHH@Z 1003d486 f   LIBCMT:strtol.obj
 0001:0003c6ec       _xtoa_s@20                 1003d6ec f   LIBCMT:xtoas.obj
 0001:0003cbe0       $$000000                   1003dbe0     LIBCMT:sehprolg4gs.obj
 0001:0003d226       _parse_cmdline             1003e226 f   LIBCMT:stdargv.obj
 0001:0003db10       $$000000                   1003eb10     LIBCMT:ulldvrm.obj
 0001:0003dd20       $$000000                   1003ed20     LIBCMT:memmove.obj
 0001:0003df70       LeadUpVec                  1003ef70     LIBCMT:memmove.obj
 0001:0003dfec       UnwindUpVec                1003efec     LIBCMT:memmove.obj
 0001:0003e058       TrailUpVec                 1003f058     LIBCMT:memmove.obj
 0001:0003e0fc       LeadDownVec                1003f0fc     LIBCMT:memmove.obj
 0001:0003e188       UnwindDownVec              1003f188     LIBCMT:memmove.obj
 0001:0003e1f4       TrailDownVec               1003f1f4     LIBCMT:memmove.obj
 0001:0003e8c0       __onexit_nolock            1003f8c0 f   LIBCMT:onexit.obj
 0001:0003f1a4       ___createFile              100401a4 f   LIBCMT:wopen.obj
 0001:0003fc50       $$000000                   10040c50     LIBCMT:exsup.obj
 0001:0003fc70       __unwind_handler           10040c70 f   LIBCMT:exsup.obj
 0001:0004026a       ?__crtLCMapStringA_stat@@YAHPAUlocaleinfo_struct@@PB_WKPBDHPADHHH@Z 1004126a f   LIBCMT:a_map.obj
 0001:000404b5       ?__crtGetStringTypeA_stat@@YAHPAUlocaleinfo_struct@@KPBDHPAGHH@Z 100414b5 f   LIBCMT:a_str.obj
 0001:00040920       $$000000                   10041920     LIBCMT:log10_pentium4.obj
 0001:00040bb0       $$000000                   10041bb0     LIBCMT:87tran.obj
 0001:00040db0       $$000000                   10041db0     LIBCMT:87disp.obj
 0001:00040f80       $$000000                   10041f80     LIBCMT:common.obj
 0001:00041110       $$000000                   10042110     LIBCMT:genexcep.obj
 0001:00042079       _copy_environ              10043079 f   LIBCMT:wsetenv.obj
 0001:000420d9       _wfindenv                  100430d9 f   LIBCMT:wsetenv.obj
 0001:00042137       ?x_ismbbtype_l@@YAHPAUlocaleinfo_struct@@IHH@Z 10043137 f   LIBCMT:ismbbyte.obj
 0001:000433cf       $LN304                     100443cf     LIBCMT:strgtold.obj
 0001:00043ff0       $$000000                   10044ff0     LIBCMT:alloca16.obj
 0001:000446e0       $$000000                   100456e0     LIBCMT:_strnicm.obj
 0001:0004474e       ?_strupr_s_l_stat@@YAHPADIPAUlocaleinfo_struct@@@Z 1004574e f   LIBCMT:strupr.obj
 0001:00044950       __sehtable$_fclose         10045950     LIBCMT:fclose.obj
 0001:00044970       __sehtable$_fread_s        10045970     LIBCMT:fread.obj
 0001:00044990       __sehtable$_getc           10045990     LIBCMT:fgetc.obj
 0001:000449b0       __sehtable$_rewind         100459b0     LIBCMT:rewind.obj
 0001:000449d0       __sehtable$_ungetc         100459d0     LIBCMT:ungetc.obj
 0001:000449f0       __sehtable$__wfsopen       100459f0     LIBCMT:wfopen.obj
 0001:00044a10       __sehtable$__wfreopen_helper 10045a10     LIBCMT:wfreopen.obj
 0001:00044a30       __sehtable$_fprintf        10045a30     LIBCMT:fprintf.obj
 0001:00044a50       __sehtable$_clearerr_s     10045a50     LIBCMT:clearerr.obj
 0001:00044a70       __sehtable$_fflush         10045a70     LIBCMT:fflush.obj
 0001:00044a90       __sehtable$_flsall         10045a90     LIBCMT:fflush.obj
 0001:00044ab8       __sehtable$_fgets          10045ab8     LIBCMT:fgets.obj
 0001:00044ad8       __sehtable$_vfscanf        10045ad8     LIBCMT:fscanf.obj
 0001:00044af8       __sehtable$_fseek          10045af8     LIBCMT:fseek.obj
 0001:00044b18       __sehtable$_ftell          10045b18     LIBCMT:ftell.obj
 0001:00044b38       __sehtable$_fwrite         10045b38     LIBCMT:fwrite.obj
 0001:00044b58       __sehtable$__pclose        10045b58     LIBCMT:popen.obj
 0001:00044b78       __sehtable$_setvbuf        10045b78     LIBCMT:setvbuf.obj
 0001:00044b98       __sehtable$__tmpfile_helper 10045b98     LIBCMT:tmpfile.obj
 0001:00044bb8       __sehtable$__wpopen        10045bb8     LIBCMT:wpopen.obj
 0001:00044bd8       __sehtable$__wgetenv       10045bd8     LIBCMT:wgetenv.obj
 0001:00044bf8       __sehtable$__wdupenv_s     10045bf8     LIBCMT:wgetenv.obj
 0001:00044c18       __sehtable$__CRT_INIT@12   10045c18     LIBCMT:dllcrt0.obj
 0001:00044c38       __sehtable$___DllMainCRTStartup 10045c38     LIBCMT:dllcrt0.obj
 0001:00044c58       __sehtable$_doexit         10045c58     LIBCMT:crt0dat.obj
 0001:00044c78       __sehtable$_raise          10045c78     LIBCMT:winsig.obj
 0001:00044c98       __sehtable$___set_fpsr_sse2 10045c98     LIBCMT:fpctrl.obj
 0001:00044cb8       __sehtable$__freefls@4     10045cb8     LIBCMT:tidtable.obj
 0001:00044ce0       __sehtable$__initptd       10045ce0     LIBCMT:tidtable.obj
 0001:00044d08       __sehtable$__fcloseall     10045d08     LIBCMT:closeall.obj
 0001:00044d28       __sehtable$__mtinitlocknum 10045d28     LIBCMT:mlock.obj
 0001:00044d48       __sehtable$__close         10045d48     LIBCMT:close.obj
 0001:00044d68       __sehtable$__read          10045d68     LIBCMT:read.obj
 0001:00044d88       __sehtable$__ioinit        10045d88     LIBCMT:ioinit.obj
 0001:00044da8       __sehtable$__lseek         10045da8     LIBCMT:lseek.obj
 0001:00044dc8       __sehtable$__getstream     10045dc8     LIBCMT:stream.obj
 0001:00044de8       __sehtable$___updatetlocinfo 10045de8     LIBCMT:localref.obj
 0001:00044e08       __sehtable$___updatetmbcinfo 10045e08     LIBCMT:mbctype.obj
 0001:00044e28       __sehtable$__setmbcp       10045e28     LIBCMT:mbctype.obj
 0001:00044e48       __sehtable$__locterm       10045e48     LIBCMT:wsetloca.obj
 0001:00044e68       __sehtable$__commit        10045e68     LIBCMT:commit.obj
 0001:00044e88       __sehtable$__write         10045e88     LIBCMT:write.obj
 0001:00044ea8       __sehtable$__lseeki64      10045ea8     LIBCMT:lseeki64.obj
 0001:00044ec8       __sehtable$__pipe          10045ec8     LIBCMT:pipe.obj
 0001:00044ef0       __sehtable$__sopen_helper  10045ef0     LIBCMT:open.obj
 0001:00044f10       __sehtable$__rmtmp         10045f10     LIBCMT:rmtmp.obj
 0001:00044f38       __sehtable$__wfdopen       10045f38     LIBCMT:wfdopen.obj
 0001:00044f58       __sehtable$__IsNonwritableInCurrentImage 10045f58     LIBCMT:pesect.obj
 0001:00044f78       __sehtable$__onexit        10045f78     LIBCMT:onexit.obj
 0001:00044f98       __sehtable$?terminate@@YAXXZ 10045f98     LIBCMT:hooks.obj
 0001:00044fb8       __sehtable$__alloc_osfhnd  10045fb8     LIBCMT:osfinfo.obj
 0001:00044fe0       __sehtable$___lock_fhandle 10045fe0     LIBCMT:osfinfo.obj
 0001:00045000       __sehtable$__wsopen_helper 10046000     LIBCMT:wopen.obj
 0001:0004571a       .idata$6                   1004671a     kernel32:KERNEL32.dll
 0001:00045734       .idata$6                   10046734     user32:USER32.dll
 0001:000457c6       .idata$6                   100467c6     advapi32:ADVAPI32.dll
 0001:000457f8       .idata$6                   100467f8     shell32:SHELL32.dll
 0001:00045dac       .idata$6                   10046dac     lua5.1:lua5.1.dll
 0001:00045dfa       .idata$6                   10046dfa     rpcrt4:RPCRT4.dll
 0001:00046270       .edata                     10047270     luafar3.exp
 0001:00046298       rgpv                       10047298     luafar3.exp
 0001:0004633c       rgszName                   1004733c     luafar3.exp
 0001:000463e0       rgwOrd                     100473e0     luafar3.exp
 0001:00046432       szName                     10047432     luafar3.exp
 0001:0004643e       $N00001                    1004743e     luafar3.exp
 0001:00046449       $N00002                    10047449     luafar3.exp
 0001:00046459       $N00003                    10047459     luafar3.exp
 0001:00046467       $N00004                    10047467     luafar3.exp
 0001:00046472       $N00005                    10047472     luafar3.exp
 0001:0004647f       $N00006                    1004747f     luafar3.exp
 0001:0004648e       $N00007                    1004748e     luafar3.exp
 0001:00046499       $N00008                    10047499     luafar3.exp
 0001:000464a3       $N00009                    100474a3     luafar3.exp
 0001:000464ae       $N00010                    100474ae     luafar3.exp
 0001:000464c0       $N00011                    100474c0     luafar3.exp
 0001:000464d0       $N00012                    100474d0     luafar3.exp
 0001:000464e1       $N00013                    100474e1     luafar3.exp
 0001:000464ed       $N00014                    100474ed     luafar3.exp
 0001:000464fc       $N00015                    100474fc     luafar3.exp
 0001:0004650d       $N00016                    1004750d     luafar3.exp
 0001:00046521       $N00017                    10047521     luafar3.exp
 0001:00046532       $N00018                    10047532     luafar3.exp
 0001:0004653a       $N00019                    1004753a     luafar3.exp
 0001:0004654b       $N00020                    1004754b     luafar3.exp
 0001:0004655c       $N00021                    1004755c     luafar3.exp
 0001:00046568       $N00022                    10047568     luafar3.exp
 0001:00046574       $N00023                    10047574     luafar3.exp
 0001:0004657f       $N00024                    1004757f     luafar3.exp
 0001:00046590       $N00025                    10047590     luafar3.exp
 0001:000465a1       $N00026                    100475a1     luafar3.exp
 0001:000465ac       $N00027                    100475ac     luafar3.exp
 0001:000465b4       $N00028                    100475b4     luafar3.exp
 0001:000465cb       $N00029                    100475cb     luafar3.exp
 0001:000465e1       $N00030                    100475e1     luafar3.exp
 0001:000465f7       $N00031                    100475f7     luafar3.exp
 0001:0004660d       $N00032                    1004760d     luafar3.exp
 0001:0004661f       $N00033                    1004761f     luafar3.exp
 0001:00046632       $N00034                    10047632     luafar3.exp
 0001:00046647       $N00035                    10047647     luafar3.exp
 0001:0004665c       $N00036                    1004765c     luafar3.exp
 0001:00046673       $N00037                    10047673     luafar3.exp
 0001:00046689       $N00038                    10047689     luafar3.exp
 0001:00046695       $N00039                    10047695     luafar3.exp
 0001:000466a9       $N00040                    100476a9     luafar3.exp
 0001:000466b9       $N00041                    100476b9     luafar3.exp
 0002:00000a80       ?names@?4??LF_InitLuaState1@@9@9 10048a80     service.obj
 0002:00000e90       _pageMap                   10048e90     slnudata.obj
 0002:00002590       _groupMap                  1004a590     slnudata.obj
 0002:00004340       _groups                    1004c340     slnudata.obj
 0002:00004540       _pageMap                   1004c540     slnunico.obj
 0002:00005c40       _groupMap                  1004dc40     slnunico.obj
 0002:000079f0       _groups                    1004f9f0     slnunico.obj
 0002:00007c00       _errtable                  1004fc00     LIBCMT:dosmap.obj
 0002:00007d68       _ErrnoNoMem                1004fd68     LIBCMT:dosmap.obj
 0002:00007d6c       _DoserrorNoMem             1004fd6c     LIBCMT:dosmap.obj
 0002:00008024       _over                      10050024     LIBCMT:fpctrl.obj
 0002:00008030       _under                     10050030     LIBCMT:fpctrl.obj
 0002:0000803c       ?__DAZ_ENABLED@?1??__set_fpsr_sse2@@9@9 1005003c     LIBCMT:fpctrl.obj
 0002:00008048       __locktable                10050048     LIBCMT:mlock.obj
 0002:000082bc       ___rgctypeflag             100502bc     LIBCMT:mbctype.obj
 0002:000082c0       ___rgcode_page_info        100502c0     LIBCMT:mbctype.obj
 0002:00008a10       __ctype_loc_style          10050a10     LIBCMT:wsetloca.obj
 0002:00008a20       LOG_name                   10050a20     LIBCMT:log10.obj
 0002:00008a28       _newcw                     10050a28     LIBCMT:floor.obj
 0002:00008a40       ?isPackaged@?1??__crtIsPackagedApp@@9@9 10050a40     LIBCMT:winapisupp.obj
 0002:00008ad0       ?_names@?1??_get_fname@@9@9 10050ad0     LIBCMT:fpexcept.obj
 0002:00008be0       _DoubleFormat              10050be0     LIBCMT:intrncvt.obj
 0002:00008bf8       _FloatFormat               10050bf8     LIBCMT:intrncvt.obj
 0002:00008f00       ?FunctionAddress@?1??GetModuleHandleExWWrapper@@9@12@4PAXA 10050f00     vc_crt_fix_impl.obj
 0002:00008f04       ?$S1@?1??GetModuleHandleExWWrapper@@9@12@4IA 10050f04     vc_crt_fix_impl.obj
 0002:00008f08       ?ProcessGetModuleHandleExW@?1??GetModuleHandleExWWrapper@@9@12@4P6GHKPB_WPAPAUHINSTANCE__@@@ZA 10050f08     vc_crt_fix_impl.obj
 0002:00008f0c       ?FunctionAddress@?1???$Wrapper@UEncodePointerName@?1?EncodePointerWrapper@4@@@YGPAXPAX@Z@4PAXA 10050f0c     vc_crt_fix_impl.obj
 0002:00008f10       ?$S2@?1???$Wrapper@UEncodePointerName@?1?EncodePointerWrapper@4@@@YGPAXPAX@Z@4IA 10050f10     vc_crt_fix_impl.obj
 0002:00008f14       ?ProcessPointer@?1???$Wrapper@UEncodePointerName@?1?EncodePointerWrapper@4@@@YGPAXPAX@Z@4P6GPAX0@ZA 10050f14     vc_crt_fix_impl.obj
 0002:00008f18       ?FunctionAddress@?1???$Wrapper@UDecodePointerName@?1?DecodePointerWrapper@4@@@YGPAXPAX@Z@4PAXA 10050f18     vc_crt_fix_impl.obj
 0002:00008f1c       ?$S3@?1???$Wrapper@UDecodePointerName@?1?DecodePointerWrapper@4@@@YGPAXPAX@Z@4IA 10050f1c     vc_crt_fix_impl.obj
 0002:00008f20       ?ProcessPointer@?1???$Wrapper@UDecodePointerName@?1?DecodePointerWrapper@4@@@YGPAXPAX@Z@4P6GPAX0@ZA 10050f20     vc_crt_fix_impl.obj
 0002:00008f38       _tmpnam_buf                10050f38     LIBCMT:tmpfile.obj
 0002:00008f48       _tmpfile_buf               10050f48     LIBCMT:tmpfile.obj
 0002:00009058       _tmpnam_s_buf              10051058     LIBCMT:tmpfile.obj
 0002:0000906c       ___proc_attached           1005106c     LIBCMT:dllcrt0.obj
 0002:000090c8       ?outmsg@?8??_NMSG_WRITE@@9@9 100510c8     LIBCMT:crt0msg.obj
 0002:000096f4       _ctrlc_action              100516f4     LIBCMT:winsig.obj
 0002:000096f8       _ctrlbreak_action          100516f8     LIBCMT:winsig.obj
 0002:000096fc       _abort_action              100516fc     LIBCMT:winsig.obj
 0002:00009700       _term_action               10051700     LIBCMT:winsig.obj
 0002:00009704       _ConsoleCtrlHandler_Installed 10051704     LIBCMT:winsig.obj
 0002:00009710       _lclcritsects              10051710     LIBCMT:mlock.obj
 0002:00009978       _fSystemSet                10051978     LIBCMT:mbctype.obj
 0002:00009988       __pmatherr_set             10051988     LIBCMT:libm_error.obj
 0002:00009998       ?_pgmname@?1??_setargv@@9@9 10051998     LIBCMT:stdargv.obj
 0002:00009aa0       ___enable_percent_n        10051aa0     LIBCMT:printf.obj
 0002:00009ab0       _g_pfnRtlGenRandom         10051ab0     LIBCMT:rand_s.obj
 0002:00009ab8       ?pfnMessageBox@?1??__crtMessageBoxW@@9@9 10051ab8     LIBCMT:crtmboxw.obj
 0002:00009abc       ?pfnGetActiveWindow@?1??__crtMessageBoxW@@9@9 10051abc     LIBCMT:crtmboxw.obj
 0002:00009ac0       ?pfnGetLastActivePopup@?1??__crtMessageBoxW@@9@9 10051ac0     LIBCMT:crtmboxw.obj
 0002:00009ac4       ?pfnGetProcessWindowStation@?1??__crtMessageBoxW@@9@9 10051ac4     LIBCMT:crtmboxw.obj
 0002:00009ac8       ?pfnGetUserObjectInformation@?1??__crtMessageBoxW@@9@9 10051ac8     LIBCMT:crtmboxw.obj
 0002:00009ad8       _GS_ExceptionRecord        10051ad8     LIBCMT:gs_report.obj
 0002:00009b28       _GS_ContextRecord          10051b28     LIBCMT:gs_report.obj
 0002:00009df4       _DebuggerWasPresent        10051df4     LIBCMT:gs_report.obj
 0002:00009df8       ___crtCallProc             10051df8     LIBCMT:winapinls.obj
 0003:00000060       $R000000                   10053060     luafar3.res
