 UnInstallW

 Timestamp is 51c2b4d6 (Thu Jun 20 13:52:54 2013)

 Preferred load address is 68000000

 Start         Length     Name                   Class
 0001:00000000 0000d358H .text                   CODE
 0001:0000d358 00000063H .text$x                 CODE
 0002:00000000 00000178H .idata$5                DATA
 0002:00000178 00000004H .CRT$XCA                DATA
 0002:0000017c 00000004H .CRT$XCZ                DATA
 0002:00000180 00000004H .CRT$XIA                DATA
 0002:00000184 0000000cH .CRT$XIC                DATA
 0002:00000190 00000004H .CRT$XIZ                DATA
 0002:00000194 00000004H .CRT$XPA                DATA
 0002:00000198 00000004H .CRT$XPX                DATA
 0002:0000019c 00000004H .CRT$XPXA               DATA
 0002:000001a0 00000004H .CRT$XPZ                DATA
 0002:000001a4 00000004H .CRT$XTA                DATA
 0002:000001a8 00000004H .CRT$XTZ                DATA
 0002:000001b0 000026a0H .rdata                  DATA
 0002:00002850 0000003dH .rdata$debug            DATA
 0002:00002890 0000031cH .rdata$r                DATA
 0002:00002bb0 00000020H .rdata$sxdata           DATA
 0002:00002bd0 00000004H .rtc$IAA                DATA
 0002:00002bd4 00000004H .rtc$IZZ                DATA
 0002:00002bd8 00000004H .rtc$TAA                DATA
 0002:00002bdc 00000004H .rtc$TZZ                DATA
 0002:00002be0 000004a8H .xdata$x                DATA
 0002:00003088 00000050H .idata$2                DATA
 0002:000030d8 00000014H .idata$3                DATA
 0002:000030ec 00000178H .idata$4                DATA
 0002:00003264 000006b8H .idata$6                DATA
 0002:00003920 000000c4H .edata                  DATA
 0003:00000000 00000fa0H .data                   DATA
 0003:00000fa0 0000267cH .bss                    DATA
 0004:00000000 00000058H .rsrc$01                DATA
 0004:00000060 00000250H .rsrc$02                DATA

  Address         Publics by Value              Rva+Base       Lib:Object

 0000:00000000       __except_list              00000000     <absolute>
 0000:00000008       ___safe_se_handler_count   00000008     <absolute>
 0000:00000000       ___ImageBase               68000000     <linker-defined>
 0001:00000000       ?StringCchCopyW@@YGJPA_WIPB_W@Z 68001000 f i UnInstall.obj
 0001:00000030       ?StringCchCatW@@YGJPA_WIPB_W@Z 68001030 f i UnInstall.obj
 0001:0000008c       ?StringCchPrintfW@@YAJPA_WIPB_WZZ 6800108c f i UnInstall.obj
 0001:0000011a       ?my_realloc@@YAPAXPAXI@Z   6800111a f   UnInstall.obj
 0001:0000015e       ??_V@YAXPAX@Z              6800115e f   UnInstall.obj
 0001:0000015e       ??3@YAXPAX@Z               6800115e f   UnInstall.obj
 0001:00000171       ??_U@YAPAXI@Z              68001171 f   UnInstall.obj
 0001:00000184       _memcpy                    68001184 f   UnInstall.obj
 0001:000001a9       _memmove                   680011a9 f   UnInstall.obj
 0001:000001e7       _memset                    680011e7 f   UnInstall.obj
 0001:00000215       ?SaveValue@PluginCheckBoxBinding@@UAEXPAUFarDialogItem@@H@Z 68001215 f i UnInstall.obj
 0001:0000024b       ?SaveValue@PluginRadioButtonBinding@@UAEXPAUFarDialogItem@@H@Z 6800124b f i UnInstall.obj
 0001:00000271       ?SaveValue@PluginComboBoxBinding@@UAEXPAUFarDialogItem@@H@Z 68001271 f i UnInstall.obj
 0001:0000028f       ??0PluginIntEditFieldBinding@@QAE@ABUPluginStartupInfo@@PAPAXHPAHH@Z 6800128f f i UnInstall.obj
 0001:000002f7       ?SaveValue@PluginIntEditFieldBinding@@UAEXPAUFarDialogItem@@H@Z 680012f7 f i UnInstall.obj
 0001:0000031f       ?InitDialogItem@PluginDialogBuilder@@MAEXPAUFarDialogItem@@PB_W@Z 6800131f f i UnInstall.obj
 0001:00000340       ?TextWidth@PluginDialogBuilder@@MAEHABUFarDialogItem@@@Z 68001340 f i UnInstall.obj
 0001:00000350       ?GetLangString@PluginDialogBuilder@@MAEPB_WH@Z 68001350 f i UnInstall.obj
 0001:00000361       ?DoShowDialog@PluginDialogBuilder@@MAEHXZ 68001361 f i UnInstall.obj
 0001:000003a7       ?CreateCheckBoxBinding@PluginDialogBuilder@@MAEPAU?$DialogItemBinding@UFarDialogItem@@@@PAHH@Z 680013a7 f i UnInstall.obj
 0001:000003f5       ?CreateRadioButtonBinding@PluginDialogBuilder@@MAEPAU?$DialogItemBinding@UFarDialogItem@@@@PAH@Z 680013f5 f i UnInstall.obj
 0001:0000043c       ?CreateComboBoxBinding@PluginDialogBuilder@@MAEPAU?$DialogItemBinding@UFarDialogItem@@@@PAH@Z 6800143c f i UnInstall.obj
 0001:00000483       ?AddIntEditField@PluginDialogBuilder@@UAEPAUFarDialogItem@@PAHH@Z 68001483 f i UnInstall.obj
 0001:00000525       ?GetMsg@@YAPB_WH@Z         68001525 f   UnInstall.obj
 0001:00000535       ?EMessage@@YAHPBQB_WHH@Z   68001535 f   UnInstall.obj
 0001:00000558       ?DrawMessage@@YAHHHPADZZ   68001558 f   UnInstall.obj
 0001:000005e7       ?strstri@@YAPB_WPB_W0@Z    680015e7 f   UnInstall.obj
 0001:00000622       ?strnstri@@YAPA_WPA_WPB_WH@Z 68001622 f   UnInstall.obj
 0001:00000672       ?unQuote@@YAPA_WPA_W@Z     68001672 f   UnInstall.obj
 0001:000006b3       ??0PluginSettings@@QAE@ABU_GUID@@P6GHPAXW4FAR_SETTINGS_CONTROL_COMMANDS@@H1@Z@Z 680016b3 f i UnInstall.obj
 0001:0000070c       ??1PluginSettings@@QAE@XZ  6800170c f i UnInstall.obj
 0001:00000718       ?Get@PluginSettings@@QAEHIPB_WH@Z 68001718 f i UnInstall.obj
 0001:00000763       ?Set@PluginSettings@@QAE_NIPB_WH@Z 68001763 f i UnInstall.obj
 0001:000007a8       ?ValidGuid@@YA_NPB_W@Z     680017a8 f   UnInstall.obj
 0001:00000812       ?FillReg@@YA_NAAUKeyInfo@@PA_WAAURegKeyPath@@K@Z 68001812 f   UnInstall.obj
 0001:00000ee3       ?EntryDlgProc@@YGHPAXHH0@Z 68001ee3 f   UnInstall.obj
 0001:00000fc7       ?FillDialog@@YAXAAUFarDialogItem@@W4FARDIALOGITEMTYPES@@HHHHHH@Z 68001fc7 f   UnInstall.obj
 0001:00001010       ?DisplayEntry@@YAXH@Z      68002010 f   UnInstall.obj
 0001:000011e8       ?IsUserAdmin@@YAHXZ        680021e8 f   UnInstall.obj
 0001:00001256       ?CheckForEsc@@YAHXZ        68002256 f   UnInstall.obj
 0001:0000131a       ?IsFilePath@@YAHPB_W_N@Z   6800231a f   UnInstall.obj
 0001:00001425       ?FirstArg@@YAHPB_WPA_WPAPB_W@Z 68002425 f   UnInstall.obj
 0001:000014fc       ?EntryMenu@@YAHHAAHAA_NH@Z 680024fc f   UnInstall.obj
 0001:000017a6       ?ExecuteEntry@@YAHHH_N@Z   680027a6 f   UnInstall.obj
 0001:00001d71       ?DeleteEntry@@YA_NH@Z      68002d71 f   UnInstall.obj
 0001:00001e28       ?CompareEntries@@YGHPBX0PAX@Z 68002e28 f   UnInstall.obj
 0001:00001e39       ?CompareEntriesDate@@YGHPBX0PAX@Z 68002e39 f   UnInstall.obj
 0001:00001e6a       ?EnumKeys@@YAXAAURegKeyPath@@K@Z 68002e6a f   UnInstall.obj
 0001:00001fa1       ?UpDateInfo@@YAXXZ         68002fa1 f   UnInstall.obj
 0001:000022df       ?ReadRegistry@@YAXXZ       680032df f   UnInstall.obj
 0001:0000247c       ?GetMinFarVersionW@@YGHXZ  6800347c f   UnInstall.obj
 0001:00002482       _GetGlobalInfoW@4          68003482 f   UnInstall.obj
 0001:00002501       _SetStartupInfoW@4         68003501 f   UnInstall.obj
 0001:0000253c       _GetPluginInfoW@4          6800353c f   UnInstall.obj
 0001:0000259d       ?ResizeDialog@@YAXPAX@Z    6800359d f   UnInstall.obj
 0001:000031c2       _OpenW@4                   680041c2 f   UnInstall.obj
 0001:000032a6       _ConfigureW@4              680042a6 f   UnInstall.obj
 0001:00003600       ?AddDialogItem@?$DialogBuilderBase@UFarDialogItem@@@@IAEPAUFarDialogItem@@W4FARDIALOGITEMTYPES@@PB_W@Z 68004600 f i UnInstall.obj
 0001:00003643       ?InitDialogItem@?$DialogBuilderBase@UFarDialogItem@@@@UAEXPAUFarDialogItem@@PB_W@Z 68004643 f i UnInstall.obj
 0001:00003646       ?TextWidth@?$DialogBuilderBase@UFarDialogItem@@@@UAEHABUFarDialogItem@@@Z 68004646 f i UnInstall.obj
 0001:0000364c       ?DoShowDialog@?$DialogBuilderBase@UFarDialogItem@@@@UAEHXZ 6800464c f i UnInstall.obj
 0001:00003650       ?CreateComboBoxBinding@?$DialogBuilderBase@UFarDialogItem@@@@UAEPAU?$DialogItemBinding@UFarDialogItem@@@@PAH@Z 68004650 f i UnInstall.obj
 0001:00003650       ?CreateRadioButtonBinding@?$DialogBuilderBase@UFarDialogItem@@@@UAEPAU?$DialogItemBinding@UFarDialogItem@@@@PAH@Z 68004650 f i UnInstall.obj
 0001:00003650       ?GetLangString@?$DialogBuilderBase@UFarDialogItem@@@@UAEPB_WH@Z 68004650 f i UnInstall.obj
 0001:00003655       ??1?$DialogBuilderBase@UFarDialogItem@@@@QAE@XZ 68004655 f i UnInstall.obj
 0001:00003690       ?AddText@?$DialogBuilderBase@UFarDialogItem@@@@QAEPAUFarDialogItem@@H@Z 68004690 f i UnInstall.obj
 0001:000036bb       ?AddCheckbox@?$DialogBuilderBase@UFarDialogItem@@@@QAEPAUFarDialogItem@@HPAHH@Z 680046bb f i UnInstall.obj
 0001:00003714       ?AddComboBox@?$DialogBuilderBase@UFarDialogItem@@@@QAEPAUFarDialogItem@@HPAUFarList@@PAHK@Z 68004714 f i UnInstall.obj
 0001:000037bb       ?CreateCheckBoxBinding@?$DialogBuilderBase@UFarDialogItem@@@@UAEPAU?$DialogItemBinding@UFarDialogItem@@@@PAHH@Z 680047bb f i UnInstall.obj
 0001:000037bb       ?AddIntEditField@?$DialogBuilderBase@UFarDialogItem@@@@UAEPAUFarDialogItem@@PAHH@Z 680047bb f i UnInstall.obj
 0001:000037c0       ?MoveItemAfter@?$DialogBuilderBase@UFarDialogItem@@@@QAEXPAUFarDialogItem@@0@Z 680047c0 f i UnInstall.obj
 0001:0000383d       ?AddSeparator@?$DialogBuilderBase@UFarDialogItem@@@@QAEXH@Z 6800483d f i UnInstall.obj
 0001:0000386a       ?ShowDialog@?$DialogBuilderBase@UFarDialogItem@@@@QAE_NPAH@Z 6800486a f i UnInstall.obj
 0001:0000390a       ?ReallocDialogItems@?$DialogBuilderBase@UFarDialogItem@@@@IAEXXZ 6800490a f i UnInstall.obj
 0001:000039cd       ?ItemWidth@?$DialogBuilderBase@UFarDialogItem@@@@QAEHABUFarDialogItem@@@Z 680049cd f i UnInstall.obj
 0001:00003a08       ?UpdateBorderSize@?$DialogBuilderBase@UFarDialogItem@@@@QAEXXZ 68004a08 f i UnInstall.obj
 0001:00003a85       ?UpdateSecondColumnPosition@?$DialogBuilderBase@UFarDialogItem@@@@QAEXXZ 68004a85 f i UnInstall.obj
 0001:00003b84       ?SaveValues@?$DialogBuilderBase@UFarDialogItem@@@@QAEXXZ 68004b84 f i UnInstall.obj
 0001:00003bd1       @__security_check_cookie@4 68004bd1 f   LIBCMT:secchk.obj
 0001:00003be0       _wcschr                    68004be0 f   LIBCMT:wcschr.obj
 0001:00003dc9       _wcstoul                   68004dc9 f   LIBCMT:wcstol.obj
 0001:00003de3       _memcmp                    68004de3 f   LIBCMT:memcmp.obj
 0001:00005337       _free                      68006337 f   LIBCMT:free.obj
 0001:00005371       _calloc                    68006371 f   LIBCMT:calloc.obj
 0001:000053b1       _wcslen                    680063b1 f   LIBCMT:wcslen.obj
 0001:000053cc       __vsnwprintf_l             680063cc f   LIBCMT:vsnwprnt.obj
 0001:0000549d       __vsnwprintf               6800649d f   LIBCMT:vsnwprnt.obj
 0001:000054ba       ??1type_info@@UAE@XZ       680064ba f   LIBCMT:typinfo.obj
 0001:000054ca       ??_Etype_info@@UAEPAXI@Z   680064ca f i LIBCMT:typinfo.obj
 0001:000054ca       ??_Gtype_info@@UAEPAXI@Z   680064ca f i LIBCMT:typinfo.obj
 0001:000054eb       ??8type_info@@QBE_NABV0@@Z 680064eb f   LIBCMT:typinfo.obj
 0001:0000550b       __CRT_INIT@12              6800650b f   LIBCMT:dllcrt0.obj
 0001:00005765       __DllMainCRTStartup@12     68006765 f   LIBCMT:dllcrt0.obj
 0001:00005788       ___report_gsfailure        68006788 f   LIBCMT:gs_report.obj
 0001:0000588e       __wchartodigit             6800688e f   LIBCMT:wchtodig.obj
 0001:00005a2e       _iswctype                  68006a2e f   LIBCMT:iswctype.obj
 0001:00005a83       __initp_misc_invarg        68006a83 f   LIBCMT:invarg.obj
 0001:00005a92       __call_reportfault         68006a92 f   LIBCMT:invarg.obj
 0001:00005bbb       __invoke_watson            68006bbb f   LIBCMT:invarg.obj
 0001:00005be0       __invalid_parameter        68006be0 f   LIBCMT:invarg.obj
 0001:00005c0d       __invalid_parameter_noinfo 68006c0d f   LIBCMT:invarg.obj
 0001:00005c1d       __get_errno_from_oserr     68006c1d f   LIBCMT:dosmap.obj
 0001:00005c5f       __errno                    68006c5f f   LIBCMT:dosmap.obj
 0001:00005c72       ___doserrno                68006c72 f   LIBCMT:dosmap.obj
 0001:00005c85       __dosmaperr                68006c85 f   LIBCMT:dosmap.obj
 0001:00005ca8       __heap_init                68006ca8 f   LIBCMT:heapinit.obj
 0001:00005cc6       __heap_term                68006cc6 f   LIBCMT:heapinit.obj
 0001:00005cda       __calloc_impl              68006cda f   LIBCMT:calloc_impl.obj
 0001:00005d5c       __flsbuf                   68006d5c f   LIBCMT:_flsbuf.obj
 0001:00005ec0       ??0_LocaleUpdate@@QAE@PAUlocaleinfo_struct@@@Z 68006ec0 f i LIBCMT:woutput.obj
 0001:00005fdd       __woutput_l                68006fdd f   LIBCMT:woutput.obj
 0001:00006ba5       ?_Type_info_dtor@type_info@@CAXPAV1@@Z 68007ba5 f   LIBCMT:typname.obj
 0001:00006c20       _strcmp                    68007c20 f   LIBCMT:strcmp.obj
 0001:00006ca8       __encoded_null             68007ca8 f   LIBCMT:tidtable.obj
 0001:00006cb1       ___crtTlsAlloc@4           68007cb1 f   LIBCMT:tidtable.obj
 0001:00006cba       ___set_flsgetvalue         68007cba f   LIBCMT:tidtable.obj
 0001:00006cee       __mtterm                   68007cee f   LIBCMT:tidtable.obj
 0001:00006d2b       __initptd                  68007d2b f   LIBCMT:tidtable.obj
 0001:00006ddf       __getptd_noexit            68007ddf f   LIBCMT:tidtable.obj
 0001:00006e58       __getptd                   68007e58 f   LIBCMT:tidtable.obj
 0001:00006e72       __freefls@4                68007e72 f   LIBCMT:tidtable.obj
 0001:00006fa1       __freeptd                  68007fa1 f   LIBCMT:tidtable.obj
 0001:0000700f       __mtinit                   6800800f f   LIBCMT:tidtable.obj
 0001:0000718a       __malloc_crt               6800818a f   LIBCMT:crtheap.obj
 0001:000071cf       __calloc_crt               680081cf f   LIBCMT:crtheap.obj
 0001:0000721b       __realloc_crt              6800821b f   LIBCMT:crtheap.obj
 0001:00007269       ___crtCorExitProcess       68008269 f   LIBCMT:crt0dat.obj
 0001:00007294       ___crtExitProcess          68008294 f   LIBCMT:crt0dat.obj
 0001:000072ac       __lockexit                 680082ac f   LIBCMT:crt0dat.obj
 0001:000072b5       __unlockexit               680082b5 f   LIBCMT:crt0dat.obj
 0001:000072be       __init_pointers            680082be f   LIBCMT:crt0dat.obj
 0001:000072f1       __initterm_e               680082f1 f   LIBCMT:crt0dat.obj
 0001:00007315       __cinit                    68008315 f   LIBCMT:crt0dat.obj
 0001:000074ec       __exit                     680084ec f   LIBCMT:crt0dat.obj
 0001:00007502       __cexit                    68008502 f   LIBCMT:crt0dat.obj
 0001:00007511       __amsg_exit                68008511 f   LIBCMT:crt0dat.obj
 0001:0000752f       __ioinit                   6800852f f   LIBCMT:ioinit.obj
 0001:00007774       __ioterm                   68008774 f   LIBCMT:ioinit.obj
 0001:000077c7       __setenvp                  680087c7 f   LIBCMT:stdenvp.obj
 0001:00007a3d       __setargv                  68008a3d f   LIBCMT:stdargv.obj
 0001:00007af8       ___crtGetEnvironmentStringsA 68008af8 f   LIBCMT:a_env.obj
 0001:00007b8f       __RTC_Initialize           68008b8f f   LIBCMT:_initsect_.obj
 0001:00007bb5       __RTC_Terminate            68008bb5 f   LIBCMT:_initsect_.obj
 0001:00007be0       __SEH_prolog4              68008be0 f   LIBCMT:sehprolg4.obj
 0001:00007c25       __SEH_epilog4              68008c25 f   LIBCMT:sehprolg4.obj
 0001:00007c40       __except_handler4          68008c40 f   LIBCMT:chandler4.obj
 0001:00007dcf       __XcptFilter               68008dcf f   LIBCMT:winxfltr.obj
 0001:00007f19       ___CppXcptFilter           68008f19 f   LIBCMT:winxfltr.obj
 0001:00007f39       _DllMain@12                68008f39 f   LIBCMT:dllmain.obj
 0001:00007f3f       ___security_init_cookie    68008f3f f   LIBCMT:gs_support.obj
 0001:00007fda       __crt_debugger_hook        68008fda f   LIBCMT:dbghook.obj
 0001:00007fe2       __initp_heap_handler       68008fe2 f   LIBCMT:handler.obj
 0001:00007ff3       __callnewh                 68008ff3 f   LIBCMT:handler.obj
 0001:0000801b       __lseeki64_nolock          6800901b f   LIBCMT:lseeki64.obj
 0001:000080a0       __lseeki64                 680090a0 f   LIBCMT:lseeki64.obj
 0001:0000818a       __write_nolock             6800918a f   LIBCMT:write.obj
 0001:00008887       __write                    68009887 f   LIBCMT:write.obj
 0001:0000895b       __getbuf                   6800995b f   LIBCMT:_getbuf.obj
 0001:000089a4       __isatty                   680099a4 f   LIBCMT:isatty.obj
 0001:000089fa       ___iob_func                680099fa f   LIBCMT:_file.obj
 0001:00008a00       ___initstdio               68009a00 f   LIBCMT:_file.obj
 0001:00008ab1       ___endstdio                68009ab1 f   LIBCMT:_file.obj
 0001:00008ad1       __lock_file                68009ad1 f   LIBCMT:_file.obj
 0001:00008b12       __lock_file2               68009b12 f   LIBCMT:_file.obj
 0001:00008b44       __unlock_file              68009b44 f   LIBCMT:_file.obj
 0001:00008b80       __unlock_file2             68009b80 f   LIBCMT:_file.obj
 0001:00008baf       __fileno                   68009baf f   LIBCMT:fileno.obj
 0001:00008df8       ___updatetmbcinfo          68009df8 f   LIBCMT:mbctype.obj
 0001:00008f18       __setmbcp_nolock           68009f18 f   LIBCMT:mbctype.obj
 0001:00009101       __setmbcp                  6800a101 f   LIBCMT:mbctype.obj
 0001:0000929b       ___initmbctable            6800a29b f   LIBCMT:mbctype.obj
 0001:000092b9       ___addlocaleref            6800a2b9 f   LIBCMT:localref.obj
 0001:00009348       ___removelocaleref         6800a348 f   LIBCMT:localref.obj
 0001:000093e1       ___freetlocinfo            6800a3e1 f   LIBCMT:localref.obj
 0001:0000952c       __updatetlocinfoEx_nolock  6800a52c f   LIBCMT:localref.obj
 0001:00009579       ___updatetlocinfo          6800a579 f   LIBCMT:localref.obj
 0001:000095f2       __fputwc_nolock            6800a5f2 f   LIBCMT:fputwc.obj
 0001:00009779       __initp_misc_cfltcvt_tab   6800a779 f   LIBCMT:cmiscdat.obj
 0001:0000979c       __get_printf_count_output  6800a79c f   LIBCMT:printf.obj
 0001:000097c0       _strlen                    6800a7c0 f   LIBCMT:strlen.obj
 0001:0000984b       __mbtowc_l                 6800a84b f   LIBCMT:mbtowc.obj
 0001:00009961       _mbtowc                    6800a961 f   LIBCMT:mbtowc.obj
 0001:0000997b       __isleadbyte_l             6800a97b f i LIBCMT:_wctype.obj
 0001:000099b3       _isleadbyte                6800a9b3 f i LIBCMT:_wctype.obj
 0001:000099d0       __aulldvrm                 6800a9d0 f   LIBCMT:ulldvrm.obj
 0001:00009a65       __mtinitlocks              6800aa65 f   LIBCMT:mlock.obj
 0001:00009aaf       __mtdeletelocks            6800aaaf f   LIBCMT:mlock.obj
 0001:00009b06       __unlock                   6800ab06 f   LIBCMT:mlock.obj
 0001:00009b1d       __mtinitlocknum            6800ab1d f   LIBCMT:mlock.obj
 0001:00009bdf       __lock                     6800abdf f   LIBCMT:mlock.obj
 0001:00009c12       _strcpy_s                  6800ac12 f   LIBCMT:strcpy_s.obj
 0001:00009c71       _malloc                    6800ac71 f   LIBCMT:malloc.obj
 0001:00009d10       __local_unwind4            6800ad10 f   LIBCMT:exsup4.obj
 0001:00009de6       __seh_longjmp_unwind4@4    6800ade6 f   LIBCMT:exsup4.obj
 0001:00009e02       @_EH4_CallFilterFunc@8     6800ae02 f   LIBCMT:exsup4.obj
 0001:00009e19       @_EH4_TransferToHandler@8  6800ae19 f   LIBCMT:exsup4.obj
 0001:00009e32       @_EH4_GlobalUnwind2@8      6800ae32 f   LIBCMT:exsup4.obj
 0001:00009e4b       @_EH4_LocalUnwind@16       6800ae4b f   LIBCMT:exsup4.obj
 0001:00009e62       _realloc                   6800ae62 f   LIBCMT:realloc.obj
 0001:00009f0f       ?terminate@@YAXXZ          6800af0f f   LIBCMT:hooks.obj
 0001:00009f48       ?unexpected@@YAXXZ         6800af48 f   LIBCMT:hooks.obj
 0001:00009f5b       ?_inconsistency@@YAXXZ     6800af5b f   LIBCMT:hooks.obj
 0001:00009f93       __initp_eh_hooks           6800af93 f   LIBCMT:hooks.obj
 0001:00009fa4       __initp_misc_winsig        6800afa4 f   LIBCMT:winsig.obj
 0001:00009ff9       ___get_sigabrt             6800aff9 f   LIBCMT:winsig.obj
 0001:0000a006       _raise                     6800b006 f   LIBCMT:winsig.obj
 0001:0000a1a9       __initp_misc_rand_s        6800b1a9 f   LIBCMT:rand_s.obj
 0001:0000a1b8       __initp_misc_purevirt      6800b1b8 f   LIBCMT:inithelp.obj
 0001:0000a27d       ___onexitinit              6800b27d f   LIBCMT:onexit.obj
 0001:0000a2ae       __onexit                   6800b2ae f   LIBCMT:onexit.obj
 0001:0000a2ea       _atexit                    6800b2ea f   LIBCMT:onexit.obj
 0001:0000a310       __ValidateImageBase        6800b310 f   LIBCMT:pesect.obj
 0001:0000a350       __FindPESection            6800b350 f   LIBCMT:pesect.obj
 0001:0000a3a0       __IsNonwritableInCurrentImage 6800b3a0 f   LIBCMT:pesect.obj
 0001:0000a45c       __GET_RTERRMSG             6800b45c f   LIBCMT:crt0msg.obj
 0001:0000a482       __NMSG_WRITE               6800b482 f   LIBCMT:crt0msg.obj
 0001:0000a631       __FF_MSGBANNER             6800b631 f   LIBCMT:crt0msg.obj
 0001:0000a6bd       __ismbblead                6800b6bd f   LIBCMT:ismbbyte.obj
 0001:0000a6d5       __free_osfhnd              6800b6d5 f   LIBCMT:osfinfo.obj
 0001:0000a75b       __get_osfhandle            6800b75b f   LIBCMT:osfinfo.obj
 0001:0000a7c4       ___lock_fhandle            6800b7c4 f   LIBCMT:osfinfo.obj
 0001:0000a863       __unlock_fhandle           6800b863 f   LIBCMT:osfinfo.obj
 0001:0000a88a       __putwch_nolock            6800b88a f   LIBCMT:putwch.obj
 0001:0000a8d0       __chkstk                   6800b8d0 f   LIBCMT:chkstk.obj
 0001:0000a8d0       __alloca_probe             6800b8d0     LIBCMT:chkstk.obj
 0001:0000a8fb       __fcloseall                6800b8fb f   LIBCMT:closeall.obj
 0001:0000a997       __flush                    6800b997 f   LIBCMT:fflush.obj
 0001:0000a9ff       __fflush_nolock            6800b9ff f   LIBCMT:fflush.obj
 0001:0000ab21       __flushall                 6800bb21 f   LIBCMT:fflush.obj
 0001:0000ab2a       __freea                    6800bb2a f i LIBCMT:a_map.obj
 0001:0000ad31       ___crtLCMapStringA         6800bd31 f   LIBCMT:a_map.obj
 0001:0000ae5e       ___crtGetStringTypeA       6800be5e f   LIBCMT:a_str.obj
 0001:0000ae9e       ___free_lc_time            6800be9e f   LIBCMT:inittime.obj
 0001:0000b215       ___free_lconv_num          6800c215 f   LIBCMT:initnum.obj
 0001:0000b27e       ___free_lconv_mon          6800c27e f   LIBCMT:initmon.obj
 0001:0000b37c       __flswbuf                  6800c37c f   LIBCMT:_flswbuf.obj
 0001:0000b4f0       __wctomb_s_l               6800c4f0 f   LIBCMT:wctomb.obj
 0001:0000b645       _wctomb_s                  6800c645 f   LIBCMT:wctomb.obj
 0001:0000b662       __fptrap                   6800c662 f   LIBCMT:crt0fp.obj
 0001:0000b670       __global_unwind2           6800c670 f   LIBCMT:exsup.obj
 0001:0000b6d5       __local_unwind2            6800c6d5 f   LIBCMT:exsup.obj
 0001:0000b759       __abnormal_termination     6800c759 f   LIBCMT:exsup.obj
 0001:0000b77c       __NLG_Notify1              6800c77c f   LIBCMT:exsup.obj
 0001:0000b785       __NLG_Notify               6800c785 f   LIBCMT:exsup.obj
 0001:0000b79c       __NLG_Dispatch             6800c79c     LIBCMT:exsup.obj
 0001:0000b79c       __NLG_Dispatch2            6800c79c     LIBCMT:exsup.obj
 0001:0000b7a4       __NLG_Call                 6800c7a4 f   LIBCMT:exsup.obj
 0001:0000b7a6       __NLG_Return2              6800c7a6     LIBCMT:exsup.obj
 0001:0000b7a7       __msize                    6800c7a7 f   LIBCMT:msize.obj
 0001:0000b7da       _abort                     6800c7da f   LIBCMT:abort.obj
 0001:0000b80d       ___crtMessageBoxW          6800c80d f   LIBCMT:crtmboxw.obj
 0001:0000b979       _wcscat_s                  6800c979 f   LIBCMT:wcscat_s.obj
 0001:0000b9ee       _wcsncpy_s                 6800c9ee f   LIBCMT:wcsncpy_s.obj
 0001:0000babb       _wcscpy_s                  6800cabb f   LIBCMT:wcscpy_s.obj
 0001:0000bb1e       __set_error_mode           6800cb1e f   LIBCMT:errmode.obj
 0001:0000bb5d       ___initconout              6800cb5d f   LIBCMT:initcon.obj
 0001:0000bb7c       ___termconout              6800cb7c f   LIBCMT:initcon.obj
 0001:0000bb93       __fclose_nolock            6800cb93 f   LIBCMT:fclose.obj
 0001:0000bc00       _fclose                    6800cc00 f   LIBCMT:fclose.obj
 0001:0000bc74       __commit                   6800cc74 f   LIBCMT:commit.obj
 0001:0000bd50       __alloca_probe_16          6800cd50 f   LIBCMT:alloca16.obj
 0001:0000bd66       __alloca_probe_8           6800cd66     LIBCMT:alloca16.obj
 0001:0000bd7c       __close_nolock             6800cd7c f   LIBCMT:close.obj
 0001:0000be18       __close                    6800ce18 f   LIBCMT:close.obj
 0001:0000bedc       __freebuf                  6800cedc f   LIBCMT:_freebuf.obj
 0001:0000bf10       __allmul                   6800cf10 f   LIBCMT:llmul.obj
 0001:0000bf50       _strcspn                   6800cf50 f   LIBCMT:strcspn.obj
 0001:0000bfa0       _strpbrk                   6800cfa0 f   LIBCMT:strpbrk.obj
 0001:0000bfe0       ___ascii_strnicmp          6800cfe0 f   LIBCMT:_strnicm.obj
 0001:0000c042       _RtlUnwind@16              6800d042 f   kernel32:KERNEL32.dll
 0001:0000c048       ?_JumpToContinuation@@YGXPAXPAUEHRegistrationNode@@@Z 6800d048 f   LIBCMT:_trnsctrl_.obj
 0001:0000c07a       ?_CallMemberFunction2@@YGXPAX00H@Z 6800d07a f   LIBCMT:_trnsctrl_.obj
 0001:0000c07a       ?_CallMemberFunction0@@YGXPAX0@Z 6800d07a f   LIBCMT:_trnsctrl_.obj
 0001:0000c07a       ?_CallMemberFunction1@@YGXPAX00@Z 6800d07a f   LIBCMT:_trnsctrl_.obj
 0001:0000c081       ?_UnwindNestedFrames@@YGXPAUEHRegistrationNode@@PAUEHExceptionRecord@@@Z 6800d081 f   LIBCMT:_trnsctrl_.obj
 0001:0000c0d5       ___CxxFrameHandler3        6800d0d5 f   LIBCMT:_trnsctrl_.obj
 0001:0000c13e       ?_CallSETranslator@@YAHPAUEHExceptionRecord@@PAUEHRegistrationNode@@PAX2PBU_s_FuncInfo@@H1@Z 6800d13e f   LIBCMT:_trnsctrl_.obj
 0001:0000c2b4       ?_GetRangeOfTrysToCheck@@YAPBU_s_TryBlockMapEntry@@PBU_s_FuncInfo@@HHPAI1@Z 6800d2b4 f   LIBCMT:_trnsctrl_.obj
 0001:0000c327       __CreateFrameInfo          6800d327 f   LIBCMT:_trnsctrl_.obj
 0001:0000c353       __IsExceptionObjectToBeDestroyed 6800d353 f   LIBCMT:_trnsctrl_.obj
 0001:0000c37a       __FindAndUnlinkFrame       6800d37a f   LIBCMT:_trnsctrl_.obj
 0001:0000c3cc       ?_CallCatchBlock2@@YAPAXPAUEHRegistrationNode@@PBU_s_FuncInfo@@PAXHK@Z 6800d3cc f   LIBCMT:_trnsctrl_.obj
 0001:0000c42c       __EH_prolog3               6800d42c f   LIBCMT:ehprolg3.obj
 0001:0000c45f       __EH_prolog3_catch         6800d45f f   LIBCMT:ehprolg3.obj
 0001:0000c495       __EH_epilog3               6800d495 f   LIBCMT:ehprolg3.obj
 0001:0000c4a9       ??1bad_exception@std@@UAE@XZ 6800d4a9 f i LIBCMT:frame.obj
 0001:0000c4b4       ??_Gbad_exception@std@@UAEPAXI@Z 6800d4b4 f i LIBCMT:frame.obj
 0001:0000c4b4       ??_Ebad_exception@std@@UAEPAXI@Z 6800d4b4 f i LIBCMT:frame.obj
 0001:0000c4db       ___TypeMatch               6800d4db f   LIBCMT:frame.obj
 0001:0000c53a       ___FrameUnwindFilter       6800d53a f   LIBCMT:frame.obj
 0001:0000c589       ___FrameUnwindToState      6800d589 f   LIBCMT:frame.obj
 0001:0000c6aa       ___DestructExceptionObject 6800d6aa f   LIBCMT:frame.obj
 0001:0000c6ff       ___AdjustPointer           6800d6ff f   LIBCMT:frame.obj
 0001:0000c983       ___BuildCatchObjectHelper  6800d983 f   LIBCMT:frame.obj
 0001:0000cb02       ___BuildCatchObject        6800db02 f   LIBCMT:frame.obj
 0001:0000d07e       ??0bad_exception@std@@QAE@ABV01@@Z 6800e07e f i LIBCMT:frame.obj
 0001:0000d09b       ___InternalCxxFrameHandler 6800e09b f   LIBCMT:frame.obj
 0001:0000d190       __CallSettingFrame@12      6800e190 f   LIBCMT:lowhelpr.obj
 0001:0000d1b7       __NLG_Return               6800e1b7     LIBCMT:lowhelpr.obj
 0001:0000d1dc       ?what@exception@std@@UBEPBDXZ 6800e1dc f   LIBCMT:stdexcpt.obj
 0001:0000d1e9       ?_Copy_str@exception@std@@AAEXPBD@Z 6800e1e9 f   LIBCMT:stdexcpt.obj
 0001:0000d229       ?_Tidy@exception@std@@AAEXXZ 6800e229 f   LIBCMT:stdexcpt.obj
 0001:0000d247       ??0exception@std@@QAE@ABQBD@Z 6800e247 f   LIBCMT:stdexcpt.obj
 0001:0000d26e       ??4exception@std@@QAEAAV01@ABV01@@Z 6800e26e f   LIBCMT:stdexcpt.obj
 0001:0000d2a3       ??1exception@std@@UAE@XZ   6800e2a3 f   LIBCMT:stdexcpt.obj
 0001:0000d2ae       ??_Gexception@std@@UAEPAXI@Z 6800e2ae f i LIBCMT:stdexcpt.obj
 0001:0000d2ae       ??_Eexception@std@@UAEPAXI@Z 6800e2ae f i LIBCMT:stdexcpt.obj
 0001:0000d2d5       ??0exception@std@@QAE@ABV01@@Z 6800e2d5 f   LIBCMT:stdexcpt.obj
 0001:0000d2fa       __CxxThrowException@8      6800e2fa f   LIBCMT:throw.obj
 0001:0000d346       ?_ValidateRead@@YAHPBXI@Z  6800e346 f   LIBCMT:validate.obj
 0001:0000d346       ?_ValidateWrite@@YAHPAXI@Z 6800e346 f   LIBCMT:validate.obj
 0001:0000d346       ?_ValidateExecute@@YAHP6GHXZ@Z 6800e346 f   LIBCMT:validate.obj
 0002:00000000       __imp__RegQueryValueExW@24 6800f000     advapi32:ADVAPI32.dll
 0002:00000004       __imp__RegQueryInfoKeyW@48 6800f004     advapi32:ADVAPI32.dll
 0002:00000008       __imp__RegDeleteKeyW@8     6800f008     advapi32:ADVAPI32.dll
 0002:0000000c       __imp__AllocateAndInitializeSid@44 6800f00c     advapi32:ADVAPI32.dll
 0002:00000010       __imp__FreeSid@4           6800f010     advapi32:ADVAPI32.dll
 0002:00000014       __imp__RegOpenKeyExW@20    6800f014     advapi32:ADVAPI32.dll
 0002:00000018       __imp__CheckTokenMembership@12 6800f018     advapi32:ADVAPI32.dll
 0002:0000001c       __imp__RegEnumKeyExW@32    6800f01c     advapi32:ADVAPI32.dll
 0002:00000020       __imp__RegCloseKey@4       6800f020     advapi32:ADVAPI32.dll
 0002:00000024       \177ADVAPI32_NULL_THUNK_DATA 6800f024     advapi32:ADVAPI32.dll
 0002:00000028       __imp__HeapReAlloc@16      6800f028     kernel32:KERNEL32.dll
 0002:0000002c       __imp__GetNumberOfConsoleInputEvents@8 6800f02c     kernel32:KERNEL32.dll
 0002:00000030       __imp__FreeLibrary@4       6800f030     kernel32:KERNEL32.dll
 0002:00000034       __imp__CreateProcessW@40   6800f034     kernel32:KERNEL32.dll
 0002:00000038       __imp__HeapAlloc@12        6800f038     kernel32:KERNEL32.dll
 0002:0000003c       __imp__HeapFree@12         6800f03c     kernel32:KERNEL32.dll
 0002:00000040       __imp__WaitForSingleObject@8 6800f040     kernel32:KERNEL32.dll
 0002:00000044       __imp__GetProcessHeap@0    6800f044     kernel32:KERNEL32.dll
 0002:00000048       __imp__LoadLibraryW@4      6800f048     kernel32:KERNEL32.dll
 0002:0000004c       __imp__lstrcpynW@12        6800f04c     kernel32:KERNEL32.dll
 0002:00000050       __imp__FileTimeToSystemTime@8 6800f050     kernel32:KERNEL32.dll
 0002:00000054       __imp__CreateFileW@28      6800f054     kernel32:KERNEL32.dll
 0002:00000058       __imp__lstrcmpW@8          6800f058     kernel32:KERNEL32.dll
 0002:0000005c       __imp__lstrlenW@4          6800f05c     kernel32:KERNEL32.dll
 0002:00000060       __imp__GetStdHandle@4      6800f060     kernel32:KERNEL32.dll
 0002:00000064       __imp__GetLastError@0      6800f064     kernel32:KERNEL32.dll
 0002:00000068       __imp__GetProcAddress@8    6800f068     kernel32:KERNEL32.dll
 0002:0000006c       __imp__PeekConsoleInputW@16 6800f06c     kernel32:KERNEL32.dll
 0002:00000070       __imp__GetConsoleScreenBufferInfo@8 6800f070     kernel32:KERNEL32.dll
 0002:00000074       __imp__SetConsoleTitleW@4  6800f074     kernel32:KERNEL32.dll
 0002:00000078       __imp__GetConsoleTitleW@8  6800f078     kernel32:KERNEL32.dll
 0002:0000007c       __imp__ReadConsoleInputW@16 6800f07c     kernel32:KERNEL32.dll
 0002:00000080       __imp__CloseHandle@4       6800f080     kernel32:KERNEL32.dll
 0002:00000084       __imp__FileTimeToLocalFileTime@8 6800f084     kernel32:KERNEL32.dll
 0002:00000088       __imp__GetFileInformationByHandle@8 6800f088     kernel32:KERNEL32.dll
 0002:0000008c       __imp__GetCurrentThreadId@0 6800f08c     kernel32:KERNEL32.dll
 0002:00000090       __imp__DecodePointer@4     6800f090     kernel32:KERNEL32.dll
 0002:00000094       __imp__GetCommandLineA@0   6800f094     kernel32:KERNEL32.dll
 0002:00000098       __imp__TerminateProcess@8  6800f098     kernel32:KERNEL32.dll
 0002:0000009c       __imp__GetCurrentProcess@0 6800f09c     kernel32:KERNEL32.dll
 0002:000000a0       __imp__UnhandledExceptionFilter@4 6800f0a0     kernel32:KERNEL32.dll
 0002:000000a4       __imp__SetUnhandledExceptionFilter@4 6800f0a4     kernel32:KERNEL32.dll
 0002:000000a8       __imp__IsDebuggerPresent@0 6800f0a8     kernel32:KERNEL32.dll
 0002:000000ac       __imp__GetStringTypeW@16   6800f0ac     kernel32:KERNEL32.dll
 0002:000000b0       __imp__EncodePointer@4     6800f0b0     kernel32:KERNEL32.dll
 0002:000000b4       __imp__HeapCreate@12       6800f0b4     kernel32:KERNEL32.dll
 0002:000000b8       __imp__HeapDestroy@4       6800f0b8     kernel32:KERNEL32.dll
 0002:000000bc       __imp__TlsAlloc@0          6800f0bc     kernel32:KERNEL32.dll
 0002:000000c0       __imp__TlsGetValue@4       6800f0c0     kernel32:KERNEL32.dll
 0002:000000c4       __imp__TlsSetValue@8       6800f0c4     kernel32:KERNEL32.dll
 0002:000000c8       __imp__TlsFree@4           6800f0c8     kernel32:KERNEL32.dll
 0002:000000cc       __imp__InterlockedIncrement@4 6800f0cc     kernel32:KERNEL32.dll
 0002:000000d0       __imp__GetModuleHandleW@4  6800f0d0     kernel32:KERNEL32.dll
 0002:000000d4       __imp__SetLastError@4      6800f0d4     kernel32:KERNEL32.dll
 0002:000000d8       __imp__InterlockedDecrement@4 6800f0d8     kernel32:KERNEL32.dll
 0002:000000dc       __imp__Sleep@4             6800f0dc     kernel32:KERNEL32.dll
 0002:000000e0       __imp__ExitProcess@4       6800f0e0     kernel32:KERNEL32.dll
 0002:000000e4       __imp__SetHandleCount@4    6800f0e4     kernel32:KERNEL32.dll
 0002:000000e8       __imp__InitializeCriticalSectionAndSpinCount@8 6800f0e8     kernel32:KERNEL32.dll
 0002:000000ec       __imp__GetFileType@4       6800f0ec     kernel32:KERNEL32.dll
 0002:000000f0       __imp__GetStartupInfoW@4   6800f0f0     kernel32:KERNEL32.dll
 0002:000000f4       __imp__DeleteCriticalSection@4 6800f0f4     kernel32:KERNEL32.dll
 0002:000000f8       __imp__GetModuleFileNameA@12 6800f0f8     kernel32:KERNEL32.dll
 0002:000000fc       __imp__FreeEnvironmentStringsW@4 6800f0fc     kernel32:KERNEL32.dll
 0002:00000100       __imp__WideCharToMultiByte@32 6800f100     kernel32:KERNEL32.dll
 0002:00000104       __imp__GetEnvironmentStringsW@0 6800f104     kernel32:KERNEL32.dll
 0002:00000108       __imp__QueryPerformanceCounter@4 6800f108     kernel32:KERNEL32.dll
 0002:0000010c       __imp__GetTickCount@0      6800f10c     kernel32:KERNEL32.dll
 0002:00000110       __imp__GetCurrentProcessId@0 6800f110     kernel32:KERNEL32.dll
 0002:00000114       __imp__GetSystemTimeAsFileTime@4 6800f114     kernel32:KERNEL32.dll
 0002:00000118       __imp__SetFilePointer@16   6800f118     kernel32:KERNEL32.dll
 0002:0000011c       __imp__WriteFile@20        6800f11c     kernel32:KERNEL32.dll
 0002:00000120       __imp__GetConsoleCP@0      6800f120     kernel32:KERNEL32.dll
 0002:00000124       __imp__GetConsoleMode@8    6800f124     kernel32:KERNEL32.dll
 0002:00000128       __imp__EnterCriticalSection@4 6800f128     kernel32:KERNEL32.dll
 0002:0000012c       __imp__LeaveCriticalSection@4 6800f12c     kernel32:KERNEL32.dll
 0002:00000130       __imp__GetCPInfo@8         6800f130     kernel32:KERNEL32.dll
 0002:00000134       __imp__GetACP@0            6800f134     kernel32:KERNEL32.dll
 0002:00000138       __imp__GetOEMCP@0          6800f138     kernel32:KERNEL32.dll
 0002:0000013c       __imp__IsValidCodePage@4   6800f13c     kernel32:KERNEL32.dll
 0002:00000140       __imp__MultiByteToWideChar@24 6800f140     kernel32:KERNEL32.dll
 0002:00000144       __imp__RtlUnwind@16        6800f144     kernel32:KERNEL32.dll
 0002:00000148       __imp__GetModuleFileNameW@12 6800f148     kernel32:KERNEL32.dll
 0002:0000014c       __imp__SetStdHandle@8      6800f14c     kernel32:KERNEL32.dll
 0002:00000150       __imp__WriteConsoleW@20    6800f150     kernel32:KERNEL32.dll
 0002:00000154       __imp__LCMapStringW@24     6800f154     kernel32:KERNEL32.dll
 0002:00000158       __imp__HeapSize@12         6800f158     kernel32:KERNEL32.dll
 0002:0000015c       __imp__FlushFileBuffers@4  6800f15c     kernel32:KERNEL32.dll
 0002:00000160       __imp__RaiseException@16   6800f160     kernel32:KERNEL32.dll
 0002:00000164       \177KERNEL32_NULL_THUNK_DATA 6800f164     kernel32:KERNEL32.dll
 0002:00000168       __imp__ShellExecuteExW@4   6800f168     shell32:SHELL32.dll
 0002:0000016c       \177SHELL32_NULL_THUNK_DATA 6800f16c     shell32:SHELL32.dll
 0002:00000170       __imp__IIDFromString@8     6800f170     ole32:ole32.dll
 0002:00000174       \177ole32_NULL_THUNK_DATA  6800f174     ole32:ole32.dll
 0002:00000178       ___xc_a                    6800f178     LIBCMT:crt0init.obj
 0002:0000017c       ___xc_z                    6800f17c     LIBCMT:crt0init.obj
 0002:00000180       ___xi_a                    6800f180     LIBCMT:crt0init.obj
 0002:00000190       ___xi_z                    6800f190     LIBCMT:crt0init.obj
 0002:00000194       ___xp_a                    6800f194     LIBCMT:crt0init.obj
 0002:000001a0       ___xp_z                    6800f1a0     LIBCMT:crt0init.obj
 0002:000001a4       ___xt_a                    6800f1a4     LIBCMT:crt0init.obj
 0002:000001a8       ___xt_z                    6800f1a8     LIBCMT:crt0init.obj
 0002:000001d0       ??_7type_info@@6B@         6800f1d0     LIBCMT:typinfo.obj
 0002:000001d4       __pDefaultRawDllMain       6800f1d4     LIBCMT:dllcrt0.obj
 0002:000001d4       __pRawDllMain              6800f1d4     LIBCMT:dllcrt0.obj
 0002:000001e0       ??_C@_1BK@DBDEIDLH@?$AAK?$AAE?$AAR?$AAN?$AAE?$AAL?$AA3?$AA2?$AA?4?$AAD?$AAL?$AAL?$AA?$AA@ 6800f1e0     LIBCMT:tidtable.obj
 0002:000001fc       ??_C@_07PEJMOBNF@FlsFree?$AA@ 6800f1fc     LIBCMT:tidtable.obj
 0002:00000204       ??_C@_0M@JCPCPOEF@FlsSetValue?$AA@ 6800f204     LIBCMT:tidtable.obj
 0002:00000210       ??_C@_0M@GDNOONDI@FlsGetValue?$AA@ 6800f210     LIBCMT:tidtable.obj
 0002:0000021c       ??_C@_08KNHFBNJ@FlsAlloc?$AA@ 6800f21c     LIBCMT:tidtable.obj
 0002:00000228       ??_C@_0P@MIGLKIOC@CorExitProcess?$AA@ 6800f228     LIBCMT:crt0dat.obj
 0002:00000238       ??_C@_1BI@BGOHAHKC@?$AAm?$AAs?$AAc?$AAo?$AAr?$AAe?$AAe?$AA?4?$AAd?$AAl?$AAl?$AA?$AA@ 6800f238     LIBCMT:crt0dat.obj
 0002:00000250       __XcptActTab               6800f250     LIBCMT:winxfltr.obj
 0002:000002e0       __First_FPE_Indx           6800f2e0     LIBCMT:winxfltr.obj
 0002:000002e4       __Num_FPE                  6800f2e4     LIBCMT:winxfltr.obj
 0002:000002e8       __XcptActTabSize           6800f2e8     LIBCMT:winxfltr.obj
 0002:000002ec       __XcptActTabCount          6800f2ec     LIBCMT:winxfltr.obj
 0002:000002f0       ___newctype                6800f2f0     LIBCMT:ctype.obj
 0002:000005f0       __wctype                   6800f5f0     LIBCMT:ctype.obj
 0002:000007f8       ___newclmap                6800f7f8     LIBCMT:ctype.obj
 0002:00000978       ___newcumap                6800f978     LIBCMT:ctype.obj
 0002:00000af8       ??_C@_1BC@GDGBMEMK@?$AAH?$AAH?$AA?3?$AAm?$AAm?$AA?3?$AAs?$AAs?$AA?$AA@ 6800faf8     LIBCMT:nlsdata2.obj
 0002:00000b0c       ??_C@_1CI@KNAKOEBC@?$AAd?$AAd?$AAd?$AAd?$AA?0?$AA?5?$AAM?$AAM?$AAM?$AAM?$AA?5?$AAd?$AAd?$AA?0?$AA?5?$AAy?$AAy?$AAy?$AAy?$AA?$AA@ 6800fb0c     LIBCMT:nlsdata2.obj
 0002:00000b34       ??_C@_1BC@IEBCMHCM@?$AAM?$AAM?$AA?1?$AAd?$AAd?$AA?1?$AAy?$AAy?$AA?$AA@ 6800fb34     LIBCMT:nlsdata2.obj
 0002:00000b48       ??_C@_15CLMNNGEL@?$AAP?$AAM?$AA?$AA@ 6800fb48     LIBCMT:nlsdata2.obj
 0002:00000b50       ??_C@_15ODEHAHHF@?$AAA?$AAM?$AA?$AA@ 6800fb50     LIBCMT:nlsdata2.obj
 0002:00000b58       ??_C@_1BC@FEMKIFH@?$AAD?$AAe?$AAc?$AAe?$AAm?$AAb?$AAe?$AAr?$AA?$AA@ 6800fb58     LIBCMT:nlsdata2.obj
 0002:00000b6c       ??_C@_1BC@BGLIFPF@?$AAN?$AAo?$AAv?$AAe?$AAm?$AAb?$AAe?$AAr?$AA?$AA@ 6800fb6c     LIBCMT:nlsdata2.obj
 0002:00000b80       ??_C@_1BA@EPANDLNG@?$AAO?$AAc?$AAt?$AAo?$AAb?$AAe?$AAr?$AA?$AA@ 6800fb80     LIBCMT:nlsdata2.obj
 0002:00000b90       ??_C@_1BE@DKAAMBJL@?$AAS?$AAe?$AAp?$AAt?$AAe?$AAm?$AAb?$AAe?$AAr?$AA?$AA@ 6800fb90     LIBCMT:nlsdata2.obj
 0002:00000ba4       ??_C@_1O@PAHLKOAC@?$AAA?$AAu?$AAg?$AAu?$AAs?$AAt?$AA?$AA@ 6800fba4     LIBCMT:nlsdata2.obj
 0002:00000bb4       ??_C@_19BIFMLPCD@?$AAJ?$AAu?$AAl?$AAy?$AA?$AA@ 6800fbb4     LIBCMT:nlsdata2.obj
 0002:00000bc0       ??_C@_19EPFLPGAP@?$AAJ?$AAu?$AAn?$AAe?$AA?$AA@ 6800fbc0     LIBCMT:nlsdata2.obj
 0002:00000bcc       ??_C@_1M@GJNLMHFD@?$AAA?$AAp?$AAr?$AAi?$AAl?$AA?$AA@ 6800fbcc     LIBCMT:nlsdata2.obj
 0002:00000bd8       ??_C@_1M@IKEENEDF@?$AAM?$AAa?$AAr?$AAc?$AAh?$AA?$AA@ 6800fbd8     LIBCMT:nlsdata2.obj
 0002:00000be4       ??_C@_1BC@JGDDFFAM@?$AAF?$AAe?$AAb?$AAr?$AAu?$AAa?$AAr?$AAy?$AA?$AA@ 6800fbe4     LIBCMT:nlsdata2.obj
 0002:00000bf8       ??_C@_1BA@EFMEIEBA@?$AAJ?$AAa?$AAn?$AAu?$AAa?$AAr?$AAy?$AA?$AA@ 6800fbf8     LIBCMT:nlsdata2.obj
 0002:00000c08       ??_C@_17EGKACKIF@?$AAD?$AAe?$AAc?$AA?$AA@ 6800fc08     LIBCMT:nlsdata2.obj
 0002:00000c10       ??_C@_17BBDMLCIG@?$AAN?$AAo?$AAv?$AA?$AA@ 6800fc10     LIBCMT:nlsdata2.obj
 0002:00000c18       ??_C@_17FNLKOI@?$AAO?$AAc?$AAt?$AA?$AA@ 6800fc18     LIBCMT:nlsdata2.obj
 0002:00000c20       ??_C@_17HCHCOKMG@?$AAS?$AAe?$AAp?$AA?$AA@ 6800fc20     LIBCMT:nlsdata2.obj
 0002:00000c28       ??_C@_17ICPELBCN@?$AAA?$AAu?$AAg?$AA?$AA@ 6800fc28     LIBCMT:nlsdata2.obj
 0002:00000c30       ??_C@_17IJPCKHK@?$AAJ?$AAu?$AAl?$AA?$AA@ 6800fc30     LIBCMT:nlsdata2.obj
 0002:00000c38       ??_C@_17KCJGOCPB@?$AAJ?$AAu?$AAn?$AA?$AA@ 6800fc38     LIBCMT:nlsdata2.obj
 0002:00000c40       ??_C@_17PNNKMEED@?$AAM?$AAa?$AAy?$AA?$AA@ 6800fc40     LIBCMT:nlsdata2.obj
 0002:00000c48       ??_C@_17LFPOIHDD@?$AAA?$AAp?$AAr?$AA?$AA@ 6800fc48     LIBCMT:nlsdata2.obj
 0002:00000c50       ??_C@_17CKNLEDEC@?$AAM?$AAa?$AAr?$AA?$AA@ 6800fc50     LIBCMT:nlsdata2.obj
 0002:00000c58       ??_C@_17LMDJEKJN@?$AAF?$AAe?$AAb?$AA?$AA@ 6800fc58     LIBCMT:nlsdata2.obj
 0002:00000c60       ??_C@_17DKNBKCHM@?$AAJ?$AAa?$AAn?$AA?$AA@ 6800fc60     LIBCMT:nlsdata2.obj
 0002:00000c68       ??_C@_1BC@ENMNNPAJ@?$AAS?$AAa?$AAt?$AAu?$AAr?$AAd?$AAa?$AAy?$AA?$AA@ 6800fc68     LIBCMT:nlsdata2.obj
 0002:00000c7c       ??_C@_1O@PDICJHAG@?$AAF?$AAr?$AAi?$AAd?$AAa?$AAy?$AA?$AA@ 6800fc7c     LIBCMT:nlsdata2.obj
 0002:00000c8c       ??_C@_1BC@HHMNLIHE@?$AAT?$AAh?$AAu?$AAr?$AAs?$AAd?$AAa?$AAy?$AA?$AA@ 6800fc8c     LIBCMT:nlsdata2.obj
 0002:00000ca0       ??_C@_1BE@EBOGMDOH@?$AAW?$AAe?$AAd?$AAn?$AAe?$AAs?$AAd?$AAa?$AAy?$AA?$AA@ 6800fca0     LIBCMT:nlsdata2.obj
 0002:00000cb4       ??_C@_1BA@ENFBFFEK@?$AAT?$AAu?$AAe?$AAs?$AAd?$AAa?$AAy?$AA?$AA@ 6800fcb4     LIBCMT:nlsdata2.obj
 0002:00000cc4       ??_C@_1O@MMNBFLIA@?$AAM?$AAo?$AAn?$AAd?$AAa?$AAy?$AA?$AA@ 6800fcc4     LIBCMT:nlsdata2.obj
 0002:00000cd4       ??_C@_1O@IHNHDHPB@?$AAS?$AAu?$AAn?$AAd?$AAa?$AAy?$AA?$AA@ 6800fcd4     LIBCMT:nlsdata2.obj
 0002:00000ce4       ??_C@_17GGIBDPIH@?$AAS?$AAa?$AAt?$AA?$AA@ 6800fce4     LIBCMT:nlsdata2.obj
 0002:00000cec       ??_C@_17HFOLPPLP@?$AAF?$AAr?$AAi?$AA?$AA@ 6800fcec     LIBCMT:nlsdata2.obj
 0002:00000cf4       ??_C@_17PDPHAADD@?$AAT?$AAh?$AAu?$AA?$AA@ 6800fcf4     LIBCMT:nlsdata2.obj
 0002:00000cfc       ??_C@_17CJEDCEPE@?$AAW?$AAe?$AAd?$AA?$AA@ 6800fcfc     LIBCMT:nlsdata2.obj
 0002:00000d04       ??_C@_17BMKGEGOJ@?$AAT?$AAu?$AAe?$AA?$AA@ 6800fd04     LIBCMT:nlsdata2.obj
 0002:00000d0c       ??_C@_17KBOMKBF@?$AAM?$AAo?$AAn?$AA?$AA@ 6800fd0c     LIBCMT:nlsdata2.obj
 0002:00000d14       ??_C@_17MBGCMIPB@?$AAS?$AAu?$AAn?$AA?$AA@ 6800fd14     LIBCMT:nlsdata2.obj
 0002:00000d1c       ??_C@_08JCCMCCIL@HH?3mm?3ss?$AA@ 6800fd1c     LIBCMT:nlsdata2.obj
 0002:00000d28       ??_C@_0BE@CKGJFCPC@dddd?0?5MMMM?5dd?0?5yyyy?$AA@ 6800fd28     LIBCMT:nlsdata2.obj
 0002:00000d3c       ??_C@_08BPBNCDIB@MM?1dd?1yy?$AA@ 6800fd3c     LIBCMT:nlsdata2.obj
 0002:00000d48       ??_C@_02CJNFDJBF@PM?$AA@   6800fd48     LIBCMT:nlsdata2.obj
 0002:00000d4c       ??_C@_02DEDBPAFC@AM?$AA@   6800fd4c     LIBCMT:nlsdata2.obj
 0002:00000d50       ??_C@_08EDHMEBNP@December?$AA@ 6800fd50     LIBCMT:nlsdata2.obj
 0002:00000d5c       ??_C@_08HCHEGEOA@November?$AA@ 6800fd5c     LIBCMT:nlsdata2.obj
 0002:00000d68       ??_C@_07JJNFCEND@October?$AA@ 6800fd68     LIBCMT:nlsdata2.obj
 0002:00000d70       ??_C@_09BHHEALKD@September?$AA@ 6800fd70     LIBCMT:nlsdata2.obj
 0002:00000d7c       ??_C@_06LBBHFDDG@August?$AA@ 6800fd7c     LIBCMT:nlsdata2.obj
 0002:00000d84       ??_C@_04MIEPOIFP@July?$AA@ 6800fd84     LIBCMT:nlsdata2.obj
 0002:00000d8c       ??_C@_04CNLMGBGM@June?$AA@ 6800fd8c     LIBCMT:nlsdata2.obj
 0002:00000d94       ??_C@_05DMJDNLEJ@April?$AA@ 6800fd94     LIBCMT:nlsdata2.obj
 0002:00000d9c       ??_C@_05HPCKOFNC@March?$AA@ 6800fd9c     LIBCMT:nlsdata2.obj
 0002:00000da4       ??_C@_08GNJGEPFN@February?$AA@ 6800fda4     LIBCMT:nlsdata2.obj
 0002:00000db0       ??_C@_07CGJPFGJA@January?$AA@ 6800fdb0     LIBCMT:nlsdata2.obj
 0002:00000db8       ??_C@_03MKABNOCG@Dec?$AA@  6800fdb8     LIBCMT:nlsdata2.obj
 0002:00000dbc       ??_C@_03JPJOFNIA@Nov?$AA@  6800fdbc     LIBCMT:nlsdata2.obj
 0002:00000dc0       ??_C@_03BMAOKBAD@Oct?$AA@  6800fdc0     LIBCMT:nlsdata2.obj
 0002:00000dc4       ??_C@_03GGCAPAJC@Sep?$AA@  6800fdc4     LIBCMT:nlsdata2.obj
 0002:00000dc8       ??_C@_03IFJFEIGA@Aug?$AA@  6800fdc8     LIBCMT:nlsdata2.obj
 0002:00000dcc       ??_C@_03LBGABGKK@Jul?$AA@  6800fdcc     LIBCMT:nlsdata2.obj
 0002:00000dd0       ??_C@_03IDFGHECI@Jun?$AA@  6800fdd0     LIBCMT:nlsdata2.obj
 0002:00000dd4       ??_C@_03CNMDKL@May?$AA@    6800fdd4     LIBCMT:nlsdata2.obj
 0002:00000dd8       ??_C@_03LEOLGMJP@Apr?$AA@  6800fdd8     LIBCMT:nlsdata2.obj
 0002:00000ddc       ??_C@_03ODNJBKGA@Mar?$AA@  6800fddc     LIBCMT:nlsdata2.obj
 0002:00000de0       ??_C@_03HJBDCHOM@Feb?$AA@  6800fde0     LIBCMT:nlsdata2.obj
 0002:00000de4       ??_C@_03JIHJHPIE@Jan?$AA@  6800fde4     LIBCMT:nlsdata2.obj
 0002:00000de8       ??_C@_08INBOOONO@Saturday?$AA@ 6800fde8     LIBCMT:nlsdata2.obj
 0002:00000df4       ??_C@_06JECMNKMI@Friday?$AA@ 6800fdf4     LIBCMT:nlsdata2.obj
 0002:00000dfc       ??_C@_08HACCIKIA@Thursday?$AA@ 6800fdfc     LIBCMT:nlsdata2.obj
 0002:00000e08       ??_C@_09DLIGFAKA@Wednesday?$AA@ 6800fe08     LIBCMT:nlsdata2.obj
 0002:00000e14       ??_C@_07BAAGCFCM@Tuesday?$AA@ 6800fe14     LIBCMT:nlsdata2.obj
 0002:00000e1c       ??_C@_06JLEDEDGH@Monday?$AA@ 6800fe1c     LIBCMT:nlsdata2.obj
 0002:00000e24       ??_C@_06OOPIFAJ@Sunday?$AA@ 6800fe24     LIBCMT:nlsdata2.obj
 0002:00000e2c       ??_C@_03FEFJNEK@Sat?$AA@   6800fe2c     LIBCMT:nlsdata2.obj
 0002:00000e30       ??_C@_03IDIOELNC@Fri?$AA@  6800fe30     LIBCMT:nlsdata2.obj
 0002:00000e34       ??_C@_03IOFIKPDN@Thu?$AA@  6800fe34     LIBCMT:nlsdata2.obj
 0002:00000e38       ??_C@_03MHOMLAJA@Wed?$AA@  6800fe38     LIBCMT:nlsdata2.obj
 0002:00000e3c       ??_C@_03NAGEINEP@Tue?$AA@  6800fe3c     LIBCMT:nlsdata2.obj
 0002:00000e40       ??_C@_03PDAGKDH@Mon?$AA@   6800fe40     LIBCMT:nlsdata2.obj
 0002:00000e44       ??_C@_03KOEHGMDN@Sun?$AA@  6800fe44     LIBCMT:nlsdata2.obj
 0002:00000e48       ??_C@_1O@CEDCILHN@?$AA?$CI?$AAn?$AAu?$AAl?$AAl?$AA?$CJ?$AA?$AA@ 6800fe48     LIBCMT:output.obj
 0002:00000e58       ??_C@_06OJHGLDPL@?$CInull?$CJ?$AA@ 6800fe58     LIBCMT:output.obj
 0002:00000e60       ___lookuptable             6800fe60     LIBCMT:output.obj
 0002:00000ebc       ??_C@_0BK@CFCOFLF@?5Complete?5Object?5Locator?8?$AA@ 6800febc     LIBCMT:undname.obj
 0002:00000ed8       ??_C@_0BN@MECKDCOJ@?5Class?5Hierarchy?5Descriptor?8?$AA@ 6800fed8     LIBCMT:undname.obj
 0002:00000ef8       ??_C@_0BD@LGICGFMM@?5Base?5Class?5Array?8?$AA@ 6800fef8     LIBCMT:undname.obj
 0002:00000f0c       ??_C@_0BM@LDKODKLH@?5Base?5Class?5Descriptor?5at?5?$CI?$AA@ 6800ff0c     LIBCMT:undname.obj
 0002:00000f28       ??_C@_0BC@DAFEJGAK@?5Type?5Descriptor?8?$AA@ 6800ff28     LIBCMT:undname.obj
 0002:00000f3c       ??_C@_0BM@PMGGMLDN@?$GAlocal?5static?5thread?5guard?8?$AA@ 6800ff3c     LIBCMT:undname.obj
 0002:00000f58       ??_C@_0CL@FGIJHLCE@?$GAmanaged?5vector?5copy?5constructor@ 6800ff58     LIBCMT:undname.obj
 0002:00000f84       ??_C@_0CJ@GJELGAMM@?$GAvector?5vbase?5copy?5constructor?5i@ 6800ff84     LIBCMT:undname.obj
 0002:00000fb0       ??_C@_0CD@CGAJBKEJ@?$GAvector?5copy?5constructor?5iterato@ 6800ffb0     LIBCMT:undname.obj
 0002:00000fd4       ??_C@_0CB@PDBIFEP@?$GAdynamic?5atexit?5destructor?5for?5?8@ 6800ffd4     LIBCMT:undname.obj
 0002:00000ff8       ??_C@_0BL@CLIPGLGB@?$GAdynamic?5initializer?5for?5?8?$AA@ 6800fff8     LIBCMT:undname.obj
 0002:00001014       ??_C@_0CM@FCBBDIGB@?$GAeh?5vector?5vbase?5copy?5constructo@ 68010014     LIBCMT:undname.obj
 0002:00001040       ??_C@_0CG@HLDDJMAG@?$GAeh?5vector?5copy?5constructor?5iter@ 68010040     LIBCMT:undname.obj
 0002:00001068       ??_C@_0CF@IMGKMJNO@?$GAmanaged?5vector?5destructor?5itera@ 68010068     LIBCMT:undname.obj
 0002:00001090       ??_C@_0CG@CFDHKGGD@?$GAmanaged?5vector?5constructor?5iter@ 68010090     LIBCMT:undname.obj
 0002:000010b8       ??_C@_0BN@CKNJLHMB@?$GAplacement?5delete?$FL?$FN?5closure?8?$AA@ 680100b8     LIBCMT:undname.obj
 0002:000010d8       ??_C@_0BL@CNOONJFP@?$GAplacement?5delete?5closure?8?$AA@ 680100d8     LIBCMT:undname.obj
 0002:000010f4       ??_C@_0P@HJKNJFNN@?$GAomni?5callsig?8?$AA@ 680100f4     LIBCMT:undname.obj
 0002:00001104       ??_C@_09LBNFPBCA@?5delete?$FL?$FN?$AA@ 68010104     LIBCMT:undname.obj
 0002:00001110       ??_C@_06FHBGPFGH@?5new?$FL?$FN?$AA@ 68010110     LIBCMT:undname.obj
 0002:00001118       ??_C@_0CE@IIHCMGGL@?$GAlocal?5vftable?5constructor?5closu@ 68010118     LIBCMT:undname.obj
 0002:0000113c       ??_C@_0BA@KKLDJDLB@?$GAlocal?5vftable?8?$AA@ 6801013c     LIBCMT:undname.obj
 0002:0000114c       ??_C@_05KHLCHHI@?$GARTTI?$AA@ 6801014c     LIBCMT:undname.obj
 0002:00001154       ??_C@_03KLGMFNMG@?$GAEH?$AA@ 68010154     LIBCMT:undname.obj
 0002:00001158       ??_C@_0BA@KBCDOMBN@?$GAudt?5returning?8?$AA@ 68010158     LIBCMT:undname.obj
 0002:00001168       ??_C@_0BL@LLKPOHJI@?$GAcopy?5constructor?5closure?8?$AA@ 68010168     LIBCMT:undname.obj
 0002:00001184       ??_C@_0CH@OOJPLCPH@?$GAeh?5vector?5vbase?5constructor?5ite@ 68010184     LIBCMT:undname.obj
 0002:000011ac       ??_C@_0CA@GCEOPDGL@?$GAeh?5vector?5destructor?5iterator?8?$AA@ 680101ac     LIBCMT:undname.obj
 0002:000011cc       ??_C@_0CB@JONCMFFK@?$GAeh?5vector?5constructor?5iterator?8@ 680101cc     LIBCMT:undname.obj
 0002:000011f0       ??_C@_0BL@NILFHHPC@?$GAvirtual?5displacement?5map?8?$AA@ 680101f0     LIBCMT:undname.obj
 0002:0000120c       ??_C@_0CE@IKBNEHA@?$GAvector?5vbase?5constructor?5iterat@ 6801020c     LIBCMT:undname.obj
 0002:00001230       ??_C@_0BN@LFPFMEDL@?$GAvector?5destructor?5iterator?8?$AA@ 68010230     LIBCMT:undname.obj
 0002:00001250       ??_C@_0BO@PFGOCPJJ@?$GAvector?5constructor?5iterator?8?$AA@ 68010250     LIBCMT:undname.obj
 0002:00001270       ??_C@_0BN@IMDCHIKM@?$GAscalar?5deleting?5destructor?8?$AA@ 68010270     LIBCMT:undname.obj
 0002:00001290       ??_C@_0BO@OBMKPJIG@?$GAdefault?5constructor?5closure?8?$AA@ 68010290     LIBCMT:undname.obj
 0002:000012b0       ??_C@_0BN@DEGPLNFK@?$GAvector?5deleting?5destructor?8?$AA@ 680102b0     LIBCMT:undname.obj
 0002:000012d0       ??_C@_0BD@JDLKDPAB@?$GAvbase?5destructor?8?$AA@ 680102d0     LIBCMT:undname.obj
 0002:000012e4       ??_C@_08OBABFOLI@?$GAstring?8?$AA@ 680102e4     LIBCMT:undname.obj
 0002:000012f0       ??_C@_0BF@KDPPACIK@?$GAlocal?5static?5guard?8?$AA@ 680102f0     LIBCMT:undname.obj
 0002:00001308       ??_C@_08LLFFHHDJ@?$GAtypeof?8?$AA@ 68010308     LIBCMT:undname.obj
 0002:00001314       ??_C@_07FEEIOKP@?$GAvcall?8?$AA@ 68010314     LIBCMT:undname.obj
 0002:0000131c       ??_C@_09BLBHBJP@?$GAvbtable?8?$AA@ 6801031c     LIBCMT:undname.obj
 0002:00001328       ??_C@_09IFPLHPGF@?$GAvftable?8?$AA@ 68010328     LIBCMT:undname.obj
 0002:00001334       ??_C@_02MHEGNOJ@?$FO?$DN?$AA@ 68010334     LIBCMT:undname.obj
 0002:00001338       ??_C@_02DHLNPPGH@?$HM?$DN?$AA@ 68010338     LIBCMT:undname.obj
 0002:0000133c       ??_C@_02FGJGFEAB@?$CG?$DN?$AA@ 6801033c     LIBCMT:undname.obj
 0002:00001340       ??_C@_03CDNPDDLA@?$DM?$DM?$DN?$AA@ 68010340     LIBCMT:undname.obj
 0002:00001344       ??_C@_03IKFCCPFF@?$DO?$DO?$DN?$AA@ 68010344     LIBCMT:undname.obj
 0002:00001348       ??_C@_02FENAOKFI@?$CF?$DN?$AA@ 68010348     LIBCMT:undname.obj
 0002:0000134c       ??_C@_02FJEHGPIO@?1?$DN?$AA@ 6801034c     LIBCMT:undname.obj
 0002:00001350       ??_C@_02FKMDLLOA@?9?$DN?$AA@ 68010350     LIBCMT:undname.obj
 0002:00001354       ??_C@_02FOEOMHFC@?$CL?$DN?$AA@ 68010354     LIBCMT:undname.obj
 0002:00001358       ??_C@_02FPIMKNGF@?$CK?$DN?$AA@ 68010358     LIBCMT:undname.obj
 0002:0000135c       ??_C@_02NONPIBCD@?$HM?$HM?$AA@ 6801035c     LIBCMT:undname.obj
 0002:00001360       ??_C@_02PPKAJPJL@?$CG?$CG?$AA@ 68010360     LIBCMT:undname.obj
 0002:00001364       ??_C@_01DNKMNLPK@?$HM?$AA@ 68010364     LIBCMT:undname.obj
 0002:00001368       ??_C@_01JKBOJNNK@?$FO?$AA@ 68010368     LIBCMT:undname.obj
 0002:0000136c       ??_C@_01PJKLJHI@?$HO?$AA@  6801036c     LIBCMT:undname.obj
 0002:00001370       ??_C@_02HCKGKOFO@?$CI?$CJ?$AA@ 68010370     LIBCMT:undname.obj
 0002:00001374       ??_C@_01IHBHIGKO@?0?$AA@   68010374     LIBCMT:undname.obj
 0002:00001378       ??_C@_02EEKDKGMJ@?$DO?$DN?$AA@ 68010378     LIBCMT:undname.obj
 0002:0000137c       ??_C@_01PPODPGHN@?$DO?$AA@ 6801037c     LIBCMT:undname.obj
 0002:00001380       ??_C@_02EHCHHCKH@?$DM?$DN?$AA@ 68010380     LIBCMT:undname.obj
 0002:00001384       ??_C@_01MNNFJEPP@?$DM?$AA@ 68010384     LIBCMT:undname.obj
 0002:00001388       ??_C@_01FGNFDNOH@?$CF?$AA@ 68010388     LIBCMT:undname.obj
 0002:0000138c       ??_C@_01KMDKNFGN@?1?$AA@   6801038c     LIBCMT:undname.obj
 0002:00001390       ??_C@_03MNHNFDLC@?9?$DO?$CK?$AA@ 68010390     LIBCMT:undname.obj
 0002:00001394       ??_C@_01HNPIGOCE@?$CG?$AA@ 68010394     LIBCMT:undname.obj
 0002:00001398       ??_C@_01MIFGBAGJ@?$CL?$AA@ 68010398     LIBCMT:undname.obj
 0002:0000139c       ??_C@_01JOAMLHOP@?9?$AA@   6801039c     LIBCMT:undname.obj
 0002:000013a0       ??_C@_02BAABKJLB@?9?9?$AA@ 680103a0     LIBCMT:undname.obj
 0002:000013a4       ??_C@_02ECNGHCIF@?$CL?$CL?$AA@ 680103a4     LIBCMT:undname.obj
 0002:000013a8       ??_C@_01NBENCBCI@?$CK?$AA@ 680103a8     LIBCMT:undname.obj
 0002:000013ac       ??_C@_02HBOOOICD@?9?$DO?$AA@ 680103ac     LIBCMT:undname.obj
 0002:000013b0       ??_C@_08LHJFAFGD@operator?$AA@ 680103b0     LIBCMT:undname.obj
 0002:000013bc       ??_C@_02GPECMEKF@?$FL?$FN?$AA@ 680103bc     LIBCMT:undname.obj
 0002:000013c0       ??_C@_02FDNJECIE@?$CB?$DN?$AA@ 680103c0     LIBCMT:undname.obj
 0002:000013c4       ??_C@_02EGOFBIJA@?$DN?$DN?$AA@ 680103c4     LIBCMT:undname.obj
 0002:000013c8       ??_C@_01DCLJPIOD@?$CB?$AA@ 680103c8     LIBCMT:undname.obj
 0002:000013cc       ??_C@_02FODMEDOG@?$DM?$DM?$AA@ 680103cc     LIBCMT:undname.obj
 0002:000013d0       ??_C@_02GPIOPFAK@?$DO?$DO?$AA@ 680103d0     LIBCMT:undname.obj
 0002:000013d4       ??_C@_01NEMOKFLO@?$DN?$AA@ 680103d4     LIBCMT:undname.obj
 0002:000013d8       ??_C@_07FPCDHGMM@?5delete?$AA@ 680103d8     LIBCMT:undname.obj
 0002:000013e0       ??_C@_04NIHEBCM@?5new?$AA@ 680103e0     LIBCMT:undname.obj
 0002:000013e5       ??_C@_00CNPNBAHC@?$AA@     680103e5     LIBCMT:undname.obj
 0002:000013e8       ??_C@_0M@GFIIJFMG@__unaligned?$AA@ 680103e8     LIBCMT:undname.obj
 0002:000013f4       ??_C@_0L@PILCLIHE@__restrict?$AA@ 680103f4     LIBCMT:undname.obj
 0002:00001400       ??_C@_07JOMMBBKO@__ptr64?$AA@ 68010400     LIBCMT:undname.obj
 0002:00001408       ??_C@_06GHPCKEAG@__eabi?$AA@ 68010408     LIBCMT:undname.obj
 0002:00001410       ??_C@_09HIJEGCPM@__clrcall?$AA@ 68010410     LIBCMT:undname.obj
 0002:0000141c       ??_C@_0L@JMKHOMEK@__fastcall?$AA@ 6801041c     LIBCMT:undname.obj
 0002:00001428       ??_C@_0L@NPHFGOKO@__thiscall?$AA@ 68010428     LIBCMT:undname.obj
 0002:00001434       ??_C@_09IFJBGAPI@__stdcall?$AA@ 68010434     LIBCMT:undname.obj
 0002:00001440       ??_C@_08GHMPAG@__pascal?$AA@ 68010440     LIBCMT:undname.obj
 0002:0000144c       ??_C@_07KOLFKCDI@__cdecl?$AA@ 6801044c     LIBCMT:undname.obj
 0002:00001454       ??_C@_08EHJDFFNH@__based?$CI?$AA@ 68010454     LIBCMT:undname.obj
 0002:000015e4       ??_C@_1BO@BKOMIGKJ@?$AAr?$AAu?$AAn?$AAt?$AAi?$AAm?$AAe?$AA?5?$AAe?$AAr?$AAr?$AAo?$AAr?$AA?5?$AA?$AA@ 680105e4     LIBCMT:crt0msg.obj
 0002:00001604       ??_C@_15JNBOKNOG@?$AA?$AN?$AA?6?$AA?$AA@ 68010604     LIBCMT:crt0msg.obj
 0002:0000160c       ??_C@_1BM@JBBEPPHI@?$AAT?$AAL?$AAO?$AAS?$AAS?$AA?5?$AAe?$AAr?$AAr?$AAo?$AAr?$AA?$AN?$AA?6?$AA?$AA@ 6801060c     LIBCMT:crt0msg.obj
 0002:00001628       ??_C@_1BK@KMOMNAAI@?$AAS?$AAI?$AAN?$AAG?$AA?5?$AAe?$AAr?$AAr?$AAo?$AAr?$AA?$AN?$AA?6?$AA?$AA@ 68010628     LIBCMT:crt0msg.obj
 0002:00001644       ??_C@_1BO@BFCDCGC@?$AAD?$AAO?$AAM?$AAA?$AAI?$AAN?$AA?5?$AAe?$AAr?$AAr?$AAo?$AAr?$AA?$AN?$AA?6?$AA?$AA@ 68010644     LIBCMT:crt0msg.obj
 0002:00001668       ??_C@_1BOO@KGEDBGAJ@?$AAR?$AA6?$AA0?$AA3?$AA3?$AA?$AN?$AA?6?$AA?9?$AA?5?$AAA?$AAt?$AAt?$AAe?$AAm?$AAp?$AAt?$AA?5?$AAt?$AAo?$AA?5?$AAu?$AAs?$AAe?$AA?5?$AAM?$AAS?$AAI?$AAL?$AA?5?$AAc?$AAo?$AAd@ 68010668     LIBCMT:crt0msg.obj
 0002:00001858       ??_C@_1GG@GOPILAJP@?$AAR?$AA6?$AA0?$AA3?$AA2?$AA?$AN?$AA?6?$AA?9?$AA?5?$AAn?$AAo?$AAt?$AA?5?$AAe?$AAn?$AAo?$AAu?$AAg?$AAh?$AA?5?$AAs?$AAp?$AAa?$AAc?$AAe?$AA?5?$AAf?$AAo?$AAr?$AA?5?$AAl?$AAo@ 68010858     LIBCMT:crt0msg.obj
 0002:000018c0       ??_C@_1MG@ENCOOIDF@?$AAR?$AA6?$AA0?$AA3?$AA1?$AA?$AN?$AA?6?$AA?9?$AA?5?$AAA?$AAt?$AAt?$AAe?$AAm?$AAp?$AAt?$AA?5?$AAt?$AAo?$AA?5?$AAi?$AAn?$AAi?$AAt?$AAi?$AAa?$AAl?$AAi?$AAz?$AAe?$AA?5?$AAt@ 680108c0     LIBCMT:crt0msg.obj
 0002:00001988       ??_C@_1DO@BMFCDCD@?$AAR?$AA6?$AA0?$AA3?$AA0?$AA?$AN?$AA?6?$AA?9?$AA?5?$AAC?$AAR?$AAT?$AA?5?$AAn?$AAo?$AAt?$AA?5?$AAi?$AAn?$AAi?$AAt?$AAi?$AAa?$AAl?$AAi?$AAz?$AAe?$AAd?$AA?$AN?$AA?6?$AA?$AA@ 68010988     LIBCMT:crt0msg.obj
 0002:000019c8       ??_C@_1EK@HHFLMAOL@?$AAR?$AA6?$AA0?$AA2?$AA8?$AA?$AN?$AA?6?$AA?9?$AA?5?$AAu?$AAn?$AAa?$AAb?$AAl?$AAe?$AA?5?$AAt?$AAo?$AA?5?$AAi?$AAn?$AAi?$AAt?$AAi?$AAa?$AAl?$AAi?$AAz?$AAe?$AA?5?$AAh?$AAe@ 680109c8     LIBCMT:crt0msg.obj
 0002:00001a18       ??_C@_1GK@MFGOKLAG@?$AAR?$AA6?$AA0?$AA2?$AA7?$AA?$AN?$AA?6?$AA?9?$AA?5?$AAn?$AAo?$AAt?$AA?5?$AAe?$AAn?$AAo?$AAu?$AAg?$AAh?$AA?5?$AAs?$AAp?$AAa?$AAc?$AAe?$AA?5?$AAf?$AAo?$AAr?$AA?5?$AAl?$AAo@ 68010a18     LIBCMT:crt0msg.obj
 0002:00001a88       ??_C@_1GK@MCAAGJMO@?$AAR?$AA6?$AA0?$AA2?$AA6?$AA?$AN?$AA?6?$AA?9?$AA?5?$AAn?$AAo?$AAt?$AA?5?$AAe?$AAn?$AAo?$AAu?$AAg?$AAh?$AA?5?$AAs?$AAp?$AAa?$AAc?$AAe?$AA?5?$AAf?$AAo?$AAr?$AA?5?$AAs?$AAt@ 68010a88     LIBCMT:crt0msg.obj
 0002:00001af8       ??_C@_1EM@MAADIHMB@?$AAR?$AA6?$AA0?$AA2?$AA5?$AA?$AN?$AA?6?$AA?9?$AA?5?$AAp?$AAu?$AAr?$AAe?$AA?5?$AAv?$AAi?$AAr?$AAt?$AAu?$AAa?$AAl?$AA?5?$AAf?$AAu?$AAn?$AAc?$AAt?$AAi?$AAo?$AAn?$AA?5?$AAc@ 68010af8     LIBCMT:crt0msg.obj
 0002:00001b48       ??_C@_1GK@FHCKBEFA@?$AAR?$AA6?$AA0?$AA2?$AA4?$AA?$AN?$AA?6?$AA?9?$AA?5?$AAn?$AAo?$AAt?$AA?5?$AAe?$AAn?$AAo?$AAu?$AAg?$AAh?$AA?5?$AAs?$AAp?$AAa?$AAc?$AAe?$AA?5?$AAf?$AAo?$AAr?$AA?5?$AA_?$AAo@ 68010b48     LIBCMT:crt0msg.obj
 0002:00001bb8       ??_C@_1FC@ECHBIFBC@?$AAR?$AA6?$AA0?$AA1?$AA9?$AA?$AN?$AA?6?$AA?9?$AA?5?$AAu?$AAn?$AAa?$AAb?$AAl?$AAe?$AA?5?$AAt?$AAo?$AA?5?$AAo?$AAp?$AAe?$AAn?$AA?5?$AAc?$AAo?$AAn?$AAs?$AAo?$AAl?$AAe?$AA?5@ 68010bb8     LIBCMT:crt0msg.obj
 0002:00001c10       ??_C@_1EC@JIBHAOPH@?$AAR?$AA6?$AA0?$AA1?$AA8?$AA?$AN?$AA?6?$AA?9?$AA?5?$AAu?$AAn?$AAe?$AAx?$AAp?$AAe?$AAc?$AAt?$AAe?$AAd?$AA?5?$AAh?$AAe?$AAa?$AAp?$AA?5?$AAe?$AAr?$AAr?$AAo?$AAr?$AA?$AN?$AA?6@ 68010c10     LIBCMT:crt0msg.obj
 0002:00001c58       ??_C@_1FK@BEOGODMC@?$AAR?$AA6?$AA0?$AA1?$AA7?$AA?$AN?$AA?6?$AA?9?$AA?5?$AAu?$AAn?$AAe?$AAx?$AAp?$AAe?$AAc?$AAt?$AAe?$AAd?$AA?5?$AAm?$AAu?$AAl?$AAt?$AAi?$AAt?$AAh?$AAr?$AAe?$AAa?$AAd?$AA?5@ 68010c58     LIBCMT:crt0msg.obj
 0002:00001cb8       ??_C@_1FI@LOGNIKDM@?$AAR?$AA6?$AA0?$AA1?$AA6?$AA?$AN?$AA?6?$AA?9?$AA?5?$AAn?$AAo?$AAt?$AA?5?$AAe?$AAn?$AAo?$AAu?$AAg?$AAh?$AA?5?$AAs?$AAp?$AAa?$AAc?$AAe?$AA?5?$AAf?$AAo?$AAr?$AA?5?$AAt?$AAh@ 68010cb8     LIBCMT:crt0msg.obj
 0002:00001d10       ??_C@_1EG@BEHAGFJD@?$AAR?$AA6?$AA0?$AA1?$AA0?$AA?$AN?$AA?6?$AA?9?$AA?5?$AAa?$AAb?$AAo?$AAr?$AAt?$AA?$CI?$AA?$CJ?$AA?5?$AAh?$AAa?$AAs?$AA?5?$AAb?$AAe?$AAe?$AAn?$AA?5?$AAc?$AAa?$AAl?$AAl?$AAe?$AAd@ 68010d10     LIBCMT:crt0msg.obj
 0002:00001d58       ??_C@_1FI@HONFMGBI@?$AAR?$AA6?$AA0?$AA0?$AA9?$AA?$AN?$AA?6?$AA?9?$AA?5?$AAn?$AAo?$AAt?$AA?5?$AAe?$AAn?$AAo?$AAu?$AAg?$AAh?$AA?5?$AAs?$AAp?$AAa?$AAc?$AAe?$AA?5?$AAf?$AAo?$AAr?$AA?5?$AAe?$AAn@ 68010d58     LIBCMT:crt0msg.obj
 0002:00001db0       ??_C@_1FE@LLNEDJMD@?$AAR?$AA6?$AA0?$AA0?$AA8?$AA?$AN?$AA?6?$AA?9?$AA?5?$AAn?$AAo?$AAt?$AA?5?$AAe?$AAn?$AAo?$AAu?$AAg?$AAh?$AA?5?$AAs?$AAp?$AAa?$AAc?$AAe?$AA?5?$AAf?$AAo?$AAr?$AA?5?$AAa?$AAr@ 68010db0     LIBCMT:crt0msg.obj
 0002:00001e08       ??_C@_1FK@PGACCAFB@?$AAR?$AA6?$AA0?$AA0?$AA2?$AA?$AN?$AA?6?$AA?9?$AA?5?$AAf?$AAl?$AAo?$AAa?$AAt?$AAi?$AAn?$AAg?$AA?5?$AAp?$AAo?$AAi?$AAn?$AAt?$AA?5?$AAs?$AAu?$AAp?$AAp?$AAo?$AAr?$AAt?$AA?5@ 68010e08     LIBCMT:crt0msg.obj
 0002:00001f18       ??_C@_1EK@MBDPDCGA@?$AAM?$AAi?$AAc?$AAr?$AAo?$AAs?$AAo?$AAf?$AAt?$AA?5?$AAV?$AAi?$AAs?$AAu?$AAa?$AAl?$AA?5?$AAC?$AA?$CL?$AA?$CL?$AA?5?$AAR?$AAu?$AAn?$AAt?$AAi?$AAm?$AAe?$AA?5?$AAL?$AAi?$AAb@ 68010f18     LIBCMT:crt0msg.obj
 0002:00001f64       ??_C@_15IABLJNFO@?$AA?6?$AA?6?$AA?$AA@ 68010f64     LIBCMT:crt0msg.obj
 0002:00001f6c       ??_C@_17LGKOMLJ@?$AA?4?$AA?4?$AA?4?$AA?$AA@ 68010f6c     LIBCMT:crt0msg.obj
 0002:00001f74       ??_C@_1CO@EAEJAADC@?$AA?$DM?$AAp?$AAr?$AAo?$AAg?$AAr?$AAa?$AAm?$AA?5?$AAn?$AAa?$AAm?$AAe?$AA?5?$AAu?$AAn?$AAk?$AAn?$AAo?$AAw?$AAn?$AA?$DO?$AA?$AA@ 68010f74     LIBCMT:crt0msg.obj
 0002:00001fa4       ??_C@_1DE@JNGNBFGO@?$AAR?$AAu?$AAn?$AAt?$AAi?$AAm?$AAe?$AA?5?$AAE?$AAr?$AAr?$AAo?$AAr?$AA?$CB?$AA?6?$AA?6?$AAP?$AAr?$AAo?$AAg?$AAr?$AAa?$AAm?$AA?3?$AA?5?$AA?$AA@ 68010fa4     LIBCMT:crt0msg.obj
 0002:00001fd8       ??_C@_0BI@DFKBFLJE@GetProcessWindowStation?$AA@ 68010fd8     LIBCMT:crtmboxw.obj
 0002:00001ff0       ??_C@_0BK@DEKFELLI@GetUserObjectInformationW?$AA@ 68010ff0     LIBCMT:crtmboxw.obj
 0002:0000200c       ??_C@_0BD@HHGDFDBJ@GetLastActivePopup?$AA@ 6801100c     LIBCMT:crtmboxw.obj
 0002:00002020       ??_C@_0BA@HNOPNCHB@GetActiveWindow?$AA@ 68011020     LIBCMT:crtmboxw.obj
 0002:00002030       ??_C@_0M@DLDCCGNP@MessageBoxW?$AA@ 68011030     LIBCMT:crtmboxw.obj
 0002:0000203c       ??_C@_1BG@GOEBHBDC@?$AAU?$AAS?$AAE?$AAR?$AA3?$AA2?$AA?4?$AAD?$AAL?$AAL?$AA?$AA@ 6801103c     LIBCMT:crtmboxw.obj
 0002:00002054       ??_C@_1BA@BALFACEM@?$AAC?$AAO?$AAN?$AAO?$AAU?$AAT?$AA$?$AA?$AA@ 68011054     LIBCMT:initcon.obj
 0002:00002068       ___lookuptable_s           68011068     LIBCMT:outputs.obj
 0002:00002148       ??_C@_1GI@BAAGFBH@?$AAS?$AAO?$AAF?$AAT?$AAW?$AAA?$AAR?$AAE?$AA?2?$AAM?$AAi?$AAc?$AAr?$AAo?$AAs?$AAo?$AAf?$AAt?$AA?2?$AAW?$AAi?$AAn?$AAd?$AAo?$AAw?$AAs?$AA?2?$AAC?$AAu?$AAr?$AAr?$AAe@ 68011148     UnInstall.obj
 0002:000021b0       ??_C@_1CA@DKMJCFOO@?$AAI?$AAn?$AAs?$AAt?$AAa?$AAl?$AAl?$AAS?$AAh?$AAi?$AAe?$AAl?$AAd?$AA_?$AA?$HL?$AA?$AA@ 680111b0     UnInstall.obj
 0002:000021d0       ??_C@_1BK@BCANPFFP@?$AAI?$AAn?$AAs?$AAt?$AAa?$AAl?$AAl?$AAW?$AAI?$AAX?$AA_?$AA?$HL?$AA?$AA@ 680111d0     UnInstall.obj
 0002:000021ec       ??_C@_1BI@JAAGCEJ@?$AAI?$AAn?$AAs?$AAt?$AAa?$AAl?$AAl?$AAD?$AAa?$AAt?$AAe?$AA?$AA@ 680111ec     UnInstall.obj
 0002:00002204       ??_C@_1BO@ICHFPEDH@?$AAD?$AAi?$AAs?$AAp?$AAl?$AAa?$AAy?$AAV?$AAe?$AAr?$AAs?$AAi?$AAo?$AAn?$AA?$AA@ 68011204     UnInstall.obj
 0002:00002224       ??_C@_1BC@OJAINIIB@?$AAC?$AAo?$AAm?$AAm?$AAe?$AAn?$AAt?$AAs?$AA?$AA@ 68011224     UnInstall.obj
 0002:00002238       ??_C@_1BM@CNHEEMAG@?$AAU?$AAR?$AAL?$AAU?$AAp?$AAd?$AAa?$AAt?$AAe?$AAI?$AAn?$AAf?$AAo?$AA?$AA@ 68011238     UnInstall.obj
 0002:00002254       ??_C@_1BK@BHKEOMGE@?$AAU?$AAR?$AAL?$AAI?$AAn?$AAf?$AAo?$AAA?$AAb?$AAo?$AAu?$AAt?$AA?$AA@ 68011254     UnInstall.obj
 0002:00002270       ??_C@_1BE@CCMLAJPM@?$AAP?$AAu?$AAb?$AAl?$AAi?$AAs?$AAh?$AAe?$AAr?$AA?$AA@ 68011270     UnInstall.obj
 0002:00002284       ??_C@_1CA@ICGNOJNA@?$AAU?$AAn?$AAi?$AAn?$AAs?$AAt?$AAa?$AAl?$AAl?$AAS?$AAt?$AAr?$AAi?$AAn?$AAg?$AA?$AA@ 68011284     UnInstall.obj
 0002:000022a4       ??_C@_1BG@DCBIGJIH@?$AAM?$AAo?$AAd?$AAi?$AAf?$AAy?$AAP?$AAa?$AAt?$AAh?$AA?$AA@ 680112a4     UnInstall.obj
 0002:000022bc       ??_C@_1CA@CBMLAMC@?$AAI?$AAn?$AAs?$AAt?$AAa?$AAl?$AAl?$AAL?$AAo?$AAc?$AAa?$AAt?$AAi?$AAo?$AAn?$AA?$AA@ 680112bc     UnInstall.obj
 0002:000022dc       ??_C@_1BI@EEKPCHLN@?$AAD?$AAi?$AAs?$AAp?$AAl?$AAa?$AAy?$AAN?$AAa?$AAm?$AAe?$AA?$AA@ 680112dc     UnInstall.obj
 0002:000022f4       ??_C@_11LOCGONAA@?$AA?$AA@ 680112f4     UnInstall.obj
 0002:000022f8       _MainGuid                  680112f8     UnInstall.obj
 0002:00002308       _AnyMessage                68011308     UnInstall.obj
 0002:00002318       _ActionMenu                68011318     UnInstall.obj
 0002:00002328       _PluginMenuGuid            68011328     UnInstall.obj
 0002:00002338       _PluginConfigGuid          68011338     UnInstall.obj
 0002:00002348       _UninstallEntryGuid        68011348     UnInstall.obj
 0002:00002358       _ContentsGuid              68011358     UnInstall.obj
 0002:00002368       _ConfigGuid                68011368     UnInstall.obj
 0002:00002378       ??_C@_13LBAGMAIH@?$AA?6?$AA?$AA@ 68011378     UnInstall.obj
 0002:0000237c       ??_C@_13FPGAJAPJ@?$AA?2?$AA?$AA@ 6801137c     UnInstall.obj
 0002:00002380       ??_C@_1CC@GICGHGIN@?$AAW?$AAi?$AAn?$AAd?$AAo?$AAw?$AAs?$AAI?$AAn?$AAs?$AAt?$AAa?$AAl?$AAl?$AAe?$AAr?$AA?$AA@ 68011380     UnInstall.obj
 0002:000023a4       ??_C@_1BC@PPFINAPO@?$AAN?$AAo?$AAM?$AAo?$AAd?$AAi?$AAf?$AAy?$AA?$AA@ 680113a4     UnInstall.obj
 0002:000023b8       ??_C@_1BC@POLOLPPG@?$AAN?$AAo?$AAR?$AAe?$AAp?$AAa?$AAi?$AAr?$AA?$AA@ 680113b8     UnInstall.obj
 0002:000023cc       ??_C@_1DO@MPIFOIFK@?$AA?5?$AA?1?$AA?5?$AA?$CF?$AA0?$AA2?$AAu?$AA?4?$AA?$CF?$AA0?$AA2?$AAu?$AA?4?$AA?$CF?$AA0?$AA4?$AAu?$AA?5?$AA?$CF?$AAu?$AA?3?$AA?$CF?$AA0?$AA2?$AAu?$AA?3?$AA?$CF?$AA0?$AA2?$AAu?$AA?$AA@ 680113cc     UnInstall.obj
 0002:0000240c       ??_C@_1BO@FAIPNGOK@?$AA?$CF?$AA0?$AA2?$AAu?$AA?4?$AA?$CF?$AA0?$AA2?$AAu?$AA?4?$AA?$CF?$AA0?$AA2?$AAu?$AA?$AA@ 6801140c     UnInstall.obj
 0002:0000242c       ??_C@_19PEALEEJB@?$AAH?$AAK?$AAL?$AAM?$AA?$AA@ 6801142c     UnInstall.obj
 0002:00002438       ??_C@_19JAPAIJDE@?$AAH?$AAK?$AAC?$AAU?$AA?$AA@ 68011438     UnInstall.obj
 0002:00002444       ??_C@_1BI@MLMPHKFL@?$AA?$CF?$AAs?$AA?$FL?$AA?$CF?$AAu?$AA?$FN?$AA?2?$AA?4?$AA?4?$AA?4?$AA?2?$AA?$AA@ 68011444     UnInstall.obj
 0002:0000245c       ??_C@_1BA@NAEIAEIJ@?$AA?$CF?$AAs?$AA?2?$AA?4?$AA?4?$AA?4?$AA?2?$AA?$AA@ 6801145c     UnInstall.obj
 0002:0000246c       ??_C@_1BC@BGHNJLFB@?$AA?5?$AA?5?$AA?5?$AA?5?$AA?5?$AA?5?$AA?5?$AA?5?$AA?$AA@ 6801146c     UnInstall.obj
 0002:00002480       ??_C@_1BE@IACDGIBA@?$AAE?$AAs?$AAc?$AA?5?$AAU?$AAp?$AA?5?$AAF?$AA3?$AA?$AA@ 68011480     UnInstall.obj
 0002:00002494       ??_C@_1BI@OAGHGGIC@?$AAE?$AAs?$AAc?$AA?5?$AAD?$AAo?$AAw?$AAn?$AA?5?$AAF?$AA3?$AA?$AA@ 68011494     UnInstall.obj
 0002:000024ac       ??_C@_1BO@DGGNKAPM@?$AAU?$AAn?$AAi?$AAn?$AAs?$AAt?$AAa?$AAl?$AAl?$AAE?$AAn?$AAt?$AAr?$AAy?$AA?$AA@ 680114ac     UnInstall.obj
 0002:000024cc       ??_C@_1BG@KKJNOMFK@?$AAA?$AAc?$AAt?$AAi?$AAo?$AAn?$AAM?$AAe?$AAn?$AAu?$AA?$AA@ 680114cc     UnInstall.obj
 0002:000024e4       ??_C@_19DEDNMEDB@?$AA?5?$AA?1?$AAx?$AA?5?$AA?$AA@ 680114e4     UnInstall.obj
 0002:000024f0       ??_C@_1M@FHFDGAMI@?$AA?5?$AA?1?$AAf?$AAa?$AA?5?$AA?$AA@ 680114f0     UnInstall.obj
 0002:000024fc       ??_C@_19PMLHBFAP@?$AA?5?$AA?1?$AAi?$AA?5?$AA?$AA@ 680114fc     UnInstall.obj
 0002:00002508       ??_C@_1BA@DJGLDIGG@?$AAm?$AAs?$AAi?$AAe?$AAx?$AAe?$AAc?$AA?$AA@ 68011508     UnInstall.obj
 0002:00002518       ??_C@_17MEJHPLBO@?$AAc?$AAm?$AAd?$AA?$AA@ 68011518     UnInstall.obj
 0002:00002520       ??_C@_1BO@FDAINEGP@?$AA?1?$AAc?$AA?5?$AAs?$AAt?$AAa?$AAr?$AAt?$AA?5?$AA?1?$AAl?$AAo?$AAw?$AA?5?$AA?$AA@ 68011520     UnInstall.obj
 0002:00002540       ??_C@_1CE@HPJMLCDI@?$AA?1?$AAc?$AA?5?$AAs?$AAt?$AAa?$AAr?$AAt?$AA?5?$AA?1?$AAl?$AAo?$AAw?$AA?5?$AA?$CC?$AA?$CC?$AA?5?$AA?$AA@ 68011540     UnInstall.obj
 0002:00002564       ??_C@_1M@CDHIAJCD@?$AAr?$AAu?$AAn?$AAa?$AAs?$AA?$AA@ 68011564     UnInstall.obj
 0002:00002570       ??_C@_1CC@JKGJGMPG@?$AAE?$AAr?$AAr?$AAo?$AAr?$AAC?$AAo?$AAd?$AAe?$AA?$DN?$AA0?$AAx?$AA?$CF?$AA0?$AA8?$AAX?$AA?$AA@ 68011570     UnInstall.obj
 0002:00002594       ??_C@_02DKCKIIND@?$CFs?$AA@ 68011594     UnInstall.obj
 0002:00002598       ??_C@_1BK@JHLNAEJL@?$AAa?$AAd?$AAv?$AAa?$AAp?$AAi?$AA3?$AA2?$AA?4?$AAd?$AAl?$AAl?$AA?$AA@ 68011598     UnInstall.obj
 0002:000025b4       ??_C@_0BA@KECIECLD@RegDeleteKeyExA?$AA@ 680115b4     UnInstall.obj
 0002:000025c4       ??_C@_0BA@LILAPHGE@RegDeleteKeyExW?$AA@ 680115c4     UnInstall.obj
 0002:000025d4       ??_C@_1BK@MGMFAEKH@?$AAk?$AAe?$AAr?$AAn?$AAe?$AAl?$AA3?$AA2?$AA?4?$AAd?$AAl?$AAl?$AA?$AA@ 680115d4     UnInstall.obj
 0002:000025f0       ??_C@_0BE@HLKFLAJF@GetNativeSystemInfo?$AA@ 680115f0     UnInstall.obj
 0002:00002604       ??_C@_15OJKDPEFE@?$AA?5?$AA?5?$AA?$AA@ 68011604     UnInstall.obj
 0002:0000260c       ??_C@_13HOIJIPNN@?$AA?5?$AA?$AA@ 6801160c     UnInstall.obj
 0002:00002610       ??_C@_13IIGBBHPI@?$AAW?$AA?$AA@ 68011610     UnInstall.obj
 0002:00002614       ??_C@_13LHMFKAAD@?$AAM?$AA?$AA@ 68011614     UnInstall.obj
 0002:00002618       ??_C@_13LPLPOHMK@?$AAR?$AA?$AA@ 68011618     UnInstall.obj
 0002:0000261c       ??_C@_13IMODFHAA@?$AA?9?$AA?$AA@ 6801161c     UnInstall.obj
 0002:00002620       ??_C@_1BE@DEOMGAAB@?$AAW?$AAh?$AAe?$AAr?$AAe?$AAW?$AAo?$AAr?$AAk?$AA?$AA@ 68011620     UnInstall.obj
 0002:00002634       ??_C@_1BI@FAFNHNII@?$AAE?$AAn?$AAt?$AAe?$AAr?$AAA?$AAc?$AAt?$AAi?$AAo?$AAn?$AA?$AA@ 68011634     UnInstall.obj
 0002:0000264c       ??_C@_1CC@KIHMIGAL@?$AAS?$AAh?$AAi?$AAf?$AAt?$AAE?$AAn?$AAt?$AAe?$AAr?$AAA?$AAc?$AAt?$AAi?$AAo?$AAn?$AA?$AA@ 6801164c     UnInstall.obj
 0002:00002670       ??_C@_1BK@BAGKDDFK@?$AAU?$AAs?$AAe?$AAE?$AAl?$AAe?$AAv?$AAa?$AAt?$AAi?$AAo?$AAn?$AA?$AA@ 68011670     UnInstall.obj
 0002:0000268c       ??_C@_1BO@KLDBKNIK@?$AAR?$AAu?$AAn?$AAL?$AAo?$AAw?$AAP?$AAr?$AAi?$AAo?$AAr?$AAi?$AAt?$AAy?$AA?$AA@ 6801168c     UnInstall.obj
 0002:000026ac       ??_C@_1BI@LCACCIB@?$AAF?$AAo?$AAr?$AAc?$AAe?$AAM?$AAs?$AAi?$AAU?$AAs?$AAe?$AA?$AA@ 680116ac     UnInstall.obj
 0002:000026c4       ??_C@_1BE@PKMKBGFD@?$AAU?$AAn?$AAI?$AAn?$AAs?$AAt?$AAa?$AAl?$AAl?$AA?$AA@ 680116c4     UnInstall.obj
 0002:000026d8       ??_C@_1DE@DJEAMLPH@?$AAC?$AAo?$AAn?$AAE?$AAm?$AAu?$AA?4?$AAM?$AAa?$AAx?$AAi?$AAm?$AAu?$AAs?$AA5?$AA?$EA?$AAg?$AAm?$AAa?$AAi?$AAl?$AA?4?$AAc?$AAo?$AAm?$AA?$AA@ 680116d8     UnInstall.obj
 0002:0000270c       ??_C@_1BC@ENICKDH@?$AAC?$AAo?$AAn?$AAt?$AAe?$AAn?$AAt?$AAs?$AA?$AA@ 6801170c     UnInstall.obj
 0002:00002720       ??_C@_1BM@ICBIINEM@?$AAC?$AAo?$AAn?$AAf?$AAi?$AAg?$AAu?$AAr?$AAa?$AAt?$AAi?$AAo?$AAn?$AA?$AA@ 68011720     UnInstall.obj
 0002:00002740       ??_7PluginDialogBuilder@@6B@ 68011740     UnInstall.obj
 0002:00002764       ??_7PluginCheckBoxBinding@@6B@ 68011764     UnInstall.obj
 0002:0000276c       ??_7PluginRadioButtonBinding@@6B@ 6801176c     UnInstall.obj
 0002:00002774       ??_7PluginComboBoxBinding@@6B@ 68011774     UnInstall.obj
 0002:0000277c       ??_7PluginIntEditFieldBinding@@6B@ 6801177c     UnInstall.obj
 0002:00002784       ??_7?$DialogBuilderBase@UFarDialogItem@@@@6B@ 68011784     UnInstall.obj
 0002:000027a4       __pDestructExceptionObject 680117a4     LIBCMT:frame.obj
 0002:000027ac       ??_7bad_exception@std@@6B@ 680117ac     LIBCMT:frame.obj
 0002:000027b4       ??_C@_0O@DPKOEFFH@bad?5exception?$AA@ 680117b4     LIBCMT:frame.obj
 0002:000027c8       ??_7exception@std@@6B@     680117c8     LIBCMT:stdexcpt.obj
 0002:000027d0       ??_C@_0BC@EOODALEL@Unknown?5exception?$AA@ 680117d0     LIBCMT:stdexcpt.obj
 0002:00002808       __load_config_used         68011808     LIBCMT:loadcfg.obj
 0002:00002890       ??_R4type_info@@6B@        68011890     LIBCMT:typinfo.obj
 0002:000028a4       ??_R3type_info@@8          680118a4     LIBCMT:typinfo.obj
 0002:000028b4       ??_R2type_info@@8          680118b4     LIBCMT:typinfo.obj
 0002:000028bc       ??_R1A@?0A@EA@type_info@@8 680118bc     LIBCMT:typinfo.obj
 0002:000028d8       ??_R4?$DialogBuilderBase@UFarDialogItem@@@@6B@ 680118d8     UnInstall.obj
 0002:000028ec       ??_R4PluginIntEditFieldBinding@@6B@ 680118ec     UnInstall.obj
 0002:00002900       ??_R3PluginIntEditFieldBinding@@8 68011900     UnInstall.obj
 0002:00002910       ??_R2PluginIntEditFieldBinding@@8 68011910     UnInstall.obj
 0002:00002920       ??_R1A@?0A@EA@PluginIntEditFieldBinding@@8 68011920     UnInstall.obj
 0002:0000293c       ??_R4PluginComboBoxBinding@@6B@ 6801193c     UnInstall.obj
 0002:00002950       ??_R3PluginComboBoxBinding@@8 68011950     UnInstall.obj
 0002:00002960       ??_R2PluginComboBoxBinding@@8 68011960     UnInstall.obj
 0002:00002970       ??_R1A@?0A@EA@PluginComboBoxBinding@@8 68011970     UnInstall.obj
 0002:0000298c       ??_R4PluginRadioButtonBinding@@6B@ 6801198c     UnInstall.obj
 0002:000029a0       ??_R3PluginRadioButtonBinding@@8 680119a0     UnInstall.obj
 0002:000029b0       ??_R2PluginRadioButtonBinding@@8 680119b0     UnInstall.obj
 0002:000029c0       ??_R1A@?0A@EA@PluginRadioButtonBinding@@8 680119c0     UnInstall.obj
 0002:000029dc       ??_R4PluginCheckBoxBinding@@6B@ 680119dc     UnInstall.obj
 0002:000029f0       ??_R3PluginCheckBoxBinding@@8 680119f0     UnInstall.obj
 0002:00002a00       ??_R2PluginCheckBoxBinding@@8 68011a00     UnInstall.obj
 0002:00002a10       ??_R1A@?0A@EA@PluginCheckBoxBinding@@8 68011a10     UnInstall.obj
 0002:00002a2c       ??_R3DialogAPIBinding@@8   68011a2c     UnInstall.obj
 0002:00002a3c       ??_R2DialogAPIBinding@@8   68011a3c     UnInstall.obj
 0002:00002a48       ??_R1A@?0A@EA@?$DialogItemBinding@UFarDialogItem@@@@8 68011a48     UnInstall.obj
 0002:00002a64       ??_R3?$DialogItemBinding@UFarDialogItem@@@@8 68011a64     UnInstall.obj
 0002:00002a74       ??_R2?$DialogItemBinding@UFarDialogItem@@@@8 68011a74     UnInstall.obj
 0002:00002a7c       ??_R1A@?0A@EA@DialogAPIBinding@@8 68011a7c     UnInstall.obj
 0002:00002a98       ??_R4PluginDialogBuilder@@6B@ 68011a98     UnInstall.obj
 0002:00002aac       ??_R3PluginDialogBuilder@@8 68011aac     UnInstall.obj
 0002:00002abc       ??_R2PluginDialogBuilder@@8 68011abc     UnInstall.obj
 0002:00002ac8       ??_R1A@?0A@EA@?$DialogBuilderBase@UFarDialogItem@@@@8 68011ac8     UnInstall.obj
 0002:00002ae4       ??_R3?$DialogBuilderBase@UFarDialogItem@@@@8 68011ae4     UnInstall.obj
 0002:00002af4       ??_R2?$DialogBuilderBase@UFarDialogItem@@@@8 68011af4     UnInstall.obj
 0002:00002afc       ??_R1A@?0A@EA@PluginDialogBuilder@@8 68011afc     UnInstall.obj
 0002:00002b18       ??_R4bad_exception@std@@6B@ 68011b18     LIBCMT:frame.obj
 0002:00002b2c       ??_R3bad_exception@std@@8  68011b2c     LIBCMT:frame.obj
 0002:00002b3c       ??_R2bad_exception@std@@8  68011b3c     LIBCMT:frame.obj
 0002:00002b48       ??_R1A@?0A@EA@bad_exception@std@@8 68011b48     LIBCMT:frame.obj
 0002:00002b64       ??_R1A@?0A@EA@exception@std@@8 68011b64     LIBCMT:frame.obj
 0002:00002b80       ??_R3exception@std@@8      68011b80     LIBCMT:frame.obj
 0002:00002b90       ??_R2exception@std@@8      68011b90     LIBCMT:frame.obj
 0002:00002b98       ??_R4exception@std@@6B@    68011b98     LIBCMT:stdexcpt.obj
 0002:00002bb0       ___safe_se_handler_table   68011bb0     <linker-defined>
 0002:00002bd0       ___rtc_iaa                 68011bd0     LIBCMT:_initsect_.obj
 0002:00002bd4       ___rtc_izz                 68011bd4     LIBCMT:_initsect_.obj
 0002:00002bd8       ___rtc_taa                 68011bd8     LIBCMT:_initsect_.obj
 0002:00002bdc       ___rtc_tzz                 68011bdc     LIBCMT:_initsect_.obj
 0002:00003034       __TI2?AVbad_exception@std@@ 68012034     LIBCMT:frame.obj
 0002:00003044       __CTA2?AVbad_exception@std@@ 68012044     LIBCMT:frame.obj
 0002:00003050       __CT??_R0?AVbad_exception@std@@@8??0bad_exception@std@@QAE@ABV01@@Z12 68012050     LIBCMT:frame.obj
 0002:0000306c       __CT??_R0?AVexception@std@@@8??0exception@std@@QAE@ABV01@@Z12 6801206c     LIBCMT:frame.obj
 0002:00003088       __IMPORT_DESCRIPTOR_ADVAPI32 68012088     advapi32:ADVAPI32.dll
 0002:0000309c       __IMPORT_DESCRIPTOR_ole32  6801209c     ole32:ole32.dll
 0002:000030b0       __IMPORT_DESCRIPTOR_SHELL32 680120b0     shell32:SHELL32.dll
 0002:000030c4       __IMPORT_DESCRIPTOR_KERNEL32 680120c4     kernel32:KERNEL32.dll
 0002:000030d8       __NULL_IMPORT_DESCRIPTOR   680120d8     advapi32:ADVAPI32.dll
 0003:00000000       ??_R0?AVtype_info@@@8      68013000     LIBCMT:typinfo.obj
 0003:00000018       ___security_cookie         68013018     LIBCMT:gs_cookie.obj
 0003:0000001c       ___security_cookie_complement 6801301c     LIBCMT:gs_cookie.obj
 0003:00000190       ___flsindex                68013190     LIBCMT:tidtable.obj
 0003:00000194       ___getvalueindex           68013194     LIBCMT:tidtable.obj
 0003:00000198       ___badioinfo               68013198     LIBCMT:ioinit.obj
 0003:000001e0       __pctype                   680131e0     LIBCMT:ctype.obj
 0003:000001e4       __pwctype                  680131e4     LIBCMT:ctype.obj
 0003:000001e8       __iob                      680131e8     LIBCMT:_file.obj
 0003:00000468       ___initialmbcinfo          68013468     LIBCMT:mbctype.obj
 0003:00000688       __mbctype                  68013688     LIBCMT:mbctype.obj
 0003:00000790       __mbcasemap                68013790     LIBCMT:mbctype.obj
 0003:00000890       ___ptmbcinfo               68013890     LIBCMT:mbctype.obj
 0003:00000988       ___globallocalestatus      68013988     LIBCMT:glstatus.obj
 0003:0000098c       ___clocalestr              6801398c     LIBCMT:nlsdata2.obj
 0003:00000990       ___lc_time_c               68013990     LIBCMT:nlsdata2.obj
 0003:00000af8       ___initiallocinfo          68013af8     LIBCMT:nlsdata2.obj
 0003:00000bd0       ___ptlocinfo               68013bd0     LIBCMT:nlsdata2.obj
 0003:00000bd4       ___nullstring              68013bd4     LIBCMT:output.obj
 0003:00000bd8       ___wnullstring             68013bd8     LIBCMT:output.obj
 0003:00000bdc       __cfltcvt_tab              68013bdc     LIBCMT:cmiscdat.obj
 0003:00000d30       ___lconv_static_decimal    68013d30     LIBCMT:lconv.obj
 0003:00000d34       ___lconv_static_W_decimal  68013d34     LIBCMT:lconv.obj
 0003:00000d38       ___lconv_c                 68013d38     LIBCMT:lconv.obj
 0003:00000d88       ___lconv                   68013d88     LIBCMT:lconv.obj
 0003:00000d90       __NLG_Destination          68013d90     LIBCMT:exsup.obj
 0003:00000da0       ___abort_behavior          68013da0     LIBCMT:abort.obj
 0003:00000da4       __confh                    68013da4     LIBCMT:initcon.obj
 0003:00000dc0       ___mb_cur_max              68013dc0     LIBCMT:nlsdata1.obj
 0003:00000dc4       ___decimal_point           68013dc4     LIBCMT:nlsdata1.obj
 0003:00000dc8       ___decimal_point_length    68013dc8     LIBCMT:nlsdata1.obj
 0003:00000dd0       ??_R0?AVPluginIntEditFieldBinding@@@8 68013dd0     UnInstall.obj
 0003:00000df8       ??_R0?AVPluginComboBoxBinding@@@8 68013df8     UnInstall.obj
 0003:00000e1c       ??_R0?AVPluginRadioButtonBinding@@@8 68013e1c     UnInstall.obj
 0003:00000e44       ??_R0?AVPluginCheckBoxBinding@@@8 68013e44     UnInstall.obj
 0003:00000e68       ??_R0?AU?$DialogItemBinding@UFarDialogItem@@@@@8 68013e68     UnInstall.obj
 0003:00000e9c       ??_R0?AVDialogAPIBinding@@@8 68013e9c     UnInstall.obj
 0003:00000ebc       ??_R0?AV?$DialogBuilderBase@UFarDialogItem@@@@@8 68013ebc     UnInstall.obj
 0003:00000ef0       ??_R0?AVPluginDialogBuilder@@@8 68013ef0     UnInstall.obj
 0003:00000f14       ?HelpTopics@@3PAPB_WA      68013f14     UnInstall.obj
 0003:00000f40       ?HiddenPrefixes@@3PAPB_WA  68013f40     UnInstall.obj
 0003:00000f48       ?UninstKeys@@3PAURegKeyPath@@A 68013f48     UnInstall.obj
 0003:00000f58       ??_R0?AVbad_exception@std@@@8 68013f58     LIBCMT:frame.obj
 0003:00000f78       ??_R0?AVexception@std@@@8  68013f78     LIBCMT:frame.obj
 0003:00000fa4       __aenvptr                  68013fa4     LIBCMT:dllcrt0.obj
 0003:00000fa8       __wenvptr                  68013fa8     LIBCMT:dllcrt0.obj
 0003:00000fac       ___error_mode              68013fac     LIBCMT:dllcrt0.obj
 0003:00000fb0       ___app_type                68013fb0     LIBCMT:dllcrt0.obj
 0003:000012dc       ___pInvalidArgHandler      680142dc     LIBCMT:invarg.obj
 0003:000012e0       __crtheap                  680142e0     LIBCMT:heapinit.obj
 0003:000012ec       _gpFlsAlloc                680142ec     LIBCMT:tidtable.obj
 0003:000012f0       _gpFlsGetValue             680142f0     LIBCMT:tidtable.obj
 0003:000012f4       _gpFlsSetValue             680142f4     LIBCMT:tidtable.obj
 0003:000012f8       _gpFlsFree                 680142f8     LIBCMT:tidtable.obj
 0003:000012fc       __maxwait                  680142fc     LIBCMT:crtheap.obj
 0003:00001300       __umaskval                 68014300     LIBCMT:crt0dat.obj
 0003:00001304       ___argc                    68014304     LIBCMT:crt0dat.obj
 0003:00001308       ___argv                    68014308     LIBCMT:crt0dat.obj
 0003:0000130c       ___wargv                   6801430c     LIBCMT:crt0dat.obj
 0003:00001310       __environ                  68014310     LIBCMT:crt0dat.obj
 0003:00001314       ___initenv                 68014314     LIBCMT:crt0dat.obj
 0003:00001318       __wenviron                 68014318     LIBCMT:crt0dat.obj
 0003:0000131c       ___winitenv                6801431c     LIBCMT:crt0dat.obj
 0003:00001320       __pgmptr                   68014320     LIBCMT:crt0dat.obj
 0003:00001324       __wpgmptr                  68014324     LIBCMT:crt0dat.obj
 0003:00001328       __exitflag                 68014328     LIBCMT:crt0dat.obj
 0003:0000132c       __C_Termination_Done       6801432c     LIBCMT:crt0dat.obj
 0003:00001330       __C_Exit_Done              68014330     LIBCMT:crt0dat.obj
 0003:00001440       ?_pnhHeap@@3P6AHI@ZA       68014440     LIBCMT:handler.obj
 0003:00001444       __newmode                  68014444     LIBCMT:_newmode.obj
 0003:00001448       __cflush                   68014448     LIBCMT:_file.obj
 0003:00001450       ___mbulinfo                68014450     LIBCMT:mbctype.obj
 0003:0000145c       ___mbcodepage              6801445c     LIBCMT:mbctype.obj
 0003:00001460       ___ismbcodepage            68014460     LIBCMT:mbctype.obj
 0003:00001464       ___mblcid                  68014464     LIBCMT:mbctype.obj
 0003:000015d4       ?pArgList@UnDecorator@@0PAVReplicator@@A 680145d4     LIBCMT:undname.obj
 0003:000015d8       ?pZNameList@UnDecorator@@0PAVReplicator@@A 680145d8     LIBCMT:undname.obj
 0003:000015dc       ?pTemplateArgList@UnDecorator@@0PAVReplicator@@A 680145dc     LIBCMT:undname.obj
 0003:000015e0       ?gName@UnDecorator@@0PBDB  680145e0     LIBCMT:undname.obj
 0003:000015e4       ?name@UnDecorator@@0PBDB   680145e4     LIBCMT:undname.obj
 0003:000015e8       ?outputString@UnDecorator@@0PADA 680145e8     LIBCMT:undname.obj
 0003:000015ec       ?maxStringLength@UnDecorator@@0HA 680145ec     LIBCMT:undname.obj
 0003:000015f0       ?disableFlags@UnDecorator@@0KA 680145f0     LIBCMT:undname.obj
 0003:000015f4       ?m_pGetParameter@UnDecorator@@0P6APADJ@ZA 680145f4     LIBCMT:undname.obj
 0003:000015f8       ?fExplicitTemplateParams@UnDecorator@@0_NA 680145f8     LIBCMT:undname.obj
 0003:000015f9       ?fGetTemplateArgumentList@UnDecorator@@0_NA 680145f9     LIBCMT:undname.obj
 0003:000015fc       ?__pInconsistency@@3P6AXXZA 680145fc     LIBCMT:hooks.obj
 0003:00001618       ___pPurecall               68014618     LIBCMT:inithelp.obj
 0003:00001c48       ___lconv_static_null       68014c48     LIBCMT:lconv.obj
 0003:00001c4c       ___lconv_static_W_null     68014c4c     LIBCMT:lconv.obj
 0003:00001c50       __stdbuf                   68014c50     LIBCMT:_sftbuf.obj
 0003:00001c6c       ___locale_changed          68014c6c     LIBCMT:setlocal.obj
 0003:00001c70       ?FL@@3UFarList@@A          68014c70     UnInstall.obj
 0003:00001c7c       ?ListSize@@3HA             68014c7c     UnInstall.obj
 0003:00001c80       ?nRealCount@@3HA           68014c80     UnInstall.obj
 0003:00001c84       ?varHeap@@3PAXA            68014c84     UnInstall.obj
 0003:00001d0c       ?nCount@@3HA               68014d0c     UnInstall.obj
 0003:00001d10       ?PluginRootKey@@3PA_WA     68014d10     UnInstall.obj
 0003:00001e6c       ?hStdout@@3PAXA            68014e6c     UnInstall.obj
 0003:00001e70       ?Opt@@3UOptions@@A         68014e70     UnInstall.obj
 0003:00001e8c       ?FLI@@3PAUFarListItem@@A   68014e8c     UnInstall.obj
 0003:00001e90       ?p@@3PAUKeyInfo@@A         68014e90     UnInstall.obj
 0003:000024c8       ___piob                    680154c8     <common>
 0003:000024e0       __bufin                    680154e0     <common>
 0003:000034e0       __nstream                  680164e0     <common>
 0003:000034e4       __debugger_hook_dummy      680164e4     <common>
 0003:000034e8       __nhandle                  680164e8     <common>
 0003:00003500       ___pioinfo                 68016500     <common>
 0003:00003600       ___env_initialized         68016600     <common>
 0003:00003604       ___onexitend               68016604     <common>
 0003:00003608       ___onexitbegin             68016608     <common>
 0003:0000360c       ___mbctype_initialized     6801660c     <common>
 0003:00003610       __FPinit                   68016610     <common>
 0003:00003614       ___dyn_tls_init_callback   68016614     <common>
 0003:00003618       __acmdln                   68016618     <common>

 entry point at        0001:00005765

 Static symbols

 0001:000000d9       ?StringCopyWorkerW@@YGJPA_WIPAIPB_WI@Z 680010d9 f    CIL library: CIL module
 0001:00002683       ?DlgProc@@YGHPAXHH0@Z      68003683 f    CIL library: CIL module
 0001:00003c07       ?wcstoxl@@YAKPB_WPAPB_WHH@Z 68004c07 f   LIBCMT:wcstol.obj
 0001:0000566f       ___DllMainCRTStartup       6800666f f   LIBCMT:dllcrt0.obj
 0001:00005f47       _write_char                68006f47 f   LIBCMT:woutput.obj
 0001:00005f76       _write_string              68006f76 f   LIBCMT:woutput.obj
 0001:000073ac       _doexit                    680083ac f   LIBCMT:crt0dat.obj
 0001:000078a3       _parse_cmdline             680088a3 f   LIBCMT:stdargv.obj
 0001:00008bd5       ?CPtoLCID@@YAHH@Z          68009bd5 f   LIBCMT:mbctype.obj
 0001:00008c04       ?setSBCS@@YAXPAUthreadmbcinfostruct@@@Z 68009c04 f   LIBCMT:mbctype.obj
 0001:00008c68       ?setSBUpLow@@YAXPAUthreadmbcinfostruct@@@Z 68009c68 f   LIBCMT:mbctype.obj
 0001:00008e9c       ?getSystemCP@@YAHH@Z       68009e9c f   LIBCMT:mbctype.obj
 0001:00009da0       __unwind_handler4          6800ada0 f   LIBCMT:exsup4.obj
 0001:00009fc2       _siglookup                 6800afc2 f   LIBCMT:winsig.obj
 0001:0000a1c7       __onexit_nolock            6800b1c7 f   LIBCMT:onexit.obj
 0001:0000a66a       ?x_ismbbtype_l@@YAHPAUlocaleinfo_struct@@IHH@Z 6800b66a f   LIBCMT:ismbbyte.obj
 0001:0000aa47       _flsall                    6800ba47 f   LIBCMT:fflush.obj
 0001:0000ab4a       ?__crtLCMapStringA_stat@@YAHPAUlocaleinfo_struct@@KKPBDHPADHHH@Z 6800bb4a f   LIBCMT:a_map.obj
 0001:0000ad77       ?__crtGetStringTypeA_stat@@YAHPAUlocaleinfo_struct@@KPBDHPAGHHH@Z 6800bd77 f   LIBCMT:a_str.obj
 0001:0000b690       __unwind_handler           6800c690 f   LIBCMT:exsup.obj
 0001:0000c10b       ?CatchGuardHandler@@YA?AW4_EXCEPTION_DISPOSITION@@PAUEHExceptionRecord@@PAUCatchGuardRN@@PAX2@Z 6800d10b f   LIBCMT:_trnsctrl_.obj
 0001:0000c215       ?TranslatorGuardHandler@@YA?AW4_EXCEPTION_DISPOSITION@@PAUEHExceptionRecord@@PAUTranslatorGuardRN@@PAX2@Z 6800d215 f   LIBCMT:_trnsctrl_.obj
 0001:0000c665       ?ExFilterRethrow@@YAHPAU_EXCEPTION_POINTERS@@@Z 6800d665 f   LIBCMT:frame.obj
 0001:0000c728       ?IsInExceptionSpec@@YAEPAUEHExceptionRecord@@PBU_s_ESTypeList@@@Z 6800d728 f   LIBCMT:frame.obj
 0001:0000c79e       ?CallUnexpected@@YAXPBU_s_ESTypeList@@@Z 6800d79e f   LIBCMT:frame.obj
 0001:0000c7cf       __catch$?CallUnexpected@@YAXPBU_s_ESTypeList@@@Z$0 6800d7cf f   LIBCMT:frame.obj
 0001:0000c7e7       ?CallCatchBlock@@YAPAXPAUEHExceptionRecord@@PAUEHRegistrationNode@@PAU_CONTEXT@@PBU_s_FuncInfo@@PAXHK@Z 6800d7e7 f   LIBCMT:frame.obj
 0001:0000cb94       ?CatchIt@@YAXPAUEHExceptionRecord@@PAUEHRegistrationNode@@PAU_CONTEXT@@PAXPBU_s_FuncInfo@@PBU_s_HandlerType@@PBU_s_CatchableType@@PBU_s_TryBlockMapEntry@@H1E@Z 6800db94 f   LIBCMT:frame.obj
 0001:0000cc02       ?FindHandlerForForeignException@@YAXPAUEHExceptionRecord@@PAUEHRegistrationNode@@PAU_CONTEXT@@PAXPBU_s_FuncInfo@@HH1@Z 6800dc02 f   LIBCMT:frame.obj
 0001:0000cd09       ?FindHandler@@YAXPAUEHExceptionRecord@@PAUEHRegistrationNode@@PAU_CONTEXT@@PAXPBU_s_FuncInfo@@EH1@Z 6800dd09 f   LIBCMT:frame.obj
 0001:0000d358       __unwindfunclet$?ReadRegistry@@YAXXZ$0 6800e358 f    CIL library: CIL module
 0001:0000d360       __ehhandler$?ReadRegistry@@YAXXZ 6800e360 f    CIL library: CIL module
 0001:0000d37b       __unwindfunclet$?AddIntEditField@PluginDialogBuilder@@UAEPAUFarDialogItem@@PAHH@Z$0 6800e37b f    CIL library: CIL module
 0001:0000d385       __ehhandler$?AddIntEditField@PluginDialogBuilder@@UAEPAUFarDialogItem@@PAHH@Z 6800e385 f    CIL library: CIL module
 0001:0000d3a0       __ehhandler$?CallUnexpected@@YAXPBU_s_ESTypeList@@@Z 6800e3a0 f   LIBCMT:frame.obj
