 4Observer

 Timestamp is 51125718 (Wed Feb 06 15:14:00 2013)

 Preferred load address is 10000000

 Start         Length     Name                   Class
 0001:00000000 00013894H .text                   CODE
 0001:000138a0 00000c3bH .text$x                 CODE
 0001:000144e0 0000000cH .text$yc                CODE
 0001:000144f0 0000008bH .text$yd                CODE
 0002:00000000 0000015cH .idata$5                DATA
 0002:0000015c 00000004H .CRT$XCA                DATA
 0002:00000160 00000004H .CRT$XCU                DATA
 0002:00000164 00000004H .CRT$XCZ                DATA
 0002:00000168 00000004H .CRT$XIA                DATA
 0002:0000016c 00000010H .CRT$XIC                DATA
 0002:0000017c 00000004H .CRT$XIZ                DATA
 0002:00000180 00000004H .CRT$XPA                DATA
 0002:00000184 00000004H .CRT$XPX                DATA
 0002:00000188 00000004H .CRT$XPXA               DATA
 0002:0000018c 00000004H .CRT$XPZ                DATA
 0002:00000190 00000004H .CRT$XTA                DATA
 0002:00000194 00000004H .CRT$XTZ                DATA
 0002:00000198 00002580H .rdata                  DATA
 0002:00002718 00000468H .rdata$r                DATA
 0002:00002b80 000000f8H .rdata$sxdata           DATA
 0002:00002c78 00000004H .rtc$IAA                DATA
 0002:00002c7c 00000004H .rtc$IZZ                DATA
 0002:00002c80 00000004H .rtc$TAA                DATA
 0002:00002c84 00000004H .rtc$TZZ                DATA
 0002:00002c88 00001264H .xdata$x                DATA
 0002:00003eec 0000003cH .idata$2                DATA
 0002:00003f28 00000014H .idata$3                DATA
 0002:00003f3c 0000015cH .idata$4                DATA
 0002:00004098 00000652H .idata$6                DATA
 0002:000046f0 00000177H .edata                  DATA
 0003:00000000 00001040H .data                   DATA
 0003:00001040 00004d00H .bss                    DATA
 0004:00000000 00000058H .rsrc$01                DATA
 0004:00000060 000002c8H .rsrc$02                DATA

  Address         Publics by Value              Rva+Base       Lib:Object

 0000:00000000       __except_list              00000000     <absolute>
 0000:0000003e       ___safe_se_handler_count   0000003e     <absolute>
 0000:00000000       ___ImageBase               10000000     <linker-defined>
 0001:00000000       ?CheckEsc@@YA_NXZ          10001000 f   CommonFunc.obj
 0001:000000b0       ?FileExists@@YA_NPB_WPAU_WIN32_FIND_DATAW@@@Z 100010b0 f   CommonFunc.obj
 0001:00000120       ?CollectFileList@@YAHPAVContentTreeNode@@AAV?$vector@PAVContentTreeNode@@V?$allocator@PAVContentTreeNode@@@std@@@std@@AA_J_N@Z 10001120 f   CommonFunc.obj
 0001:00000480       ?ForceDirectoryExist@@YA_NPB_W@Z 10001480 f   CommonFunc.obj
 0001:000004e0       ?GetDirectoryName@@YA?AV?$basic_string@_WU?$char_traits@_W@std@@V?$allocator@_W@2@@std@@ABV12@_N@Z 100014e0 f   CommonFunc.obj
 0001:00000590       ?GetFinalExtractionPath@@YA?AV?$basic_string@_WU?$char_traits@_W@std@@V?$allocator@_W@2@@std@@PBVStorageObject@@PBVContentTreeNode@@PB_WH@Z 10001590 f   CommonFunc.obj
 0001:000006f0       ?IncludeTrailingPathDelim@@YAXAAV?$basic_string@_WU?$char_traits@_W@std@@V?$allocator@_W@2@@std@@@Z 100016f0 f   CommonFunc.obj
 0001:00000730       ?CutFileNameFromPath@@YAXPA_W_N@Z 10001730 f   CommonFunc.obj
 0001:00000750       ?append@?$basic_string@_WU?$char_traits@_W@std@@V?$allocator@_W@2@@std@@QAEAAV12@PB_W@Z 10001750 f i CommonFunc.obj
 0001:00000780       ?substr@?$basic_string@_WU?$char_traits@_W@std@@V?$allocator@_W@2@@std@@QBE?AV12@II@Z 10001780 f i CommonFunc.obj
 0001:000007b0       ?assign@?$basic_string@_WU?$char_traits@_W@std@@V?$allocator@_W@2@@std@@QAEAAV12@$$QAV12@@Z 100017b0 f i CommonFunc.obj
 0001:00000820       ?append@?$basic_string@_WU?$char_traits@_W@std@@V?$allocator@_W@2@@std@@QAEAAV12@PB_WI@Z 10001820 f i CommonFunc.obj
 0001:00000950       ?rfind@?$basic_string@_WU?$char_traits@_W@std@@V?$allocator@_W@2@@std@@QBEIPB_WII@Z 10001950 f i CommonFunc.obj
 0001:000009f0       ?_Reserve@?$vector@PAVContentTreeNode@@V?$allocator@PAVContentTreeNode@@@std@@@std@@IAEXI@Z 100019f0 f i CommonFunc.obj
 0001:00000a40       ?append@?$basic_string@_WU?$char_traits@_W@std@@V?$allocator@_W@2@@std@@QAEAAV12@ABV12@II@Z 10001a40 f i CommonFunc.obj
 0001:00000b30       ?reserve@?$vector@PAVContentTreeNode@@V?$allocator@PAVContentTreeNode@@@std@@@std@@QAEXI@Z 10001b30 f i CommonFunc.obj
 0001:00000bb0       ?allocate@?$allocator@PAVContentTreeNode@@@std@@QAEPAPAVContentTreeNode@@I@Z 10001bb0 f i CommonFunc.obj
 0001:00000c10       ??3@YAXPAX0@Z              10001c10 f i CommonFunc.obj
 0001:00000c20       ?erase@?$basic_string@_WU?$char_traits@_W@std@@V?$allocator@_W@2@@std@@QAEAAV12@II@Z 10001c20 f i CommonFunc.obj
 0001:00000ca0       ?assign@?$basic_string@_WU?$char_traits@_W@std@@V?$allocator@_W@2@@std@@QAEAAV12@ABV12@II@Z 10001ca0 f i CommonFunc.obj
 0001:00000da0       ??1bad_alloc@std@@UAE@XZ   10001da0 f i CommonFunc.obj
 0001:00000db0       ??_Gbad_alloc@std@@UAEPAXI@Z 10001db0 f i CommonFunc.obj
 0001:00000db0       ??_Ebad_alloc@std@@UAEPAXI@Z 10001db0 f i  CIL library: CIL module
 0001:00000de0       ??0bad_alloc@std@@QAE@ABV01@@Z 10001de0 f i CommonFunc.obj
 0001:00000e00       ?allocate@?$allocator@_W@std@@QAEPA_WI@Z 10001e00 f i CommonFunc.obj
 0001:00000e50       ?_Copy@?$basic_string@_WU?$char_traits@_W@std@@V?$allocator@_W@2@@std@@QAEXII@Z 10001e50 f i CommonFunc.obj
 0001:00000fc0       ?_Grow@?$basic_string@_WU?$char_traits@_W@std@@V?$allocator@_W@2@@std@@QAE_NI_N@Z 10001fc0 f i CommonFunc.obj
 0001:00001080       ?assign@?$basic_string@_WU?$char_traits@_W@std@@V?$allocator@_W@2@@std@@QAEAAV12@PB_WI@Z 10002080 f i CommonFunc.obj
 0001:00001170       ??0?$basic_string@_WU?$char_traits@_W@std@@V?$allocator@_W@2@@std@@QAE@PB_W@Z 10002170 f i CommonFunc.obj
 0001:000011b0       ?ToString@ConfigItem@@QBE?AV?$basic_string@_WU?$char_traits@_W@std@@V?$allocator@_W@2@@std@@XZ 100021b0 f i Config.obj
 0001:00001240       ?GetValueByKey@ConfigSection@@ABE_NPB_WAAV?$basic_string@_WU?$char_traits@_W@std@@V?$allocator@_W@2@@std@@@Z 10002240 f   Config.obj
 0001:000012c0       ?GetValue@ConfigSection@@QBE_NPB_WAAH@Z 100022c0 f   Config.obj
 0001:00001380       ?GetValue@ConfigSection@@QBE_NPB_WPA_WI@Z 10002380 f   Config.obj
 0001:00001430       ?AddItem@ConfigSection@@QAEXPB_W0@Z 10002430 f   Config.obj
 0001:00001790       ??1ConfigItem@@QAE@XZ      10002790 f i Config.obj
 0001:00001790       ??$_Dest_val@V?$allocator@UConfigItem@@@std@@UConfigItem@@@std@@YAXAAV?$allocator@UConfigItem@@@0@PAUConfigItem@@@Z 10002790 f i Config.obj
 0001:000017e0       ?GetAll@ConfigSection@@QBE?AV?$basic_string@_WU?$char_traits@_W@std@@V?$allocator@_W@2@@std@@XZ 100027e0 f   Config.obj
 0001:000018e0       ??1Config@@QAE@XZ          100028e0 f   Config.obj
 0001:00001a30       ?GetSection@Config@@QAEPAVConfigSection@@PB_W@Z 10002a30 f   Config.obj
 0001:00001b30       ?AddSection@Config@@QAEPAVConfigSection@@PB_W@Z 10002b30 f   Config.obj
 0001:00001c50       ?ParseFile@Config@@QAE_NPB_W@Z 10002c50 f   Config.obj
 0001:00001cf0       ?ParseSectionValues@Config@@AAEHPAVConfigSection@@PB_W@Z 10002cf0 f   Config.obj
 0001:00001df0       ??4?$basic_string@_WU?$char_traits@_W@std@@V?$allocator@_W@2@@std@@QAEAAV01@PB_W@Z 10002df0 f i Config.obj
 0001:00001e20       ??A?$map@V?$basic_string@_WU?$char_traits@_W@std@@V?$allocator@_W@2@@std@@PAVConfigSection@@U?$less@V?$basic_string@_WU?$char_traits@_W@std@@V?$allocator@_W@2@@std@@@2@V?$allocator@U?$pair@$$CBV?$basic_string@_WU?$char_traits@_W@std@@V?$allocator@_W@2@@std@@PAVConfigSection@@@std@@@2@@std@@QAEAAPAVConfigSection@@ABV?$basic_string@_WU?$char_traits@_W@std@@V?$allocator@_W@2@@1@@Z 10002e20 f i Config.obj
 0001:00001f00       ?_Tidy@?$vector@V?$basic_string@_WU?$char_traits@_W@std@@V?$allocator@_W@2@@std@@V?$allocator@V?$basic_string@_WU?$char_traits@_W@std@@V?$allocator@_W@2@@std@@@2@@std@@IAEXXZ 10002f00 f i Config.obj
 0001:00001f00       ??1?$vector@V?$basic_string@_WU?$char_traits@_W@std@@V?$allocator@_W@2@@std@@V?$allocator@V?$basic_string@_WU?$char_traits@_W@std@@V?$allocator@_W@2@@std@@@2@@std@@QAE@XZ 10002f00 f i Config.obj
 0001:00001f30       ?push_back@?$vector@V?$basic_string@_WU?$char_traits@_W@std@@V?$allocator@_W@2@@std@@V?$allocator@V?$basic_string@_WU?$char_traits@_W@std@@V?$allocator@_W@2@@std@@@2@@std@@QAEXABV?$basic_string@_WU?$char_traits@_W@std@@V?$allocator@_W@2@@2@@Z 10002f30 f i Config.obj
 0001:00002000       ?append@?$basic_string@_WU?$char_traits@_W@std@@V?$allocator@_W@2@@std@@QAEAAV12@I_W@Z 10003000 f i Config.obj
 0001:000020a0       ?_Erase@?$_Tree@V?$_Tmap_traits@V?$basic_string@_WU?$char_traits@_W@std@@V?$allocator@_W@2@@std@@PAVContentTreeNode@@U?$less@V?$basic_string@_WU?$char_traits@_W@std@@V?$allocator@_W@2@@std@@@2@V?$allocator@U?$pair@$$CBV?$basic_string@_WU?$char_traits@_W@std@@V?$allocator@_W@2@@std@@PAVContentTreeNode@@@std@@@2@$0A@@std@@@std@@IAEXPAU_Node@?$_Tree_nod@V?$_Tmap_traits@V?$basic_string@_WU?$char_traits@_W@std@@V?$allocator@_W@2@@std@@PAVContentTreeNode@@U?$less@V?$basic_string@_WU?$char_traits@_W@std@@V?$allocator@_W@2@@std@@@2@V?$allocator@U?$pair@$$CBV?$basic_string@_WU?$char_traits@_W@std@@V?$allocator@_W@2@@std@@PAVContentTreeNode@@@std@@@2@$0A@@std@@@2@@Z 100030a0 f i ContentStructures.obj
 0001:000020a0       ?_Erase@?$_Tree@V?$_Tmap_traits@V?$basic_string@_WU?$char_traits@_W@std@@V?$allocator@_W@2@@std@@PAVConfigSection@@U?$less@V?$basic_string@_WU?$char_traits@_W@std@@V?$allocator@_W@2@@std@@@2@V?$allocator@U?$pair@$$CBV?$basic_string@_WU?$char_traits@_W@std@@V?$allocator@_W@2@@std@@PAVConfigSection@@@std@@@2@$0A@@std@@@std@@IAEXPAU_Node@?$_Tree_nod@V?$_Tmap_traits@V?$basic_string@_WU?$char_traits@_W@std@@V?$allocator@_W@2@@std@@PAVConfigSection@@U?$less@V?$basic_string@_WU?$char_traits@_W@std@@V?$allocator@_W@2@@std@@@2@V?$allocator@U?$pair@$$CBV?$basic_string@_WU?$char_traits@_W@std@@V?$allocator@_W@2@@std@@PAVConfigSection@@@std@@@2@$0A@@std@@@2@@Z 100030a0 f i Config.obj
 0001:00002100       ??1?$_Tree_val@V?$_Tmap_traits@V?$basic_string@_WU?$char_traits@_W@std@@V?$allocator@_W@2@@std@@PAVContentTreeNode@@U?$less@V?$basic_string@_WU?$char_traits@_W@std@@V?$allocator@_W@2@@std@@@2@V?$allocator@U?$pair@$$CBV?$basic_string@_WU?$char_traits@_W@std@@V?$allocator@_W@2@@std@@PAVContentTreeNode@@@std@@@2@$0A@@std@@@std@@QAE@XZ 10003100 f i ContentStructures.obj
 0001:00002100       ??1?$_Tree_val@V?$_Tmap_traits@V?$basic_string@_WU?$char_traits@_W@std@@V?$allocator@_W@2@@std@@PAVConfigSection@@U?$less@V?$basic_string@_WU?$char_traits@_W@std@@V?$allocator@_W@2@@std@@@2@V?$allocator@U?$pair@$$CBV?$basic_string@_WU?$char_traits@_W@std@@V?$allocator@_W@2@@std@@PAVConfigSection@@@std@@@2@$0A@@std@@@std@@QAE@XZ 10003100 f i Config.obj
 0001:00002110       ??R?$less@V?$basic_string@_WU?$char_traits@_W@std@@V?$allocator@_W@2@@std@@@std@@QBE_NABV?$basic_string@_WU?$char_traits@_W@std@@V?$allocator@_W@2@@1@0@Z 10003110 f i Config.obj
 0001:00002130       ?_Reserve@?$vector@V?$basic_string@_WU?$char_traits@_W@std@@V?$allocator@_W@2@@std@@V?$allocator@V?$basic_string@_WU?$char_traits@_W@std@@V?$allocator@_W@2@@std@@@2@@std@@IAEXI@Z 10003130 f i Config.obj
 0001:000021b0       ?reserve@?$vector@UConfigItem@@V?$allocator@UConfigItem@@@std@@@std@@QAEXI@Z 100031b0 f i Config.obj
 0001:000022c0       ?erase@?$_Tree@V?$_Tmap_traits@V?$basic_string@_WU?$char_traits@_W@std@@V?$allocator@_W@2@@std@@PAVContentTreeNode@@U?$less@V?$basic_string@_WU?$char_traits@_W@std@@V?$allocator@_W@2@@std@@@2@V?$allocator@U?$pair@$$CBV?$basic_string@_WU?$char_traits@_W@std@@V?$allocator@_W@2@@std@@PAVContentTreeNode@@@std@@@2@$0A@@std@@@std@@QAE?AV?$_Tree_iterator@V?$_Tree_val@V?$_Tmap_traits@V?$basic_string@_WU?$char_traits@_W@std@@V?$allocator@_W@2@@std@@PAVContentTreeNode@@U?$less@V?$basic_string@_WU?$char_traits@_W@std@@V?$allocator@_W@2@@std@@@2@V?$allocator@U?$pair@$$CBV?$basic_string@_WU?$char_traits@_W@std@@V?$allocator@_W@2@@std@@PAVContentTreeNode@@@std@@@2@$0A@@std@@@std@@@2@V?$_Tree_const_iterator@V?$_Tree_val@V?$_Tmap_traits@V?$basic_string@_WU?$char_traits@_W@std@@V?$allocator@_W@2@@std@@PAVContentTreeNode@@U?$less@V?$basic_string@_WU?$char_traits@_W@std@@V?$allocator@_W@2@@std@@@2@V?$allocator@U?$pair@$$CBV?$basic_string@_WU?$char_traits@_W@std@@V?$allocator@_W@2@@std@@PAVContentTreeNode@@@std@@@2@$0A@@std@@@std@@@2@0@Z 100032c0 f i ContentStructures.obj
 0001:000022c0       ?erase@?$_Tree@V?$_Tmap_traits@V?$basic_string@_WU?$char_traits@_W@std@@V?$allocator@_W@2@@std@@PAVConfigSection@@U?$less@V?$basic_string@_WU?$char_traits@_W@std@@V?$allocator@_W@2@@std@@@2@V?$allocator@U?$pair@$$CBV?$basic_string@_WU?$char_traits@_W@std@@V?$allocator@_W@2@@std@@PAVConfigSection@@@std@@@2@$0A@@std@@@std@@QAE?AV?$_Tree_iterator@V?$_Tree_val@V?$_Tmap_traits@V?$basic_string@_WU?$char_traits@_W@std@@V?$allocator@_W@2@@std@@PAVConfigSection@@U?$less@V?$basic_string@_WU?$char_traits@_W@std@@V?$allocator@_W@2@@std@@@2@V?$allocator@U?$pair@$$CBV?$basic_string@_WU?$char_traits@_W@std@@V?$allocator@_W@2@@std@@PAVConfigSection@@@std@@@2@$0A@@std@@@std@@@2@V?$_Tree_const_iterator@V?$_Tree_val@V?$_Tmap_traits@V?$basic_string@_WU?$char_traits@_W@std@@V?$allocator@_W@2@@std@@PAVConfigSection@@U?$less@V?$basic_string@_WU?$char_traits@_W@std@@V?$allocator@_W@2@@std@@@2@V?$allocator@U?$pair@$$CBV?$basic_string@_WU?$char_traits@_W@std@@V?$allocator@_W@2@@std@@PAVConfigSection@@@std@@@2@$0A@@std@@@std@@@2@0@Z 100032c0 f i Config.obj
 0001:00002380       ?reserve@?$vector@V?$basic_string@_WU?$char_traits@_W@std@@V?$allocator@_W@2@@std@@V?$allocator@V?$basic_string@_WU?$char_traits@_W@std@@V?$allocator@_W@2@@std@@@2@@std@@QAEXI@Z 10003380 f i Config.obj
 0001:00002490       ?_Destroy@?$vector@V?$basic_string@_WU?$char_traits@_W@std@@V?$allocator@_W@2@@std@@V?$allocator@V?$basic_string@_WU?$char_traits@_W@std@@V?$allocator@_W@2@@std@@@2@@std@@IAEXPAV?$basic_string@_WU?$char_traits@_W@std@@V?$allocator@_W@2@@2@0@Z 10003490 f i Config.obj
 0001:000024d0       ??E?$_Tree_const_iterator@V?$_Tree_val@V?$_Tmap_traits@V?$basic_string@_WU?$char_traits@_W@std@@V?$allocator@_W@2@@std@@PAVContentTreeNode@@U?$less@V?$basic_string@_WU?$char_traits@_W@std@@V?$allocator@_W@2@@std@@@2@V?$allocator@U?$pair@$$CBV?$basic_string@_WU?$char_traits@_W@std@@V?$allocator@_W@2@@std@@PAVContentTreeNode@@@std@@@2@$0A@@std@@@std@@@std@@QAEAAV01@XZ 100034d0 f i CommonFunc.obj
 0001:000024d0       ??E?$_Tree_const_iterator@V?$_Tree_val@V?$_Tmap_traits@V?$basic_string@_WU?$char_traits@_W@std@@V?$allocator@_W@2@@std@@PAVConfigSection@@U?$less@V?$basic_string@_WU?$char_traits@_W@std@@V?$allocator@_W@2@@std@@@2@V?$allocator@U?$pair@$$CBV?$basic_string@_WU?$char_traits@_W@std@@V?$allocator@_W@2@@std@@PAVConfigSection@@@std@@@2@$0A@@std@@@std@@@std@@QAEAAV01@XZ 100034d0 f i Config.obj
 0001:00002520       ?allocate@?$allocator@UConfigItem@@@std@@QAEPAUConfigItem@@I@Z 10003520 f i Config.obj
 0001:00002580       ?erase@?$_Tree@V?$_Tmap_traits@V?$basic_string@_WU?$char_traits@_W@std@@V?$allocator@_W@2@@std@@PAVConfigSection@@U?$less@V?$basic_string@_WU?$char_traits@_W@std@@V?$allocator@_W@2@@std@@@2@V?$allocator@U?$pair@$$CBV?$basic_string@_WU?$char_traits@_W@std@@V?$allocator@_W@2@@std@@PAVConfigSection@@@std@@@2@$0A@@std@@@std@@QAE?AV?$_Tree_iterator@V?$_Tree_val@V?$_Tmap_traits@V?$basic_string@_WU?$char_traits@_W@std@@V?$allocator@_W@2@@std@@PAVConfigSection@@U?$less@V?$basic_string@_WU?$char_traits@_W@std@@V?$allocator@_W@2@@std@@@2@V?$allocator@U?$pair@$$CBV?$basic_string@_WU?$char_traits@_W@std@@V?$allocator@_W@2@@std@@PAVConfigSection@@@std@@@2@$0A@@std@@@std@@@2@V?$_Tree_const_iterator@V?$_Tree_val@V?$_Tmap_traits@V?$basic_string@_WU?$char_traits@_W@std@@V?$allocator@_W@2@@std@@PAVConfigSection@@U?$less@V?$basic_string@_WU?$char_traits@_W@std@@V?$allocator@_W@2@@std@@@2@V?$allocator@U?$pair@$$CBV?$basic_string@_WU?$char_traits@_W@std@@V?$allocator@_W@2@@std@@PAVConfigSection@@@std@@@2@$0A@@std@@@std@@@2@@Z 10003580 f i Config.obj
 0001:00002580       ?erase@?$_Tree@V?$_Tmap_traits@V?$basic_string@_WU?$char_traits@_W@std@@V?$allocator@_W@2@@std@@PAVContentTreeNode@@U?$less@V?$basic_string@_WU?$char_traits@_W@std@@V?$allocator@_W@2@@std@@@2@V?$allocator@U?$pair@$$CBV?$basic_string@_WU?$char_traits@_W@std@@V?$allocator@_W@2@@std@@PAVContentTreeNode@@@std@@@2@$0A@@std@@@std@@QAE?AV?$_Tree_iterator@V?$_Tree_val@V?$_Tmap_traits@V?$basic_string@_WU?$char_traits@_W@std@@V?$allocator@_W@2@@std@@PAVContentTreeNode@@U?$less@V?$basic_string@_WU?$char_traits@_W@std@@V?$allocator@_W@2@@std@@@2@V?$allocator@U?$pair@$$CBV?$basic_string@_WU?$char_traits@_W@std@@V?$allocator@_W@2@@std@@PAVContentTreeNode@@@std@@@2@$0A@@std@@@std@@@2@V?$_Tree_const_iterator@V?$_Tree_val@V?$_Tmap_traits@V?$basic_string@_WU?$char_traits@_W@std@@V?$allocator@_W@2@@std@@PAVContentTreeNode@@U?$less@V?$basic_string@_WU?$char_traits@_W@std@@V?$allocator@_W@2@@std@@@2@V?$allocator@U?$pair@$$CBV?$basic_string@_WU?$char_traits@_W@std@@V?$allocator@_W@2@@std@@PAVContentTreeNode@@@std@@@2@$0A@@std@@@std@@@2@@Z 10003580 f i ContentStructures.obj
 0001:00002810       ?allocate@?$allocator@V?$basic_string@_WU?$char_traits@_W@std@@V?$allocator@_W@2@@std@@@std@@QAEPAV?$basic_string@_WU?$char_traits@_W@std@@V?$allocator@_W@2@@2@I@Z 10003810 f i Config.obj
 0001:00002870       ?_Lrotate@?$_Tree@V?$_Tmap_traits@V?$basic_string@_WU?$char_traits@_W@std@@V?$allocator@_W@2@@std@@PAVContentTreeNode@@U?$less@V?$basic_string@_WU?$char_traits@_W@std@@V?$allocator@_W@2@@std@@@2@V?$allocator@U?$pair@$$CBV?$basic_string@_WU?$char_traits@_W@std@@V?$allocator@_W@2@@std@@PAVContentTreeNode@@@std@@@2@$0A@@std@@@std@@IAEXPAU_Node@?$_Tree_nod@V?$_Tmap_traits@V?$basic_string@_WU?$char_traits@_W@std@@V?$allocator@_W@2@@std@@PAVContentTreeNode@@U?$less@V?$basic_string@_WU?$char_traits@_W@std@@V?$allocator@_W@2@@std@@@2@V?$allocator@U?$pair@$$CBV?$basic_string@_WU?$char_traits@_W@std@@V?$allocator@_W@2@@std@@PAVContentTreeNode@@@std@@@2@$0A@@std@@@2@@Z 10003870 f i ContentStructures.obj
 0001:00002870       ?_Lrotate@?$_Tree@V?$_Tmap_traits@V?$basic_string@_WU?$char_traits@_W@std@@V?$allocator@_W@2@@std@@PAVConfigSection@@U?$less@V?$basic_string@_WU?$char_traits@_W@std@@V?$allocator@_W@2@@std@@@2@V?$allocator@U?$pair@$$CBV?$basic_string@_WU?$char_traits@_W@std@@V?$allocator@_W@2@@std@@PAVConfigSection@@@std@@@2@$0A@@std@@@std@@IAEXPAU_Node@?$_Tree_nod@V?$_Tmap_traits@V?$basic_string@_WU?$char_traits@_W@std@@V?$allocator@_W@2@@std@@PAVConfigSection@@U?$less@V?$basic_string@_WU?$char_traits@_W@std@@V?$allocator@_W@2@@std@@@2@V?$allocator@U?$pair@$$CBV?$basic_string@_WU?$char_traits@_W@std@@V?$allocator@_W@2@@std@@PAVConfigSection@@@std@@@2@$0A@@std@@@2@@Z 10003870 f i Config.obj
 0001:000028d0       ?_Rrotate@?$_Tree@V?$_Tmap_traits@V?$basic_string@_WU?$char_traits@_W@std@@V?$allocator@_W@2@@std@@PAVConfigSection@@U?$less@V?$basic_string@_WU?$char_traits@_W@std@@V?$allocator@_W@2@@std@@@2@V?$allocator@U?$pair@$$CBV?$basic_string@_WU?$char_traits@_W@std@@V?$allocator@_W@2@@std@@PAVConfigSection@@@std@@@2@$0A@@std@@@std@@IAEXPAU_Node@?$_Tree_nod@V?$_Tmap_traits@V?$basic_string@_WU?$char_traits@_W@std@@V?$allocator@_W@2@@std@@PAVConfigSection@@U?$less@V?$basic_string@_WU?$char_traits@_W@std@@V?$allocator@_W@2@@std@@@2@V?$allocator@U?$pair@$$CBV?$basic_string@_WU?$char_traits@_W@std@@V?$allocator@_W@2@@std@@PAVConfigSection@@@std@@@2@$0A@@std@@@2@@Z 100038d0 f i Config.obj
 0001:000028d0       ?_Rrotate@?$_Tree@V?$_Tmap_traits@V?$basic_string@_WU?$char_traits@_W@std@@V?$allocator@_W@2@@std@@PAVContentTreeNode@@U?$less@V?$basic_string@_WU?$char_traits@_W@std@@V?$allocator@_W@2@@std@@@2@V?$allocator@U?$pair@$$CBV?$basic_string@_WU?$char_traits@_W@std@@V?$allocator@_W@2@@std@@PAVContentTreeNode@@@std@@@2@$0A@@std@@@std@@IAEXPAU_Node@?$_Tree_nod@V?$_Tmap_traits@V?$basic_string@_WU?$char_traits@_W@std@@V?$allocator@_W@2@@std@@PAVContentTreeNode@@U?$less@V?$basic_string@_WU?$char_traits@_W@std@@V?$allocator@_W@2@@std@@@2@V?$allocator@U?$pair@$$CBV?$basic_string@_WU?$char_traits@_W@std@@V?$allocator@_W@2@@std@@PAVContentTreeNode@@@std@@@2@$0A@@std@@@2@@Z 100038d0 f i ContentStructures.obj
 0001:00002930       ?_Max@?$_Tree_val@V?$_Tmap_traits@V?$basic_string@_WU?$char_traits@_W@std@@V?$allocator@_W@2@@std@@PAVContentTreeNode@@U?$less@V?$basic_string@_WU?$char_traits@_W@std@@V?$allocator@_W@2@@std@@@2@V?$allocator@U?$pair@$$CBV?$basic_string@_WU?$char_traits@_W@std@@V?$allocator@_W@2@@std@@PAVContentTreeNode@@@std@@@2@$0A@@std@@@std@@SAPAU_Node@?$_Tree_nod@V?$_Tmap_traits@V?$basic_string@_WU?$char_traits@_W@std@@V?$allocator@_W@2@@std@@PAVContentTreeNode@@U?$less@V?$basic_string@_WU?$char_traits@_W@std@@V?$allocator@_W@2@@std@@@2@V?$allocator@U?$pair@$$CBV?$basic_string@_WU?$char_traits@_W@std@@V?$allocator@_W@2@@std@@PAVContentTreeNode@@@std@@@2@$0A@@std@@@2@PAU342@@Z 10003930 f i ContentStructures.obj
 0001:00002930       ?_Max@?$_Tree_val@V?$_Tmap_traits@V?$basic_string@_WU?$char_traits@_W@std@@V?$allocator@_W@2@@std@@PAVConfigSection@@U?$less@V?$basic_string@_WU?$char_traits@_W@std@@V?$allocator@_W@2@@std@@@2@V?$allocator@U?$pair@$$CBV?$basic_string@_WU?$char_traits@_W@std@@V?$allocator@_W@2@@std@@PAVConfigSection@@@std@@@2@$0A@@std@@@std@@SAPAU_Node@?$_Tree_nod@V?$_Tmap_traits@V?$basic_string@_WU?$char_traits@_W@std@@V?$allocator@_W@2@@std@@PAVConfigSection@@U?$less@V?$basic_string@_WU?$char_traits@_W@std@@V?$allocator@_W@2@@std@@@2@V?$allocator@U?$pair@$$CBV?$basic_string@_WU?$char_traits@_W@std@@V?$allocator@_W@2@@std@@PAVConfigSection@@@std@@@2@$0A@@std@@@2@PAU342@@Z 10003930 f i Config.obj
 0001:00002950       ??$?H_WU?$char_traits@_W@std@@V?$allocator@_W@1@@std@@YA?AV?$basic_string@_WU?$char_traits@_W@std@@V?$allocator@_W@2@@0@ABV10@PB_W@Z 10003950 f i Config.obj
 0001:00002a40       ??$?H_WU?$char_traits@_W@std@@V?$allocator@_W@1@@std@@YA?AV?$basic_string@_WU?$char_traits@_W@std@@V?$allocator@_W@2@@0@$$QAV10@ABV10@@Z 10003a40 f i Config.obj
 0001:00002a80       ?_Insert@?$_Tree@V?$_Tmap_traits@V?$basic_string@_WU?$char_traits@_W@std@@V?$allocator@_W@2@@std@@PAVConfigSection@@U?$less@V?$basic_string@_WU?$char_traits@_W@std@@V?$allocator@_W@2@@std@@@2@V?$allocator@U?$pair@$$CBV?$basic_string@_WU?$char_traits@_W@std@@V?$allocator@_W@2@@std@@PAVConfigSection@@@std@@@2@$0A@@std@@@std@@QAE?AV?$_Tree_iterator@V?$_Tree_val@V?$_Tmap_traits@V?$basic_string@_WU?$char_traits@_W@std@@V?$allocator@_W@2@@std@@PAVConfigSection@@U?$less@V?$basic_string@_WU?$char_traits@_W@std@@V?$allocator@_W@2@@std@@@2@V?$allocator@U?$pair@$$CBV?$basic_string@_WU?$char_traits@_W@std@@V?$allocator@_W@2@@std@@PAVConfigSection@@@std@@@2@$0A@@std@@@std@@@2@V?$_Tree_const_iterator@V?$_Tree_val@V?$_Tmap_traits@V?$basic_string@_WU?$char_traits@_W@std@@V?$allocator@_W@2@@std@@PAVConfigSection@@U?$less@V?$basic_string@_WU?$char_traits@_W@std@@V?$allocator@_W@2@@std@@@2@V?$allocator@U?$pair@$$CBV?$basic_string@_WU?$char_traits@_W@std@@V?$allocator@_W@2@@std@@PAVConfigSection@@@std@@@2@$0A@@std@@@std@@@2@PAU_Node@?$_Tree_nod@V?$_Tmap_traits@V?$basic_string@_WU?$char_traits@_W@std@@V?$allocator@_W@2@@std@@PAVConfigSection@@U?$less@V?$basic_string@_WU?$char_traits@_W@std@@V?$allocator@_W@2@@std@@@2@V?$allocator@U?$pair@$$CBV?$basic_string@_WU?$char_traits@_W@std@@V?$allocator@_W@2@@std@@PAVConfigSection@@@std@@@2@$0A@@std@@@2@@Z 10003a80 f i Config.obj
 0001:00002c70       ?compare@?$basic_string@_WU?$char_traits@_W@std@@V?$allocator@_W@2@@std@@QBEHIIPB_WI@Z 10003c70 f i Config.obj
 0001:00002ce0       ?_Insert@?$_Tree@V?$_Tmap_traits@V?$basic_string@_WU?$char_traits@_W@std@@V?$allocator@_W@2@@std@@PAVConfigSection@@U?$less@V?$basic_string@_WU?$char_traits@_W@std@@V?$allocator@_W@2@@std@@@2@V?$allocator@U?$pair@$$CBV?$basic_string@_WU?$char_traits@_W@std@@V?$allocator@_W@2@@std@@PAVConfigSection@@@std@@@2@$0A@@std@@@std@@IAE?AV?$_Tree_iterator@V?$_Tree_val@V?$_Tmap_traits@V?$basic_string@_WU?$char_traits@_W@std@@V?$allocator@_W@2@@std@@PAVConfigSection@@U?$less@V?$basic_string@_WU?$char_traits@_W@std@@V?$allocator@_W@2@@std@@@2@V?$allocator@U?$pair@$$CBV?$basic_string@_WU?$char_traits@_W@std@@V?$allocator@_W@2@@std@@PAVConfigSection@@@std@@@2@$0A@@std@@@std@@@2@_NPAU_Node@?$_Tree_nod@V?$_Tmap_traits@V?$basic_string@_WU?$char_traits@_W@std@@V?$allocator@_W@2@@std@@PAVConfigSection@@U?$less@V?$basic_string@_WU?$char_traits@_W@std@@V?$allocator@_W@2@@std@@@2@V?$allocator@U?$pair@$$CBV?$basic_string@_WU?$char_traits@_W@std@@V?$allocator@_W@2@@std@@PAVConfigSection@@@std@@@2@$0A@@std@@@2@1@Z 10003ce0 f i Config.obj
 0001:00002ce0       ?_Insert@?$_Tree@V?$_Tmap_traits@V?$basic_string@_WU?$char_traits@_W@std@@V?$allocator@_W@2@@std@@PAVContentTreeNode@@U?$less@V?$basic_string@_WU?$char_traits@_W@std@@V?$allocator@_W@2@@std@@@2@V?$allocator@U?$pair@$$CBV?$basic_string@_WU?$char_traits@_W@std@@V?$allocator@_W@2@@std@@PAVContentTreeNode@@@std@@@2@$0A@@std@@@std@@IAE?AV?$_Tree_iterator@V?$_Tree_val@V?$_Tmap_traits@V?$basic_string@_WU?$char_traits@_W@std@@V?$allocator@_W@2@@std@@PAVContentTreeNode@@U?$less@V?$basic_string@_WU?$char_traits@_W@std@@V?$allocator@_W@2@@std@@@2@V?$allocator@U?$pair@$$CBV?$basic_string@_WU?$char_traits@_W@std@@V?$allocator@_W@2@@std@@PAVContentTreeNode@@@std@@@2@$0A@@std@@@std@@@2@_NPAU_Node@?$_Tree_nod@V?$_Tmap_traits@V?$basic_string@_WU?$char_traits@_W@std@@V?$allocator@_W@2@@std@@PAVContentTreeNode@@U?$less@V?$basic_string@_WU?$char_traits@_W@std@@V?$allocator@_W@2@@std@@@2@V?$allocator@U?$pair@$$CBV?$basic_string@_WU?$char_traits@_W@std@@V?$allocator@_W@2@@std@@PAVContentTreeNode@@@std@@@2@$0A@@std@@@2@1@Z 10003ce0 f i ContentStructures.obj
 0001:00002f30       ??$_Buynode@U?$pair@$$CBV?$basic_string@_WU?$char_traits@_W@std@@V?$allocator@_W@2@@std@@PAVConfigSection@@@std@@@?$_Tree_val@V?$_Tmap_traits@V?$basic_string@_WU?$char_traits@_W@std@@V?$allocator@_W@2@@std@@PAVConfigSection@@U?$less@V?$basic_string@_WU?$char_traits@_W@std@@V?$allocator@_W@2@@std@@@2@V?$allocator@U?$pair@$$CBV?$basic_string@_WU?$char_traits@_W@std@@V?$allocator@_W@2@@std@@PAVConfigSection@@@std@@@2@$0A@@std@@@std@@QAEPAU_Node@?$_Tree_nod@V?$_Tmap_traits@V?$basic_string@_WU?$char_traits@_W@std@@V?$allocator@_W@2@@std@@PAVConfigSection@@U?$less@V?$basic_string@_WU?$char_traits@_W@std@@V?$allocator@_W@2@@std@@@2@V?$allocator@U?$pair@$$CBV?$basic_string@_WU?$char_traits@_W@std@@V?$allocator@_W@2@@std@@PAVConfigSection@@@std@@@2@$0A@@std@@@1@$$QAU?$pair@$$CBV?$basic_string@_WU?$char_traits@_W@std@@V?$allocator@_W@2@@std@@PAVConfigSection@@@1@@Z 10003f30 f i Config.obj
 0001:00003010       ??$_Destroy_range@V?$allocator@UConfigItem@@@std@@@std@@YAXPAUConfigItem@@0AAV?$allocator@UConfigItem@@@0@U_Nonscalar_ptr_iterator_tag@0@@Z 10004010 f i Config.obj
 0001:00003070       ??$_Move@PAV?$basic_string@_WU?$char_traits@_W@std@@V?$allocator@_W@2@@std@@PAV12@@std@@YAPAV?$basic_string@_WU?$char_traits@_W@std@@V?$allocator@_W@2@@0@PAV10@00U_Nonscalar_ptr_iterator_tag@0@@Z 10004070 f i Config.obj
 0001:00003100       ??1?$basic_string@_WU?$char_traits@_W@std@@V?$allocator@_W@2@@std@@QAE@XZ 10004100 f i CommonFunc.obj
 0001:00003100       ??1?$pair@V?$basic_string@_WU?$char_traits@_W@std@@V?$allocator@_W@2@@std@@PAVContentTreeNode@@@std@@QAE@XZ 10004100 f i ContentStructures.obj
 0001:00003100       ??1ExtractSelectedParams@@QAE@XZ 10004100 f i ObserverUni3.obj
 0001:00003100       ??$_Dest_val@V?$allocator@V?$basic_string@_WU?$char_traits@_W@std@@V?$allocator@_W@2@@std@@@std@@V?$basic_string@_WU?$char_traits@_W@std@@V?$allocator@_W@2@@2@@std@@YAXAAV?$allocator@V?$basic_string@_WU?$char_traits@_W@std@@V?$allocator@_W@2@@std@@@0@PAV?$basic_string@_WU?$char_traits@_W@std@@V?$allocator@_W@2@@0@@Z 10004100 f i Config.obj
 0001:00003100       ??1?$pair@$$CBV?$basic_string@_WU?$char_traits@_W@std@@V?$allocator@_W@2@@std@@PAVConfigSection@@@std@@QAE@XZ 10004100 f i Config.obj
 0001:00003130       ??$_Uninit_move@PAUConfigItem@@PAU1@V?$allocator@UConfigItem@@@std@@U1@@std@@YAPAUConfigItem@@PAU1@00AAV?$allocator@UConfigItem@@@0@0U_Nonscalar_ptr_iterator_tag@0@@Z 10004130 f i Config.obj
 0001:00003200       ??$_Uninit_move@PAV?$basic_string@_WU?$char_traits@_W@std@@V?$allocator@_W@2@@std@@PAV12@V?$allocator@V?$basic_string@_WU?$char_traits@_W@std@@V?$allocator@_W@2@@std@@@2@V12@@std@@YAPAV?$basic_string@_WU?$char_traits@_W@std@@V?$allocator@_W@2@@0@PAV10@00AAV?$allocator@V?$basic_string@_WU?$char_traits@_W@std@@V?$allocator@_W@2@@std@@@0@0U_Nonscalar_ptr_iterator_tag@0@@Z 10004200 f i Config.obj
 0001:000032d0       ?c_str@?$basic_string@_WU?$char_traits@_W@std@@V?$allocator@_W@2@@std@@QBEPB_WXZ 100042d0 f i Config.obj
 0001:000032d0       ?_Myptr@?$basic_string@_WU?$char_traits@_W@std@@V?$allocator@_W@2@@std@@QBEPB_WXZ 100042d0 f i CommonFunc.obj
 0001:000032e0       ??0ContentTreeNode@@QAE@XZ 100042e0 f   ContentStructures.obj
 0001:00003450       ??1?$map@V?$basic_string@_WU?$char_traits@_W@std@@V?$allocator@_W@2@@std@@PAVConfigSection@@U?$less@V?$basic_string@_WU?$char_traits@_W@std@@V?$allocator@_W@2@@std@@@2@V?$allocator@U?$pair@$$CBV?$basic_string@_WU?$char_traits@_W@std@@V?$allocator@_W@2@@std@@PAVConfigSection@@@std@@@2@@std@@QAE@XZ 10004450 f i Config.obj
 0001:00003450       ??1?$map@V?$basic_string@_WU?$char_traits@_W@std@@V?$allocator@_W@2@@std@@PAVContentTreeNode@@U?$less@V?$basic_string@_WU?$char_traits@_W@std@@V?$allocator@_W@2@@std@@@2@V?$allocator@U?$pair@$$CBV?$basic_string@_WU?$char_traits@_W@std@@V?$allocator@_W@2@@std@@PAVContentTreeNode@@@std@@@2@@std@@QAE@XZ 10004450 f i ContentStructures.obj
 0001:000034b0       ??0ContentTreeNode@@QAE@HPAUStorageItemInfo@@@Z 100044b0 f   ContentStructures.obj
 0001:000035d0       ??1ContentTreeNode@@QAE@XZ 100045d0 f   ContentStructures.obj
 0001:000036d0       ?Init@ContentTreeNode@@AAEXHPAUStorageItemInfo@@@Z 100046d0 f   ContentStructures.obj
 0001:00003750       ?GetPath@ContentTreeNode@@QBEIPA_WIPAV1@@Z 10004750 f   ContentStructures.obj
 0001:00003810       ?AddChild@ContentTreeNode@@QAE_NPA_WPAV1@@Z 10004810 f   ContentStructures.obj
 0001:000039f0       ?insertDummyDirectory@ContentTreeNode@@AAEPAV1@PB_W@Z 100049f0 f   ContentStructures.obj
 0001:00003b70       ?GetSubDir@ContentTreeNode@@AAEPAV1@PB_W@Z 10004b70 f   ContentStructures.obj
 0001:00003c60       ?GetChildByName@ContentTreeNode@@QAEPAV1@PB_W@Z 10004c60 f   ContentStructures.obj
 0001:00003de0       ?GetSubDirectoriesNum@ContentTreeNode@@QAEI_N@Z 10004de0 f   ContentStructures.obj
 0001:00003e70       ?AddFile@ContentTreeNode@@AAEXPAV1@@Z 10004e70 f   ContentStructures.obj
 0001:00004280       ??1?$vector@PAVContentTreeNode@@V?$allocator@PAVContentTreeNode@@@std@@@std@@QAE@XZ 10005280 f i ContentStructures.obj
 0001:000042b0       ?find@?$_Tree@V?$_Tmap_traits@V?$basic_string@_WU?$char_traits@_W@std@@V?$allocator@_W@2@@std@@PAVContentTreeNode@@U?$less@V?$basic_string@_WU?$char_traits@_W@std@@V?$allocator@_W@2@@std@@@2@V?$allocator@U?$pair@$$CBV?$basic_string@_WU?$char_traits@_W@std@@V?$allocator@_W@2@@std@@PAVContentTreeNode@@@std@@@2@$0A@@std@@@std@@QAE?AV?$_Tree_iterator@V?$_Tree_val@V?$_Tmap_traits@V?$basic_string@_WU?$char_traits@_W@std@@V?$allocator@_W@2@@std@@PAVContentTreeNode@@U?$less@V?$basic_string@_WU?$char_traits@_W@std@@V?$allocator@_W@2@@std@@@2@V?$allocator@U?$pair@$$CBV?$basic_string@_WU?$char_traits@_W@std@@V?$allocator@_W@2@@std@@PAVContentTreeNode@@@std@@@2@$0A@@std@@@std@@@2@ABV?$basic_string@_WU?$char_traits@_W@std@@V?$allocator@_W@2@@2@@Z 100052b0 f i ContentStructures.obj
 0001:00004310       ?_Lbound@?$_Tree@V?$_Tmap_traits@V?$basic_string@_WU?$char_traits@_W@std@@V?$allocator@_W@2@@std@@PAVContentTreeNode@@U?$less@V?$basic_string@_WU?$char_traits@_W@std@@V?$allocator@_W@2@@std@@@2@V?$allocator@U?$pair@$$CBV?$basic_string@_WU?$char_traits@_W@std@@V?$allocator@_W@2@@std@@PAVContentTreeNode@@@std@@@2@$0A@@std@@@std@@IAEPAU_Node@?$_Tree_nod@V?$_Tmap_traits@V?$basic_string@_WU?$char_traits@_W@std@@V?$allocator@_W@2@@std@@PAVContentTreeNode@@U?$less@V?$basic_string@_WU?$char_traits@_W@std@@V?$allocator@_W@2@@std@@@2@V?$allocator@U?$pair@$$CBV?$basic_string@_WU?$char_traits@_W@std@@V?$allocator@_W@2@@std@@PAVContentTreeNode@@@std@@@2@$0A@@std@@@2@ABV?$basic_string@_WU?$char_traits@_W@std@@V?$allocator@_W@2@@2@@Z 10005310 f i ContentStructures.obj
 0001:00004310       ?_Lbound@?$_Tree@V?$_Tmap_traits@V?$basic_string@_WU?$char_traits@_W@std@@V?$allocator@_W@2@@std@@PAVConfigSection@@U?$less@V?$basic_string@_WU?$char_traits@_W@std@@V?$allocator@_W@2@@std@@@2@V?$allocator@U?$pair@$$CBV?$basic_string@_WU?$char_traits@_W@std@@V?$allocator@_W@2@@std@@PAVConfigSection@@@std@@@2@$0A@@std@@@std@@IAEPAU_Node@?$_Tree_nod@V?$_Tmap_traits@V?$basic_string@_WU?$char_traits@_W@std@@V?$allocator@_W@2@@std@@PAVConfigSection@@U?$less@V?$basic_string@_WU?$char_traits@_W@std@@V?$allocator@_W@2@@std@@@2@V?$allocator@U?$pair@$$CBV?$basic_string@_WU?$char_traits@_W@std@@V?$allocator@_W@2@@std@@PAVConfigSection@@@std@@@2@$0A@@std@@@2@ABV?$basic_string@_WU?$char_traits@_W@std@@V?$allocator@_W@2@@2@@Z 10005310 f i Config.obj
 0001:000043c0       ?_Linsert@?$_Tree@V?$_Tmap_traits@V?$basic_string@_WU?$char_traits@_W@std@@V?$allocator@_W@2@@std@@PAVConfigSection@@U?$less@V?$basic_string@_WU?$char_traits@_W@std@@V?$allocator@_W@2@@std@@@2@V?$allocator@U?$pair@$$CBV?$basic_string@_WU?$char_traits@_W@std@@V?$allocator@_W@2@@std@@PAVConfigSection@@@std@@@2@$0A@@std@@@std@@QAE?AU?$pair@V?$_Tree_iterator@V?$_Tree_val@V?$_Tmap_traits@V?$basic_string@_WU?$char_traits@_W@std@@V?$allocator@_W@2@@std@@PAVConfigSection@@U?$less@V?$basic_string@_WU?$char_traits@_W@std@@V?$allocator@_W@2@@std@@@2@V?$allocator@U?$pair@$$CBV?$basic_string@_WU?$char_traits@_W@std@@V?$allocator@_W@2@@std@@PAVConfigSection@@@std@@@2@$0A@@std@@@std@@@std@@_N@2@PAU_Node@?$_Tree_nod@V?$_Tmap_traits@V?$basic_string@_WU?$char_traits@_W@std@@V?$allocator@_W@2@@std@@PAVConfigSection@@U?$less@V?$basic_string@_WU?$char_traits@_W@std@@V?$allocator@_W@2@@std@@@2@V?$allocator@U?$pair@$$CBV?$basic_string@_WU?$char_traits@_W@std@@V?$allocator@_W@2@@std@@PAVConfigSection@@@std@@@2@$0A@@std@@@2@_N@Z 100053c0 f i Config.obj
 0001:000043c0       ?_Linsert@?$_Tree@V?$_Tmap_traits@V?$basic_string@_WU?$char_traits@_W@std@@V?$allocator@_W@2@@std@@PAVContentTreeNode@@U?$less@V?$basic_string@_WU?$char_traits@_W@std@@V?$allocator@_W@2@@std@@@2@V?$allocator@U?$pair@$$CBV?$basic_string@_WU?$char_traits@_W@std@@V?$allocator@_W@2@@std@@PAVContentTreeNode@@@std@@@2@$0A@@std@@@std@@QAE?AU?$pair@V?$_Tree_iterator@V?$_Tree_val@V?$_Tmap_traits@V?$basic_string@_WU?$char_traits@_W@std@@V?$allocator@_W@2@@std@@PAVContentTreeNode@@U?$less@V?$basic_string@_WU?$char_traits@_W@std@@V?$allocator@_W@2@@std@@@2@V?$allocator@U?$pair@$$CBV?$basic_string@_WU?$char_traits@_W@std@@V?$allocator@_W@2@@std@@PAVContentTreeNode@@@std@@@2@$0A@@std@@@std@@@std@@_N@2@PAU_Node@?$_Tree_nod@V?$_Tmap_traits@V?$basic_string@_WU?$char_traits@_W@std@@V?$allocator@_W@2@@std@@PAVContentTreeNode@@U?$less@V?$basic_string@_WU?$char_traits@_W@std@@V?$allocator@_W@2@@std@@@2@V?$allocator@U?$pair@$$CBV?$basic_string@_WU?$char_traits@_W@std@@V?$allocator@_W@2@@std@@PAVContentTreeNode@@@std@@@2@$0A@@std@@@2@_N@Z 100053c0 f i ContentStructures.obj
 0001:00004550       ??F?$_Tree_unchecked_const_iterator@V?$_Tree_val@V?$_Tmap_traits@V?$basic_string@_WU?$char_traits@_W@std@@V?$allocator@_W@2@@std@@PAVContentTreeNode@@U?$less@V?$basic_string@_WU?$char_traits@_W@std@@V?$allocator@_W@2@@std@@@2@V?$allocator@U?$pair@$$CBV?$basic_string@_WU?$char_traits@_W@std@@V?$allocator@_W@2@@std@@PAVContentTreeNode@@@std@@@2@$0A@@std@@@std@@U_Iterator_base0@2@@std@@QAEAAV01@XZ 10005550 f i ContentStructures.obj
 0001:00004550       ??F?$_Tree_unchecked_const_iterator@V?$_Tree_val@V?$_Tmap_traits@V?$basic_string@_WU?$char_traits@_W@std@@V?$allocator@_W@2@@std@@PAVConfigSection@@U?$less@V?$basic_string@_WU?$char_traits@_W@std@@V?$allocator@_W@2@@std@@@2@V?$allocator@U?$pair@$$CBV?$basic_string@_WU?$char_traits@_W@std@@V?$allocator@_W@2@@std@@PAVConfigSection@@@std@@@2@$0A@@std@@@std@@U_Iterator_base0@2@@std@@QAEAAV01@XZ 10005550 f i Config.obj
 0001:000045b0       ??$_Buynode@U?$pair@V?$basic_string@_WU?$char_traits@_W@std@@V?$allocator@_W@2@@std@@PAVContentTreeNode@@@std@@@?$_Tree_val@V?$_Tmap_traits@V?$basic_string@_WU?$char_traits@_W@std@@V?$allocator@_W@2@@std@@PAVContentTreeNode@@U?$less@V?$basic_string@_WU?$char_traits@_W@std@@V?$allocator@_W@2@@std@@@2@V?$allocator@U?$pair@$$CBV?$basic_string@_WU?$char_traits@_W@std@@V?$allocator@_W@2@@std@@PAVContentTreeNode@@@std@@@2@$0A@@std@@@std@@QAEPAU_Node@?$_Tree_nod@V?$_Tmap_traits@V?$basic_string@_WU?$char_traits@_W@std@@V?$allocator@_W@2@@std@@PAVContentTreeNode@@U?$less@V?$basic_string@_WU?$char_traits@_W@std@@V?$allocator@_W@2@@std@@@2@V?$allocator@U?$pair@$$CBV?$basic_string@_WU?$char_traits@_W@std@@V?$allocator@_W@2@@std@@PAVContentTreeNode@@@std@@@2@$0A@@std@@@1@$$QAU?$pair@V?$basic_string@_WU?$char_traits@_W@std@@V?$allocator@_W@2@@std@@PAVContentTreeNode@@@1@@Z 100055b0 f i ContentStructures.obj
 0001:00004680       _DllMain@12                10005680 f   dllmain.obj
 0001:000046a0       ?Open@StorageObject@@QAEHPB_W_NH@Z 100056a0 f   FarStorage.obj
 0001:00004810       ?Close@StorageObject@@QAEXXZ 10005810 f   FarStorage.obj
 0001:000048f0       ?ReadFileList@StorageObject@@QAEHAA_N@Z 100058f0 f   FarStorage.obj
 0001:00004be0       ?ChangeCurrentDir@StorageObject@@QAEHPB_W@Z 10005be0 f   FarStorage.obj
 0001:00004d80       ??0ExternalModule@@QAE@PB_W0@Z 10005d80 f i ModulesController.obj
 0001:00005010       ?Init@ModulesController@@QAEHPB_WPAVConfig@@@Z 10006010 f   ModulesController.obj
 0001:00005440       ??1ExternalModule@@QAE@XZ  10006440 f i ModulesController.obj
 0001:000054b0       ?Cleanup@ModulesController@@QAEXXZ 100064b0 f   ModulesController.obj
 0001:00005550       ?OpenStorageFile@ModulesController@@QAEHUOpenStorageFileInParams@@PAHPAPAXPAUStorageGeneralInfo@@@Z 10006550 f   ModulesController.obj
 0001:00005630       ?LoadModule@ModulesController@@AAE_NPB_WAAUExternalModule@@0@Z 10006630 f   ModulesController.obj
 0001:00005820       ?push_back@?$vector@UExternalModule@@V?$allocator@UExternalModule@@@std@@@std@@QAEXABUExternalModule@@@Z 10006820 f i ModulesController.obj
 0001:000058e0       ?_Reserve@?$vector@UExternalModule@@V?$allocator@UExternalModule@@@std@@@std@@IAEXI@Z 100068e0 f i ModulesController.obj
 0001:00005960       ?reserve@?$vector@UExternalModule@@V?$allocator@UExternalModule@@@std@@@std@@QAEXI@Z 10006960 f i ModulesController.obj
 0001:00005a80       ?allocate@?$allocator@UExternalModule@@@std@@QAEPAUExternalModule@@I@Z 10006a80 f i ModulesController.obj
 0001:00005ad0       ??$_Move@PAUExternalModule@@PAU1@@std@@YAPAUExternalModule@@PAU1@00U_Nonscalar_ptr_iterator_tag@0@@Z 10006ad0 f i ModulesController.obj
 0001:00005b50       ??$_Destroy_range@V?$allocator@UExternalModule@@@std@@@std@@YAXPAUExternalModule@@0AAV?$allocator@UExternalModule@@@0@U_Nonscalar_ptr_iterator_tag@0@@Z 10006b50 f i ModulesController.obj
 0001:00005c10       ??0ExternalModule@@QAE@ABU0@@Z 10006c10 f i ModulesController.obj
 0001:00005ce0       ??0?$vector@V?$basic_string@_WU?$char_traits@_W@std@@V?$allocator@_W@2@@std@@V?$allocator@V?$basic_string@_WU?$char_traits@_W@std@@V?$allocator@_W@2@@std@@@2@@std@@QAE@ABV01@@Z 10006ce0 f i ModulesController.obj
 0001:00005dc0       ??4?$vector@V?$basic_string@_WU?$char_traits@_W@std@@V?$allocator@_W@2@@std@@V?$allocator@V?$basic_string@_WU?$char_traits@_W@std@@V?$allocator@_W@2@@std@@@2@@std@@QAEAAV01@ABV01@@Z 10006dc0 f i ModulesController.obj
 0001:00005f40       ?_Buy@?$vector@V?$basic_string@_WU?$char_traits@_W@std@@V?$allocator@_W@2@@std@@V?$allocator@V?$basic_string@_WU?$char_traits@_W@std@@V?$allocator@_W@2@@std@@@2@@std@@IAE_NI@Z 10006f40 f i ModulesController.obj
 0001:00005f90       ??$_Uninit_move@PAUExternalModule@@PAU1@V?$allocator@UExternalModule@@@std@@U1@@std@@YAPAUExternalModule@@PAU1@00AAV?$allocator@UExternalModule@@@0@0U_Nonscalar_ptr_iterator_tag@0@@Z 10006f90 f i ModulesController.obj
 0001:00006020       ??$_Copy_impl@PAV?$basic_string@_WU?$char_traits@_W@std@@V?$allocator@_W@2@@std@@PAV12@@std@@YAPAV?$basic_string@_WU?$char_traits@_W@std@@V?$allocator@_W@2@@0@PAV10@00@Z 10007020 f i ModulesController.obj
 0001:00006050       ??$_Uninit_copy@V?$_Vector_const_iterator@V?$_Vector_val@V?$basic_string@_WU?$char_traits@_W@std@@V?$allocator@_W@2@@std@@V?$allocator@V?$basic_string@_WU?$char_traits@_W@std@@V?$allocator@_W@2@@std@@@2@@std@@@std@@PAV?$basic_string@_WU?$char_traits@_W@std@@V?$allocator@_W@2@@2@V?$allocator@V?$basic_string@_WU?$char_traits@_W@std@@V?$allocator@_W@2@@std@@@2@@std@@YAPAV?$basic_string@_WU?$char_traits@_W@std@@V?$allocator@_W@2@@0@V?$_Vector_const_iterator@V?$_Vector_val@V?$basic_string@_WU?$char_traits@_W@std@@V?$allocator@_W@2@@std@@V?$allocator@V?$basic_string@_WU?$char_traits@_W@std@@V?$allocator@_W@2@@std@@@2@@std@@@0@0PAV10@AAV?$allocator@V?$basic_string@_WU?$char_traits@_W@std@@V?$allocator@_W@2@@std@@@0@U_Nonscalar_ptr_iterator_tag@0@@Z 10007050 f i ModulesController.obj
 0001:00006100       ??$_Uninit_copy@PAV?$basic_string@_WU?$char_traits@_W@std@@V?$allocator@_W@2@@std@@PAV12@V?$allocator@V?$basic_string@_WU?$char_traits@_W@std@@V?$allocator@_W@2@@std@@@2@@std@@YAPAV?$basic_string@_WU?$char_traits@_W@std@@V?$allocator@_W@2@@0@PAV10@00AAV?$allocator@V?$basic_string@_WU?$char_traits@_W@std@@V?$allocator@_W@2@@std@@@0@U_Nonscalar_ptr_iterator_tag@0@@Z 10007100 f i ModulesController.obj
 0001:000061b0       ??1DialogAPIBinding@@UAE@XZ 100071b0 f i ObserverUni3.obj
 0001:000061c0       ?SaveValue@PluginCheckBoxBinding@@UAEXPAUFarDialogItem@@H@Z 100071c0 f i ObserverUni3.obj
 0001:00006200       ?SaveValue@PluginRadioButtonBinding@@UAEXPAUFarDialogItem@@H@Z 10007200 f i ObserverUni3.obj
 0001:00006230       ?SaveValue@PluginEditFieldBinding@@UAEXPAUFarDialogItem@@H@Z 10007230 f i ObserverUni3.obj
 0001:00006260       ??0PluginIntEditFieldBinding@@QAE@ABUPluginStartupInfo@@PAPAXHPAHH@Z 10007260 f i ObserverUni3.obj
 0001:00006330       ?SaveValue@PluginIntEditFieldBinding@@UAEXPAUFarDialogItem@@H@Z 10007330 f i ObserverUni3.obj
 0001:00006360       ??_EPluginIntEditFieldBinding@@UAEPAXI@Z 10007360 f i  CIL library: CIL module
 0001:00006360       ??_GPluginCheckBoxBinding@@UAEPAXI@Z 10007360 f i ObserverUni3.obj
 0001:00006360       ??_EPluginEditFieldBinding@@UAEPAXI@Z 10007360 f i  CIL library: CIL module
 0001:00006360       ??_GPluginRadioButtonBinding@@UAEPAXI@Z 10007360 f i ObserverUni3.obj
 0001:00006360       ??_GPluginEditFieldBinding@@UAEPAXI@Z 10007360 f i ObserverUni3.obj
 0001:00006360       ??_EPluginCheckBoxBinding@@UAEPAXI@Z 10007360 f i  CIL library: CIL module
 0001:00006360       ??_GPluginIntEditFieldBinding@@UAEPAXI@Z 10007360 f i ObserverUni3.obj
 0001:00006360       ??_E?$DialogItemBinding@UFarDialogItem@@@@UAEPAXI@Z 10007360 f i  CIL library: CIL module
 0001:00006360       ??_EPluginRadioButtonBinding@@UAEPAXI@Z 10007360 f i  CIL library: CIL module
 0001:00006360       ??_G?$DialogItemBinding@UFarDialogItem@@@@UAEPAXI@Z 10007360 f i ObserverUni3.obj
 0001:00006390       ?InitDialogItem@PluginDialogBuilder@@MAEXPAUFarDialogItem@@PB_W@Z 10007390 f i ObserverUni3.obj
 0001:000063b0       ?TextWidth@PluginDialogBuilder@@MAEHABUFarDialogItem@@@Z 100073b0 f i ObserverUni3.obj
 0001:000063d0       ?GetLangString@PluginDialogBuilder@@MAEPB_WH@Z 100073d0 f i ObserverUni3.obj
 0001:000063f0       ?DoShowDialog@PluginDialogBuilder@@MAEHXZ 100073f0 f i ObserverUni3.obj
 0001:00006450       ?CreateCheckBoxBinding@PluginDialogBuilder@@MAEPAU?$DialogItemBinding@UFarDialogItem@@@@PAHH@Z 10007450 f i ObserverUni3.obj
 0001:000064b0       ?CreateRadioButtonBinding@PluginDialogBuilder@@MAEPAU?$DialogItemBinding@UFarDialogItem@@@@PAH@Z 100074b0 f i ObserverUni3.obj
 0001:00006500       ??0PluginDialogBuilder@@QAE@ABUPluginStartupInfo@@ABU_GUID@@1PB_W2P6GHPAXHH3@Z3@Z 10007500 f i ObserverUni3.obj
 0001:00006600       ??1PluginDialogBuilder@@UAE@XZ 10007600 f i ObserverUni3.obj
 0001:00006660       ?AddIntEditField@PluginDialogBuilder@@UAEPAUFarDialogItem@@PAHH@Z 10007660 f i ObserverUni3.obj
 0001:00006760       ?AddEditField@PluginDialogBuilder@@QAEPAUFarDialogItem@@PA_WHHPB_W_N@Z 10007760 f i ObserverUni3.obj
 0001:00006830       ?AddFixEditField@PluginDialogBuilder@@QAEPAUFarDialogItem@@PA_WHHPB_W@Z 10007830 f i ObserverUni3.obj
 0001:000068f0       ??_EPluginDialogBuilder@@UAEPAXI@Z 100078f0 f i  CIL library: CIL module
 0001:000068f0       ??_GPluginDialogBuilder@@UAEPAXI@Z 100078f0 f i ObserverUni3.obj
 0001:00006970       ??1PluginSettings@@QAE@XZ  10007970 f i ObserverUni3.obj
 0001:00006980       ??0ProgressContext@@QAE@XZ 10007980 f i ObserverUni3.obj
 0001:000069e0       ??0ExtractSelectedParams@@QAE@PB_W@Z 100079e0 f i ObserverUni3.obj
 0001:00007f80       ?BatchExtract@@YAHPAVStorageObject@@AAV?$vector@PAVContentTreeNode@@V?$allocator@PAVContentTreeNode@@@std@@@std@@_J_NAAUExtractSelectedParams@@@Z 10008f80 f   ObserverUni3.obj
 0001:000083f0       ?ConfirmExtract@@YA_NHHAAUExtractSelectedParams@@@Z 100093f0 f   ObserverUni3.obj
 0001:000086c0       _GetGlobalInfoW@4          100096c0 f   ObserverUni3.obj
 0001:00008750       _SetStartupInfoW@4         10009750 f   ObserverUni3.obj
 0001:00008950       _GetPluginInfoW@4          10009950 f   ObserverUni3.obj
 0001:000089c0       _ExitFARW@4                100099c0 f   ObserverUni3.obj
 0001:000089d0       _ConfigureW@4              100099d0 f   ObserverUni3.obj
 0001:00008b00       _ClosePanelW@4             10009b00 f   ObserverUni3.obj
 0001:00008b50       _AnalyseW@4                10009b50 f   ObserverUni3.obj
 0001:00008ba0       _OpenW@4                   10009ba0 f   ObserverUni3.obj
 0001:00008ec0       _GetFindDataW@4            10009ec0 f   ObserverUni3.obj
 0001:000090a0       _FreeFindDataW@4           1000a0a0 f   ObserverUni3.obj
 0001:000090c0       _SetDirectoryW@4           1000a0c0 f   ObserverUni3.obj
 0001:00009100       _GetOpenPanelInfoW@4       1000a100 f   ObserverUni3.obj
 0001:00009430       _GetFilesW@4               1000a430 f   ObserverUni3.obj
 0001:000096c0       _ProcessPanelInputW@4      1000a6c0 f   ObserverUni3.obj
 0001:000098c0       ?InitDialogItem@?$DialogBuilderBase@UFarDialogItem@@@@MAEXPAUFarDialogItem@@PB_W@Z 1000a8c0 f i ObserverUni3.obj
 0001:000098c0       ?SaveValue@?$DialogItemBinding@UFarDialogItem@@@@UAEXPAUFarDialogItem@@H@Z 1000a8c0 f i ObserverUni3.obj
 0001:000098d0       ?TextWidth@?$DialogBuilderBase@UFarDialogItem@@@@MAEHABUFarDialogItem@@@Z 1000a8d0 f i ObserverUni3.obj
 0001:000098e0       ?CreateRadioButtonBinding@?$DialogBuilderBase@UFarDialogItem@@@@MAEPAU?$DialogItemBinding@UFarDialogItem@@@@PAH@Z 1000a8e0 f i ObserverUni3.obj
 0001:000098e0       ?GetLangString@?$DialogBuilderBase@UFarDialogItem@@@@MAEPB_WH@Z 1000a8e0 f i ObserverUni3.obj
 0001:000098f0       ?DoShowDialog@?$DialogBuilderBase@UFarDialogItem@@@@MAEHXZ 1000a8f0 f i ObserverUni3.obj
 0001:00009900       ??1?$DialogBuilderBase@UFarDialogItem@@@@MAE@XZ 1000a900 f i ObserverUni3.obj
 0001:00009950       ?AddCheckbox@?$DialogBuilderBase@UFarDialogItem@@@@QAEPAUFarDialogItem@@HPAHH_N@Z 1000a950 f i ObserverUni3.obj
 0001:00009a70       ?CreateCheckBoxBinding@?$DialogBuilderBase@UFarDialogItem@@@@MAEPAU?$DialogItemBinding@UFarDialogItem@@@@PAHH@Z 1000aa70 f i ObserverUni3.obj
 0001:00009a70       ?AddIntEditField@?$DialogBuilderBase@UFarDialogItem@@@@UAEPAUFarDialogItem@@PAHH@Z 1000aa70 f i ObserverUni3.obj
 0001:00009a80       ?AddSeparator@?$DialogBuilderBase@UFarDialogItem@@@@QAEXH@Z 1000aa80 f i ObserverUni3.obj
 0001:00009af0       ?AddOKCancel@?$DialogBuilderBase@UFarDialogItem@@@@QAEXHHH_N@Z 1000aaf0 f i ObserverUni3.obj
 0001:00009c50       ??1?$vector@UExternalModule@@V?$allocator@UExternalModule@@@std@@@std@@QAE@XZ 1000ac50 f i ObserverUni3.obj
 0001:00009ca0       ??_E?$DialogBuilderBase@UFarDialogItem@@@@MAEPAXI@Z 1000aca0 f i  CIL library: CIL module
 0001:00009ca0       ??_G?$DialogBuilderBase@UFarDialogItem@@@@MAEPAXI@Z 1000aca0 f i ObserverUni3.obj
 0001:00009cd0       ?ReallocDialogItems@?$DialogBuilderBase@UFarDialogItem@@@@IAEXXZ 1000acd0 f i ObserverUni3.obj
 0001:00009db0       ?UpdateBorderSize@?$DialogBuilderBase@UFarDialogItem@@@@IAEXXZ 1000adb0 f i ObserverUni3.obj
 0001:00009e30       ?UpdateSecondColumnPosition@?$DialogBuilderBase@UFarDialogItem@@@@IAEXXZ 1000ae30 f i ObserverUni3.obj
 0001:00009e90       ?SaveValues@?$DialogBuilderBase@UFarDialogItem@@@@IAEXXZ 1000ae90 f i ObserverUni3.obj
 0001:00009ef0       ?MaxTextWidth@?$DialogBuilderBase@UFarDialogItem@@@@IAEHXZ 1000aef0 f i ObserverUni3.obj
 0001:00009fc0       ??$_Sort@PAPAVContentTreeNode@@HP6A_NPAV1@0@Z@std@@YAXPAPAVContentTreeNode@@0HP6A_NPAV1@1@Z@Z 1000afc0 f i ObserverUni3.obj
 0001:0000a0b0       ??$_Unguarded_partition@PAPAVContentTreeNode@@P6A_NPAV1@0@Z@std@@YA?AU?$pair@PAPAVContentTreeNode@@PAPAV1@@0@PAPAVContentTreeNode@@0P6A_NPAV2@1@Z@Z 1000b0b0 f i ObserverUni3.obj
 0001:0000a260       ??$_Median@PAPAVContentTreeNode@@P6A_NPAV1@0@Z@std@@YAXPAPAVContentTreeNode@@00P6A_NPAV1@1@Z@Z 1000b260 f i ObserverUni3.obj
 0001:0000a480       ??$_Make_heap@PAPAVContentTreeNode@@HPAV1@P6A_NPAV1@0@Z@std@@YAXPAPAVContentTreeNode@@0P6A_NPAV1@1@ZPAH0@Z 1000b480 f i ObserverUni3.obj
 0001:0000a520       ??$_Sort_heap@PAPAVContentTreeNode@@P6A_NPAV1@0@Z@std@@YAXPAPAVContentTreeNode@@0P6A_NPAV1@1@Z@Z 1000b520 f i ObserverUni3.obj
 0001:0000a570       ??$_Insertion_sort1@PAPAVContentTreeNode@@P6A_NPAV1@0@ZPAV1@@std@@YAXPAPAVContentTreeNode@@0P6A_NPAV1@1@Z0@Z 1000b570 f i ObserverUni3.obj
 0001:0000a600       ??$_Adjust_heap@PAPAVContentTreeNode@@HPAV1@P6A_NPAV1@0@Z@std@@YAXPAPAVContentTreeNode@@HH$$QAPAV1@P6A_NPAV1@2@Z@Z 1000b600 f i ObserverUni3.obj
 0001:0000a6c0       ??$_Push_heap@PAPAVContentTreeNode@@HPAV1@P6A_NPAV1@0@Z@std@@YAXPAPAVContentTreeNode@@HH$$QAPAV1@P6A_NPAV1@2@Z@Z 1000b6c0 f i ObserverUni3.obj
 0001:0000a725       ??1out_of_range@std@@UAE@XZ 1000b725 f i libcpmt:xthrow.obj
 0001:0000a725       ??1length_error@std@@UAE@XZ 1000b725 f i libcpmt:xthrow.obj
 0001:0000a72a       ??0logic_error@std@@QAE@ABV01@@Z 1000b72a f i libcpmt:xthrow.obj
 0001:0000a747       ?_Xlength_error@std@@YAXPBD@Z 1000b747 f   libcpmt:xthrow.obj
 0001:0000a777       ??0length_error@std@@QAE@ABV01@@Z 1000b777 f i libcpmt:xthrow.obj
 0001:0000a794       ?_Xout_of_range@std@@YAXPBD@Z 1000b794 f   libcpmt:xthrow.obj
 0001:0000a7c4       ??0out_of_range@std@@QAE@ABV01@@Z 1000b7c4 f i libcpmt:xthrow.obj
 0001:0000a7e1       ??_Gout_of_range@std@@UAEPAXI@Z 1000b7e1 f i libcpmt:xthrow.obj
 0001:0000a7e1       ??_Elogic_error@std@@UAEPAXI@Z 1000b7e1 f i libcpmt:xthrow.obj
 0001:0000a7e1       ??_Elength_error@std@@UAEPAXI@Z 1000b7e1 f i libcpmt:xthrow.obj
 0001:0000a7e1       ??_Glength_error@std@@UAEPAXI@Z 1000b7e1 f i libcpmt:xthrow.obj
 0001:0000a7e1       ??_Eout_of_range@std@@UAEPAXI@Z 1000b7e1 f i libcpmt:xthrow.obj
 0001:0000a7e1       ??_Glogic_error@std@@UAEPAXI@Z 1000b7e1 f i libcpmt:xthrow.obj
 0001:0000a802       ??_U@YAPAXI@Z              1000b802 f   libcpmt:newaop.obj
 0001:0000a80d       @__security_check_cookie@4 1000b80d f   LIBCMT:secchk.obj
 0001:0000a81c       ??3@YAXPAX@Z               1000b81c f   LIBCMT:delete.obj
 0001:0000a827       ??0exception@std@@QAE@ABQBDH@Z 1000b827 f   LIBCMT:stdexcpt.obj
 0001:0000a844       ?what@exception@std@@UBEPBDXZ 1000b844 f   LIBCMT:stdexcpt.obj
 0001:0000a851       ?_Copy_str@exception@std@@AAEXPBD@Z 1000b851 f   LIBCMT:stdexcpt.obj
 0001:0000a891       ?_Tidy@exception@std@@AAEXXZ 1000b891 f   LIBCMT:stdexcpt.obj
 0001:0000a8af       ??0exception@std@@QAE@ABQBD@Z 1000b8af f   LIBCMT:stdexcpt.obj
 0001:0000a8d6       ??4exception@std@@QAEAAV01@ABV01@@Z 1000b8d6 f   LIBCMT:stdexcpt.obj
 0001:0000a90b       ??1exception@std@@UAE@XZ   1000b90b f   LIBCMT:stdexcpt.obj
 0001:0000a916       ??_Eexception@std@@UAEPAXI@Z 1000b916 f i LIBCMT:stdexcpt.obj
 0001:0000a916       ??_Gexception@std@@UAEPAXI@Z 1000b916 f i LIBCMT:stdexcpt.obj
 0001:0000a93d       ??0exception@std@@QAE@ABV01@@Z 1000b93d f   LIBCMT:stdexcpt.obj
 0001:0000a962       ??1type_info@@UAE@XZ       1000b962 f   LIBCMT:typinfo.obj
 0001:0000a972       ??_Gtype_info@@UAEPAXI@Z   1000b972 f i LIBCMT:typinfo.obj
 0001:0000a972       ??_Etype_info@@UAEPAXI@Z   1000b972 f i LIBCMT:typinfo.obj
 0001:0000a993       ??8type_info@@QBE_NABV0@@Z 1000b993 f   LIBCMT:typinfo.obj
 0001:0000a9b3       ??2@YAPAXI@Z               1000b9b3 f   LIBCMT:new.obj
 0001:0000aa40       _memmove                   1000ba40 f   LIBCMT:memmove.obj
 0001:0000ada1       _wcsrchr                   1000bda1 f   LIBCMT:wcsrchr.obj
 0001:0000adcf       _malloc                    1000bdcf f   LIBCMT:malloc.obj
 0001:0000ae63       _free                      1000be63 f   LIBCMT:free.obj
 0001:0000ae9d       _wcscat_s                  1000be9d f   LIBCMT:wcscat_s.obj
 0001:0000af12       ??0_LocaleUpdate@@QAE@PAUlocaleinfo_struct@@@Z 1000bf12 f i LIBCMT:wcsicmp.obj
 0001:0000b15b       _wcstol                    1000c15b f   LIBCMT:wcstol.obj
 0001:0000b175       _wcscpy_s                  1000c175 f   LIBCMT:wcscpy_s.obj
 0001:0000b1d8       __wcsdup                   1000c1d8 f   LIBCMT:wcsdup.obj
 0001:0000b22d       _wcschr                    1000c22d f   LIBCMT:wcschr.obj
 0001:0000b254       _wcsncpy_s                 1000c254 f   LIBCMT:wcsncpy_s.obj
 0001:0000b321       ??_V@YAXPAX@Z              1000c321 f   LIBCMT:delete2.obj
 0001:0000b32c       _swprintf_s                1000c32c f   LIBCMT:swprintf.obj
 0001:0000b34a       _wcstok_s                  1000c34a f   LIBCMT:wcstok_s.obj
 0001:0000b4de       ___onexitinit              1000c4de f   LIBCMT:onexit.obj
 0001:0000b50f       __onexit                   1000c50f f   LIBCMT:onexit.obj
 0001:0000b54b       _atexit                    1000c54b f   LIBCMT:onexit.obj
 0001:0000b562       _calloc                    1000c562 f   LIBCMT:calloc.obj
 0001:0000b681       __ultow_s                  1000c681 f   LIBCMT:xtows.obj
 0001:0000b79a       __i64tow_s                 1000c79a f   LIBCMT:xtows.obj
 0001:0000b7cf       __get_errno_from_oserr     1000c7cf f   LIBCMT:dosmap.obj
 0001:0000b811       __errno                    1000c811 f   LIBCMT:dosmap.obj
 0001:0000b824       ___doserrno                1000c824 f   LIBCMT:dosmap.obj
 0001:0000b837       __dosmaperr                1000c837 f   LIBCMT:dosmap.obj
 0001:0000b85a       __CRT_INIT@12              1000c85a f   LIBCMT:dllcrt0.obj
 0001:0000bab4       __DllMainCRTStartup@12     1000cab4 f   LIBCMT:dllcrt0.obj
 0001:0000bad7       __CxxThrowException@8      1000cad7 f   LIBCMT:throw.obj
 0001:0000bb23       ___report_gsfailure        1000cb23 f   LIBCMT:gs_report.obj
 0001:0000bc29       _strcpy_s                  1000cc29 f   LIBCMT:strcpy_s.obj
 0001:0000bc90       _strlen                    1000cc90 f   LIBCMT:strlen.obj
 0001:0000bd1b       ?_Type_info_dtor@type_info@@CAXPAV1@@Z 1000cd1b f   LIBCMT:typname.obj
 0001:0000bd90       _strcmp                    1000cd90 f   LIBCMT:strcmp.obj
 0001:0000be18       __initp_heap_handler       1000ce18 f   LIBCMT:handler.obj
 0001:0000be27       __callnewh                 1000ce27 f   LIBCMT:handler.obj
 0001:0000be4f       __VEC_memcpy               1000ce4f f   LIBCMT:p4_memcpy.obj
 0001:0000bf52       ___sse2_available_init     1000cf52 f   LIBCMT:cpu_disp.obj
 0001:0000bf62       ___crtCorExitProcess       1000cf62 f   LIBCMT:crt0dat.obj
 0001:0000bf8d       ___crtExitProcess          1000cf8d f   LIBCMT:crt0dat.obj
 0001:0000bfa5       __lockexit                 1000cfa5 f   LIBCMT:crt0dat.obj
 0001:0000bfae       __unlockexit               1000cfae f   LIBCMT:crt0dat.obj
 0001:0000bfb7       __init_pointers            1000cfb7 f   LIBCMT:crt0dat.obj
 0001:0000bfea       __initterm_e               1000cfea f   LIBCMT:crt0dat.obj
 0001:0000c00e       __cinit                    1000d00e f   LIBCMT:crt0dat.obj
 0001:0000c1e5       __exit                     1000d1e5 f   LIBCMT:crt0dat.obj
 0001:0000c1fb       __cexit                    1000d1fb f   LIBCMT:crt0dat.obj
 0001:0000c20a       __amsg_exit                1000d20a f   LIBCMT:crt0dat.obj
 0001:0000c228       __GET_RTERRMSG             1000d228 f   LIBCMT:crt0msg.obj
 0001:0000c24e       __NMSG_WRITE               1000d24e f   LIBCMT:crt0msg.obj
 0001:0000c3fd       __FF_MSGBANNER             1000d3fd f   LIBCMT:crt0msg.obj
 0001:0000c436       __heap_init                1000d436 f   LIBCMT:heapinit.obj
 0001:0000c454       __heap_term                1000d454 f   LIBCMT:heapinit.obj
 0001:0000c468       __initp_misc_invarg        1000d468 f   LIBCMT:invarg.obj
 0001:0000c477       __call_reportfault         1000d477 f   LIBCMT:invarg.obj
 0001:0000c5a0       __invoke_watson            1000d5a0 f   LIBCMT:invarg.obj
 0001:0000c5c5       __invalid_parameter        1000d5c5 f   LIBCMT:invarg.obj
 0001:0000c5f2       __invalid_parameter_noinfo 1000d5f2 f   LIBCMT:invarg.obj
 0001:0000c825       ___updatetmbcinfo          1000d825 f   LIBCMT:mbctype.obj
 0001:0000c945       __setmbcp_nolock           1000d945 f   LIBCMT:mbctype.obj
 0001:0000cb2e       __setmbcp                  1000db2e f   LIBCMT:mbctype.obj
 0001:0000ccc8       ___initmbctable            1000dcc8 f   LIBCMT:mbctype.obj
 0001:0000cce6       ___addlocaleref            1000dce6 f   LIBCMT:localref.obj
 0001:0000cd75       ___removelocaleref         1000dd75 f   LIBCMT:localref.obj
 0001:0000ce0e       ___freetlocinfo            1000de0e f   LIBCMT:localref.obj
 0001:0000cf59       __updatetlocinfoEx_nolock  1000df59 f   LIBCMT:localref.obj
 0001:0000cfa6       ___updatetlocinfo          1000dfa6 f   LIBCMT:localref.obj
 0001:0000d01f       __encoded_null             1000e01f f   LIBCMT:tidtable.obj
 0001:0000d028       ___crtTlsAlloc@4           1000e028 f   LIBCMT:tidtable.obj
 0001:0000d031       ___set_flsgetvalue         1000e031 f   LIBCMT:tidtable.obj
 0001:0000d065       __mtterm                   1000e065 f   LIBCMT:tidtable.obj
 0001:0000d0a2       __initptd                  1000e0a2 f   LIBCMT:tidtable.obj
 0001:0000d156       __getptd_noexit            1000e156 f   LIBCMT:tidtable.obj
 0001:0000d1cf       __getptd                   1000e1cf f   LIBCMT:tidtable.obj
 0001:0000d1e9       __freefls@4                1000e1e9 f   LIBCMT:tidtable.obj
 0001:0000d318       __freeptd                  1000e318 f   LIBCMT:tidtable.obj
 0001:0000d386       __mtinit                   1000e386 f   LIBCMT:tidtable.obj
 0001:0000d501       __wchartodigit             1000e501 f   LIBCMT:wchtodig.obj
 0001:0000d6a1       _iswctype                  1000e6a1 f   LIBCMT:iswctype.obj
 0001:0000d6f6       _wcslen                    1000e6f6 f   LIBCMT:wcslen.obj
 0001:0000d711       __flsbuf                   1000e711 f   LIBCMT:_flsbuf.obj
 0001:0000d875       __vswprintf_helper         1000e875 f   LIBCMT:vswprnc.obj
 0001:0000d96b       __vswprintf_s_l            1000e96b f   LIBCMT:vswprnc.obj
 0001:0000d9e4       __malloc_crt               1000e9e4 f   LIBCMT:crtheap.obj
 0001:0000da29       __calloc_crt               1000ea29 f   LIBCMT:crtheap.obj
 0001:0000da75       __realloc_crt              1000ea75 f   LIBCMT:crtheap.obj
 0001:0000dac3       __msize                    1000eac3 f   LIBCMT:msize.obj
 0001:0000db00       __SEH_prolog4              1000eb00 f   LIBCMT:sehprolg4.obj
 0001:0000db45       __SEH_epilog4              1000eb45 f   LIBCMT:sehprolg4.obj
 0001:0000db60       __except_handler4          1000eb60 f   LIBCMT:chandler4.obj
 0001:0000dcef       __calloc_impl              1000ecef f   LIBCMT:calloc_impl.obj
 0001:0000dd80       __aulldvrm                 1000ed80 f   LIBCMT:ulldvrm.obj
 0001:0000de15       __ioinit                   1000ee15 f   LIBCMT:ioinit.obj
 0001:0000e05a       __ioterm                   1000f05a f   LIBCMT:ioinit.obj
 0001:0000e0ad       __setenvp                  1000f0ad f   LIBCMT:stdenvp.obj
 0001:0000e323       __setargv                  1000f323 f   LIBCMT:stdargv.obj
 0001:0000e3de       ___crtGetEnvironmentStringsA 1000f3de f   LIBCMT:a_env.obj
 0001:0000e475       __RTC_Initialize           1000f475 f   LIBCMT:_initsect_.obj
 0001:0000e49b       __RTC_Terminate            1000f49b f   LIBCMT:_initsect_.obj
 0001:0000e4c1       __XcptFilter               1000f4c1 f   LIBCMT:winxfltr.obj
 0001:0000e60b       ___CppXcptFilter           1000f60b f   LIBCMT:winxfltr.obj
 0001:0000e62b       ___security_init_cookie    1000f62b f   LIBCMT:gs_support.obj
 0001:0000e6c6       __crt_debugger_hook        1000f6c6 f   LIBCMT:dbghook.obj
 0001:0000e6ce       __mtinitlocks              1000f6ce f   LIBCMT:mlock.obj
 0001:0000e718       __mtdeletelocks            1000f718 f   LIBCMT:mlock.obj
 0001:0000e76f       __unlock                   1000f76f f   LIBCMT:mlock.obj
 0001:0000e786       __mtinitlocknum            1000f786 f   LIBCMT:mlock.obj
 0001:0000e848       __lock                     1000f848 f   LIBCMT:mlock.obj
 0001:0000e880       __local_unwind4            1000f880 f   LIBCMT:exsup4.obj
 0001:0000e956       __seh_longjmp_unwind4@4    1000f956 f   LIBCMT:exsup4.obj
 0001:0000e972       @_EH4_CallFilterFunc@8     1000f972 f   LIBCMT:exsup4.obj
 0001:0000e989       @_EH4_TransferToHandler@8  1000f989 f   LIBCMT:exsup4.obj
 0001:0000e9a2       @_EH4_GlobalUnwind2@8      1000f9a2 f   LIBCMT:exsup4.obj
 0001:0000e9bb       @_EH4_LocalUnwind@16       1000f9bb f   LIBCMT:exsup4.obj
 0001:0000e9d2       ?terminate@@YAXXZ          1000f9d2 f   LIBCMT:hooks.obj
 0001:0000ea0b       ?unexpected@@YAXXZ         1000fa0b f   LIBCMT:hooks.obj
 0001:0000ea1e       ?_inconsistency@@YAXXZ     1000fa1e f   LIBCMT:hooks.obj
 0001:0000ea56       __initp_eh_hooks           1000fa56 f   LIBCMT:hooks.obj
 0001:0000ea67       __initp_misc_winsig        1000fa67 f   LIBCMT:winsig.obj
 0001:0000eabc       ___get_sigabrt             1000fabc f   LIBCMT:winsig.obj
 0001:0000eac9       _raise                     1000fac9 f   LIBCMT:winsig.obj
 0001:0000ec6c       __initp_misc_rand_s        1000fc6c f   LIBCMT:rand_s.obj
 0001:0000ec7b       __initp_misc_purevirt      1000fc7b f   LIBCMT:inithelp.obj
 0001:0000ec8a       __initp_misc_cfltcvt_tab   1000fc8a f   LIBCMT:cmiscdat.obj
 0001:0000ecb0       __ValidateImageBase        1000fcb0 f   LIBCMT:pesect.obj
 0001:0000ecf0       __FindPESection            1000fcf0 f   LIBCMT:pesect.obj
 0001:0000ed40       __IsNonwritableInCurrentImage 1000fd40 f   LIBCMT:pesect.obj
 0001:0000edfc       ___crtMessageBoxW          1000fdfc f   LIBCMT:crtmboxw.obj
 0001:0000ef68       __set_error_mode           1000ff68 f   LIBCMT:errmode.obj
 0001:0000efb0       _memset                    1000ffb0 f   LIBCMT:memset.obj
 0001:0000f02a       __freea                    1001002a f i LIBCMT:a_map.obj
 0001:0000f231       ___crtLCMapStringA         10010231 f   LIBCMT:a_map.obj
 0001:0000f35e       ___crtGetStringTypeA       1001035e f   LIBCMT:a_str.obj
 0001:0000f39e       ___free_lc_time            1001039e f   LIBCMT:inittime.obj
 0001:0000f715       ___free_lconv_num          10010715 f   LIBCMT:initnum.obj
 0001:0000f77e       ___free_lconv_mon          1001077e f   LIBCMT:initmon.obj
 0001:0000f880       _strcspn                   10010880 f   LIBCMT:strcspn.obj
 0001:0000f8d0       _memcpy                    100108d0 f   LIBCMT:memcpy.obj
 0001:0000fc40       _strpbrk                   10010c40 f   LIBCMT:strpbrk.obj
 0001:0000fc80       __lseeki64_nolock          10010c80 f   LIBCMT:lseeki64.obj
 0001:0000fd05       __lseeki64                 10010d05 f   LIBCMT:lseeki64.obj
 0001:0000fdef       __write_nolock             10010def f   LIBCMT:write.obj
 0001:000104ec       __write                    100114ec f   LIBCMT:write.obj
 0001:000105c0       __getbuf                   100115c0 f   LIBCMT:_getbuf.obj
 0001:00010609       __isatty                   10011609 f   LIBCMT:isatty.obj
 0001:0001065f       ___iob_func                1001165f f   LIBCMT:_file.obj
 0001:00010665       ___initstdio               10011665 f   LIBCMT:_file.obj
 0001:00010716       ___endstdio                10011716 f   LIBCMT:_file.obj
 0001:00010736       __lock_file                10011736 f   LIBCMT:_file.obj
 0001:00010777       __lock_file2               10011777 f   LIBCMT:_file.obj
 0001:000107a9       __unlock_file              100117a9 f   LIBCMT:_file.obj
 0001:000107e5       __unlock_file2             100117e5 f   LIBCMT:_file.obj
 0001:00010814       __fileno                   10011814 f   LIBCMT:fileno.obj
 0001:0001083a       __fputwc_nolock            1001183a f   LIBCMT:fputwc.obj
 0001:000109c1       __get_printf_count_output  100119c1 f   LIBCMT:printf.obj
 0001:000109d7       __mbtowc_l                 100119d7 f   LIBCMT:mbtowc.obj
 0001:00010aed       _mbtowc                    10011aed f   LIBCMT:mbtowc.obj
 0001:00010b07       __isleadbyte_l             10011b07 f i LIBCMT:_wctype.obj
 0001:00010b3f       _isleadbyte                10011b3f f i LIBCMT:_wctype.obj
 0001:00010be8       __woutput_s_l              10011be8 f   LIBCMT:woutputs.obj
 0001:000117a8       _realloc                   100127a8 f   LIBCMT:realloc.obj
 0001:000118a8       __ismbblead                100128a8 f   LIBCMT:ismbbyte.obj
 0001:000118c0       __global_unwind2           100128c0 f   LIBCMT:exsup.obj
 0001:00011925       __local_unwind2            10012925 f   LIBCMT:exsup.obj
 0001:000119a9       __abnormal_termination     100129a9 f   LIBCMT:exsup.obj
 0001:000119cc       __NLG_Notify1              100129cc f   LIBCMT:exsup.obj
 0001:000119d5       __NLG_Notify               100129d5 f   LIBCMT:exsup.obj
 0001:000119ec       __NLG_Dispatch             100129ec     LIBCMT:exsup.obj
 0001:000119ec       __NLG_Dispatch2            100129ec     LIBCMT:exsup.obj
 0001:000119f4       __NLG_Call                 100129f4 f   LIBCMT:exsup.obj
 0001:000119f6       __NLG_Return2              100129f6     LIBCMT:exsup.obj
 0001:000119f7       _abort                     100129f7 f   LIBCMT:abort.obj
 0001:00011a2a       __fptrap                   10012a2a f   LIBCMT:crt0fp.obj
 0001:00011a33       __VEC_memzero              10012a33 f   LIBCMT:p4_memset.obj
 0001:00011af0       __alloca_probe_16          10012af0 f   LIBCMT:alloca16.obj
 0001:00011b06       __alloca_probe_8           10012b06     LIBCMT:alloca16.obj
 0001:00011b1c       __free_osfhnd              10012b1c f   LIBCMT:osfinfo.obj
 0001:00011ba2       __get_osfhandle            10012ba2 f   LIBCMT:osfinfo.obj
 0001:00011c0b       ___lock_fhandle            10012c0b f   LIBCMT:osfinfo.obj
 0001:00011caa       __unlock_fhandle           10012caa f   LIBCMT:osfinfo.obj
 0001:00011cd1       __putwch_nolock            10012cd1 f   LIBCMT:putwch.obj
 0001:00011d20       __chkstk                   10012d20 f   LIBCMT:chkstk.obj
 0001:00011d20       __alloca_probe             10012d20     LIBCMT:chkstk.obj
 0001:00011d4b       __fcloseall                10012d4b f   LIBCMT:closeall.obj
 0001:00011de7       __flush                    10012de7 f   LIBCMT:fflush.obj
 0001:00011e4f       __fflush_nolock            10012e4f f   LIBCMT:fflush.obj
 0001:00011f71       __flushall                 10012f71 f   LIBCMT:fflush.obj
 0001:00011f7a       __flswbuf                  10012f7a f   LIBCMT:_flswbuf.obj
 0001:000120ee       __wctomb_s_l               100130ee f   LIBCMT:wctomb.obj
 0001:00012243       _wctomb_s                  10013243 f   LIBCMT:wctomb.obj
 0001:00012260       ___ascii_strnicmp          10013260 f   LIBCMT:_strnicm.obj
 0001:000122c1       ___initconout              100132c1 f   LIBCMT:initcon.obj
 0001:000122e0       ___termconout              100132e0 f   LIBCMT:initcon.obj
 0001:000122f7       __fclose_nolock            100132f7 f   LIBCMT:fclose.obj
 0001:00012364       _fclose                    10013364 f   LIBCMT:fclose.obj
 0001:000123d8       __commit                   100133d8 f   LIBCMT:commit.obj
 0001:000124c0       __allmul                   100134c0 f   LIBCMT:llmul.obj
 0001:000124f4       __close_nolock             100134f4 f   LIBCMT:close.obj
 0001:00012590       __close                    10013590 f   LIBCMT:close.obj
 0001:00012654       __freebuf                  10013654 f   LIBCMT:_freebuf.obj
 0001:00012686       _RtlUnwind@16              10013686 f   kernel32:KERNEL32.dll
 0001:0001268c       ?_JumpToContinuation@@YGXPAXPAUEHRegistrationNode@@@Z 1001368c f   LIBCMT:_trnsctrl_.obj
 0001:000126be       ?_CallMemberFunction2@@YGXPAX00H@Z 100136be f   LIBCMT:_trnsctrl_.obj
 0001:000126be       ?_CallMemberFunction0@@YGXPAX0@Z 100136be f   LIBCMT:_trnsctrl_.obj
 0001:000126be       ?_CallMemberFunction1@@YGXPAX00@Z 100136be f   LIBCMT:_trnsctrl_.obj
 0001:000126c5       ?_UnwindNestedFrames@@YGXPAUEHRegistrationNode@@PAUEHExceptionRecord@@@Z 100136c5 f   LIBCMT:_trnsctrl_.obj
 0001:00012719       ___CxxFrameHandler3        10013719 f   LIBCMT:_trnsctrl_.obj
 0001:00012782       ?_CallSETranslator@@YAHPAUEHExceptionRecord@@PAUEHRegistrationNode@@PAX2PBU_s_FuncInfo@@H1@Z 10013782 f   LIBCMT:_trnsctrl_.obj
 0001:000128f8       ?_GetRangeOfTrysToCheck@@YAPBU_s_TryBlockMapEntry@@PBU_s_FuncInfo@@HHPAI1@Z 100138f8 f   LIBCMT:_trnsctrl_.obj
 0001:0001296b       __CreateFrameInfo          1001396b f   LIBCMT:_trnsctrl_.obj
 0001:00012997       __IsExceptionObjectToBeDestroyed 10013997 f   LIBCMT:_trnsctrl_.obj
 0001:000129be       __FindAndUnlinkFrame       100139be f   LIBCMT:_trnsctrl_.obj
 0001:00012a10       ?_CallCatchBlock2@@YAPAXPAUEHRegistrationNode@@PBU_s_FuncInfo@@PAXHK@Z 10013a10 f   LIBCMT:_trnsctrl_.obj
 0001:00012a70       __alldiv                   10013a70 f   LIBCMT:lldiv.obj
 0001:00012b1a       ??1bad_exception@std@@UAE@XZ 10013b1a f i LIBCMT:frame.obj
 0001:00012b25       ??_Ebad_exception@std@@UAEPAXI@Z 10013b25 f i LIBCMT:frame.obj
 0001:00012b25       ??_Gbad_exception@std@@UAEPAXI@Z 10013b25 f i LIBCMT:frame.obj
 0001:00012b4c       ___TypeMatch               10013b4c f   LIBCMT:frame.obj
 0001:00012bab       ___FrameUnwindFilter       10013bab f   LIBCMT:frame.obj
 0001:00012bfa       ___FrameUnwindToState      10013bfa f   LIBCMT:frame.obj
 0001:00012d1b       ___DestructExceptionObject 10013d1b f   LIBCMT:frame.obj
 0001:00012d70       ___AdjustPointer           10013d70 f   LIBCMT:frame.obj
 0001:00012ff4       ___BuildCatchObjectHelper  10013ff4 f   LIBCMT:frame.obj
 0001:00013173       ___BuildCatchObject        10014173 f   LIBCMT:frame.obj
 0001:000136ef       ??0bad_exception@std@@QAE@ABV01@@Z 100146ef f i LIBCMT:frame.obj
 0001:0001370c       ___InternalCxxFrameHandler 1001470c f   LIBCMT:frame.obj
 0001:00013800       __CallSettingFrame@12      10014800 f   LIBCMT:lowhelpr.obj
 0001:00013827       __NLG_Return               10014827     LIBCMT:lowhelpr.obj
 0001:0001384c       __EH_prolog3_catch         1001484c f   LIBCMT:ehprolg3.obj
 0001:00013882       ?_ValidateExecute@@YAHP6GHXZ@Z 10014882 f   LIBCMT:validate.obj
 0001:00013882       ?_ValidateRead@@YAHPBXI@Z  10014882 f   LIBCMT:validate.obj
 0001:00013882       ?_ValidateWrite@@YAHPAXI@Z 10014882 f   LIBCMT:validate.obj
 0002:00000000       __imp__GetDiskFreeSpaceExW@16 10016000     kernel32:KERNEL32.dll
 0002:00000004       __imp__WideCharToMultiByte@32 10016004     kernel32:KERNEL32.dll
 0002:00000008       __imp__GetPrivateProfileSectionNamesW@12 10016008     kernel32:KERNEL32.dll
 0002:0000000c       __imp__GetPrivateProfileSectionW@16 1001600c     kernel32:KERNEL32.dll
 0002:00000010       __imp__FreeLibrary@4       10016010     kernel32:KERNEL32.dll
 0002:00000014       __imp__LoadLibraryExW@12   10016014     kernel32:KERNEL32.dll
 0002:00000018       __imp__GetProcAddress@8    10016018     kernel32:KERNEL32.dll
 0002:0000001c       __imp__lstrcpynW@12        1001601c     kernel32:KERNEL32.dll
 0002:00000020       __imp__FindClose@4         10016020     kernel32:KERNEL32.dll
 0002:00000024       __imp__GetConsoleScreenBufferInfo@8 10016024     kernel32:KERNEL32.dll
 0002:00000028       __imp__FileTimeToSystemTime@8 10016028     kernel32:KERNEL32.dll
 0002:0000002c       __imp__SystemTimeToTzSpecificLocalTime@12 1001602c     kernel32:KERNEL32.dll
 0002:00000030       __imp__SetFileAttributesW@8 10016030     kernel32:KERNEL32.dll
 0002:00000034       __imp__GetConsoleTitleW@8  10016034     kernel32:KERNEL32.dll
 0002:00000038       __imp__SetConsoleTitleW@4  10016038     kernel32:KERNEL32.dll
 0002:0000003c       __imp__GetModuleFileNameW@12 1001603c     kernel32:KERNEL32.dll
 0002:00000040       __imp__MultiByteToWideChar@24 10016040     kernel32:KERNEL32.dll
 0002:00000044       __imp__FindFirstFileW@8    10016044     kernel32:KERNEL32.dll
 0002:00000048       __imp__ReadConsoleInputA@16 10016048     kernel32:KERNEL32.dll
 0002:0000004c       __imp__PeekConsoleInputA@16 1001604c     kernel32:KERNEL32.dll
 0002:00000050       __imp__GetNumberOfConsoleInputEvents@8 10016050     kernel32:KERNEL32.dll
 0002:00000054       __imp__GetStdHandle@4      10016054     kernel32:KERNEL32.dll
 0002:00000058       __imp__CloseHandle@4       10016058     kernel32:KERNEL32.dll
 0002:0000005c       __imp__lstrlenW@4          1001605c     kernel32:KERNEL32.dll
 0002:00000060       __imp__ExitProcess@4       10016060     kernel32:KERNEL32.dll
 0002:00000064       __imp__CreateFileW@28      10016064     kernel32:KERNEL32.dll
 0002:00000068       __imp__WriteConsoleW@20    10016068     kernel32:KERNEL32.dll
 0002:0000006c       __imp__HeapAlloc@12        1001606c     kernel32:KERNEL32.dll
 0002:00000070       __imp__GetLastError@0      10016070     kernel32:KERNEL32.dll
 0002:00000074       __imp__HeapFree@12         10016074     kernel32:KERNEL32.dll
 0002:00000078       __imp__EncodePointer@4     10016078     kernel32:KERNEL32.dll
 0002:0000007c       __imp__DecodePointer@4     1001607c     kernel32:KERNEL32.dll
 0002:00000080       __imp__GetCurrentThreadId@0 10016080     kernel32:KERNEL32.dll
 0002:00000084       __imp__GetCommandLineA@0   10016084     kernel32:KERNEL32.dll
 0002:00000088       __imp__RaiseException@16   10016088     kernel32:KERNEL32.dll
 0002:0000008c       __imp__TerminateProcess@8  1001608c     kernel32:KERNEL32.dll
 0002:00000090       __imp__GetCurrentProcess@0 10016090     kernel32:KERNEL32.dll
 0002:00000094       __imp__UnhandledExceptionFilter@4 10016094     kernel32:KERNEL32.dll
 0002:00000098       __imp__SetUnhandledExceptionFilter@4 10016098     kernel32:KERNEL32.dll
 0002:0000009c       __imp__IsDebuggerPresent@0 1001609c     kernel32:KERNEL32.dll
 0002:000000a0       __imp__IsProcessorFeaturePresent@4 100160a0     kernel32:KERNEL32.dll
 0002:000000a4       __imp__GetModuleHandleW@4  100160a4     kernel32:KERNEL32.dll
 0002:000000a8       __imp__FlushFileBuffers@4  100160a8     kernel32:KERNEL32.dll
 0002:000000ac       __imp__WriteFile@20        100160ac     kernel32:KERNEL32.dll
 0002:000000b0       __imp__HeapCreate@12       100160b0     kernel32:KERNEL32.dll
 0002:000000b4       __imp__HeapDestroy@4       100160b4     kernel32:KERNEL32.dll
 0002:000000b8       __imp__GetCPInfo@8         100160b8     kernel32:KERNEL32.dll
 0002:000000bc       __imp__InterlockedIncrement@4 100160bc     kernel32:KERNEL32.dll
 0002:000000c0       __imp__InterlockedDecrement@4 100160c0     kernel32:KERNEL32.dll
 0002:000000c4       __imp__GetACP@0            100160c4     kernel32:KERNEL32.dll
 0002:000000c8       __imp__GetOEMCP@0          100160c8     kernel32:KERNEL32.dll
 0002:000000cc       __imp__IsValidCodePage@4   100160cc     kernel32:KERNEL32.dll
 0002:000000d0       __imp__TlsAlloc@0          100160d0     kernel32:KERNEL32.dll
 0002:000000d4       __imp__TlsGetValue@4       100160d4     kernel32:KERNEL32.dll
 0002:000000d8       __imp__TlsSetValue@8       100160d8     kernel32:KERNEL32.dll
 0002:000000dc       __imp__TlsFree@4           100160dc     kernel32:KERNEL32.dll
 0002:000000e0       __imp__SetLastError@4      100160e0     kernel32:KERNEL32.dll
 0002:000000e4       __imp__GetStringTypeW@16   100160e4     kernel32:KERNEL32.dll
 0002:000000e8       __imp__Sleep@4             100160e8     kernel32:KERNEL32.dll
 0002:000000ec       __imp__HeapSize@12         100160ec     kernel32:KERNEL32.dll
 0002:000000f0       __imp__SetHandleCount@4    100160f0     kernel32:KERNEL32.dll
 0002:000000f4       __imp__InitializeCriticalSectionAndSpinCount@8 100160f4     kernel32:KERNEL32.dll
 0002:000000f8       __imp__GetFileType@4       100160f8     kernel32:KERNEL32.dll
 0002:000000fc       __imp__GetStartupInfoW@4   100160fc     kernel32:KERNEL32.dll
 0002:00000100       __imp__DeleteCriticalSection@4 10016100     kernel32:KERNEL32.dll
 0002:00000104       __imp__GetModuleFileNameA@12 10016104     kernel32:KERNEL32.dll
 0002:00000108       __imp__FreeEnvironmentStringsW@4 10016108     kernel32:KERNEL32.dll
 0002:0000010c       __imp__GetEnvironmentStringsW@0 1001610c     kernel32:KERNEL32.dll
 0002:00000110       __imp__QueryPerformanceCounter@4 10016110     kernel32:KERNEL32.dll
 0002:00000114       __imp__GetTickCount@0      10016114     kernel32:KERNEL32.dll
 0002:00000118       __imp__GetCurrentProcessId@0 10016118     kernel32:KERNEL32.dll
 0002:0000011c       __imp__GetSystemTimeAsFileTime@4 1001611c     kernel32:KERNEL32.dll
 0002:00000120       __imp__LeaveCriticalSection@4 10016120     kernel32:KERNEL32.dll
 0002:00000124       __imp__EnterCriticalSection@4 10016124     kernel32:KERNEL32.dll
 0002:00000128       __imp__RtlUnwind@16        10016128     kernel32:KERNEL32.dll
 0002:0000012c       __imp__LoadLibraryW@4      1001612c     kernel32:KERNEL32.dll
 0002:00000130       __imp__LCMapStringW@24     10016130     kernel32:KERNEL32.dll
 0002:00000134       __imp__SetFilePointer@16   10016134     kernel32:KERNEL32.dll
 0002:00000138       __imp__GetConsoleCP@0      10016138     kernel32:KERNEL32.dll
 0002:0000013c       __imp__GetConsoleMode@8    1001613c     kernel32:KERNEL32.dll
 0002:00000140       __imp__HeapReAlloc@16      10016140     kernel32:KERNEL32.dll
 0002:00000144       __imp__SetStdHandle@8      10016144     kernel32:KERNEL32.dll
 0002:00000148       \177KERNEL32_NULL_THUNK_DATA 10016148     kernel32:KERNEL32.dll
 0002:0000014c       __imp__SHCreateDirectory@8 1001614c     shell32:SHELL32.dll
 0002:00000150       \177SHELL32_NULL_THUNK_DATA 10016150     shell32:SHELL32.dll
 0002:00000154       __imp__PathMatchSpecW@8    10016154     shlwapi:SHLWAPI.dll
 0002:00000158       \177SHLWAPI_NULL_THUNK_DATA 10016158     shlwapi:SHLWAPI.dll
 0002:0000015c       ___xc_a                    1001615c     LIBCMT:crt0init.obj
 0002:00000164       ___xc_z                    10016164     LIBCMT:crt0init.obj
 0002:00000168       ___xi_a                    10016168     LIBCMT:crt0init.obj
 0002:0000017c       ___xi_z                    1001617c     LIBCMT:crt0init.obj
 0002:00000180       ___xp_a                    10016180     LIBCMT:crt0init.obj
 0002:0000018c       ___xp_z                    1001618c     LIBCMT:crt0init.obj
 0002:00000190       ___xt_a                    10016190     LIBCMT:crt0init.obj
 0002:00000194       ___xt_z                    10016194     LIBCMT:crt0init.obj
 0002:0000019c       ??_7logic_error@std@@6B@   1001619c     libcpmt:xthrow.obj
 0002:000001a8       ??_7length_error@std@@6B@  100161a8     libcpmt:xthrow.obj
 0002:000001b4       ??_7out_of_range@std@@6B@  100161b4     libcpmt:xthrow.obj
 0002:000001c0       ??_7exception@std@@6B@     100161c0     LIBCMT:stdexcpt.obj
 0002:000001c8       ??_C@_0BC@EOODALEL@Unknown?5exception?$AA@ 100161c8     LIBCMT:stdexcpt.obj
 0002:000001e0       ??_7type_info@@6B@         100161e0     LIBCMT:typinfo.obj
 0002:000001e8       ??_7bad_alloc@std@@6B@     100161e8     LIBCMT:new.obj
 0002:000001f0       ??_C@_0P@GHFPNOJB@bad?5allocation?$AA@ 100161f0     LIBCMT:new.obj
 0002:00000200       __pDefaultRawDllMain       10016200     LIBCMT:dllcrt0.obj
 0002:00000200       __pRawDllMain              10016200     LIBCMT:dllcrt0.obj
 0002:0000022c       ??_C@_0P@MIGLKIOC@CorExitProcess?$AA@ 1001622c     LIBCMT:crt0dat.obj
 0002:0000023c       ??_C@_1BI@BGOHAHKC@?$AAm?$AAs?$AAc?$AAo?$AAr?$AAe?$AAe?$AA?4?$AAd?$AAl?$AAl?$AA?$AA@ 1001623c     LIBCMT:crt0dat.obj
 0002:00000254       ??_C@_1BO@BKOMIGKJ@?$AAr?$AAu?$AAn?$AAt?$AAi?$AAm?$AAe?$AA?5?$AAe?$AAr?$AAr?$AAo?$AAr?$AA?5?$AA?$AA@ 10016254     LIBCMT:crt0msg.obj
 0002:00000274       ??_C@_15JNBOKNOG@?$AA?$AN?$AA?6?$AA?$AA@ 10016274     LIBCMT:crt0msg.obj
 0002:0000027c       ??_C@_1BM@JBBEPPHI@?$AAT?$AAL?$AAO?$AAS?$AAS?$AA?5?$AAe?$AAr?$AAr?$AAo?$AAr?$AA?$AN?$AA?6?$AA?$AA@ 1001627c     LIBCMT:crt0msg.obj
 0002:00000298       ??_C@_1BK@KMOMNAAI@?$AAS?$AAI?$AAN?$AAG?$AA?5?$AAe?$AAr?$AAr?$AAo?$AAr?$AA?$AN?$AA?6?$AA?$AA@ 10016298     LIBCMT:crt0msg.obj
 0002:000002b4       ??_C@_1BO@BFCDCGC@?$AAD?$AAO?$AAM?$AAA?$AAI?$AAN?$AA?5?$AAe?$AAr?$AAr?$AAo?$AAr?$AA?$AN?$AA?6?$AA?$AA@ 100162b4     LIBCMT:crt0msg.obj
 0002:000002d8       ??_C@_1BOO@KGEDBGAJ@?$AAR?$AA6?$AA0?$AA3?$AA3?$AA?$AN?$AA?6?$AA?9?$AA?5?$AAA?$AAt?$AAt?$AAe?$AAm?$AAp?$AAt?$AA?5?$AAt?$AAo?$AA?5?$AAu?$AAs?$AAe?$AA?5?$AAM?$AAS?$AAI?$AAL?$AA?5?$AAc?$AAo?$AAd@ 100162d8     LIBCMT:crt0msg.obj
 0002:000004c8       ??_C@_1GG@GOPILAJP@?$AAR?$AA6?$AA0?$AA3?$AA2?$AA?$AN?$AA?6?$AA?9?$AA?5?$AAn?$AAo?$AAt?$AA?5?$AAe?$AAn?$AAo?$AAu?$AAg?$AAh?$AA?5?$AAs?$AAp?$AAa?$AAc?$AAe?$AA?5?$AAf?$AAo?$AAr?$AA?5?$AAl?$AAo@ 100164c8     LIBCMT:crt0msg.obj
 0002:00000530       ??_C@_1MG@ENCOOIDF@?$AAR?$AA6?$AA0?$AA3?$AA1?$AA?$AN?$AA?6?$AA?9?$AA?5?$AAA?$AAt?$AAt?$AAe?$AAm?$AAp?$AAt?$AA?5?$AAt?$AAo?$AA?5?$AAi?$AAn?$AAi?$AAt?$AAi?$AAa?$AAl?$AAi?$AAz?$AAe?$AA?5?$AAt@ 10016530     LIBCMT:crt0msg.obj
 0002:000005f8       ??_C@_1DO@BMFCDCD@?$AAR?$AA6?$AA0?$AA3?$AA0?$AA?$AN?$AA?6?$AA?9?$AA?5?$AAC?$AAR?$AAT?$AA?5?$AAn?$AAo?$AAt?$AA?5?$AAi?$AAn?$AAi?$AAt?$AAi?$AAa?$AAl?$AAi?$AAz?$AAe?$AAd?$AA?$AN?$AA?6?$AA?$AA@ 100165f8     LIBCMT:crt0msg.obj
 0002:00000638       ??_C@_1EK@HHFLMAOL@?$AAR?$AA6?$AA0?$AA2?$AA8?$AA?$AN?$AA?6?$AA?9?$AA?5?$AAu?$AAn?$AAa?$AAb?$AAl?$AAe?$AA?5?$AAt?$AAo?$AA?5?$AAi?$AAn?$AAi?$AAt?$AAi?$AAa?$AAl?$AAi?$AAz?$AAe?$AA?5?$AAh?$AAe@ 10016638     LIBCMT:crt0msg.obj
 0002:00000688       ??_C@_1GK@MFGOKLAG@?$AAR?$AA6?$AA0?$AA2?$AA7?$AA?$AN?$AA?6?$AA?9?$AA?5?$AAn?$AAo?$AAt?$AA?5?$AAe?$AAn?$AAo?$AAu?$AAg?$AAh?$AA?5?$AAs?$AAp?$AAa?$AAc?$AAe?$AA?5?$AAf?$AAo?$AAr?$AA?5?$AAl?$AAo@ 10016688     LIBCMT:crt0msg.obj
 0002:000006f8       ??_C@_1GK@MCAAGJMO@?$AAR?$AA6?$AA0?$AA2?$AA6?$AA?$AN?$AA?6?$AA?9?$AA?5?$AAn?$AAo?$AAt?$AA?5?$AAe?$AAn?$AAo?$AAu?$AAg?$AAh?$AA?5?$AAs?$AAp?$AAa?$AAc?$AAe?$AA?5?$AAf?$AAo?$AAr?$AA?5?$AAs?$AAt@ 100166f8     LIBCMT:crt0msg.obj
 0002:00000768       ??_C@_1EM@MAADIHMB@?$AAR?$AA6?$AA0?$AA2?$AA5?$AA?$AN?$AA?6?$AA?9?$AA?5?$AAp?$AAu?$AAr?$AAe?$AA?5?$AAv?$AAi?$AAr?$AAt?$AAu?$AAa?$AAl?$AA?5?$AAf?$AAu?$AAn?$AAc?$AAt?$AAi?$AAo?$AAn?$AA?5?$AAc@ 10016768     LIBCMT:crt0msg.obj
 0002:000007b8       ??_C@_1GK@FHCKBEFA@?$AAR?$AA6?$AA0?$AA2?$AA4?$AA?$AN?$AA?6?$AA?9?$AA?5?$AAn?$AAo?$AAt?$AA?5?$AAe?$AAn?$AAo?$AAu?$AAg?$AAh?$AA?5?$AAs?$AAp?$AAa?$AAc?$AAe?$AA?5?$AAf?$AAo?$AAr?$AA?5?$AA_?$AAo@ 100167b8     LIBCMT:crt0msg.obj
 0002:00000828       ??_C@_1FC@ECHBIFBC@?$AAR?$AA6?$AA0?$AA1?$AA9?$AA?$AN?$AA?6?$AA?9?$AA?5?$AAu?$AAn?$AAa?$AAb?$AAl?$AAe?$AA?5?$AAt?$AAo?$AA?5?$AAo?$AAp?$AAe?$AAn?$AA?5?$AAc?$AAo?$AAn?$AAs?$AAo?$AAl?$AAe?$AA?5@ 10016828     LIBCMT:crt0msg.obj
 0002:00000880       ??_C@_1EC@JIBHAOPH@?$AAR?$AA6?$AA0?$AA1?$AA8?$AA?$AN?$AA?6?$AA?9?$AA?5?$AAu?$AAn?$AAe?$AAx?$AAp?$AAe?$AAc?$AAt?$AAe?$AAd?$AA?5?$AAh?$AAe?$AAa?$AAp?$AA?5?$AAe?$AAr?$AAr?$AAo?$AAr?$AA?$AN?$AA?6@ 10016880     LIBCMT:crt0msg.obj
 0002:000008c8       ??_C@_1FK@BEOGODMC@?$AAR?$AA6?$AA0?$AA1?$AA7?$AA?$AN?$AA?6?$AA?9?$AA?5?$AAu?$AAn?$AAe?$AAx?$AAp?$AAe?$AAc?$AAt?$AAe?$AAd?$AA?5?$AAm?$AAu?$AAl?$AAt?$AAi?$AAt?$AAh?$AAr?$AAe?$AAa?$AAd?$AA?5@ 100168c8     LIBCMT:crt0msg.obj
 0002:00000928       ??_C@_1FI@LOGNIKDM@?$AAR?$AA6?$AA0?$AA1?$AA6?$AA?$AN?$AA?6?$AA?9?$AA?5?$AAn?$AAo?$AAt?$AA?5?$AAe?$AAn?$AAo?$AAu?$AAg?$AAh?$AA?5?$AAs?$AAp?$AAa?$AAc?$AAe?$AA?5?$AAf?$AAo?$AAr?$AA?5?$AAt?$AAh@ 10016928     LIBCMT:crt0msg.obj
 0002:00000980       ??_C@_1EG@BEHAGFJD@?$AAR?$AA6?$AA0?$AA1?$AA0?$AA?$AN?$AA?6?$AA?9?$AA?5?$AAa?$AAb?$AAo?$AAr?$AAt?$AA?$CI?$AA?$CJ?$AA?5?$AAh?$AAa?$AAs?$AA?5?$AAb?$AAe?$AAe?$AAn?$AA?5?$AAc?$AAa?$AAl?$AAl?$AAe?$AAd@ 10016980     LIBCMT:crt0msg.obj
 0002:000009c8       ??_C@_1FI@HONFMGBI@?$AAR?$AA6?$AA0?$AA0?$AA9?$AA?$AN?$AA?6?$AA?9?$AA?5?$AAn?$AAo?$AAt?$AA?5?$AAe?$AAn?$AAo?$AAu?$AAg?$AAh?$AA?5?$AAs?$AAp?$AAa?$AAc?$AAe?$AA?5?$AAf?$AAo?$AAr?$AA?5?$AAe?$AAn@ 100169c8     LIBCMT:crt0msg.obj
 0002:00000a20       ??_C@_1FE@LLNEDJMD@?$AAR?$AA6?$AA0?$AA0?$AA8?$AA?$AN?$AA?6?$AA?9?$AA?5?$AAn?$AAo?$AAt?$AA?5?$AAe?$AAn?$AAo?$AAu?$AAg?$AAh?$AA?5?$AAs?$AAp?$AAa?$AAc?$AAe?$AA?5?$AAf?$AAo?$AAr?$AA?5?$AAa?$AAr@ 10016a20     LIBCMT:crt0msg.obj
 0002:00000a78       ??_C@_1FK@PGACCAFB@?$AAR?$AA6?$AA0?$AA0?$AA2?$AA?$AN?$AA?6?$AA?9?$AA?5?$AAf?$AAl?$AAo?$AAa?$AAt?$AAi?$AAn?$AAg?$AA?5?$AAp?$AAo?$AAi?$AAn?$AAt?$AA?5?$AAs?$AAu?$AAp?$AAp?$AAo?$AAr?$AAt?$AA?5@ 10016a78     LIBCMT:crt0msg.obj
 0002:00000b88       ??_C@_1EK@MBDPDCGA@?$AAM?$AAi?$AAc?$AAr?$AAo?$AAs?$AAo?$AAf?$AAt?$AA?5?$AAV?$AAi?$AAs?$AAu?$AAa?$AAl?$AA?5?$AAC?$AA?$CL?$AA?$CL?$AA?5?$AAR?$AAu?$AAn?$AAt?$AAi?$AAm?$AAe?$AA?5?$AAL?$AAi?$AAb@ 10016b88     LIBCMT:crt0msg.obj
 0002:00000bd4       ??_C@_15IABLJNFO@?$AA?6?$AA?6?$AA?$AA@ 10016bd4     LIBCMT:crt0msg.obj
 0002:00000bdc       ??_C@_17LGKOMLJ@?$AA?4?$AA?4?$AA?4?$AA?$AA@ 10016bdc     LIBCMT:crt0msg.obj
 0002:00000be4       ??_C@_1CO@EAEJAADC@?$AA?$DM?$AAp?$AAr?$AAo?$AAg?$AAr?$AAa?$AAm?$AA?5?$AAn?$AAa?$AAm?$AAe?$AA?5?$AAu?$AAn?$AAk?$AAn?$AAo?$AAw?$AAn?$AA?$DO?$AA?$AA@ 10016be4     LIBCMT:crt0msg.obj
 0002:00000c14       ??_C@_1DE@JNGNBFGO@?$AAR?$AAu?$AAn?$AAt?$AAi?$AAm?$AAe?$AA?5?$AAE?$AAr?$AAr?$AAo?$AAr?$AA?$CB?$AA?6?$AA?6?$AAP?$AAr?$AAo?$AAg?$AAr?$AAa?$AAm?$AA?3?$AA?5?$AA?$AA@ 10016c14     LIBCMT:crt0msg.obj
 0002:00000c48       ??_C@_1BC@GDGBMEMK@?$AAH?$AAH?$AA?3?$AAm?$AAm?$AA?3?$AAs?$AAs?$AA?$AA@ 10016c48     LIBCMT:nlsdata2.obj
 0002:00000c5c       ??_C@_1CI@KNAKOEBC@?$AAd?$AAd?$AAd?$AAd?$AA?0?$AA?5?$AAM?$AAM?$AAM?$AAM?$AA?5?$AAd?$AAd?$AA?0?$AA?5?$AAy?$AAy?$AAy?$AAy?$AA?$AA@ 10016c5c     LIBCMT:nlsdata2.obj
 0002:00000c84       ??_C@_1BC@IEBCMHCM@?$AAM?$AAM?$AA?1?$AAd?$AAd?$AA?1?$AAy?$AAy?$AA?$AA@ 10016c84     LIBCMT:nlsdata2.obj
 0002:00000c98       ??_C@_15CLMNNGEL@?$AAP?$AAM?$AA?$AA@ 10016c98     LIBCMT:nlsdata2.obj
 0002:00000ca0       ??_C@_15ODEHAHHF@?$AAA?$AAM?$AA?$AA@ 10016ca0     LIBCMT:nlsdata2.obj
 0002:00000ca8       ??_C@_1BC@FEMKIFH@?$AAD?$AAe?$AAc?$AAe?$AAm?$AAb?$AAe?$AAr?$AA?$AA@ 10016ca8     LIBCMT:nlsdata2.obj
 0002:00000cbc       ??_C@_1BC@BGLIFPF@?$AAN?$AAo?$AAv?$AAe?$AAm?$AAb?$AAe?$AAr?$AA?$AA@ 10016cbc     LIBCMT:nlsdata2.obj
 0002:00000cd0       ??_C@_1BA@EPANDLNG@?$AAO?$AAc?$AAt?$AAo?$AAb?$AAe?$AAr?$AA?$AA@ 10016cd0     LIBCMT:nlsdata2.obj
 0002:00000ce0       ??_C@_1BE@DKAAMBJL@?$AAS?$AAe?$AAp?$AAt?$AAe?$AAm?$AAb?$AAe?$AAr?$AA?$AA@ 10016ce0     LIBCMT:nlsdata2.obj
 0002:00000cf4       ??_C@_1O@PAHLKOAC@?$AAA?$AAu?$AAg?$AAu?$AAs?$AAt?$AA?$AA@ 10016cf4     LIBCMT:nlsdata2.obj
 0002:00000d04       ??_C@_19BIFMLPCD@?$AAJ?$AAu?$AAl?$AAy?$AA?$AA@ 10016d04     LIBCMT:nlsdata2.obj
 0002:00000d10       ??_C@_19EPFLPGAP@?$AAJ?$AAu?$AAn?$AAe?$AA?$AA@ 10016d10     LIBCMT:nlsdata2.obj
 0002:00000d1c       ??_C@_1M@GJNLMHFD@?$AAA?$AAp?$AAr?$AAi?$AAl?$AA?$AA@ 10016d1c     LIBCMT:nlsdata2.obj
 0002:00000d28       ??_C@_1M@IKEENEDF@?$AAM?$AAa?$AAr?$AAc?$AAh?$AA?$AA@ 10016d28     LIBCMT:nlsdata2.obj
 0002:00000d34       ??_C@_1BC@JGDDFFAM@?$AAF?$AAe?$AAb?$AAr?$AAu?$AAa?$AAr?$AAy?$AA?$AA@ 10016d34     LIBCMT:nlsdata2.obj
 0002:00000d48       ??_C@_1BA@EFMEIEBA@?$AAJ?$AAa?$AAn?$AAu?$AAa?$AAr?$AAy?$AA?$AA@ 10016d48     LIBCMT:nlsdata2.obj
 0002:00000d58       ??_C@_17EGKACKIF@?$AAD?$AAe?$AAc?$AA?$AA@ 10016d58     LIBCMT:nlsdata2.obj
 0002:00000d60       ??_C@_17BBDMLCIG@?$AAN?$AAo?$AAv?$AA?$AA@ 10016d60     LIBCMT:nlsdata2.obj
 0002:00000d68       ??_C@_17FNLKOI@?$AAO?$AAc?$AAt?$AA?$AA@ 10016d68     LIBCMT:nlsdata2.obj
 0002:00000d70       ??_C@_17HCHCOKMG@?$AAS?$AAe?$AAp?$AA?$AA@ 10016d70     LIBCMT:nlsdata2.obj
 0002:00000d78       ??_C@_17ICPELBCN@?$AAA?$AAu?$AAg?$AA?$AA@ 10016d78     LIBCMT:nlsdata2.obj
 0002:00000d80       ??_C@_17IJPCKHK@?$AAJ?$AAu?$AAl?$AA?$AA@ 10016d80     LIBCMT:nlsdata2.obj
 0002:00000d88       ??_C@_17KCJGOCPB@?$AAJ?$AAu?$AAn?$AA?$AA@ 10016d88     LIBCMT:nlsdata2.obj
 0002:00000d90       ??_C@_17PNNKMEED@?$AAM?$AAa?$AAy?$AA?$AA@ 10016d90     LIBCMT:nlsdata2.obj
 0002:00000d98       ??_C@_17LFPOIHDD@?$AAA?$AAp?$AAr?$AA?$AA@ 10016d98     LIBCMT:nlsdata2.obj
 0002:00000da0       ??_C@_17CKNLEDEC@?$AAM?$AAa?$AAr?$AA?$AA@ 10016da0     LIBCMT:nlsdata2.obj
 0002:00000da8       ??_C@_17LMDJEKJN@?$AAF?$AAe?$AAb?$AA?$AA@ 10016da8     LIBCMT:nlsdata2.obj
 0002:00000db0       ??_C@_17DKNBKCHM@?$AAJ?$AAa?$AAn?$AA?$AA@ 10016db0     LIBCMT:nlsdata2.obj
 0002:00000db8       ??_C@_1BC@ENMNNPAJ@?$AAS?$AAa?$AAt?$AAu?$AAr?$AAd?$AAa?$AAy?$AA?$AA@ 10016db8     LIBCMT:nlsdata2.obj
 0002:00000dcc       ??_C@_1O@PDICJHAG@?$AAF?$AAr?$AAi?$AAd?$AAa?$AAy?$AA?$AA@ 10016dcc     LIBCMT:nlsdata2.obj
 0002:00000ddc       ??_C@_1BC@HHMNLIHE@?$AAT?$AAh?$AAu?$AAr?$AAs?$AAd?$AAa?$AAy?$AA?$AA@ 10016ddc     LIBCMT:nlsdata2.obj
 0002:00000df0       ??_C@_1BE@EBOGMDOH@?$AAW?$AAe?$AAd?$AAn?$AAe?$AAs?$AAd?$AAa?$AAy?$AA?$AA@ 10016df0     LIBCMT:nlsdata2.obj
 0002:00000e04       ??_C@_1BA@ENFBFFEK@?$AAT?$AAu?$AAe?$AAs?$AAd?$AAa?$AAy?$AA?$AA@ 10016e04     LIBCMT:nlsdata2.obj
 0002:00000e14       ??_C@_1O@MMNBFLIA@?$AAM?$AAo?$AAn?$AAd?$AAa?$AAy?$AA?$AA@ 10016e14     LIBCMT:nlsdata2.obj
 0002:00000e24       ??_C@_1O@IHNHDHPB@?$AAS?$AAu?$AAn?$AAd?$AAa?$AAy?$AA?$AA@ 10016e24     LIBCMT:nlsdata2.obj
 0002:00000e34       ??_C@_17GGIBDPIH@?$AAS?$AAa?$AAt?$AA?$AA@ 10016e34     LIBCMT:nlsdata2.obj
 0002:00000e3c       ??_C@_17HFOLPPLP@?$AAF?$AAr?$AAi?$AA?$AA@ 10016e3c     LIBCMT:nlsdata2.obj
 0002:00000e44       ??_C@_17PDPHAADD@?$AAT?$AAh?$AAu?$AA?$AA@ 10016e44     LIBCMT:nlsdata2.obj
 0002:00000e4c       ??_C@_17CJEDCEPE@?$AAW?$AAe?$AAd?$AA?$AA@ 10016e4c     LIBCMT:nlsdata2.obj
 0002:00000e54       ??_C@_17BMKGEGOJ@?$AAT?$AAu?$AAe?$AA?$AA@ 10016e54     LIBCMT:nlsdata2.obj
 0002:00000e5c       ??_C@_17KBOMKBF@?$AAM?$AAo?$AAn?$AA?$AA@ 10016e5c     LIBCMT:nlsdata2.obj
 0002:00000e64       ??_C@_17MBGCMIPB@?$AAS?$AAu?$AAn?$AA?$AA@ 10016e64     LIBCMT:nlsdata2.obj
 0002:00000e6c       ??_C@_08JCCMCCIL@HH?3mm?3ss?$AA@ 10016e6c     LIBCMT:nlsdata2.obj
 0002:00000e78       ??_C@_0BE@CKGJFCPC@dddd?0?5MMMM?5dd?0?5yyyy?$AA@ 10016e78     LIBCMT:nlsdata2.obj
 0002:00000e8c       ??_C@_08BPBNCDIB@MM?1dd?1yy?$AA@ 10016e8c     LIBCMT:nlsdata2.obj
 0002:00000e98       ??_C@_02CJNFDJBF@PM?$AA@   10016e98     LIBCMT:nlsdata2.obj
 0002:00000e9c       ??_C@_02DEDBPAFC@AM?$AA@   10016e9c     LIBCMT:nlsdata2.obj
 0002:00000ea0       ??_C@_08EDHMEBNP@December?$AA@ 10016ea0     LIBCMT:nlsdata2.obj
 0002:00000eac       ??_C@_08HCHEGEOA@November?$AA@ 10016eac     LIBCMT:nlsdata2.obj
 0002:00000eb8       ??_C@_07JJNFCEND@October?$AA@ 10016eb8     LIBCMT:nlsdata2.obj
 0002:00000ec0       ??_C@_09BHHEALKD@September?$AA@ 10016ec0     LIBCMT:nlsdata2.obj
 0002:00000ecc       ??_C@_06LBBHFDDG@August?$AA@ 10016ecc     LIBCMT:nlsdata2.obj
 0002:00000ed4       ??_C@_04MIEPOIFP@July?$AA@ 10016ed4     LIBCMT:nlsdata2.obj
 0002:00000edc       ??_C@_04CNLMGBGM@June?$AA@ 10016edc     LIBCMT:nlsdata2.obj
 0002:00000ee4       ??_C@_05DMJDNLEJ@April?$AA@ 10016ee4     LIBCMT:nlsdata2.obj
 0002:00000eec       ??_C@_05HPCKOFNC@March?$AA@ 10016eec     LIBCMT:nlsdata2.obj
 0002:00000ef4       ??_C@_08GNJGEPFN@February?$AA@ 10016ef4     LIBCMT:nlsdata2.obj
 0002:00000f00       ??_C@_07CGJPFGJA@January?$AA@ 10016f00     LIBCMT:nlsdata2.obj
 0002:00000f08       ??_C@_03MKABNOCG@Dec?$AA@  10016f08     LIBCMT:nlsdata2.obj
 0002:00000f0c       ??_C@_03JPJOFNIA@Nov?$AA@  10016f0c     LIBCMT:nlsdata2.obj
 0002:00000f10       ??_C@_03BMAOKBAD@Oct?$AA@  10016f10     LIBCMT:nlsdata2.obj
 0002:00000f14       ??_C@_03GGCAPAJC@Sep?$AA@  10016f14     LIBCMT:nlsdata2.obj
 0002:00000f18       ??_C@_03IFJFEIGA@Aug?$AA@  10016f18     LIBCMT:nlsdata2.obj
 0002:00000f1c       ??_C@_03LBGABGKK@Jul?$AA@  10016f1c     LIBCMT:nlsdata2.obj
 0002:00000f20       ??_C@_03IDFGHECI@Jun?$AA@  10016f20     LIBCMT:nlsdata2.obj
 0002:00000f24       ??_C@_03CNMDKL@May?$AA@    10016f24     LIBCMT:nlsdata2.obj
 0002:00000f28       ??_C@_03LEOLGMJP@Apr?$AA@  10016f28     LIBCMT:nlsdata2.obj
 0002:00000f2c       ??_C@_03ODNJBKGA@Mar?$AA@  10016f2c     LIBCMT:nlsdata2.obj
 0002:00000f30       ??_C@_03HJBDCHOM@Feb?$AA@  10016f30     LIBCMT:nlsdata2.obj
 0002:00000f34       ??_C@_03JIHJHPIE@Jan?$AA@  10016f34     LIBCMT:nlsdata2.obj
 0002:00000f38       ??_C@_08INBOOONO@Saturday?$AA@ 10016f38     LIBCMT:nlsdata2.obj
 0002:00000f44       ??_C@_06JECMNKMI@Friday?$AA@ 10016f44     LIBCMT:nlsdata2.obj
 0002:00000f4c       ??_C@_08HACCIKIA@Thursday?$AA@ 10016f4c     LIBCMT:nlsdata2.obj
 0002:00000f58       ??_C@_09DLIGFAKA@Wednesday?$AA@ 10016f58     LIBCMT:nlsdata2.obj
 0002:00000f64       ??_C@_07BAAGCFCM@Tuesday?$AA@ 10016f64     LIBCMT:nlsdata2.obj
 0002:00000f6c       ??_C@_06JLEDEDGH@Monday?$AA@ 10016f6c     LIBCMT:nlsdata2.obj
 0002:00000f74       ??_C@_06OOPIFAJ@Sunday?$AA@ 10016f74     LIBCMT:nlsdata2.obj
 0002:00000f7c       ??_C@_03FEFJNEK@Sat?$AA@   10016f7c     LIBCMT:nlsdata2.obj
 0002:00000f80       ??_C@_03IDIOELNC@Fri?$AA@  10016f80     LIBCMT:nlsdata2.obj
 0002:00000f84       ??_C@_03IOFIKPDN@Thu?$AA@  10016f84     LIBCMT:nlsdata2.obj
 0002:00000f88       ??_C@_03MHOMLAJA@Wed?$AA@  10016f88     LIBCMT:nlsdata2.obj
 0002:00000f8c       ??_C@_03NAGEINEP@Tue?$AA@  10016f8c     LIBCMT:nlsdata2.obj
 0002:00000f90       ??_C@_03PDAGKDH@Mon?$AA@   10016f90     LIBCMT:nlsdata2.obj
 0002:00000f94       ??_C@_03KOEHGMDN@Sun?$AA@  10016f94     LIBCMT:nlsdata2.obj
 0002:00000f98       ??_C@_1BK@DBDEIDLH@?$AAK?$AAE?$AAR?$AAN?$AAE?$AAL?$AA3?$AA2?$AA?4?$AAD?$AAL?$AAL?$AA?$AA@ 10016f98     LIBCMT:tidtable.obj
 0002:00000fb4       ??_C@_07PEJMOBNF@FlsFree?$AA@ 10016fb4     LIBCMT:tidtable.obj
 0002:00000fbc       ??_C@_0M@JCPCPOEF@FlsSetValue?$AA@ 10016fbc     LIBCMT:tidtable.obj
 0002:00000fc8       ??_C@_0M@GDNOONDI@FlsGetValue?$AA@ 10016fc8     LIBCMT:tidtable.obj
 0002:00000fd4       ??_C@_08KNHFBNJ@FlsAlloc?$AA@ 10016fd4     LIBCMT:tidtable.obj
 0002:00001060       ??_C@_01NEMOKFLO@?$DN?$AA@ 10017060     LIBCMT:setlocal.obj
 0002:00001062       ??_C@_00CNPNBAHC@?$AA@     10017062     LIBCMT:setlocal.obj
 0002:00001068       __XcptActTab               10017068     LIBCMT:winxfltr.obj
 0002:000010f8       __First_FPE_Indx           100170f8     LIBCMT:winxfltr.obj
 0002:000010fc       __Num_FPE                  100170fc     LIBCMT:winxfltr.obj
 0002:00001100       __XcptActTabSize           10017100     LIBCMT:winxfltr.obj
 0002:00001104       __XcptActTabCount          10017104     LIBCMT:winxfltr.obj
 0002:00001108       ??_C@_0BK@CFCOFLF@?5Complete?5Object?5Locator?8?$AA@ 10017108     LIBCMT:undname.obj
 0002:00001124       ??_C@_0BN@MECKDCOJ@?5Class?5Hierarchy?5Descriptor?8?$AA@ 10017124     LIBCMT:undname.obj
 0002:00001144       ??_C@_0BD@LGICGFMM@?5Base?5Class?5Array?8?$AA@ 10017144     LIBCMT:undname.obj
 0002:00001158       ??_C@_0BM@LDKODKLH@?5Base?5Class?5Descriptor?5at?5?$CI?$AA@ 10017158     LIBCMT:undname.obj
 0002:00001174       ??_C@_0BC@DAFEJGAK@?5Type?5Descriptor?8?$AA@ 10017174     LIBCMT:undname.obj
 0002:00001188       ??_C@_0BM@PMGGMLDN@?$GAlocal?5static?5thread?5guard?8?$AA@ 10017188     LIBCMT:undname.obj
 0002:000011a4       ??_C@_0CL@FGIJHLCE@?$GAmanaged?5vector?5copy?5constructor@ 100171a4     LIBCMT:undname.obj
 0002:000011d0       ??_C@_0CJ@GJELGAMM@?$GAvector?5vbase?5copy?5constructor?5i@ 100171d0     LIBCMT:undname.obj
 0002:000011fc       ??_C@_0CD@CGAJBKEJ@?$GAvector?5copy?5constructor?5iterato@ 100171fc     LIBCMT:undname.obj
 0002:00001220       ??_C@_0CB@PDBIFEP@?$GAdynamic?5atexit?5destructor?5for?5?8@ 10017220     LIBCMT:undname.obj
 0002:00001244       ??_C@_0BL@CLIPGLGB@?$GAdynamic?5initializer?5for?5?8?$AA@ 10017244     LIBCMT:undname.obj
 0002:00001260       ??_C@_0CM@FCBBDIGB@?$GAeh?5vector?5vbase?5copy?5constructo@ 10017260     LIBCMT:undname.obj
 0002:0000128c       ??_C@_0CG@HLDDJMAG@?$GAeh?5vector?5copy?5constructor?5iter@ 1001728c     LIBCMT:undname.obj
 0002:000012b4       ??_C@_0CF@IMGKMJNO@?$GAmanaged?5vector?5destructor?5itera@ 100172b4     LIBCMT:undname.obj
 0002:000012dc       ??_C@_0CG@CFDHKGGD@?$GAmanaged?5vector?5constructor?5iter@ 100172dc     LIBCMT:undname.obj
 0002:00001304       ??_C@_0BN@CKNJLHMB@?$GAplacement?5delete?$FL?$FN?5closure?8?$AA@ 10017304     LIBCMT:undname.obj
 0002:00001324       ??_C@_0BL@CNOONJFP@?$GAplacement?5delete?5closure?8?$AA@ 10017324     LIBCMT:undname.obj
 0002:00001340       ??_C@_0P@HJKNJFNN@?$GAomni?5callsig?8?$AA@ 10017340     LIBCMT:undname.obj
 0002:00001350       ??_C@_09LBNFPBCA@?5delete?$FL?$FN?$AA@ 10017350     LIBCMT:undname.obj
 0002:0000135c       ??_C@_06FHBGPFGH@?5new?$FL?$FN?$AA@ 1001735c     LIBCMT:undname.obj
 0002:00001364       ??_C@_0CE@IIHCMGGL@?$GAlocal?5vftable?5constructor?5closu@ 10017364     LIBCMT:undname.obj
 0002:00001388       ??_C@_0BA@KKLDJDLB@?$GAlocal?5vftable?8?$AA@ 10017388     LIBCMT:undname.obj
 0002:00001398       ??_C@_05KHLCHHI@?$GARTTI?$AA@ 10017398     LIBCMT:undname.obj
 0002:000013a0       ??_C@_03KLGMFNMG@?$GAEH?$AA@ 100173a0     LIBCMT:undname.obj
 0002:000013a4       ??_C@_0BA@KBCDOMBN@?$GAudt?5returning?8?$AA@ 100173a4     LIBCMT:undname.obj
 0002:000013b4       ??_C@_0BL@LLKPOHJI@?$GAcopy?5constructor?5closure?8?$AA@ 100173b4     LIBCMT:undname.obj
 0002:000013d0       ??_C@_0CH@OOJPLCPH@?$GAeh?5vector?5vbase?5constructor?5ite@ 100173d0     LIBCMT:undname.obj
 0002:000013f8       ??_C@_0CA@GCEOPDGL@?$GAeh?5vector?5destructor?5iterator?8?$AA@ 100173f8     LIBCMT:undname.obj
 0002:00001418       ??_C@_0CB@JONCMFFK@?$GAeh?5vector?5constructor?5iterator?8@ 10017418     LIBCMT:undname.obj
 0002:0000143c       ??_C@_0BL@NILFHHPC@?$GAvirtual?5displacement?5map?8?$AA@ 1001743c     LIBCMT:undname.obj
 0002:00001458       ??_C@_0CE@IKBNEHA@?$GAvector?5vbase?5constructor?5iterat@ 10017458     LIBCMT:undname.obj
 0002:0000147c       ??_C@_0BN@LFPFMEDL@?$GAvector?5destructor?5iterator?8?$AA@ 1001747c     LIBCMT:undname.obj
 0002:0000149c       ??_C@_0BO@PFGOCPJJ@?$GAvector?5constructor?5iterator?8?$AA@ 1001749c     LIBCMT:undname.obj
 0002:000014bc       ??_C@_0BN@IMDCHIKM@?$GAscalar?5deleting?5destructor?8?$AA@ 100174bc     LIBCMT:undname.obj
 0002:000014dc       ??_C@_0BO@OBMKPJIG@?$GAdefault?5constructor?5closure?8?$AA@ 100174dc     LIBCMT:undname.obj
 0002:000014fc       ??_C@_0BN@DEGPLNFK@?$GAvector?5deleting?5destructor?8?$AA@ 100174fc     LIBCMT:undname.obj
 0002:0000151c       ??_C@_0BD@JDLKDPAB@?$GAvbase?5destructor?8?$AA@ 1001751c     LIBCMT:undname.obj
 0002:00001530       ??_C@_08OBABFOLI@?$GAstring?8?$AA@ 10017530     LIBCMT:undname.obj
 0002:0000153c       ??_C@_0BF@KDPPACIK@?$GAlocal?5static?5guard?8?$AA@ 1001753c     LIBCMT:undname.obj
 0002:00001554       ??_C@_08LLFFHHDJ@?$GAtypeof?8?$AA@ 10017554     LIBCMT:undname.obj
 0002:00001560       ??_C@_07FEEIOKP@?$GAvcall?8?$AA@ 10017560     LIBCMT:undname.obj
 0002:00001568       ??_C@_09BLBHBJP@?$GAvbtable?8?$AA@ 10017568     LIBCMT:undname.obj
 0002:00001574       ??_C@_09IFPLHPGF@?$GAvftable?8?$AA@ 10017574     LIBCMT:undname.obj
 0002:00001580       ??_C@_02MHEGNOJ@?$FO?$DN?$AA@ 10017580     LIBCMT:undname.obj
 0002:00001584       ??_C@_02DHLNPPGH@?$HM?$DN?$AA@ 10017584     LIBCMT:undname.obj
 0002:00001588       ??_C@_02FGJGFEAB@?$CG?$DN?$AA@ 10017588     LIBCMT:undname.obj
 0002:0000158c       ??_C@_03CDNPDDLA@?$DM?$DM?$DN?$AA@ 1001758c     LIBCMT:undname.obj
 0002:00001590       ??_C@_03IKFCCPFF@?$DO?$DO?$DN?$AA@ 10017590     LIBCMT:undname.obj
 0002:00001594       ??_C@_02FENAOKFI@?$CF?$DN?$AA@ 10017594     LIBCMT:undname.obj
 0002:00001598       ??_C@_02FJEHGPIO@?1?$DN?$AA@ 10017598     LIBCMT:undname.obj
 0002:0000159c       ??_C@_02FKMDLLOA@?9?$DN?$AA@ 1001759c     LIBCMT:undname.obj
 0002:000015a0       ??_C@_02FOEOMHFC@?$CL?$DN?$AA@ 100175a0     LIBCMT:undname.obj
 0002:000015a4       ??_C@_02FPIMKNGF@?$CK?$DN?$AA@ 100175a4     LIBCMT:undname.obj
 0002:000015a8       ??_C@_02NONPIBCD@?$HM?$HM?$AA@ 100175a8     LIBCMT:undname.obj
 0002:000015ac       ??_C@_02PPKAJPJL@?$CG?$CG?$AA@ 100175ac     LIBCMT:undname.obj
 0002:000015b0       ??_C@_01DNKMNLPK@?$HM?$AA@ 100175b0     LIBCMT:undname.obj
 0002:000015b4       ??_C@_01JKBOJNNK@?$FO?$AA@ 100175b4     LIBCMT:undname.obj
 0002:000015b8       ??_C@_01PJKLJHI@?$HO?$AA@  100175b8     LIBCMT:undname.obj
 0002:000015bc       ??_C@_02HCKGKOFO@?$CI?$CJ?$AA@ 100175bc     LIBCMT:undname.obj
 0002:000015c0       ??_C@_01IHBHIGKO@?0?$AA@   100175c0     LIBCMT:undname.obj
 0002:000015c4       ??_C@_02EEKDKGMJ@?$DO?$DN?$AA@ 100175c4     LIBCMT:undname.obj
 0002:000015c8       ??_C@_01PPODPGHN@?$DO?$AA@ 100175c8     LIBCMT:undname.obj
 0002:000015cc       ??_C@_02EHCHHCKH@?$DM?$DN?$AA@ 100175cc     LIBCMT:undname.obj
 0002:000015d0       ??_C@_01MNNFJEPP@?$DM?$AA@ 100175d0     LIBCMT:undname.obj
 0002:000015d4       ??_C@_01FGNFDNOH@?$CF?$AA@ 100175d4     LIBCMT:undname.obj
 0002:000015d8       ??_C@_01KMDKNFGN@?1?$AA@   100175d8     LIBCMT:undname.obj
 0002:000015dc       ??_C@_03MNHNFDLC@?9?$DO?$CK?$AA@ 100175dc     LIBCMT:undname.obj
 0002:000015e0       ??_C@_01HNPIGOCE@?$CG?$AA@ 100175e0     LIBCMT:undname.obj
 0002:000015e4       ??_C@_01MIFGBAGJ@?$CL?$AA@ 100175e4     LIBCMT:undname.obj
 0002:000015e8       ??_C@_01JOAMLHOP@?9?$AA@   100175e8     LIBCMT:undname.obj
 0002:000015ec       ??_C@_02BAABKJLB@?9?9?$AA@ 100175ec     LIBCMT:undname.obj
 0002:000015f0       ??_C@_02ECNGHCIF@?$CL?$CL?$AA@ 100175f0     LIBCMT:undname.obj
 0002:000015f4       ??_C@_01NBENCBCI@?$CK?$AA@ 100175f4     LIBCMT:undname.obj
 0002:000015f8       ??_C@_02HBOOOICD@?9?$DO?$AA@ 100175f8     LIBCMT:undname.obj
 0002:000015fc       ??_C@_08LHJFAFGD@operator?$AA@ 100175fc     LIBCMT:undname.obj
 0002:00001608       ??_C@_02GPECMEKF@?$FL?$FN?$AA@ 10017608     LIBCMT:undname.obj
 0002:0000160c       ??_C@_02FDNJECIE@?$CB?$DN?$AA@ 1001760c     LIBCMT:undname.obj
 0002:00001610       ??_C@_02EGOFBIJA@?$DN?$DN?$AA@ 10017610     LIBCMT:undname.obj
 0002:00001614       ??_C@_01DCLJPIOD@?$CB?$AA@ 10017614     LIBCMT:undname.obj
 0002:00001618       ??_C@_02FODMEDOG@?$DM?$DM?$AA@ 10017618     LIBCMT:undname.obj
 0002:0000161c       ??_C@_02GPIOPFAK@?$DO?$DO?$AA@ 1001761c     LIBCMT:undname.obj
 0002:00001620       ??_C@_07FPCDHGMM@?5delete?$AA@ 10017620     LIBCMT:undname.obj
 0002:00001628       ??_C@_04NIHEBCM@?5new?$AA@ 10017628     LIBCMT:undname.obj
 0002:00001630       ??_C@_0M@GFIIJFMG@__unaligned?$AA@ 10017630     LIBCMT:undname.obj
 0002:0000163c       ??_C@_0L@PILCLIHE@__restrict?$AA@ 1001763c     LIBCMT:undname.obj
 0002:00001648       ??_C@_07JOMMBBKO@__ptr64?$AA@ 10017648     LIBCMT:undname.obj
 0002:00001650       ??_C@_06GHPCKEAG@__eabi?$AA@ 10017650     LIBCMT:undname.obj
 0002:00001658       ??_C@_09HIJEGCPM@__clrcall?$AA@ 10017658     LIBCMT:undname.obj
 0002:00001664       ??_C@_0L@JMKHOMEK@__fastcall?$AA@ 10017664     LIBCMT:undname.obj
 0002:00001670       ??_C@_0L@NPHFGOKO@__thiscall?$AA@ 10017670     LIBCMT:undname.obj
 0002:0000167c       ??_C@_09IFJBGAPI@__stdcall?$AA@ 1001767c     LIBCMT:undname.obj
 0002:00001688       ??_C@_08GHMPAG@__pascal?$AA@ 10017688     LIBCMT:undname.obj
 0002:00001694       ??_C@_07KOLFKCDI@__cdecl?$AA@ 10017694     LIBCMT:undname.obj
 0002:0000169c       ??_C@_08EHJDFFNH@__based?$CI?$AA@ 1001769c     LIBCMT:undname.obj
 0002:0000182c       ??_C@_0BI@DFKBFLJE@GetProcessWindowStation?$AA@ 1001782c     LIBCMT:crtmboxw.obj
 0002:00001844       ??_C@_0BK@DEKFELLI@GetUserObjectInformationW?$AA@ 10017844     LIBCMT:crtmboxw.obj
 0002:00001860       ??_C@_0BD@HHGDFDBJ@GetLastActivePopup?$AA@ 10017860     LIBCMT:crtmboxw.obj
 0002:00001874       ??_C@_0BA@HNOPNCHB@GetActiveWindow?$AA@ 10017874     LIBCMT:crtmboxw.obj
 0002:00001884       ??_C@_0M@DLDCCGNP@MessageBoxW?$AA@ 10017884     LIBCMT:crtmboxw.obj
 0002:00001890       ??_C@_1BG@GOEBHBDC@?$AAU?$AAS?$AAE?$AAR?$AA3?$AA2?$AA?4?$AAD?$AAL?$AAL?$AA?$AA@ 10017890     LIBCMT:crtmboxw.obj
 0002:000018a8       ___newctype                100178a8     LIBCMT:ctype.obj
 0002:00001ba8       __wctype                   10017ba8     LIBCMT:ctype.obj
 0002:00001db0       ___newclmap                10017db0     LIBCMT:ctype.obj
 0002:00001f30       ___newcumap                10017f30     LIBCMT:ctype.obj
 0002:000020b0       ??_C@_1O@CEDCILHN@?$AA?$CI?$AAn?$AAu?$AAl?$AAl?$AA?$CJ?$AA?$AA@ 100180b0     LIBCMT:output.obj
 0002:000020c0       ??_C@_06OJHGLDPL@?$CInull?$CJ?$AA@ 100180c0     LIBCMT:output.obj
 0002:000020c8       ___lookuptable             100180c8     LIBCMT:output.obj
 0002:00002128       ___lookuptable_s           10018128     LIBCMT:outputs.obj
 0002:00002184       ??_C@_1BA@BALFACEM@?$AAC?$AAO?$AAN?$AAO?$AAU?$AAT?$AA$?$AA?$AA@ 10018184     LIBCMT:initcon.obj
 0002:00002194       ??_C@_13FPGAJAPJ@?$AA?2?$AA?$AA@ 10018194     CommonFunc.obj
 0002:00002198       ??_C@_0BD@OLBABOEK@vector?$DMT?$DO?5too?5long?$AA@ 10018198     CommonFunc.obj
 0002:000021ac       ??_C@_0BI@CFPLBAOH@invalid?5string?5position?$AA@ 100181ac     CommonFunc.obj
 0002:000021c4       ??_C@_0BA@JFNIOLAK@string?5too?5long?$AA@ 100181c4     CommonFunc.obj
 0002:000021d4       ??_C@_13NMPKAAJP@?$AA?$DN?$AA?$AA@ 100181d4     Config.obj
 0002:000021d8       ??_C@_0BM@PAPJHAGI@invalid?5map?1set?$DMT?$DO?5iterator?$AA@ 100181d8     Config.obj
 0002:000021f4       ??_C@_0BE@JONHPENG@map?1set?$DMT?$DO?5too?5long?$AA@ 100181f4     Config.obj
 0002:00002208       ??_C@_13JOFGPIOO@?$AA?4?$AA?$AA@ 10018208     ContentStructures.obj
 0002:0000220c       ??_C@_15DDHGOCBH@?$AA?4?$AA?4?$AA?$AA@ 1001820c     ContentStructures.obj
 0002:00002214       ??_C@_1BC@KKOOOEAK@?$AA?$CF?$AAs?$AA?0?$AA?$CF?$AAd?$AA?4?$AA?$CF?$AAs?$AA?$AA@ 10018214     ContentStructures.obj
 0002:00002228       ??_C@_1M@FEDKCICL@?$AA?$CF?$AAs?$AA?0?$AA?$CF?$AAd?$AA?$AA@ 10018228     ContentStructures.obj
 0002:00002234       ??_C@_13PJJBFPED@?$AA?$DL?$AA?$AA@ 10018234     ModulesController.obj
 0002:00002238       ??_C@_1BA@HDPKAGBC@?$AAM?$AAo?$AAd?$AAu?$AAl?$AAe?$AAs?$AA?$AA@ 10018238     ModulesController.obj
 0002:00002248       ??_C@_1BA@DJLBFCNB@?$AAF?$AAi?$AAl?$AAt?$AAe?$AAr?$AAs?$AA?$AA@ 10018248     ModulesController.obj
 0002:00002258       ??_C@_11LOCGONAA@?$AA?$AA@ 10018258     ModulesController.obj
 0002:0000225c       ??_C@_19LJDFFCJJ@?$AA?$CF?$AAs?$AA?$CF?$AAs?$AA?$AA@ 1001825c     ModulesController.obj
 0002:00002268       ??_C@_0O@PAMCLDPG@LoadSubModule?$AA@ 10018268     ModulesController.obj
 0002:00002278       ??_C@_0BA@BNOLLBFI@UnloadSubModule?$AA@ 10018278     ModulesController.obj
 0002:00002288       ??_C@_15EFLNJKHH@?$AA?$CF?$AAu?$AA?$AA@ 10018288     ObserverUni3.obj
 0002:00002290       _OBSERVER_GUID             10018290     ObserverUni3.obj
 0002:000022a0       _GUID_OBS_INFO_MENU        100182a0     ObserverUni3.obj
 0002:000022b0       _GUID_OBS_INFO_CONFIG      100182b0     ObserverUni3.obj
 0002:000022c0       _GUID_OBS_MESSAGE_BOX      100182c0     ObserverUni3.obj
 0002:000022d0       _GUID_OBS_ERROR_MESSAGE    100182d0     ObserverUni3.obj
 0002:000022e0       _GUID_OBS_CONFIG_DIALOG    100182e0     ObserverUni3.obj
 0002:000022f0       _GUID_OBS_MENU             100182f0     ObserverUni3.obj
 0002:00002300       _GUID_OBS_INPUTBOX         10018300     ObserverUni3.obj
 0002:00002310       _GUID_OBS_OTHER_DIALOG     10018310     ObserverUni3.obj
 0002:00002320       ??_C@_1BA@GCDNCJOK@?$AAG?$AAe?$AAn?$AAe?$AAr?$AAa?$AAl?$AA?$AA@ 10018320     ObserverUni3.obj
 0002:00002330       ??_C@_1CE@LOGKNCAG@?$AAP?$AAa?$AAn?$AAe?$AAl?$AAH?$AAe?$AAa?$AAd?$AAe?$AAr?$AAP?$AAr?$AAe?$AAf?$AAi?$AAx?$AA?$AA@ 10018330     ObserverUni3.obj
 0002:00002354       ??_C@_1CI@IMMFCKON@?$AAU?$AAs?$AAe?$AAE?$AAx?$AAt?$AAe?$AAn?$AAs?$AAi?$AAo?$AAn?$AAF?$AAi?$AAl?$AAt?$AAe?$AAr?$AAs?$AA?$AA@ 10018354     ObserverUni3.obj
 0002:0000237c       ??_C@_1BA@NPJPKIM@?$AAE?$AAn?$AAa?$AAb?$AAl?$AAe?$AAd?$AA?$AA@ 1001837c     ObserverUni3.obj
 0002:0000238c       ??_C@_1BE@CBCIMCPK@?$AAU?$AAs?$AAe?$AAP?$AAr?$AAe?$AAf?$AAi?$AAx?$AA?$AA@ 1001838c     ObserverUni3.obj
 0002:000023a0       ??_C@_1O@GBAEOCCH@?$AAP?$AAr?$AAe?$AAf?$AAi?$AAx?$AA?$AA@ 100183a0     ObserverUni3.obj
 0002:000023b0       ??_C@_1EK@KOIHAIAF@?$AAF?$AAi?$AAl?$AAe?$AA?3?$AA?5?$AA?$CF?$AAd?$AA?1?$AA?$CF?$AAd?$AA?4?$AA?5?$AAP?$AAr?$AAo?$AAg?$AAr?$AAe?$AAs?$AAs?$AA?3?$AA?5?$AA?$CF?$AA2?$AAd?$AA?$CF?$AA?$CF?$AA?5?$AA?1?$AA?5?$AA?$CF@ 100183b0     ObserverUni3.obj
 0002:000023fc       ??_C@_1M@BLGDOOIB@?$AAR?$AAe?$AAt?$AAr?$AAy?$AA?$AA@ 100183fc     ObserverUni3.obj
 0002:00002408       ??_C@_1CE@DAAGCMJL@?$AAL?$AAa?$AAs?$AAt?$AA?5?$AAM?$AAo?$AAd?$AAi?$AAf?$AAi?$AAc?$AAa?$AAt?$AAi?$AAo?$AAn?$AA?$AA@ 10018408     ObserverUni3.obj
 0002:0000242c       ??_C@_19CHLDDIME@?$AAS?$AAi?$AAz?$AAe?$AA?$AA@ 1001842c     ObserverUni3.obj
 0002:00002438       ??_C@_1BC@KKCNIFFC@?$AA?$CF?$AA2?$AA1?$AAs?$AA?5?$AA?5?$AA?$CF?$AAs?$AA?$AA@ 10018438     ObserverUni3.obj
 0002:00002450       ??_C@_1FA@HKAOLNFJ@?$AAO?$AAl?$AAd?$AA?5?$AAf?$AAi?$AAl?$AAe?$AA?3?$AA?5?$AA?$CF?$AA1?$AA1?$AAu?$AA?5?$AA?5?$AA?$CF?$AA5?$AAu?$AA?9?$AA?$CF?$AA0?$AA2?$AAu?$AA?9?$AA?$CF?$AA0?$AA2?$AAu?$AA?5?$AA?$CF?$AA0@ 10018450     ObserverUni3.obj
 0002:000024a0       ??_C@_1FA@NLPGHAOL@?$AAN?$AAe?$AAw?$AA?5?$AAf?$AAi?$AAl?$AAe?$AA?3?$AA?5?$AA?$CF?$AA1?$AA1?$AAu?$AA?5?$AA?5?$AA?$CF?$AA5?$AAu?$AA?9?$AA?$CF?$AA0?$AA2?$AAu?$AA?9?$AA?$CF?$AA0?$AA2?$AAu?$AA?5?$AA?$CF?$AA0@ 100184a0     ObserverUni3.obj
 0002:000024f0       ??_C@_1DG@COIOKKBC@?$AAE?$AAx?$AAt?$AAr?$AAa?$AAc?$AAt?$AAi?$AAn?$AAg?$AA?5?$AAF?$AAi?$AAl?$AAe?$AAs?$AA?5?$AA?$CI?$AA?$CF?$AAd?$AA?5?$AA?1?$AA?5?$AA?$CF?$AAd?$AA?$CJ?$AA?$AA@ 100184f0     ObserverUni3.obj
 0002:00002528       ??_C@_1CA@IMCMOAPM@?$AAO?$AAb?$AAs?$AAe?$AAr?$AAv?$AAe?$AAr?$AAE?$AAx?$AAt?$AAr?$AAa?$AAc?$AAt?$AA?$AA@ 10018528     ObserverUni3.obj
 0002:00002548       ??_C@_1BC@ENIEPKJE@?$AAO?$AAb?$AAs?$AAe?$AAr?$AAv?$AAe?$AAr?$AA?$AA@ 10018548     ObserverUni3.obj
 0002:0000255c       ??_C@_1CI@DDPNJPGE@?$AAC?$AAo?$AAn?$AAt?$AAa?$AAi?$AAn?$AAe?$AAr?$AA?5?$AAE?$AAx?$AAt?$AAr?$AAa?$AAc?$AAt?$AAo?$AAr?$AA?$AA@ 1001855c     ObserverUni3.obj
 0002:00002584       ??_C@_1O@EEMOEJML@?$AAA?$AAr?$AAi?$AAm?$AAa?$AAn?$AA?$AA@ 10018584     ObserverUni3.obj
 0002:00002594       ??_C@_1BK@CLLDPLEL@?$AAo?$AAb?$AAs?$AAe?$AAr?$AAv?$AAe?$AAr?$AA?4?$AAi?$AAn?$AAi?$AA?$AA@ 10018594     ObserverUni3.obj
 0002:000025b0       ??_C@_1CE@JIMMPEIP@?$AAo?$AAb?$AAs?$AAe?$AAr?$AAv?$AAe?$AAr?$AA_?$AAu?$AAs?$AAe?$AAr?$AA?4?$AAi?$AAn?$AAi?$AA?$AA@ 100185b0     ObserverUni3.obj
 0002:000025d4       ??_C@_1BO@PDDIOGCE@?$AAO?$AAb?$AAs?$AAe?$AAr?$AAv?$AAe?$AAr?$AAC?$AAo?$AAn?$AAf?$AAi?$AAg?$AA?$AA@ 100185d4     ObserverUni3.obj
 0002:000025f4       ??_C@_1BA@EPCGMCGO@?$AA?$CF?$AAs?$AA?$CF?$AAs?$AA?3?$AA?$CF?$AAs?$AA?$AA@ 100185f4     ObserverUni3.obj
 0002:00002604       ??_C@_1BO@MMOBIDBB@?$AA?$CF?$AA0?$AA4?$AAd?$AA?9?$AA?$CF?$AA0?$AA2?$AAd?$AA?9?$AA?$CF?$AA0?$AA2?$AAd?$AA?$AA@ 10018604     ObserverUni3.obj
 0002:00002624       ??_C@_13IMODFHAA@?$AA?9?$AA?$AA@ 10018624     ObserverUni3.obj
 0002:0000262c       ??_7PluginDialogBuilder@@6B@ 1001862c     ObserverUni3.obj
 0002:00002650       ??_7?$DialogItemBinding@UFarDialogItem@@@@6B@ 10018650     ObserverUni3.obj
 0002:0000265c       ??_7PluginCheckBoxBinding@@6B@ 1001865c     ObserverUni3.obj
 0002:00002668       ??_7PluginRadioButtonBinding@@6B@ 10018668     ObserverUni3.obj
 0002:00002674       ??_7PluginEditFieldBinding@@6B@ 10018674     ObserverUni3.obj
 0002:00002680       ??_7PluginIntEditFieldBinding@@6B@ 10018680     ObserverUni3.obj
 0002:0000268c       ??_7?$DialogBuilderBase@UFarDialogItem@@@@6B@ 1001868c     ObserverUni3.obj
 0002:000026ac       __pDestructExceptionObject 100186ac     LIBCMT:frame.obj
 0002:000026b4       ??_7bad_exception@std@@6B@ 100186b4     LIBCMT:frame.obj
 0002:000026bc       ??_C@_0O@DPKOEFFH@bad?5exception?$AA@ 100186bc     LIBCMT:frame.obj
 0002:000026d0       __load_config_used         100186d0     LIBCMT:loadcfg.obj
 0002:00002718       ??_R4logic_error@std@@6B@  10018718     libcpmt:xthrow.obj
 0002:0000272c       ??_R3logic_error@std@@8    1001872c     libcpmt:xthrow.obj
 0002:0000273c       ??_R2logic_error@std@@8    1001873c     libcpmt:xthrow.obj
 0002:00002748       ??_R1A@?0A@EA@logic_error@std@@8 10018748     libcpmt:xthrow.obj
 0002:00002764       ??_R4length_error@std@@6B@ 10018764     libcpmt:xthrow.obj
 0002:00002778       ??_R3length_error@std@@8   10018778     libcpmt:xthrow.obj
 0002:00002788       ??_R2length_error@std@@8   10018788     libcpmt:xthrow.obj
 0002:00002798       ??_R1A@?0A@EA@length_error@std@@8 10018798     libcpmt:xthrow.obj
 0002:000027b4       ??_R4out_of_range@std@@6B@ 100187b4     libcpmt:xthrow.obj
 0002:000027c8       ??_R3out_of_range@std@@8   100187c8     libcpmt:xthrow.obj
 0002:000027d8       ??_R2out_of_range@std@@8   100187d8     libcpmt:xthrow.obj
 0002:000027e8       ??_R1A@?0A@EA@out_of_range@std@@8 100187e8     libcpmt:xthrow.obj
 0002:00002804       ??_R4exception@std@@6B@    10018804     LIBCMT:stdexcpt.obj
 0002:00002818       ??_R4type_info@@6B@        10018818     LIBCMT:typinfo.obj
 0002:0000282c       ??_R3type_info@@8          1001882c     LIBCMT:typinfo.obj
 0002:0000283c       ??_R2type_info@@8          1001883c     LIBCMT:typinfo.obj
 0002:00002844       ??_R1A@?0A@EA@type_info@@8 10018844     LIBCMT:typinfo.obj
 0002:00002860       ??_R4bad_alloc@std@@6B@    10018860     CommonFunc.obj
 0002:00002874       ??_R3bad_alloc@std@@8      10018874     CommonFunc.obj
 0002:00002884       ??_R2bad_alloc@std@@8      10018884     CommonFunc.obj
 0002:00002890       ??_R1A@?0A@EA@exception@std@@8 10018890     CommonFunc.obj
 0002:000028ac       ??_R3exception@std@@8      100188ac     CommonFunc.obj
 0002:000028bc       ??_R2exception@std@@8      100188bc     CommonFunc.obj
 0002:000028c4       ??_R1A@?0A@EA@bad_alloc@std@@8 100188c4     CommonFunc.obj
 0002:000028e0       ??_R4?$DialogBuilderBase@UFarDialogItem@@@@6B@ 100188e0     ObserverUni3.obj
 0002:000028f4       ??_R4PluginIntEditFieldBinding@@6B@ 100188f4     ObserverUni3.obj
 0002:00002908       ??_R3PluginIntEditFieldBinding@@8 10018908     ObserverUni3.obj
 0002:00002918       ??_R2PluginIntEditFieldBinding@@8 10018918     ObserverUni3.obj
 0002:00002928       ??_R1A@?0A@EA@PluginIntEditFieldBinding@@8 10018928     ObserverUni3.obj
 0002:00002944       ??_R4PluginEditFieldBinding@@6B@ 10018944     ObserverUni3.obj
 0002:00002958       ??_R3PluginEditFieldBinding@@8 10018958     ObserverUni3.obj
 0002:00002968       ??_R2PluginEditFieldBinding@@8 10018968     ObserverUni3.obj
 0002:00002978       ??_R1A@?0A@EA@PluginEditFieldBinding@@8 10018978     ObserverUni3.obj
 0002:00002994       ??_R4PluginRadioButtonBinding@@6B@ 10018994     ObserverUni3.obj
 0002:000029a8       ??_R3PluginRadioButtonBinding@@8 100189a8     ObserverUni3.obj
 0002:000029b8       ??_R2PluginRadioButtonBinding@@8 100189b8     ObserverUni3.obj
 0002:000029c8       ??_R1A@?0A@EA@PluginRadioButtonBinding@@8 100189c8     ObserverUni3.obj
 0002:000029e4       ??_R4PluginCheckBoxBinding@@6B@ 100189e4     ObserverUni3.obj
 0002:000029f8       ??_R3PluginCheckBoxBinding@@8 100189f8     ObserverUni3.obj
 0002:00002a08       ??_R2PluginCheckBoxBinding@@8 10018a08     ObserverUni3.obj
 0002:00002a18       ??_R1A@?0A@EA@PluginCheckBoxBinding@@8 10018a18     ObserverUni3.obj
 0002:00002a34       ??_R4?$DialogItemBinding@UFarDialogItem@@@@6B@ 10018a34     ObserverUni3.obj
 0002:00002a48       ??_R3DialogAPIBinding@@8   10018a48     ObserverUni3.obj
 0002:00002a58       ??_R2DialogAPIBinding@@8   10018a58     ObserverUni3.obj
 0002:00002a64       ??_R1A@?0A@EA@?$DialogItemBinding@UFarDialogItem@@@@8 10018a64     ObserverUni3.obj
 0002:00002a80       ??_R3?$DialogItemBinding@UFarDialogItem@@@@8 10018a80     ObserverUni3.obj
 0002:00002a90       ??_R2?$DialogItemBinding@UFarDialogItem@@@@8 10018a90     ObserverUni3.obj
 0002:00002a98       ??_R1A@?0A@EA@DialogAPIBinding@@8 10018a98     ObserverUni3.obj
 0002:00002ab4       ??_R4PluginDialogBuilder@@6B@ 10018ab4     ObserverUni3.obj
 0002:00002ac8       ??_R3PluginDialogBuilder@@8 10018ac8     ObserverUni3.obj
 0002:00002ad8       ??_R2PluginDialogBuilder@@8 10018ad8     ObserverUni3.obj
 0002:00002ae4       ??_R1A@?0A@EA@?$DialogBuilderBase@UFarDialogItem@@@@8 10018ae4     ObserverUni3.obj
 0002:00002b00       ??_R3?$DialogBuilderBase@UFarDialogItem@@@@8 10018b00     ObserverUni3.obj
 0002:00002b10       ??_R2?$DialogBuilderBase@UFarDialogItem@@@@8 10018b10     ObserverUni3.obj
 0002:00002b18       ??_R1A@?0A@EA@PluginDialogBuilder@@8 10018b18     ObserverUni3.obj
 0002:00002b34       ??_R4bad_exception@std@@6B@ 10018b34     LIBCMT:frame.obj
 0002:00002b48       ??_R3bad_exception@std@@8  10018b48     LIBCMT:frame.obj
 0002:00002b58       ??_R2bad_exception@std@@8  10018b58     LIBCMT:frame.obj
 0002:00002b64       ??_R1A@?0A@EA@bad_exception@std@@8 10018b64     LIBCMT:frame.obj
 0002:00002b80       ___safe_se_handler_table   10018b80     <linker-defined>
 0002:00002c78       ___rtc_iaa                 10018c78     LIBCMT:_initsect_.obj
 0002:00002c7c       ___rtc_izz                 10018c7c     LIBCMT:_initsect_.obj
 0002:00002c80       ___rtc_taa                 10018c80     LIBCMT:_initsect_.obj
 0002:00002c84       ___rtc_tzz                 10018c84     LIBCMT:_initsect_.obj
 0002:00002c88       __CT??_R0?AVlogic_error@std@@@8??0logic_error@std@@QAE@ABV01@@Z12 10018c88     libcpmt:xthrow.obj
 0002:00002ca4       __TI3?AVlength_error@std@@ 10018ca4     libcpmt:xthrow.obj
 0002:00002cb4       __CTA3?AVlength_error@std@@ 10018cb4     libcpmt:xthrow.obj
 0002:00002cc4       __CT??_R0?AVlength_error@std@@@8??0length_error@std@@QAE@ABV01@@Z12 10018cc4     libcpmt:xthrow.obj
 0002:00002ce0       __TI3?AVout_of_range@std@@ 10018ce0     libcpmt:xthrow.obj
 0002:00002cf0       __CTA3?AVout_of_range@std@@ 10018cf0     libcpmt:xthrow.obj
 0002:00002d00       __CT??_R0?AVout_of_range@std@@@8??0out_of_range@std@@QAE@ABV01@@Z12 10018d00     libcpmt:xthrow.obj
 0002:00003014       __CT??_R0?AVexception@std@@@8??0exception@std@@QAE@ABV01@@Z12 10019014     CommonFunc.obj
 0002:00003030       __CT??_R0?AVbad_alloc@std@@@8??0bad_alloc@std@@QAE@ABV01@@Z12 10019030     CommonFunc.obj
 0002:0000304c       __CTA2?AVbad_alloc@std@@   1001904c     CommonFunc.obj
 0002:00003058       __TI2?AVbad_alloc@std@@    10019058     CommonFunc.obj
 0002:00003eb4       __TI2?AVbad_exception@std@@ 10019eb4     LIBCMT:frame.obj
 0002:00003ec4       __CTA2?AVbad_exception@std@@ 10019ec4     LIBCMT:frame.obj
 0002:00003ed0       __CT??_R0?AVbad_exception@std@@@8??0bad_exception@std@@QAE@ABV01@@Z12 10019ed0     LIBCMT:frame.obj
 0002:00003eec       __IMPORT_DESCRIPTOR_SHLWAPI 10019eec     shlwapi:SHLWAPI.dll
 0002:00003f00       __IMPORT_DESCRIPTOR_KERNEL32 10019f00     kernel32:KERNEL32.dll
 0002:00003f14       __IMPORT_DESCRIPTOR_SHELL32 10019f14     shell32:SHELL32.dll
 0002:00003f28       __NULL_IMPORT_DESCRIPTOR   10019f28     shlwapi:SHLWAPI.dll
 0003:00000000       ??_R0?AVlogic_error@std@@@8 1001b000     libcpmt:xthrow.obj
 0003:00000020       ??_R0?AVlength_error@std@@@8 1001b020     libcpmt:xthrow.obj
 0003:00000040       ??_R0?AVout_of_range@std@@@8 1001b040     libcpmt:xthrow.obj
 0003:00000060       ??_R0?AVtype_info@@@8      1001b060     LIBCMT:typinfo.obj
 0003:000001f0       ___security_cookie         1001b1f0     LIBCMT:gs_cookie.obj
 0003:000001f4       ___security_cookie_complement 1001b1f4     LIBCMT:gs_cookie.obj
 0003:00000200       ___initialmbcinfo          1001b200     LIBCMT:mbctype.obj
 0003:00000420       __mbctype                  1001b420     LIBCMT:mbctype.obj
 0003:00000528       __mbcasemap                1001b528     LIBCMT:mbctype.obj
 0003:00000628       ___ptmbcinfo               1001b628     LIBCMT:mbctype.obj
 0003:00000720       ___globallocalestatus      1001b720     LIBCMT:glstatus.obj
 0003:00000724       ___clocalestr              1001b724     LIBCMT:nlsdata2.obj
 0003:00000728       ___lc_time_c               1001b728     LIBCMT:nlsdata2.obj
 0003:00000890       ___initiallocinfo          1001b890     LIBCMT:nlsdata2.obj
 0003:00000968       ___ptlocinfo               1001b968     LIBCMT:nlsdata2.obj
 0003:0000096c       ___flsindex                1001b96c     LIBCMT:tidtable.obj
 0003:00000970       ___getvalueindex           1001b970     LIBCMT:tidtable.obj
 0003:00000980       ___badioinfo               1001b980     LIBCMT:ioinit.obj
 0003:00000ae0       __cfltcvt_tab              1001bae0     LIBCMT:cmiscdat.obj
 0003:00000b10       ___lconv_static_decimal    1001bb10     LIBCMT:lconv.obj
 0003:00000b14       ___lconv_static_W_decimal  1001bb14     LIBCMT:lconv.obj
 0003:00000b18       ___lconv_c                 1001bb18     LIBCMT:lconv.obj
 0003:00000b68       ___lconv                   1001bb68     LIBCMT:lconv.obj
 0003:00000b6c       __pctype                   1001bb6c     LIBCMT:ctype.obj
 0003:00000b70       __pwctype                  1001bb70     LIBCMT:ctype.obj
 0003:00000b74       ___mb_cur_max              1001bb74     LIBCMT:nlsdata1.obj
 0003:00000b78       ___decimal_point           1001bb78     LIBCMT:nlsdata1.obj
 0003:00000b7c       ___decimal_point_length    1001bb7c     LIBCMT:nlsdata1.obj
 0003:00000b80       __iob                      1001bb80     LIBCMT:_file.obj
 0003:00000e00       ___nullstring              1001be00     LIBCMT:output.obj
 0003:00000e04       ___wnullstring             1001be04     LIBCMT:output.obj
 0003:00000e10       __NLG_Destination          1001be10     LIBCMT:exsup.obj
 0003:00000e20       ___abort_behavior          1001be20     LIBCMT:abort.obj
 0003:00000e30       __confh                    1001be30     LIBCMT:initcon.obj
 0003:00000e40       ??_R0?AVexception@std@@@8  1001be40     CommonFunc.obj
 0003:00000e5c       ??_R0?AVbad_alloc@std@@@8  1001be5c     CommonFunc.obj
 0003:00000e78       ??_R0?AVPluginIntEditFieldBinding@@@8 1001be78     ObserverUni3.obj
 0003:00000ea0       ??_R0?AVPluginEditFieldBinding@@@8 1001bea0     ObserverUni3.obj
 0003:00000ec8       ??_R0?AVPluginRadioButtonBinding@@@8 1001bec8     ObserverUni3.obj
 0003:00000ef0       ??_R0?AVPluginCheckBoxBinding@@@8 1001bef0     ObserverUni3.obj
 0003:00000f14       ??_R0?AU?$DialogItemBinding@UFarDialogItem@@@@@8 1001bf14     ObserverUni3.obj
 0003:00000f48       ??_R0?AVDialogAPIBinding@@@8 1001bf48     ObserverUni3.obj
 0003:00000f68       ??_R0?AV?$DialogBuilderBase@UFarDialogItem@@@@@8 1001bf68     ObserverUni3.obj
 0003:00000f9c       ??_R0?AVPluginDialogBuilder@@@8 1001bf9c     ObserverUni3.obj
 0003:00001020       ??_R0?AVbad_exception@std@@@8 1001c020     LIBCMT:frame.obj
 0003:00001054       __aenvptr                  1001c054     LIBCMT:dllcrt0.obj
 0003:00001058       __wenvptr                  1001c058     LIBCMT:dllcrt0.obj
 0003:0000105c       ___error_mode              1001c05c     LIBCMT:dllcrt0.obj
 0003:00001060       ___app_type                1001c060     LIBCMT:dllcrt0.obj
 0003:00001394       ?_pnhHeap@@3P6AHI@ZA       1001c394     LIBCMT:handler.obj
 0003:00001398       __umaskval                 1001c398     LIBCMT:crt0dat.obj
 0003:0000139c       ___argc                    1001c39c     LIBCMT:crt0dat.obj
 0003:000013a0       ___argv                    1001c3a0     LIBCMT:crt0dat.obj
 0003:000013a4       ___wargv                   1001c3a4     LIBCMT:crt0dat.obj
 0003:000013a8       __environ                  1001c3a8     LIBCMT:crt0dat.obj
 0003:000013ac       ___initenv                 1001c3ac     LIBCMT:crt0dat.obj
 0003:000013b0       __wenviron                 1001c3b0     LIBCMT:crt0dat.obj
 0003:000013b4       ___winitenv                1001c3b4     LIBCMT:crt0dat.obj
 0003:000013b8       __pgmptr                   1001c3b8     LIBCMT:crt0dat.obj
 0003:000013bc       __wpgmptr                  1001c3bc     LIBCMT:crt0dat.obj
 0003:000013c0       __exitflag                 1001c3c0     LIBCMT:crt0dat.obj
 0003:000013c4       __C_Termination_Done       1001c3c4     LIBCMT:crt0dat.obj
 0003:000013c8       __C_Exit_Done              1001c3c8     LIBCMT:crt0dat.obj
 0003:000019f8       __crtheap                  1001c9f8     LIBCMT:heapinit.obj
 0003:000019fc       __newmode                  1001c9fc     LIBCMT:_newmode.obj
 0003:00001a00       ___pInvalidArgHandler      1001ca00     LIBCMT:invarg.obj
 0003:00001a08       ___mbulinfo                1001ca08     LIBCMT:mbctype.obj
 0003:00001a14       ___mbcodepage              1001ca14     LIBCMT:mbctype.obj
 0003:00001a18       ___ismbcodepage            1001ca18     LIBCMT:mbctype.obj
 0003:00001a1c       ___mblcid                  1001ca1c     LIBCMT:mbctype.obj
 0003:00001a20       _gpFlsAlloc                1001ca20     LIBCMT:tidtable.obj
 0003:00001a24       _gpFlsGetValue             1001ca24     LIBCMT:tidtable.obj
 0003:00001a28       _gpFlsSetValue             1001ca28     LIBCMT:tidtable.obj
 0003:00001a2c       _gpFlsFree                 1001ca2c     LIBCMT:tidtable.obj
 0003:00001a30       ___locale_changed          1001ca30     LIBCMT:setlocal.obj
 0003:00001a34       __maxwait                  1001ca34     LIBCMT:crtheap.obj
 0003:00001ca4       ?pArgList@UnDecorator@@0PAVReplicator@@A 1001cca4     LIBCMT:undname.obj
 0003:00001ca8       ?pZNameList@UnDecorator@@0PAVReplicator@@A 1001cca8     LIBCMT:undname.obj
 0003:00001cac       ?pTemplateArgList@UnDecorator@@0PAVReplicator@@A 1001ccac     LIBCMT:undname.obj
 0003:00001cb0       ?gName@UnDecorator@@0PBDB  1001ccb0     LIBCMT:undname.obj
 0003:00001cb4       ?name@UnDecorator@@0PBDB   1001ccb4     LIBCMT:undname.obj
 0003:00001cb8       ?outputString@UnDecorator@@0PADA 1001ccb8     LIBCMT:undname.obj
 0003:00001cbc       ?maxStringLength@UnDecorator@@0HA 1001ccbc     LIBCMT:undname.obj
 0003:00001cc0       ?disableFlags@UnDecorator@@0KA 1001ccc0     LIBCMT:undname.obj
 0003:00001cc4       ?m_pGetParameter@UnDecorator@@0P6APADJ@ZA 1001ccc4     LIBCMT:undname.obj
 0003:00001cc8       ?fExplicitTemplateParams@UnDecorator@@0_NA 1001ccc8     LIBCMT:undname.obj
 0003:00001cc9       ?fGetTemplateArgumentList@UnDecorator@@0_NA 1001ccc9     LIBCMT:undname.obj
 0003:00001ccc       ?__pInconsistency@@3P6AXXZA 1001cccc     LIBCMT:hooks.obj
 0003:00001ce8       ___pPurecall               1001cce8     LIBCMT:inithelp.obj
 0003:00001d00       ___lconv_static_null       1001cd00     LIBCMT:lconv.obj
 0003:00001d04       ___lconv_static_W_null     1001cd04     LIBCMT:lconv.obj
 0003:00001d08       __cflush                   1001cd08     LIBCMT:_file.obj
 0003:00001d10       __stdbuf                   1001cd10     LIBCMT:_sftbuf.obj
 0003:00001d18       ?g_hDllHandle@@3PAUHINSTANCE__@@A 1001cd18     dllmain.obj
 0003:00001d1c       ___@@_PchSym_@00@UdlipUxkkslowUlyhvieviUlyqUivovzhvRfmrxlwvRDUlyhvieviUhgwzucOlyq@ 1001cd1c     stdafx.obj
 0003:00004bf8       ___piob                    1001fbf8     <common>
 0003:00004c00       __bufin                    1001fc00     <common>
 0003:00005c00       __nstream                  10020c00     <common>
 0003:00005c04       __debugger_hook_dummy      10020c04     <common>
 0003:00005c08       __nhandle                  10020c08     <common>
 0003:00005c20       ___pioinfo                 10020c20     <common>
 0003:00005d20       ___env_initialized         10020d20     <common>
 0003:00005d24       ___onexitend               10020d24     <common>
 0003:00005d28       ___onexitbegin             10020d28     <common>
 0003:00005d2c       ___mbctype_initialized     10020d2c     <common>
 0003:00005d30       __FPinit                   10020d30     <common>
 0003:00005d34       ___dyn_tls_init_callback   10020d34     <common>
 0003:00005d38       ___sse2_available          10020d38     <common>
 0003:00005d3c       __acmdln                   10020d3c     <common>

 entry point at        0001:0000bab4

 Static symbols

 0001:00000f08       __catch$?_Copy@?$basic_string@_WU?$char_traits@_W@std@@V?$allocator@_W@2@@std@@QAEXII@Z$0 10001f08 f i  CIL library: CIL module
 0001:00000f8f       __catch$?_Copy@?$basic_string@_WU?$char_traits@_W@std@@V?$allocator@_W@2@@std@@QAEXII@Z$1 10001f8f f i  CIL library: CIL module
 0001:000022a7       __catch$?reserve@?$vector@UConfigItem@@V?$allocator@UConfigItem@@@std@@@std@@QAEXI@Z$0 100032a7 f i  CIL library: CIL module
 0001:00002470       __catch$?reserve@?$vector@V?$basic_string@_WU?$char_traits@_W@std@@V?$allocator@_W@2@@std@@V?$allocator@V?$basic_string@_WU?$char_traits@_W@std@@V?$allocator@_W@2@@std@@@2@@std@@QAEXI@Z$0 10003470 f i  CIL library: CIL module
 0001:00002fcc       __catch$??$_Buynode@U?$pair@$$CBV?$basic_string@_WU?$char_traits@_W@std@@V?$allocator@_W@2@@std@@PAVConfigSection@@@std@@@?$_Tree_val@V?$_Tmap_traits@V?$basic_string@_WU?$char_traits@_W@std@@V?$allocator@_W@2@@std@@PAVConfigSection@@U?$less@V?$basic_string@_WU?$char_traits@_W@std@@V?$allocator@_W@2@@std@@@2@V?$allocator@U?$pair@$$CBV?$basic_string@_WU?$char_traits@_W@std@@V?$allocator@_W@2@@std@@PAVConfigSection@@@std@@@2@$0A@@std@@@std@@QAEPAU_Node@?$_Tree_nod@V?$_Tmap_traits@V?$basic_string@_WU?$char_traits@_W@std@@V?$allocator@_W@2@@std@@PAVConfigSection@@U?$less@V?$basic_string@_WU?$char_traits@_W@std@@V?$allocator@_W@2@@std@@@2@V?$allocator@U?$pair@$$CBV?$basic_string@_WU?$char_traits@_W@std@@V?$allocator@_W@2@@std@@PAVConfigSection@@@std@@@2@$0A@@std@@@1@$$QAU?$pair@$$CBV?$basic_string@_WU?$char_traits@_W@std@@V?$allocator@_W@2@@std@@PAVConfigSection@@@1@@Z$0 10003fcc f i  CIL library: CIL module
 0001:000031c4       __catch$??$_Uninit_move@PAUConfigItem@@PAU1@V?$allocator@UConfigItem@@@std@@U1@@std@@YAPAUConfigItem@@PAU1@00AAV?$allocator@UConfigItem@@@0@0U_Nonscalar_ptr_iterator_tag@0@@Z$0 100041c4 f i  CIL library: CIL module
 0001:00004645       __catch$??$_Buynode@U?$pair@V?$basic_string@_WU?$char_traits@_W@std@@V?$allocator@_W@2@@std@@PAVContentTreeNode@@@std@@@?$_Tree_val@V?$_Tmap_traits@V?$basic_string@_WU?$char_traits@_W@std@@V?$allocator@_W@2@@std@@PAVContentTreeNode@@U?$less@V?$basic_string@_WU?$char_traits@_W@std@@V?$allocator@_W@2@@std@@@2@V?$allocator@U?$pair@$$CBV?$basic_string@_WU?$char_traits@_W@std@@V?$allocator@_W@2@@std@@PAVContentTreeNode@@@std@@@2@$0A@@std@@@std@@QAEPAU_Node@?$_Tree_nod@V?$_Tmap_traits@V?$basic_string@_WU?$char_traits@_W@std@@V?$allocator@_W@2@@std@@PAVContentTreeNode@@U?$less@V?$basic_string@_WU?$char_traits@_W@std@@V?$allocator@_W@2@@std@@@2@V?$allocator@U?$pair@$$CBV?$basic_string@_WU?$char_traits@_W@std@@V?$allocator@_W@2@@std@@PAVContentTreeNode@@@std@@@2@$0A@@std@@@1@$$QAU?$pair@V?$basic_string@_WU?$char_traits@_W@std@@V?$allocator@_W@2@@std@@PAVContentTreeNode@@@1@@Z$0 10005645 f i  CIL library: CIL module
 0001:00004e60       ?DoesExtensionFilterMatch@@YA_NPB_WABV?$vector@V?$basic_string@_WU?$char_traits@_W@std@@V?$allocator@_W@2@@std@@V?$allocator@V?$basic_string@_WU?$char_traits@_W@std@@V?$allocator@_W@2@@std@@@2@@std@@@Z 10005e60 f    CIL library: CIL module
 0001:00004ee0       ?ParseExtensionList@@YAXPB_WAAUExternalModule@@@Z 10005ee0 f    CIL library: CIL module
 0001:00005a63       __catch$?reserve@?$vector@UExternalModule@@V?$allocator@UExternalModule@@@std@@@std@@QAEXI@Z$0 10006a63 f i  CIL library: CIL module
 0001:00005da0       __catch$??0?$vector@V?$basic_string@_WU?$char_traits@_W@std@@V?$allocator@_W@2@@std@@V?$allocator@V?$basic_string@_WU?$char_traits@_W@std@@V?$allocator@_W@2@@std@@@2@@std@@QAE@ABV01@@Z$0 10006da0 f i  CIL library: CIL module
 0001:00005feb       __catch$??$_Uninit_move@PAUExternalModule@@PAU1@V?$allocator@UExternalModule@@@std@@U1@@std@@YAPAUExternalModule@@PAU1@00AAV?$allocator@UExternalModule@@@0@0U_Nonscalar_ptr_iterator_tag@0@@Z$0 10006feb f i  CIL library: CIL module
 0001:000060c8       __catch$??$_Uninit_copy@V?$_Vector_const_iterator@V?$_Vector_val@V?$basic_string@_WU?$char_traits@_W@std@@V?$allocator@_W@2@@std@@V?$allocator@V?$basic_string@_WU?$char_traits@_W@std@@V?$allocator@_W@2@@std@@@2@@std@@@std@@PAV?$basic_string@_WU?$char_traits@_W@std@@V?$allocator@_W@2@@2@V?$allocator@V?$basic_string@_WU?$char_traits@_W@std@@V?$allocator@_W@2@@std@@@2@@std@@YAPAV?$basic_string@_WU?$char_traits@_W@std@@V?$allocator@_W@2@@0@V?$_Vector_const_iterator@V?$_Vector_val@V?$basic_string@_WU?$char_traits@_W@std@@V?$allocator@_W@2@@std@@V?$allocator@V?$basic_string@_WU?$char_traits@_W@std@@V?$allocator@_W@2@@std@@@2@@std@@@0@0PAV10@AAV?$allocator@V?$basic_string@_WU?$char_traits@_W@std@@V?$allocator@_W@2@@std@@@0@U_Nonscalar_ptr_iterator_tag@0@@Z$0 100070c8 f i  CIL library: CIL module
 0001:0000616e       __catch$??$_Uninit_copy@PAV?$basic_string@_WU?$char_traits@_W@std@@V?$allocator@_W@2@@std@@PAV12@V?$allocator@V?$basic_string@_WU?$char_traits@_W@std@@V?$allocator@_W@2@@std@@@2@@std@@YAPAV?$basic_string@_WU?$char_traits@_W@std@@V?$allocator@_W@2@@0@PAV10@00AAV?$allocator@V?$basic_string@_WU?$char_traits@_W@std@@V?$allocator@_W@2@@std@@@0@U_Nonscalar_ptr_iterator_tag@0@@Z$0 1000716e f i  CIL library: CIL module
 0001:00006a70       ?LoadSettings@@YAXPAVConfig@@@Z 10007a70 f    CIL library: CIL module
 0001:00006cc0       ?SaveSettings@@YAXXZ       10007cc0 f    CIL library: CIL module
 0001:00006e80       ?InsertCommas@@YAXPA_W@Z   10007e80 f    CIL library: CIL module
 0001:00006f10       ?ResolveFullPath@@YA?AV?$basic_string@_WU?$char_traits@_W@std@@V?$allocator@_W@2@@std@@PB_W@Z 10007f10 f    CIL library: CIL module
 0001:00007000       ?SelectModuleToOpenFileAs@@YAHXZ 10008000 f    CIL library: CIL module
 0001:000070d0       ?StoragePasswordQuery@@YA_NPADI@Z 100080d0 f    CIL library: CIL module
 0001:000071a0       ?AnalizeStorage@@YA_NPB_W_N@Z 100081a0 f    CIL library: CIL module
 0001:00007290       ?OpenStorage@@YAPAXPB_W_NH@Z 10008290 f    CIL library: CIL module
 0001:000074b0       ?GetSelectedPanelFilePath@@YA_NAAV?$basic_string@_WU?$char_traits@_W@std@@V?$allocator@_W@2@@std@@@Z 100084b0 f    CIL library: CIL module
 0001:00007630       ?ExtractProgress@@YGHPAX_J@Z 10008630 f    CIL library: CIL module
 0001:00007800       ?ExtractStart@@YGHPBVContentTreeNode@@PAUProgressContext@@AAPAX@Z 10008800 f    CIL library: CIL module
 0001:00007910       ?ExtractError@@YAHHPAX@Z   10008910 f    CIL library: CIL module
 0001:000079e0       ?AskExtractOverwrite@@YA_NAAHPBU_WIN32_FIND_DATAW@@PBVContentTreeNode@@@Z 100089e0 f    CIL library: CIL module
 0001:00007be0       ?ExtractStorageItem@@YAHPAVStorageObject@@PBVContentTreeNode@@PB_W_NAAHAA_NPAX@Z 10008be0 f    CIL library: CIL module
 0001:00007f60       ?ItemSortPred@@YA_NPAVContentTreeNode@@0@Z 10008f60 f    CIL library: CIL module
 0001:0000af99       ?wcstoxl@@YAKPB_WPAPB_WHH@Z 1000bf99 f   LIBCMT:wcstol.obj
 0001:0000b428       __onexit_nolock            1000c428 f   LIBCMT:onexit.obj
 0001:0000b5a2       _xtow_s@20                 1000c5a2 f   LIBCMT:xtows.obj
 0001:0000b69b       @x64tow_s@24               1000c69b f   LIBCMT:xtows.obj
 0001:0000b9be       ___DllMainCRTStartup       1000c9be f   LIBCMT:dllcrt0.obj
 0001:0000c0a5       _doexit                    1000d0a5 f   LIBCMT:crt0dat.obj
 0001:0000c602       ?CPtoLCID@@YAHH@Z          1000d602 f   LIBCMT:mbctype.obj
 0001:0000c631       ?setSBCS@@YAXPAUthreadmbcinfostruct@@@Z 1000d631 f   LIBCMT:mbctype.obj
 0001:0000c695       ?setSBUpLow@@YAXPAUthreadmbcinfostruct@@@Z 1000d695 f   LIBCMT:mbctype.obj
 0001:0000c8c9       ?getSystemCP@@YAHH@Z       1000d8c9 f   LIBCMT:mbctype.obj
 0001:0000e189       _parse_cmdline             1000f189 f   LIBCMT:stdargv.obj
 0001:0000e910       __unwind_handler4          1000f910 f   LIBCMT:exsup4.obj
 0001:0000ea85       _siglookup                 1000fa85 f   LIBCMT:winsig.obj
 0001:0000f04a       ?__crtLCMapStringA_stat@@YAHPAUlocaleinfo_struct@@KKPBDHPADHHH@Z 1001004a f   LIBCMT:a_map.obj
 0001:0000f277       ?__crtGetStringTypeA_stat@@YAHPAUlocaleinfo_struct@@KPBDHPAGHHH@Z 10010277 f   LIBCMT:a_str.obj
 0001:00010b52       _write_char                10011b52 f   LIBCMT:woutputs.obj
 0001:00010b81       _write_string              10011b81 f   LIBCMT:woutputs.obj
 0001:00011855       ?x_ismbbtype_l@@YAHPAUlocaleinfo_struct@@IHH@Z 10012855 f   LIBCMT:ismbbyte.obj
 0001:000118e0       __unwind_handler           100128e0 f   LIBCMT:exsup.obj
 0001:00011e97       _flsall                    10012e97 f   LIBCMT:fflush.obj
 0001:0001274f       ?CatchGuardHandler@@YA?AW4_EXCEPTION_DISPOSITION@@PAUEHExceptionRecord@@PAUCatchGuardRN@@PAX2@Z 1001374f f   LIBCMT:_trnsctrl_.obj
 0001:00012859       ?TranslatorGuardHandler@@YA?AW4_EXCEPTION_DISPOSITION@@PAUEHExceptionRecord@@PAUTranslatorGuardRN@@PAX2@Z 10013859 f   LIBCMT:_trnsctrl_.obj
 0001:00012cd6       ?ExFilterRethrow@@YAHPAU_EXCEPTION_POINTERS@@@Z 10013cd6 f   LIBCMT:frame.obj
 0001:00012d99       ?IsInExceptionSpec@@YAEPAUEHExceptionRecord@@PBU_s_ESTypeList@@@Z 10013d99 f   LIBCMT:frame.obj
 0001:00012e0f       ?CallUnexpected@@YAXPBU_s_ESTypeList@@@Z 10013e0f f   LIBCMT:frame.obj
 0001:00012e40       __catch$?CallUnexpected@@YAXPBU_s_ESTypeList@@@Z$0 10013e40 f   LIBCMT:frame.obj
 0001:00012e58       ?CallCatchBlock@@YAPAXPAUEHExceptionRecord@@PAUEHRegistrationNode@@PAU_CONTEXT@@PBU_s_FuncInfo@@PAXHK@Z 10013e58 f   LIBCMT:frame.obj
 0001:00013205       ?CatchIt@@YAXPAUEHExceptionRecord@@PAUEHRegistrationNode@@PAU_CONTEXT@@PAXPBU_s_FuncInfo@@PBU_s_HandlerType@@PBU_s_CatchableType@@PBU_s_TryBlockMapEntry@@H1E@Z 10014205 f   LIBCMT:frame.obj
 0001:00013273       ?FindHandlerForForeignException@@YAXPAUEHExceptionRecord@@PAUEHRegistrationNode@@PAU_CONTEXT@@PAXPBU_s_FuncInfo@@HH1@Z 10014273 f   LIBCMT:frame.obj
 0001:0001337a       ?FindHandler@@YAXPAUEHExceptionRecord@@PAUEHRegistrationNode@@PAU_CONTEXT@@PAXPBU_s_FuncInfo@@EH1@Z 1001437a f   LIBCMT:frame.obj
 0001:000138a0       __unwindfunclet$??1PluginDialogBuilder@@UAE@XZ$0 100148a0 f    CIL library: CIL module
 0001:000138a8       __ehhandler$??1PluginDialogBuilder@@UAE@XZ 100148a8 f    CIL library: CIL module
 0001:000138d0       __unwindfunclet$??_GPluginDialogBuilder@@UAEPAXI@Z$0 100148d0 f    CIL library: CIL module
 0001:000138d8       __ehhandler$??_GPluginDialogBuilder@@UAEPAXI@Z 100148d8 f    CIL library: CIL module
 0001:00013900       __unwindfunclet$??0PluginDialogBuilder@@QAE@ABUPluginStartupInfo@@ABU_GUID@@1PB_W2P6GHPAXHH3@Z3@Z$0 10014900 f    CIL library: CIL module
 0001:00013908       __ehhandler$??0PluginDialogBuilder@@QAE@ABUPluginStartupInfo@@ABU_GUID@@1PB_W2P6GHPAXHH3@Z3@Z 10014908 f    CIL library: CIL module
 0001:00013930       __unwindfunclet$??0PluginIntEditFieldBinding@@QAE@ABUPluginStartupInfo@@PAPAXHPAHH@Z$0 10014930 f    CIL library: CIL module
 0001:00013938       __ehhandler$??0PluginIntEditFieldBinding@@QAE@ABUPluginStartupInfo@@PAPAXHPAHH@Z 10014938 f    CIL library: CIL module
 0001:00013960       __unwindfunclet$?SaveSettings@@YAXXZ$0 10014960 f    CIL library: CIL module
 0001:00013968       __ehhandler$?SaveSettings@@YAXXZ 10014968 f    CIL library: CIL module
 0001:00013990       __unwindfunclet$?AddIntEditField@PluginDialogBuilder@@UAEPAUFarDialogItem@@PAHH@Z$0 10014990 f    CIL library: CIL module
 0001:0001399b       __ehhandler$?AddIntEditField@PluginDialogBuilder@@UAEPAUFarDialogItem@@PAHH@Z 1001499b f    CIL library: CIL module
 0001:000139c0       __ehhandler$?_Copy@?$basic_string@_WU?$char_traits@_W@std@@V?$allocator@_W@2@@std@@QAEXII@Z 100149c0 f    CIL library: CIL module
 0001:000139e0       __unwindfunclet$??1?$map@V?$basic_string@_WU?$char_traits@_W@std@@V?$allocator@_W@2@@std@@PAVContentTreeNode@@U?$less@V?$basic_string@_WU?$char_traits@_W@std@@V?$allocator@_W@2@@std@@@2@V?$allocator@U?$pair@$$CBV?$basic_string@_WU?$char_traits@_W@std@@V?$allocator@_W@2@@std@@PAVContentTreeNode@@@std@@@2@@std@@QAE@XZ$1 100149e0 f    CIL library: CIL module
 0001:000139e0       __unwindfunclet$??1?$map@V?$basic_string@_WU?$char_traits@_W@std@@V?$allocator@_W@2@@std@@PAVConfigSection@@U?$less@V?$basic_string@_WU?$char_traits@_W@std@@V?$allocator@_W@2@@std@@@2@V?$allocator@U?$pair@$$CBV?$basic_string@_WU?$char_traits@_W@std@@V?$allocator@_W@2@@std@@PAVConfigSection@@@std@@@2@@std@@QAE@XZ$1 100149e0 f    CIL library: CIL module
 0001:000139e8       __ehhandler$??1?$map@V?$basic_string@_WU?$char_traits@_W@std@@V?$allocator@_W@2@@std@@PAVConfigSection@@U?$less@V?$basic_string@_WU?$char_traits@_W@std@@V?$allocator@_W@2@@std@@@2@V?$allocator@U?$pair@$$CBV?$basic_string@_WU?$char_traits@_W@std@@V?$allocator@_W@2@@std@@PAVConfigSection@@@std@@@2@@std@@QAE@XZ 100149e8 f    CIL library: CIL module
 0001:000139e8       __ehhandler$??1?$map@V?$basic_string@_WU?$char_traits@_W@std@@V?$allocator@_W@2@@std@@PAVContentTreeNode@@U?$less@V?$basic_string@_WU?$char_traits@_W@std@@V?$allocator@_W@2@@std@@@2@V?$allocator@U?$pair@$$CBV?$basic_string@_WU?$char_traits@_W@std@@V?$allocator@_W@2@@std@@PAVContentTreeNode@@@std@@@2@@std@@QAE@XZ 100149e8 f    CIL library: CIL module
 0001:00013a10       __unwindfunclet$?GetDirectoryName@@YA?AV?$basic_string@_WU?$char_traits@_W@std@@V?$allocator@_W@2@@std@@ABV12@_N@Z$0 10014a10 f    CIL library: CIL module
 0001:00013a29       __unwindfunclet$?GetDirectoryName@@YA?AV?$basic_string@_WU?$char_traits@_W@std@@V?$allocator@_W@2@@std@@ABV12@_N@Z$1 10014a29 f    CIL library: CIL module
 0001:00013a31       __ehhandler$?GetDirectoryName@@YA?AV?$basic_string@_WU?$char_traits@_W@std@@V?$allocator@_W@2@@std@@ABV12@_N@Z 10014a31 f    CIL library: CIL module
 0001:00013a60       __unwindfunclet$??$_Buynode@U?$pair@V?$basic_string@_WU?$char_traits@_W@std@@V?$allocator@_W@2@@std@@PAVContentTreeNode@@@std@@@?$_Tree_val@V?$_Tmap_traits@V?$basic_string@_WU?$char_traits@_W@std@@V?$allocator@_W@2@@std@@PAVContentTreeNode@@U?$less@V?$basic_string@_WU?$char_traits@_W@std@@V?$allocator@_W@2@@std@@@2@V?$allocator@U?$pair@$$CBV?$basic_string@_WU?$char_traits@_W@std@@V?$allocator@_W@2@@std@@PAVContentTreeNode@@@std@@@2@$0A@@std@@@std@@QAEPAU_Node@?$_Tree_nod@V?$_Tmap_traits@V?$basic_string@_WU?$char_traits@_W@std@@V?$allocator@_W@2@@std@@PAVContentTreeNode@@U?$less@V?$basic_string@_WU?$char_traits@_W@std@@V?$allocator@_W@2@@std@@@2@V?$allocator@U?$pair@$$CBV?$basic_string@_WU?$char_traits@_W@std@@V?$allocator@_W@2@@std@@PAVContentTreeNode@@@std@@@2@$0A@@std@@@1@$$QAU?$pair@V?$basic_string@_WU?$char_traits@_W@std@@V?$allocator@_W@2@@std@@PAVContentTreeNode@@@1@@Z$2 10014a60 f    CIL library: CIL module
 0001:00013a65       __ehhandler$??$_Buynode@U?$pair@V?$basic_string@_WU?$char_traits@_W@std@@V?$allocator@_W@2@@std@@PAVContentTreeNode@@@std@@@?$_Tree_val@V?$_Tmap_traits@V?$basic_string@_WU?$char_traits@_W@std@@V?$allocator@_W@2@@std@@PAVContentTreeNode@@U?$less@V?$basic_string@_WU?$char_traits@_W@std@@V?$allocator@_W@2@@std@@@2@V?$allocator@U?$pair@$$CBV?$basic_string@_WU?$char_traits@_W@std@@V?$allocator@_W@2@@std@@PAVContentTreeNode@@@std@@@2@$0A@@std@@@std@@QAEPAU_Node@?$_Tree_nod@V?$_Tmap_traits@V?$basic_string@_WU?$char_traits@_W@std@@V?$allocator@_W@2@@std@@PAVContentTreeNode@@U?$less@V?$basic_string@_WU?$char_traits@_W@std@@V?$allocator@_W@2@@std@@@2@V?$allocator@U?$pair@$$CBV?$basic_string@_WU?$char_traits@_W@std@@V?$allocator@_W@2@@std@@PAVContentTreeNode@@@std@@@2@$0A@@std@@@1@$$QAU?$pair@V?$basic_string@_WU?$char_traits@_W@std@@V?$allocator@_W@2@@std@@PAVContentTreeNode@@@1@@Z 10014a65 f    CIL library: CIL module
 0001:00013a80       __unwindfunclet$??1ContentTreeNode@@QAE@XZ$0 10014a80 f    CIL library: CIL module
 0001:00013a88       __unwindfunclet$??1ContentTreeNode@@QAE@XZ$1 10014a88 f    CIL library: CIL module
 0001:00013a93       __unwindfunclet$??1ContentTreeNode@@QAE@XZ$2 10014a93 f    CIL library: CIL module
 0001:00013aa0       __unwindfunclet$??1ContentTreeNode@@QAE@XZ$3 10014aa0 f    CIL library: CIL module
 0001:00013aad       __unwindfunclet$??1ContentTreeNode@@QAE@XZ$5 10014aad f    CIL library: CIL module
 0001:00013ab5       __unwindfunclet$??1ContentTreeNode@@QAE@XZ$7 10014ab5 f    CIL library: CIL module
 0001:00013abd       __ehhandler$??1ContentTreeNode@@QAE@XZ 10014abd f    CIL library: CIL module
 0001:00013ae0       __unwindfunclet$??$_Buynode@U?$pair@$$CBV?$basic_string@_WU?$char_traits@_W@std@@V?$allocator@_W@2@@std@@PAVConfigSection@@@std@@@?$_Tree_val@V?$_Tmap_traits@V?$basic_string@_WU?$char_traits@_W@std@@V?$allocator@_W@2@@std@@PAVConfigSection@@U?$less@V?$basic_string@_WU?$char_traits@_W@std@@V?$allocator@_W@2@@std@@@2@V?$allocator@U?$pair@$$CBV?$basic_string@_WU?$char_traits@_W@std@@V?$allocator@_W@2@@std@@PAVConfigSection@@@std@@@2@$0A@@std@@@std@@QAEPAU_Node@?$_Tree_nod@V?$_Tmap_traits@V?$basic_string@_WU?$char_traits@_W@std@@V?$allocator@_W@2@@std@@PAVConfigSection@@U?$less@V?$basic_string@_WU?$char_traits@_W@std@@V?$allocator@_W@2@@std@@@2@V?$allocator@U?$pair@$$CBV?$basic_string@_WU?$char_traits@_W@std@@V?$allocator@_W@2@@std@@PAVConfigSection@@@std@@@2@$0A@@std@@@1@$$QAU?$pair@$$CBV?$basic_string@_WU?$char_traits@_W@std@@V?$allocator@_W@2@@std@@PAVConfigSection@@@1@@Z$2 10014ae0 f    CIL library: CIL module
 0001:00013ae5       __ehhandler$??$_Buynode@U?$pair@$$CBV?$basic_string@_WU?$char_traits@_W@std@@V?$allocator@_W@2@@std@@PAVConfigSection@@@std@@@?$_Tree_val@V?$_Tmap_traits@V?$basic_string@_WU?$char_traits@_W@std@@V?$allocator@_W@2@@std@@PAVConfigSection@@U?$less@V?$basic_string@_WU?$char_traits@_W@std@@V?$allocator@_W@2@@std@@@2@V?$allocator@U?$pair@$$CBV?$basic_string@_WU?$char_traits@_W@std@@V?$allocator@_W@2@@std@@PAVConfigSection@@@std@@@2@$0A@@std@@@std@@QAEPAU_Node@?$_Tree_nod@V?$_Tmap_traits@V?$basic_string@_WU?$char_traits@_W@std@@V?$allocator@_W@2@@std@@PAVConfigSection@@U?$less@V?$basic_string@_WU?$char_traits@_W@std@@V?$allocator@_W@2@@std@@@2@V?$allocator@U?$pair@$$CBV?$basic_string@_WU?$char_traits@_W@std@@V?$allocator@_W@2@@std@@PAVConfigSection@@@std@@@2@$0A@@std@@@1@$$QAU?$pair@$$CBV?$basic_string@_WU?$char_traits@_W@std@@V?$allocator@_W@2@@std@@PAVConfigSection@@@1@@Z 10014ae5 f    CIL library: CIL module
 0001:00013b00       __unwindfunclet$??$_Uninit_copy@PAV?$basic_string@_WU?$char_traits@_W@std@@V?$allocator@_W@2@@std@@PAV12@V?$allocator@V?$basic_string@_WU?$char_traits@_W@std@@V?$allocator@_W@2@@std@@@2@@std@@YAPAV?$basic_string@_WU?$char_traits@_W@std@@V?$allocator@_W@2@@0@PAV10@00AAV?$allocator@V?$basic_string@_WU?$char_traits@_W@std@@V?$allocator@_W@2@@std@@@0@U_Nonscalar_ptr_iterator_tag@0@@Z$2 10014b00 f    CIL library: CIL module
 0001:00013b05       __ehhandler$??$_Uninit_copy@PAV?$basic_string@_WU?$char_traits@_W@std@@V?$allocator@_W@2@@std@@PAV12@V?$allocator@V?$basic_string@_WU?$char_traits@_W@std@@V?$allocator@_W@2@@std@@@2@@std@@YAPAV?$basic_string@_WU?$char_traits@_W@std@@V?$allocator@_W@2@@0@PAV10@00AAV?$allocator@V?$basic_string@_WU?$char_traits@_W@std@@V?$allocator@_W@2@@std@@@0@U_Nonscalar_ptr_iterator_tag@0@@Z 10014b05 f    CIL library: CIL module
 0001:00013b20       __unwindfunclet$??$_Uninit_copy@V?$_Vector_const_iterator@V?$_Vector_val@V?$basic_string@_WU?$char_traits@_W@std@@V?$allocator@_W@2@@std@@V?$allocator@V?$basic_string@_WU?$char_traits@_W@std@@V?$allocator@_W@2@@std@@@2@@std@@@std@@PAV?$basic_string@_WU?$char_traits@_W@std@@V?$allocator@_W@2@@2@V?$allocator@V?$basic_string@_WU?$char_traits@_W@std@@V?$allocator@_W@2@@std@@@2@@std@@YAPAV?$basic_string@_WU?$char_traits@_W@std@@V?$allocator@_W@2@@0@V?$_Vector_const_iterator@V?$_Vector_val@V?$basic_string@_WU?$char_traits@_W@std@@V?$allocator@_W@2@@std@@V?$allocator@V?$basic_string@_WU?$char_traits@_W@std@@V?$allocator@_W@2@@std@@@2@@std@@@0@0PAV10@AAV?$allocator@V?$basic_string@_WU?$char_traits@_W@std@@V?$allocator@_W@2@@std@@@0@U_Nonscalar_ptr_iterator_tag@0@@Z$2 10014b20 f    CIL library: CIL module
 0001:00013b25       __ehhandler$??$_Uninit_copy@V?$_Vector_const_iterator@V?$_Vector_val@V?$basic_string@_WU?$char_traits@_W@std@@V?$allocator@_W@2@@std@@V?$allocator@V?$basic_string@_WU?$char_traits@_W@std@@V?$allocator@_W@2@@std@@@2@@std@@@std@@PAV?$basic_string@_WU?$char_traits@_W@std@@V?$allocator@_W@2@@2@V?$allocator@V?$basic_string@_WU?$char_traits@_W@std@@V?$allocator@_W@2@@std@@@2@@std@@YAPAV?$basic_string@_WU?$char_traits@_W@std@@V?$allocator@_W@2@@0@V?$_Vector_const_iterator@V?$_Vector_val@V?$basic_string@_WU?$char_traits@_W@std@@V?$allocator@_W@2@@std@@V?$allocator@V?$basic_string@_WU?$char_traits@_W@std@@V?$allocator@_W@2@@std@@@2@@std@@@0@0PAV10@AAV?$allocator@V?$basic_string@_WU?$char_traits@_W@std@@V?$allocator@_W@2@@std@@@0@U_Nonscalar_ptr_iterator_tag@0@@Z 10014b25 f    CIL library: CIL module
 0001:00013b40       __ehhandler$??0?$vector@V?$basic_string@_WU?$char_traits@_W@std@@V?$allocator@_W@2@@std@@V?$allocator@V?$basic_string@_WU?$char_traits@_W@std@@V?$allocator@_W@2@@std@@@2@@std@@QAE@ABV01@@Z 10014b40 f    CIL library: CIL module
 0001:00013b60       __unwindfunclet$??0ExternalModule@@QAE@ABU0@@Z$0 10014b60 f    CIL library: CIL module
 0001:00013b6b       __unwindfunclet$??0ExternalModule@@QAE@ABU0@@Z$1 10014b6b f    CIL library: CIL module
 0001:00013b76       __ehhandler$??0ExternalModule@@QAE@ABU0@@Z 10014b76 f    CIL library: CIL module
 0001:00013ba0       __unwindfunclet$??$_Uninit_move@PAV?$basic_string@_WU?$char_traits@_W@std@@V?$allocator@_W@2@@std@@PAV12@V?$allocator@V?$basic_string@_WU?$char_traits@_W@std@@V?$allocator@_W@2@@std@@@2@V12@@std@@YAPAV?$basic_string@_WU?$char_traits@_W@std@@V?$allocator@_W@2@@0@PAV10@00AAV?$allocator@V?$basic_string@_WU?$char_traits@_W@std@@V?$allocator@_W@2@@std@@@0@0U_Nonscalar_ptr_iterator_tag@0@@Z$2 10014ba0 f    CIL library: CIL module
 0001:00013ba5       __ehhandler$??$_Uninit_move@PAV?$basic_string@_WU?$char_traits@_W@std@@V?$allocator@_W@2@@std@@PAV12@V?$allocator@V?$basic_string@_WU?$char_traits@_W@std@@V?$allocator@_W@2@@std@@@2@V12@@std@@YAPAV?$basic_string@_WU?$char_traits@_W@std@@V?$allocator@_W@2@@0@PAV10@00AAV?$allocator@V?$basic_string@_WU?$char_traits@_W@std@@V?$allocator@_W@2@@std@@@0@0U_Nonscalar_ptr_iterator_tag@0@@Z 10014ba5 f    CIL library: CIL module
 0001:00013bc0       __unwindfunclet$??$_Uninit_move@PAUConfigItem@@PAU1@V?$allocator@UConfigItem@@@std@@U1@@std@@YAPAUConfigItem@@PAU1@00AAV?$allocator@UConfigItem@@@0@0U_Nonscalar_ptr_iterator_tag@0@@Z$2 10014bc0 f    CIL library: CIL module
 0001:00013bc5       __unwindfunclet$??$_Uninit_move@PAUConfigItem@@PAU1@V?$allocator@UConfigItem@@@std@@U1@@std@@YAPAUConfigItem@@PAU1@00AAV?$allocator@UConfigItem@@@0@0U_Nonscalar_ptr_iterator_tag@0@@Z$3 10014bc5 f    CIL library: CIL module
 0001:00013bcd       __ehhandler$??$_Uninit_move@PAUConfigItem@@PAU1@V?$allocator@UConfigItem@@@std@@U1@@std@@YAPAUConfigItem@@PAU1@00AAV?$allocator@UConfigItem@@@0@0U_Nonscalar_ptr_iterator_tag@0@@Z 10014bcd f    CIL library: CIL module
 0001:00013bf0       __unwindfunclet$??$?H_WU?$char_traits@_W@std@@V?$allocator@_W@1@@std@@YA?AV?$basic_string@_WU?$char_traits@_W@std@@V?$allocator@_W@2@@0@ABV10@PB_W@Z$0 10014bf0 f    CIL library: CIL module
 0001:00013c09       __ehhandler$??$?H_WU?$char_traits@_W@std@@V?$allocator@_W@1@@std@@YA?AV?$basic_string@_WU?$char_traits@_W@std@@V?$allocator@_W@2@@0@ABV10@PB_W@Z 10014c09 f    CIL library: CIL module
 0001:00013c30       __ehhandler$?reserve@?$vector@V?$basic_string@_WU?$char_traits@_W@std@@V?$allocator@_W@2@@std@@V?$allocator@V?$basic_string@_WU?$char_traits@_W@std@@V?$allocator@_W@2@@std@@@2@@std@@QAEXI@Z 10014c30 f    CIL library: CIL module
 0001:00013c50       __ehhandler$?reserve@?$vector@UConfigItem@@V?$allocator@UConfigItem@@@std@@@std@@QAEXI@Z 10014c50 f    CIL library: CIL module
 0001:00013c70       __unwindfunclet$?push_back@?$vector@V?$basic_string@_WU?$char_traits@_W@std@@V?$allocator@_W@2@@std@@V?$allocator@V?$basic_string@_WU?$char_traits@_W@std@@V?$allocator@_W@2@@std@@@2@@std@@QAEXABV?$basic_string@_WU?$char_traits@_W@std@@V?$allocator@_W@2@@2@@Z$0 10014c70 f    CIL library: CIL module
 0001:00013c75       __unwindfunclet$?push_back@?$vector@V?$basic_string@_WU?$char_traits@_W@std@@V?$allocator@_W@2@@std@@V?$allocator@V?$basic_string@_WU?$char_traits@_W@std@@V?$allocator@_W@2@@std@@@2@@std@@QAEXABV?$basic_string@_WU?$char_traits@_W@std@@V?$allocator@_W@2@@2@@Z$1 10014c75 f    CIL library: CIL module
 0001:00013c7a       __ehhandler$?push_back@?$vector@V?$basic_string@_WU?$char_traits@_W@std@@V?$allocator@_W@2@@std@@V?$allocator@V?$basic_string@_WU?$char_traits@_W@std@@V?$allocator@_W@2@@std@@@2@@std@@QAEXABV?$basic_string@_WU?$char_traits@_W@std@@V?$allocator@_W@2@@2@@Z 10014c7a f    CIL library: CIL module
 0001:00013ca0       __unwindfunclet$??A?$map@V?$basic_string@_WU?$char_traits@_W@std@@V?$allocator@_W@2@@std@@PAVConfigSection@@U?$less@V?$basic_string@_WU?$char_traits@_W@std@@V?$allocator@_W@2@@std@@@2@V?$allocator@U?$pair@$$CBV?$basic_string@_WU?$char_traits@_W@std@@V?$allocator@_W@2@@std@@PAVConfigSection@@@std@@@2@@std@@QAEAAPAVConfigSection@@ABV?$basic_string@_WU?$char_traits@_W@std@@V?$allocator@_W@2@@1@@Z$0 10014ca0 f    CIL library: CIL module
 0001:00013ca8       __ehhandler$??A?$map@V?$basic_string@_WU?$char_traits@_W@std@@V?$allocator@_W@2@@std@@PAVConfigSection@@U?$less@V?$basic_string@_WU?$char_traits@_W@std@@V?$allocator@_W@2@@std@@@2@V?$allocator@U?$pair@$$CBV?$basic_string@_WU?$char_traits@_W@std@@V?$allocator@_W@2@@std@@PAVConfigSection@@@std@@@2@@std@@QAEAAPAVConfigSection@@ABV?$basic_string@_WU?$char_traits@_W@std@@V?$allocator@_W@2@@1@@Z 10014ca8 f    CIL library: CIL module
 0001:00013cd0       __unwindfunclet$?GetValue@ConfigSection@@QBE_NPB_WPA_WI@Z$0 10014cd0 f    CIL library: CIL module
 0001:00013cd8       __ehhandler$?GetValue@ConfigSection@@QBE_NPB_WPA_WI@Z 10014cd8 f    CIL library: CIL module
 0001:00013d00       __unwindfunclet$?GetValue@ConfigSection@@QBE_NPB_WAAH@Z$0 10014d00 f    CIL library: CIL module
 0001:00013d08       __ehhandler$?GetValue@ConfigSection@@QBE_NPB_WAAH@Z 10014d08 f    CIL library: CIL module
 0001:00013d30       __unwindfunclet$?ToString@ConfigItem@@QBE?AV?$basic_string@_WU?$char_traits@_W@std@@V?$allocator@_W@2@@std@@XZ$0 10014d30 f    CIL library: CIL module
 0001:00013d38       __ehhandler$?ToString@ConfigItem@@QBE?AV?$basic_string@_WU?$char_traits@_W@std@@V?$allocator@_W@2@@std@@XZ 10014d38 f    CIL library: CIL module
 0001:00013d60       __unwindfunclet$??$_Uninit_move@PAUExternalModule@@PAU1@V?$allocator@UExternalModule@@@std@@U1@@std@@YAPAUExternalModule@@PAU1@00AAV?$allocator@UExternalModule@@@0@0U_Nonscalar_ptr_iterator_tag@0@@Z$2 10014d60 f    CIL library: CIL module
 0001:00013d65       __ehhandler$??$_Uninit_move@PAUExternalModule@@PAU1@V?$allocator@UExternalModule@@@std@@U1@@std@@YAPAUExternalModule@@PAU1@00AAV?$allocator@UExternalModule@@@0@0U_Nonscalar_ptr_iterator_tag@0@@Z 10014d65 f    CIL library: CIL module
 0001:00013d80       __ehhandler$?reserve@?$vector@UExternalModule@@V?$allocator@UExternalModule@@@std@@@std@@QAEXI@Z 10014d80 f    CIL library: CIL module
 0001:00013da0       __unwindfunclet$?push_back@?$vector@UExternalModule@@V?$allocator@UExternalModule@@@std@@@std@@QAEXABUExternalModule@@@Z$0 10014da0 f    CIL library: CIL module
 0001:00013da5       __unwindfunclet$?push_back@?$vector@UExternalModule@@V?$allocator@UExternalModule@@@std@@@std@@QAEXABUExternalModule@@@Z$1 10014da5 f    CIL library: CIL module
 0001:00013daa       __ehhandler$?push_back@?$vector@UExternalModule@@V?$allocator@UExternalModule@@@std@@@std@@QAEXABUExternalModule@@@Z 10014daa f    CIL library: CIL module
 0001:00013dd0       __unwindfunclet$??1Config@@QAE@XZ$0 10014dd0 f    CIL library: CIL module
 0001:00013dda       __unwindfunclet$??1Config@@QAE@XZ$2 10014dda f    CIL library: CIL module
 0001:00013de2       __ehhandler$??1Config@@QAE@XZ 10014de2 f    CIL library: CIL module
 0001:00013e00       __unwindfunclet$?GetAll@ConfigSection@@QBE?AV?$basic_string@_WU?$char_traits@_W@std@@V?$allocator@_W@2@@std@@XZ$0 10014e00 f    CIL library: CIL module
 0001:00013e19       __unwindfunclet$?GetAll@ConfigSection@@QBE?AV?$basic_string@_WU?$char_traits@_W@std@@V?$allocator@_W@2@@std@@XZ$1 10014e19 f    CIL library: CIL module
 0001:00013e21       __ehhandler$?GetAll@ConfigSection@@QBE?AV?$basic_string@_WU?$char_traits@_W@std@@V?$allocator@_W@2@@std@@XZ 10014e21 f    CIL library: CIL module
 0001:00013e50       __unwindfunclet$?AddItem@ConfigSection@@QAEXPB_W0@Z$0 10014e50 f    CIL library: CIL module
 0001:00013e58       __unwindfunclet$?AddItem@ConfigSection@@QAEXPB_W0@Z$1 10014e58 f    CIL library: CIL module
 0001:00013e5d       __unwindfunclet$?AddItem@ConfigSection@@QAEXPB_W0@Z$2 10014e5d f    CIL library: CIL module
 0001:00013e65       __unwindfunclet$?AddItem@ConfigSection@@QAEXPB_W0@Z$4 10014e65 f    CIL library: CIL module
 0001:00013e6a       __unwindfunclet$?AddItem@ConfigSection@@QAEXPB_W0@Z$5 10014e6a f    CIL library: CIL module
 0001:00013e72       __ehhandler$?AddItem@ConfigSection@@QAEXPB_W0@Z 10014e72 f    CIL library: CIL module
 0001:00013ea0       __unwindfunclet$?GetFinalExtractionPath@@YA?AV?$basic_string@_WU?$char_traits@_W@std@@V?$allocator@_W@2@@std@@PBVStorageObject@@PBVContentTreeNode@@PB_WH@Z$0 10014ea0 f    CIL library: CIL module
 0001:00013eb9       __ehhandler$?GetFinalExtractionPath@@YA?AV?$basic_string@_WU?$char_traits@_W@std@@V?$allocator@_W@2@@std@@PBVStorageObject@@PBVContentTreeNode@@PB_WH@Z 10014eb9 f    CIL library: CIL module
 0001:00013ee0       __unwindfunclet$?ExtractStorageItem@@YAHPAVStorageObject@@PBVContentTreeNode@@PB_W_NAAHAA_NPAX@Z$0 10014ee0 f    CIL library: CIL module
 0001:00013ee8       __unwindfunclet$?ExtractStorageItem@@YAHPAVStorageObject@@PBVContentTreeNode@@PB_W_NAAHAA_NPAX@Z$1 10014ee8 f    CIL library: CIL module
 0001:00013ef0       __ehhandler$?ExtractStorageItem@@YAHPAVStorageObject@@PBVContentTreeNode@@PB_W_NAAHAA_NPAX@Z 10014ef0 f    CIL library: CIL module
 0001:00013f20       __unwindfunclet$?GetSelectedPanelFilePath@@YA_NAAV?$basic_string@_WU?$char_traits@_W@std@@V?$allocator@_W@2@@std@@@Z$0 10014f20 f    CIL library: CIL module
 0001:00013f28       __ehhandler$?GetSelectedPanelFilePath@@YA_NAAV?$basic_string@_WU?$char_traits@_W@std@@V?$allocator@_W@2@@std@@@Z 10014f28 f    CIL library: CIL module
 0001:00013f50       __unwindfunclet$?ResolveFullPath@@YA?AV?$basic_string@_WU?$char_traits@_W@std@@V?$allocator@_W@2@@std@@PB_W@Z$0 10014f50 f    CIL library: CIL module
 0001:00013f69       __ehhandler$?ResolveFullPath@@YA?AV?$basic_string@_WU?$char_traits@_W@std@@V?$allocator@_W@2@@std@@PB_W@Z 10014f69 f    CIL library: CIL module
 0001:00013f90       __unwindfunclet$??0ExtractSelectedParams@@QAE@PB_W@Z$0 10014f90 f    CIL library: CIL module
 0001:00013f98       __ehhandler$??0ExtractSelectedParams@@QAE@PB_W@Z 10014f98 f    CIL library: CIL module
 0001:00013fc0       __unwindfunclet$?ParseExtensionList@@YAXPB_WAAUExternalModule@@@Z$0 10014fc0 f    CIL library: CIL module
 0001:00013fc8       __ehhandler$?ParseExtensionList@@YAXPB_WAAUExternalModule@@@Z 10014fc8 f    CIL library: CIL module
 0001:00013ff0       __unwindfunclet$??0ExternalModule@@QAE@PB_W0@Z$0 10014ff0 f    CIL library: CIL module
 0001:00013ffb       __unwindfunclet$??0ExternalModule@@QAE@PB_W0@Z$1 10014ffb f    CIL library: CIL module
 0001:00014006       __ehhandler$??0ExternalModule@@QAE@PB_W0@Z 10015006 f    CIL library: CIL module
 0001:00014030       __unwindfunclet$?GetSection@Config@@QAEPAVConfigSection@@PB_W@Z$0 10015030 f    CIL library: CIL module
 0001:00014030       __unwindfunclet$?GetSubDir@ContentTreeNode@@AAEPAV1@PB_W@Z$0 10015030 f    CIL library: CIL module
 0001:00014038       __ehhandler$?GetSection@Config@@QAEPAVConfigSection@@PB_W@Z 10015038 f    CIL library: CIL module
 0001:00014038       __ehhandler$?GetSubDir@ContentTreeNode@@AAEPAV1@PB_W@Z 10015038 f    CIL library: CIL module
 0001:00014060       __unwindfunclet$??0ContentTreeNode@@QAE@HPAUStorageItemInfo@@@Z$0 10015060 f    CIL library: CIL module
 0001:00014068       __unwindfunclet$??0ContentTreeNode@@QAE@HPAUStorageItemInfo@@@Z$1 10015068 f    CIL library: CIL module
 0001:00014073       __unwindfunclet$??0ContentTreeNode@@QAE@HPAUStorageItemInfo@@@Z$2 10015073 f    CIL library: CIL module
 0001:00014080       __unwindfunclet$??0ContentTreeNode@@QAE@HPAUStorageItemInfo@@@Z$3 10015080 f    CIL library: CIL module
 0001:0001408d       __ehhandler$??0ContentTreeNode@@QAE@HPAUStorageItemInfo@@@Z 1001508d f    CIL library: CIL module
 0001:000140b0       __unwindfunclet$??0ContentTreeNode@@QAE@XZ$0 100150b0 f    CIL library: CIL module
 0001:000140bb       __unwindfunclet$??0ContentTreeNode@@QAE@XZ$1 100150bb f    CIL library: CIL module
 0001:000140c9       __unwindfunclet$??0ContentTreeNode@@QAE@XZ$2 100150c9 f    CIL library: CIL module
 0001:000140d9       __unwindfunclet$??0ContentTreeNode@@QAE@XZ$3 100150d9 f    CIL library: CIL module
 0001:000140e9       __ehhandler$??0ContentTreeNode@@QAE@XZ 100150e9 f    CIL library: CIL module
 0001:00014120       __unwindfunclet$?ConfirmExtract@@YA_NHHAAUExtractSelectedParams@@@Z$0 10015120 f    CIL library: CIL module
 0001:0001412d       __unwindfunclet$?ConfirmExtract@@YA_NHHAAUExtractSelectedParams@@@Z$1 1001512d f    CIL library: CIL module
 0001:00014138       __unwindfunclet$?ConfirmExtract@@YA_NHHAAUExtractSelectedParams@@@Z$2 10015138 f    CIL library: CIL module
 0001:00014143       __unwindfunclet$?ConfirmExtract@@YA_NHHAAUExtractSelectedParams@@@Z$3 10015143 f    CIL library: CIL module
 0001:0001414e       __ehhandler$?ConfirmExtract@@YA_NHHAAUExtractSelectedParams@@@Z 1001514e f    CIL library: CIL module
 0001:00014180       __unwindfunclet$?BatchExtract@@YAHPAVStorageObject@@AAV?$vector@PAVContentTreeNode@@V?$allocator@PAVContentTreeNode@@@std@@@std@@_J_NAAUExtractSelectedParams@@@Z$0 10015180 f    CIL library: CIL module
 0001:0001418b       __ehhandler$?BatchExtract@@YAHPAVStorageObject@@AAV?$vector@PAVContentTreeNode@@V?$allocator@PAVContentTreeNode@@@std@@@std@@_J_NAAUExtractSelectedParams@@@Z 1001518b f    CIL library: CIL module
 0001:000141c0       __unwindfunclet$?LoadSettings@@YAXPAVConfig@@@Z$0 100151c0 f    CIL library: CIL module
 0001:000141c8       __ehhandler$?LoadSettings@@YAXPAVConfig@@@Z 100151c8 f    CIL library: CIL module
 0001:000141f0       __unwindfunclet$?Init@ModulesController@@QAEHPB_WPAVConfig@@@Z$0 100151f0 f    CIL library: CIL module
 0001:000141fb       __unwindfunclet$?Init@ModulesController@@QAEHPB_WPAVConfig@@@Z$1 100151fb f    CIL library: CIL module
 0001:0001421d       __unwindfunclet$?Init@ModulesController@@QAEHPB_WPAVConfig@@@Z$2 1001521d f    CIL library: CIL module
 0001:0001423f       __unwindfunclet$?Init@ModulesController@@QAEHPB_WPAVConfig@@@Z$3 1001523f f    CIL library: CIL module
 0001:0001424a       __ehhandler$?Init@ModulesController@@QAEHPB_WPAVConfig@@@Z 1001524a f    CIL library: CIL module
 0001:00014280       __unwindfunclet$?Open@StorageObject@@QAEHPB_W_NH@Z$0 10015280 f    CIL library: CIL module
 0001:0001428e       __ehhandler$?Open@StorageObject@@QAEHPB_W_NH@Z 1001528e f    CIL library: CIL module
 0001:000142c0       __unwindfunclet$?AddFile@ContentTreeNode@@AAEXPAV1@@Z$0 100152c0 f    CIL library: CIL module
 0001:000142cb       __unwindfunclet$?AddFile@ContentTreeNode@@AAEXPAV1@@Z$1 100152cb f    CIL library: CIL module
 0001:000142d6       __unwindfunclet$?AddFile@ContentTreeNode@@AAEXPAV1@@Z$2 100152d6 f    CIL library: CIL module
 0001:000142e1       __ehhandler$?AddFile@ContentTreeNode@@AAEXPAV1@@Z 100152e1 f    CIL library: CIL module
 0001:00014310       __unwindfunclet$?GetChildByName@ContentTreeNode@@QAEPAV1@PB_W@Z$0 10015310 f    CIL library: CIL module
 0001:00014318       __ehhandler$?GetChildByName@ContentTreeNode@@QAEPAV1@PB_W@Z 10015318 f    CIL library: CIL module
 0001:00014340       __unwindfunclet$?insertDummyDirectory@ContentTreeNode@@AAEPAV1@PB_W@Z$0 10015340 f    CIL library: CIL module
 0001:0001434b       __unwindfunclet$?insertDummyDirectory@ContentTreeNode@@AAEPAV1@PB_W@Z$1 1001534b f    CIL library: CIL module
 0001:00014353       __ehhandler$?insertDummyDirectory@ContentTreeNode@@AAEPAV1@PB_W@Z 10015353 f    CIL library: CIL module
 0001:00014380       __unwindfunclet$?AddChild@ContentTreeNode@@QAE_NPA_WPAV1@@Z$0 10015380 f    CIL library: CIL module
 0001:00014388       __ehhandler$?AddChild@ContentTreeNode@@QAE_NPA_WPAV1@@Z 10015388 f    CIL library: CIL module
 0001:000143b0       __unwindfunclet$?AddSection@Config@@QAEPAVConfigSection@@PB_W@Z$0 100153b0 f    CIL library: CIL module
 0001:000143bb       __unwindfunclet$?AddSection@Config@@QAEPAVConfigSection@@PB_W@Z$1 100153bb f    CIL library: CIL module
 0001:000143c3       __ehhandler$?AddSection@Config@@QAEPAVConfigSection@@PB_W@Z 100153c3 f    CIL library: CIL module
 0001:000143f0       __unwindfunclet$?AnalizeStorage@@YA_NPB_W_N@Z$1 100153f0 f    CIL library: CIL module
 0001:000143fb       __ehhandler$?AnalizeStorage@@YA_NPB_W_N@Z 100153fb f    CIL library: CIL module
 0001:00014420       __unwindfunclet$?ReadFileList@StorageObject@@QAEHAA_N@Z$0 10015420 f    CIL library: CIL module
 0001:0001442e       __ehhandler$?ReadFileList@StorageObject@@QAEHAA_N@Z 1001542e f    CIL library: CIL module
 0001:00014460       __unwindfunclet$?OpenStorage@@YAPAXPB_W_NH@Z$1 10015460 f    CIL library: CIL module
 0001:0001446b       __unwindfunclet$?OpenStorage@@YAPAXPB_W_NH@Z$2 1001546b f    CIL library: CIL module
 0001:00014476       __ehhandler$?OpenStorage@@YAPAXPB_W_NH@Z 10015476 f    CIL library: CIL module
 0001:000144a0       __unwindfunclet$??__Fg_pController@@YAXXZ$0 100154a0 f    CIL library: CIL module
 0001:000144a5       __ehhandler$??__Fg_pController@@YAXXZ 100154a5 f    CIL library: CIL module
 0001:000144c0       __ehhandler$?CallUnexpected@@YAXPBU_s_ESTypeList@@@Z 100154c0 f   LIBCMT:frame.obj
 0001:000144e0       ??__Eg_pController@@YAXXZ  100154e0 f    CIL library: CIL module
 0001:000144f0       ??__Fg_pController@@YAXXZ  100154f0 f    CIL library: CIL module
 0001:00014567       ??__Fnomem@?5???2@YAPAXI@Z@YAXXZ 10015567 f   LIBCMT:new.obj
